; Listing generated by Microsoft (R) Optimizing Compiler Version 15.00.30729.01 

include listing.inc

INCLUDELIB OLDNAMES

PUBLIC	??0?$LightweightStack@UStackEntry@@@@QEAA@XZ	; LightweightStack<StackEntry>::LightweightStack<StackEntry>
PUBLIC	??1CriticalSection@@QEAA@XZ			; CriticalSection::~CriticalSection
PUBLIC	??1?$_Container_base_aux_alloc_real@V?$allocator@U?$pair@$$CB_KH@std@@@std@@@std@@IEAA@XZ ; std::_Container_base_aux_alloc_real<std::allocator<std::pair<unsigned __int64 const ,int> > >::~_Container_base_aux_alloc_real<std::allocator<std::pair<unsigned __int64 const ,int> > >
PUBLIC	??1?$_Tmap_traits@_KHU?$less@_K@std@@V?$allocator@U?$pair@$$CB_KH@std@@@2@$0A@@std@@QEAA@XZ ; std::_Tmap_traits<unsigned __int64,int,std::less<unsigned __int64>,std::allocator<std::pair<unsigned __int64 const ,int> >,0>::~_Tmap_traits<unsigned __int64,int,std::less<unsigned __int64>,std::allocator<std::pair<unsigned __int64 const ,int> >,0>
PUBLIC	??1?$_Tree_nod@V?$_Tmap_traits@_KHU?$less@_K@std@@V?$allocator@U?$pair@$$CB_KH@std@@@2@$0A@@std@@@std@@QEAA@XZ ; std::_Tree_nod<std::_Tmap_traits<unsigned __int64,int,std::less<unsigned __int64>,std::allocator<std::pair<unsigned __int64 const ,int> >,0> >::~_Tree_nod<std::_Tmap_traits<unsigned __int64,int,std::less<unsigned __int64>,std::allocator<std::pair<unsigned __int64 const ,int> >,0> >
PUBLIC	??1?$_Tree_ptr@V?$_Tmap_traits@_KHU?$less@_K@std@@V?$allocator@U?$pair@$$CB_KH@std@@@2@$0A@@std@@@std@@QEAA@XZ ; std::_Tree_ptr<std::_Tmap_traits<unsigned __int64,int,std::less<unsigned __int64>,std::allocator<std::pair<unsigned __int64 const ,int> >,0> >::~_Tree_ptr<std::_Tmap_traits<unsigned __int64,int,std::less<unsigned __int64>,std::allocator<std::pair<unsigned __int64 const ,int> >,0> >
PUBLIC	??1?$_Tree_val@V?$_Tmap_traits@_KHU?$less@_K@std@@V?$allocator@U?$pair@$$CB_KH@std@@@2@$0A@@std@@@std@@QEAA@XZ ; std::_Tree_val<std::_Tmap_traits<unsigned __int64,int,std::less<unsigned __int64>,std::allocator<std::pair<unsigned __int64 const ,int> >,0> >::~_Tree_val<std::_Tmap_traits<unsigned __int64,int,std::less<unsigned __int64>,std::allocator<std::pair<unsigned __int64 const ,int> >,0> >
PUBLIC	??$_Destroy@PEAU_Node@?$_Tree_nod@V?$_Tmap_traits@_KHU?$less@_K@std@@V?$allocator@U?$pair@$$CB_KH@std@@@2@$0A@@std@@@std@@@std@@YAXPEAPEAU_Node@?$_Tree_nod@V?$_Tmap_traits@_KHU?$less@_K@std@@V?$allocator@U?$pair@$$CB_KH@std@@@2@$0A@@std@@@0@@Z ; std::_Destroy<std::_Tree_nod<std::_Tmap_traits<unsigned __int64,int,std::less<unsigned __int64>,std::allocator<std::pair<unsigned __int64 const ,int> >,0> >::_Node * __ptr64>
PUBLIC	?destroy@?$allocator@PEAU_Node@?$_Tree_nod@V?$_Tmap_traits@_KHU?$less@_K@std@@V?$allocator@U?$pair@$$CB_KH@std@@@2@$0A@@std@@@std@@@std@@QEAAXPEAPEAU_Node@?$_Tree_nod@V?$_Tmap_traits@_KHU?$less@_K@std@@V?$allocator@U?$pair@$$CB_KH@std@@@2@$0A@@std@@@2@@Z ; std::allocator<std::_Tree_nod<std::_Tmap_traits<unsigned __int64,int,std::less<unsigned __int64>,std::allocator<std::pair<unsigned __int64 const ,int> >,0> >::_Node * __ptr64>::destroy
PUBLIC	?begin@?$_Tree@V?$_Tmap_traits@_KHU?$less@_K@std@@V?$allocator@U?$pair@$$CB_KH@std@@@2@$0A@@std@@@std@@QEAA?AViterator@12@XZ ; std::_Tree<std::_Tmap_traits<unsigned __int64,int,std::less<unsigned __int64>,std::allocator<std::pair<unsigned __int64 const ,int> >,0> >::begin
PUBLIC	?end@?$_Tree@V?$_Tmap_traits@_KHU?$less@_K@std@@V?$allocator@U?$pair@$$CB_KH@std@@@2@$0A@@std@@@std@@QEAA?AViterator@12@XZ ; std::_Tree<std::_Tmap_traits<unsigned __int64,int,std::less<unsigned __int64>,std::allocator<std::pair<unsigned __int64 const ,int> >,0> >::end
PUBLIC	?_Color@?$_Tree@V?$_Tmap_traits@_KHU?$less@_K@std@@V?$allocator@U?$pair@$$CB_KH@std@@@2@$0A@@std@@@std@@KAAEADPEAU_Node@?$_Tree_nod@V?$_Tmap_traits@_KHU?$less@_K@std@@V?$allocator@U?$pair@$$CB_KH@std@@@2@$0A@@std@@@2@@Z ; std::_Tree<std::_Tmap_traits<unsigned __int64,int,std::less<unsigned __int64>,std::allocator<std::pair<unsigned __int64 const ,int> >,0> >::_Color
PUBLIC	??0?$_Iterator_with_base@Ubidirectional_iterator_tag@std@@U?$pair@$$CB_KH@2@_JPEBU32@AEBU32@V_Iterator_base_aux@2@@std@@QEAA@XZ ; std::_Iterator_with_base<std::bidirectional_iterator_tag,std::pair<unsigned __int64 const ,int>,__int64,std::pair<unsigned __int64 const ,int> const * __ptr64,std::pair<unsigned __int64 const ,int> const & __ptr64,std::_Iterator_base_aux>::_Iterator_with_base<std::bidirectional_iterator_tag,std::pair<unsigned __int64 const ,int>,__int64,std::pair<unsigned __int64 const ,int> const * __ptr64,std::pair<unsigned __int64 const ,int> const & __ptr64,std::_Iterator_base_aux>
PUBLIC	??0?$_Bidit@U?$pair@$$CB_KH@std@@_JPEBU12@AEBU12@@std@@QEAA@XZ ; std::_Bidit<std::pair<unsigned __int64 const ,int>,__int64,std::pair<unsigned __int64 const ,int> const * __ptr64,std::pair<unsigned __int64 const ,int> const & __ptr64>::_Bidit<std::pair<unsigned __int64 const ,int>,__int64,std::pair<unsigned __int64 const ,int> const * __ptr64,std::pair<unsigned __int64 const ,int> const & __ptr64>
PUBLIC	??0const_iterator@?$_Tree@V?$_Tmap_traits@_KHU?$less@_K@std@@V?$allocator@U?$pair@$$CB_KH@std@@@2@$0A@@std@@@std@@QEAA@PEAU_Node@?$_Tree_nod@V?$_Tmap_traits@_KHU?$less@_K@std@@V?$allocator@U?$pair@$$CB_KH@std@@@2@$0A@@std@@@2@PEBV12@@Z ; std::_Tree<std::_Tmap_traits<unsigned __int64,int,std::less<unsigned __int64>,std::allocator<std::pair<unsigned __int64 const ,int> >,0> >::const_iterator::const_iterator
PUBLIC	??0iterator@?$_Tree@V?$_Tmap_traits@_KHU?$less@_K@std@@V?$allocator@U?$pair@$$CB_KH@std@@@2@$0A@@std@@@std@@QEAA@PEAU_Node@?$_Tree_nod@V?$_Tmap_traits@_KHU?$less@_K@std@@V?$allocator@U?$pair@$$CB_KH@std@@@2@$0A@@std@@@2@PEBV12@@Z ; std::_Tree<std::_Tmap_traits<unsigned __int64,int,std::less<unsigned __int64>,std::allocator<std::pair<unsigned __int64 const ,int> >,0> >::iterator::iterator
PUBLIC	?_Make_iter@?$_Tree@V?$_Tmap_traits@_KHU?$less@_K@std@@V?$allocator@U?$pair@$$CB_KH@std@@@2@$0A@@std@@@std@@QEBA?AViterator@12@Vconst_iterator@12@@Z ; std::_Tree<std::_Tmap_traits<unsigned __int64,int,std::less<unsigned __int64>,std::allocator<std::pair<unsigned __int64 const ,int> >,0> >::_Make_iter
PUBLIC	?_Lrotate@?$_Tree@V?$_Tmap_traits@_KHU?$less@_K@std@@V?$allocator@U?$pair@$$CB_KH@std@@@2@$0A@@std@@@std@@IEAAXPEAU_Node@?$_Tree_nod@V?$_Tmap_traits@_KHU?$less@_K@std@@V?$allocator@U?$pair@$$CB_KH@std@@@2@$0A@@std@@@2@@Z ; std::_Tree<std::_Tmap_traits<unsigned __int64,int,std::less<unsigned __int64>,std::allocator<std::pair<unsigned __int64 const ,int> >,0> >::_Lrotate
PUBLIC	?_Max@?$_Tree@V?$_Tmap_traits@_KHU?$less@_K@std@@V?$allocator@U?$pair@$$CB_KH@std@@@2@$0A@@std@@@std@@KAPEAU_Node@?$_Tree_nod@V?$_Tmap_traits@_KHU?$less@_K@std@@V?$allocator@U?$pair@$$CB_KH@std@@@2@$0A@@std@@@2@PEAU342@@Z ; std::_Tree<std::_Tmap_traits<unsigned __int64,int,std::less<unsigned __int64>,std::allocator<std::pair<unsigned __int64 const ,int> >,0> >::_Max
PUBLIC	?_Rrotate@?$_Tree@V?$_Tmap_traits@_KHU?$less@_K@std@@V?$allocator@U?$pair@$$CB_KH@std@@@2@$0A@@std@@@std@@IEAAXPEAU_Node@?$_Tree_nod@V?$_Tmap_traits@_KHU?$less@_K@std@@V?$allocator@U?$pair@$$CB_KH@std@@@2@$0A@@std@@@2@@Z ; std::_Tree<std::_Tmap_traits<unsigned __int64,int,std::less<unsigned __int64>,std::allocator<std::pair<unsigned __int64 const ,int> >,0> >::_Rrotate
PUBLIC	?_Mynode@const_iterator@?$_Tree@V?$_Tmap_traits@_KHU?$less@_K@std@@V?$allocator@U?$pair@$$CB_KH@std@@@2@$0A@@std@@@std@@QEBAPEAU_Node@?$_Tree_nod@V?$_Tmap_traits@_KHU?$less@_K@std@@V?$allocator@U?$pair@$$CB_KH@std@@@2@$0A@@std@@@3@XZ ; std::_Tree<std::_Tmap_traits<unsigned __int64,int,std::less<unsigned __int64>,std::allocator<std::pair<unsigned __int64 const ,int> >,0> >::const_iterator::_Mynode
PUBLIC	?erase@?$_Tree@V?$_Tmap_traits@_KHU?$less@_K@std@@V?$allocator@U?$pair@$$CB_KH@std@@@2@$0A@@std@@@std@@QEAA?AViterator@12@Vconst_iterator@12@@Z ; std::_Tree<std::_Tmap_traits<unsigned __int64,int,std::less<unsigned __int64>,std::allocator<std::pair<unsigned __int64 const ,int> >,0> >::erase
PUBLIC	?deallocate@?$allocator@U_Node@?$_Tree_nod@V?$_Tmap_traits@_KHU?$less@_K@std@@V?$allocator@U?$pair@$$CB_KH@std@@@2@$0A@@std@@@std@@@std@@QEAAXPEAU_Node@?$_Tree_nod@V?$_Tmap_traits@_KHU?$less@_K@std@@V?$allocator@U?$pair@$$CB_KH@std@@@2@$0A@@std@@@2@_K@Z ; std::allocator<std::_Tree_nod<std::_Tmap_traits<unsigned __int64,int,std::less<unsigned __int64>,std::allocator<std::pair<unsigned __int64 const ,int> >,0> >::_Node>::deallocate
PUBLIC	??$_Destroy@U_Node@?$_Tree_nod@V?$_Tmap_traits@_KHU?$less@_K@std@@V?$allocator@U?$pair@$$CB_KH@std@@@2@$0A@@std@@@std@@@std@@YAXPEAU_Node@?$_Tree_nod@V?$_Tmap_traits@_KHU?$less@_K@std@@V?$allocator@U?$pair@$$CB_KH@std@@@2@$0A@@std@@@0@@Z ; std::_Destroy<std::_Tree_nod<std::_Tmap_traits<unsigned __int64,int,std::less<unsigned __int64>,std::allocator<std::pair<unsigned __int64 const ,int> >,0> >::_Node>
PUBLIC	?destroy@?$allocator@U_Node@?$_Tree_nod@V?$_Tmap_traits@_KHU?$less@_K@std@@V?$allocator@U?$pair@$$CB_KH@std@@@2@$0A@@std@@@std@@@std@@QEAAXPEAU_Node@?$_Tree_nod@V?$_Tmap_traits@_KHU?$less@_K@std@@V?$allocator@U?$pair@$$CB_KH@std@@@2@$0A@@std@@@2@@Z ; std::allocator<std::_Tree_nod<std::_Tmap_traits<unsigned __int64,int,std::less<unsigned __int64>,std::allocator<std::pair<unsigned __int64 const ,int> >,0> >::_Node>::destroy
PUBLIC	?_Erase@?$_Tree@V?$_Tmap_traits@_KHU?$less@_K@std@@V?$allocator@U?$pair@$$CB_KH@std@@@2@$0A@@std@@@std@@IEAAXPEAU_Node@?$_Tree_nod@V?$_Tmap_traits@_KHU?$less@_K@std@@V?$allocator@U?$pair@$$CB_KH@std@@@2@$0A@@std@@@2@@Z ; std::_Tree<std::_Tmap_traits<unsigned __int64,int,std::less<unsigned __int64>,std::allocator<std::pair<unsigned __int64 const ,int> >,0> >::_Erase
PUBLIC	?_Lmost@?$_Tree@V?$_Tmap_traits@_KHU?$less@_K@std@@V?$allocator@U?$pair@$$CB_KH@std@@@2@$0A@@std@@@std@@IEBAAEAPEAU_Node@?$_Tree_nod@V?$_Tmap_traits@_KHU?$less@_K@std@@V?$allocator@U?$pair@$$CB_KH@std@@@2@$0A@@std@@@2@XZ ; std::_Tree<std::_Tmap_traits<unsigned __int64,int,std::less<unsigned __int64>,std::allocator<std::pair<unsigned __int64 const ,int> >,0> >::_Lmost
PUBLIC	?_Rmost@?$_Tree@V?$_Tmap_traits@_KHU?$less@_K@std@@V?$allocator@U?$pair@$$CB_KH@std@@@2@$0A@@std@@@std@@IEBAAEAPEAU_Node@?$_Tree_nod@V?$_Tmap_traits@_KHU?$less@_K@std@@V?$allocator@U?$pair@$$CB_KH@std@@@2@$0A@@std@@@2@XZ ; std::_Tree<std::_Tmap_traits<unsigned __int64,int,std::less<unsigned __int64>,std::allocator<std::pair<unsigned __int64 const ,int> >,0> >::_Rmost
PUBLIC	?_Root@?$_Tree@V?$_Tmap_traits@_KHU?$less@_K@std@@V?$allocator@U?$pair@$$CB_KH@std@@@2@$0A@@std@@@std@@IEBAAEAPEAU_Node@?$_Tree_nod@V?$_Tmap_traits@_KHU?$less@_K@std@@V?$allocator@U?$pair@$$CB_KH@std@@@2@$0A@@std@@@2@XZ ; std::_Tree<std::_Tmap_traits<unsigned __int64,int,std::less<unsigned __int64>,std::allocator<std::pair<unsigned __int64 const ,int> >,0> >::_Root
PUBLIC	?clear@?$_Tree@V?$_Tmap_traits@_KHU?$less@_K@std@@V?$allocator@U?$pair@$$CB_KH@std@@@2@$0A@@std@@@std@@QEAAXXZ ; std::_Tree<std::_Tmap_traits<unsigned __int64,int,std::less<unsigned __int64>,std::allocator<std::pair<unsigned __int64 const ,int> >,0> >::clear
PUBLIC	?_Parent@?$_Tree@V?$_Tmap_traits@_KHU?$less@_K@std@@V?$allocator@U?$pair@$$CB_KH@std@@@2@$0A@@std@@@std@@KAAEAPEAU_Node@?$_Tree_nod@V?$_Tmap_traits@_KHU?$less@_K@std@@V?$allocator@U?$pair@$$CB_KH@std@@@2@$0A@@std@@@2@PEAU342@@Z ; std::_Tree<std::_Tmap_traits<unsigned __int64,int,std::less<unsigned __int64>,std::allocator<std::pair<unsigned __int64 const ,int> >,0> >::_Parent
PUBLIC	?_Right@?$_Tree@V?$_Tmap_traits@_KHU?$less@_K@std@@V?$allocator@U?$pair@$$CB_KH@std@@@2@$0A@@std@@@std@@KAAEAPEAU_Node@?$_Tree_nod@V?$_Tmap_traits@_KHU?$less@_K@std@@V?$allocator@U?$pair@$$CB_KH@std@@@2@$0A@@std@@@2@PEAU342@@Z ; std::_Tree<std::_Tmap_traits<unsigned __int64,int,std::less<unsigned __int64>,std::allocator<std::pair<unsigned __int64 const ,int> >,0> >::_Right
PUBLIC	?_Isnil@?$_Tree@V?$_Tmap_traits@_KHU?$less@_K@std@@V?$allocator@U?$pair@$$CB_KH@std@@@2@$0A@@std@@@std@@KAAEADPEAU_Node@?$_Tree_nod@V?$_Tmap_traits@_KHU?$less@_K@std@@V?$allocator@U?$pair@$$CB_KH@std@@@2@$0A@@std@@@2@@Z ; std::_Tree<std::_Tmap_traits<unsigned __int64,int,std::less<unsigned __int64>,std::allocator<std::pair<unsigned __int64 const ,int> >,0> >::_Isnil
PUBLIC	?_Left@?$_Tree@V?$_Tmap_traits@_KHU?$less@_K@std@@V?$allocator@U?$pair@$$CB_KH@std@@@2@$0A@@std@@@std@@KAAEAPEAU_Node@?$_Tree_nod@V?$_Tmap_traits@_KHU?$less@_K@std@@V?$allocator@U?$pair@$$CB_KH@std@@@2@$0A@@std@@@2@PEAU342@@Z ; std::_Tree<std::_Tmap_traits<unsigned __int64,int,std::less<unsigned __int64>,std::allocator<std::pair<unsigned __int64 const ,int> >,0> >::_Left
PUBLIC	?_Min@?$_Tree@V?$_Tmap_traits@_KHU?$less@_K@std@@V?$allocator@U?$pair@$$CB_KH@std@@@2@$0A@@std@@@std@@KAPEAU_Node@?$_Tree_nod@V?$_Tmap_traits@_KHU?$less@_K@std@@V?$allocator@U?$pair@$$CB_KH@std@@@2@$0A@@std@@@2@PEAU342@@Z ; std::_Tree<std::_Tmap_traits<unsigned __int64,int,std::less<unsigned __int64>,std::allocator<std::pair<unsigned __int64 const ,int> >,0> >::_Min
PUBLIC	?_Inc@const_iterator@?$_Tree@V?$_Tmap_traits@_KHU?$less@_K@std@@V?$allocator@U?$pair@$$CB_KH@std@@@2@$0A@@std@@@std@@QEAAXXZ ; std::_Tree<std::_Tmap_traits<unsigned __int64,int,std::less<unsigned __int64>,std::allocator<std::pair<unsigned __int64 const ,int> >,0> >::const_iterator::_Inc
PUBLIC	??Econst_iterator@?$_Tree@V?$_Tmap_traits@_KHU?$less@_K@std@@V?$allocator@U?$pair@$$CB_KH@std@@@2@$0A@@std@@@std@@QEAAAEAV012@XZ ; std::_Tree<std::_Tmap_traits<unsigned __int64,int,std::less<unsigned __int64>,std::allocator<std::pair<unsigned __int64 const ,int> >,0> >::const_iterator::operator++
PUBLIC	??Econst_iterator@?$_Tree@V?$_Tmap_traits@_KHU?$less@_K@std@@V?$allocator@U?$pair@$$CB_KH@std@@@2@$0A@@std@@@std@@QEAA?AV012@H@Z ; std::_Tree<std::_Tmap_traits<unsigned __int64,int,std::less<unsigned __int64>,std::allocator<std::pair<unsigned __int64 const ,int> >,0> >::const_iterator::operator++
PUBLIC	??8const_iterator@?$_Tree@V?$_Tmap_traits@_KHU?$less@_K@std@@V?$allocator@U?$pair@$$CB_KH@std@@@2@$0A@@std@@@std@@QEBA_NAEBV012@@Z ; std::_Tree<std::_Tmap_traits<unsigned __int64,int,std::less<unsigned __int64>,std::allocator<std::pair<unsigned __int64 const ,int> >,0> >::const_iterator::operator==
PUBLIC	??9const_iterator@?$_Tree@V?$_Tmap_traits@_KHU?$less@_K@std@@V?$allocator@U?$pair@$$CB_KH@std@@@2@$0A@@std@@@std@@QEBA_NAEBV012@@Z ; std::_Tree<std::_Tmap_traits<unsigned __int64,int,std::less<unsigned __int64>,std::allocator<std::pair<unsigned __int64 const ,int> >,0> >::const_iterator::operator!=
PUBLIC	?erase@?$_Tree@V?$_Tmap_traits@_KHU?$less@_K@std@@V?$allocator@U?$pair@$$CB_KH@std@@@2@$0A@@std@@@std@@QEAA?AViterator@12@Vconst_iterator@12@0@Z ; std::_Tree<std::_Tmap_traits<unsigned __int64,int,std::less<unsigned __int64>,std::allocator<std::pair<unsigned __int64 const ,int> >,0> >::erase
PUBLIC	?_Tidy@?$_Tree@V?$_Tmap_traits@_KHU?$less@_K@std@@V?$allocator@U?$pair@$$CB_KH@std@@@2@$0A@@std@@@std@@IEAAXXZ ; std::_Tree<std::_Tmap_traits<unsigned __int64,int,std::less<unsigned __int64>,std::allocator<std::pair<unsigned __int64 const ,int> >,0> >::_Tidy
PUBLIC	??1?$_Tree@V?$_Tmap_traits@_KHU?$less@_K@std@@V?$allocator@U?$pair@$$CB_KH@std@@@2@$0A@@std@@@std@@QEAA@XZ ; std::_Tree<std::_Tmap_traits<unsigned __int64,int,std::less<unsigned __int64>,std::allocator<std::pair<unsigned __int64 const ,int> >,0> >::~_Tree<std::_Tmap_traits<unsigned __int64,int,std::less<unsigned __int64>,std::allocator<std::pair<unsigned __int64 const ,int> >,0> >
PUBLIC	??1?$map@_KHU?$less@_K@std@@V?$allocator@U?$pair@$$CB_KH@std@@@2@@std@@QEAA@XZ ; std::map<unsigned __int64,int,std::less<unsigned __int64>,std::allocator<std::pair<unsigned __int64 const ,int> > >::~map<unsigned __int64,int,std::less<unsigned __int64>,std::allocator<std::pair<unsigned __int64 const ,int> > >
PUBLIC	??1?$_Container_base_aux_alloc_real@V?$allocator@U?$pair@$$CB_KPEAVThreadInfo@@@std@@@std@@@std@@IEAA@XZ ; std::_Container_base_aux_alloc_real<std::allocator<std::pair<unsigned __int64 const ,ThreadInfo * __ptr64> > >::~_Container_base_aux_alloc_real<std::allocator<std::pair<unsigned __int64 const ,ThreadInfo * __ptr64> > >
PUBLIC	??1?$_Tmap_traits@_KPEAVThreadInfo@@U?$less@_K@std@@V?$allocator@U?$pair@$$CB_KPEAVThreadInfo@@@std@@@3@$0A@@std@@QEAA@XZ ; std::_Tmap_traits<unsigned __int64,ThreadInfo * __ptr64,std::less<unsigned __int64>,std::allocator<std::pair<unsigned __int64 const ,ThreadInfo * __ptr64> >,0>::~_Tmap_traits<unsigned __int64,ThreadInfo * __ptr64,std::less<unsigned __int64>,std::allocator<std::pair<unsigned __int64 const ,ThreadInfo * __ptr64> >,0>
PUBLIC	??1?$_Tree_nod@V?$_Tmap_traits@_KPEAVThreadInfo@@U?$less@_K@std@@V?$allocator@U?$pair@$$CB_KPEAVThreadInfo@@@std@@@3@$0A@@std@@@std@@QEAA@XZ ; std::_Tree_nod<std::_Tmap_traits<unsigned __int64,ThreadInfo * __ptr64,std::less<unsigned __int64>,std::allocator<std::pair<unsigned __int64 const ,ThreadInfo * __ptr64> >,0> >::~_Tree_nod<std::_Tmap_traits<unsigned __int64,ThreadInfo * __ptr64,std::less<unsigned __int64>,std::allocator<std::pair<unsigned __int64 const ,ThreadInfo * __ptr64> >,0> >
PUBLIC	??1?$_Tree_ptr@V?$_Tmap_traits@_KPEAVThreadInfo@@U?$less@_K@std@@V?$allocator@U?$pair@$$CB_KPEAVThreadInfo@@@std@@@3@$0A@@std@@@std@@QEAA@XZ ; std::_Tree_ptr<std::_Tmap_traits<unsigned __int64,ThreadInfo * __ptr64,std::less<unsigned __int64>,std::allocator<std::pair<unsigned __int64 const ,ThreadInfo * __ptr64> >,0> >::~_Tree_ptr<std::_Tmap_traits<unsigned __int64,ThreadInfo * __ptr64,std::less<unsigned __int64>,std::allocator<std::pair<unsigned __int64 const ,ThreadInfo * __ptr64> >,0> >
PUBLIC	??1?$_Tree_val@V?$_Tmap_traits@_KPEAVThreadInfo@@U?$less@_K@std@@V?$allocator@U?$pair@$$CB_KPEAVThreadInfo@@@std@@@3@$0A@@std@@@std@@QEAA@XZ ; std::_Tree_val<std::_Tmap_traits<unsigned __int64,ThreadInfo * __ptr64,std::less<unsigned __int64>,std::allocator<std::pair<unsigned __int64 const ,ThreadInfo * __ptr64> >,0> >::~_Tree_val<std::_Tmap_traits<unsigned __int64,ThreadInfo * __ptr64,std::less<unsigned __int64>,std::allocator<std::pair<unsigned __int64 const ,ThreadInfo * __ptr64> >,0> >
PUBLIC	??$_Destroy@PEAU_Node@?$_Tree_nod@V?$_Tmap_traits@_KPEAVThreadInfo@@U?$less@_K@std@@V?$allocator@U?$pair@$$CB_KPEAVThreadInfo@@@std@@@3@$0A@@std@@@std@@@std@@YAXPEAPEAU_Node@?$_Tree_nod@V?$_Tmap_traits@_KPEAVThreadInfo@@U?$less@_K@std@@V?$allocator@U?$pair@$$CB_KPEAVThreadInfo@@@std@@@3@$0A@@std@@@0@@Z ; std::_Destroy<std::_Tree_nod<std::_Tmap_traits<unsigned __int64,ThreadInfo * __ptr64,std::less<unsigned __int64>,std::allocator<std::pair<unsigned __int64 const ,ThreadInfo * __ptr64> >,0> >::_Node * __ptr64>
PUBLIC	?destroy@?$allocator@PEAU_Node@?$_Tree_nod@V?$_Tmap_traits@_KPEAVThreadInfo@@U?$less@_K@std@@V?$allocator@U?$pair@$$CB_KPEAVThreadInfo@@@std@@@3@$0A@@std@@@std@@@std@@QEAAXPEAPEAU_Node@?$_Tree_nod@V?$_Tmap_traits@_KPEAVThreadInfo@@U?$less@_K@std@@V?$allocator@U?$pair@$$CB_KPEAVThreadInfo@@@std@@@3@$0A@@std@@@2@@Z ; std::allocator<std::_Tree_nod<std::_Tmap_traits<unsigned __int64,ThreadInfo * __ptr64,std::less<unsigned __int64>,std::allocator<std::pair<unsigned __int64 const ,ThreadInfo * __ptr64> >,0> >::_Node * __ptr64>::destroy
PUBLIC	?begin@?$_Tree@V?$_Tmap_traits@_KPEAVThreadInfo@@U?$less@_K@std@@V?$allocator@U?$pair@$$CB_KPEAVThreadInfo@@@std@@@3@$0A@@std@@@std@@QEAA?AViterator@12@XZ ; std::_Tree<std::_Tmap_traits<unsigned __int64,ThreadInfo * __ptr64,std::less<unsigned __int64>,std::allocator<std::pair<unsigned __int64 const ,ThreadInfo * __ptr64> >,0> >::begin
PUBLIC	?end@?$_Tree@V?$_Tmap_traits@_KPEAVThreadInfo@@U?$less@_K@std@@V?$allocator@U?$pair@$$CB_KPEAVThreadInfo@@@std@@@3@$0A@@std@@@std@@QEAA?AViterator@12@XZ ; std::_Tree<std::_Tmap_traits<unsigned __int64,ThreadInfo * __ptr64,std::less<unsigned __int64>,std::allocator<std::pair<unsigned __int64 const ,ThreadInfo * __ptr64> >,0> >::end
PUBLIC	?_Color@?$_Tree@V?$_Tmap_traits@_KPEAVThreadInfo@@U?$less@_K@std@@V?$allocator@U?$pair@$$CB_KPEAVThreadInfo@@@std@@@3@$0A@@std@@@std@@KAAEADPEAU_Node@?$_Tree_nod@V?$_Tmap_traits@_KPEAVThreadInfo@@U?$less@_K@std@@V?$allocator@U?$pair@$$CB_KPEAVThreadInfo@@@std@@@3@$0A@@std@@@2@@Z ; std::_Tree<std::_Tmap_traits<unsigned __int64,ThreadInfo * __ptr64,std::less<unsigned __int64>,std::allocator<std::pair<unsigned __int64 const ,ThreadInfo * __ptr64> >,0> >::_Color
PUBLIC	??0?$_Iterator_with_base@Ubidirectional_iterator_tag@std@@U?$pair@$$CB_KPEAVThreadInfo@@@2@_JPEBU32@AEBU32@V_Iterator_base_aux@2@@std@@QEAA@XZ ; std::_Iterator_with_base<std::bidirectional_iterator_tag,std::pair<unsigned __int64 const ,ThreadInfo * __ptr64>,__int64,std::pair<unsigned __int64 const ,ThreadInfo * __ptr64> const * __ptr64,std::pair<unsigned __int64 const ,ThreadInfo * __ptr64> const & __ptr64,std::_Iterator_base_aux>::_Iterator_with_base<std::bidirectional_iterator_tag,std::pair<unsigned __int64 const ,ThreadInfo * __ptr64>,__int64,std::pair<unsigned __int64 const ,ThreadInfo * __ptr64> const * __ptr64,std::pair<unsigned __int64 const ,ThreadInfo * __ptr64> const & __ptr64,std::_Iterator_base_aux>
PUBLIC	??0?$_Bidit@U?$pair@$$CB_KPEAVThreadInfo@@@std@@_JPEBU12@AEBU12@@std@@QEAA@XZ ; std::_Bidit<std::pair<unsigned __int64 const ,ThreadInfo * __ptr64>,__int64,std::pair<unsigned __int64 const ,ThreadInfo * __ptr64> const * __ptr64,std::pair<unsigned __int64 const ,ThreadInfo * __ptr64> const & __ptr64>::_Bidit<std::pair<unsigned __int64 const ,ThreadInfo * __ptr64>,__int64,std::pair<unsigned __int64 const ,ThreadInfo * __ptr64> const * __ptr64,std::pair<unsigned __int64 const ,ThreadInfo * __ptr64> const & __ptr64>
PUBLIC	??0const_iterator@?$_Tree@V?$_Tmap_traits@_KPEAVThreadInfo@@U?$less@_K@std@@V?$allocator@U?$pair@$$CB_KPEAVThreadInfo@@@std@@@3@$0A@@std@@@std@@QEAA@PEAU_Node@?$_Tree_nod@V?$_Tmap_traits@_KPEAVThreadInfo@@U?$less@_K@std@@V?$allocator@U?$pair@$$CB_KPEAVThreadInfo@@@std@@@3@$0A@@std@@@2@PEBV12@@Z ; std::_Tree<std::_Tmap_traits<unsigned __int64,ThreadInfo * __ptr64,std::less<unsigned __int64>,std::allocator<std::pair<unsigned __int64 const ,ThreadInfo * __ptr64> >,0> >::const_iterator::const_iterator
PUBLIC	??0iterator@?$_Tree@V?$_Tmap_traits@_KPEAVThreadInfo@@U?$less@_K@std@@V?$allocator@U?$pair@$$CB_KPEAVThreadInfo@@@std@@@3@$0A@@std@@@std@@QEAA@PEAU_Node@?$_Tree_nod@V?$_Tmap_traits@_KPEAVThreadInfo@@U?$less@_K@std@@V?$allocator@U?$pair@$$CB_KPEAVThreadInfo@@@std@@@3@$0A@@std@@@2@PEBV12@@Z ; std::_Tree<std::_Tmap_traits<unsigned __int64,ThreadInfo * __ptr64,std::less<unsigned __int64>,std::allocator<std::pair<unsigned __int64 const ,ThreadInfo * __ptr64> >,0> >::iterator::iterator
PUBLIC	?_Make_iter@?$_Tree@V?$_Tmap_traits@_KPEAVThreadInfo@@U?$less@_K@std@@V?$allocator@U?$pair@$$CB_KPEAVThreadInfo@@@std@@@3@$0A@@std@@@std@@QEBA?AViterator@12@Vconst_iterator@12@@Z ; std::_Tree<std::_Tmap_traits<unsigned __int64,ThreadInfo * __ptr64,std::less<unsigned __int64>,std::allocator<std::pair<unsigned __int64 const ,ThreadInfo * __ptr64> >,0> >::_Make_iter
PUBLIC	?_Lrotate@?$_Tree@V?$_Tmap_traits@_KPEAVThreadInfo@@U?$less@_K@std@@V?$allocator@U?$pair@$$CB_KPEAVThreadInfo@@@std@@@3@$0A@@std@@@std@@IEAAXPEAU_Node@?$_Tree_nod@V?$_Tmap_traits@_KPEAVThreadInfo@@U?$less@_K@std@@V?$allocator@U?$pair@$$CB_KPEAVThreadInfo@@@std@@@3@$0A@@std@@@2@@Z ; std::_Tree<std::_Tmap_traits<unsigned __int64,ThreadInfo * __ptr64,std::less<unsigned __int64>,std::allocator<std::pair<unsigned __int64 const ,ThreadInfo * __ptr64> >,0> >::_Lrotate
PUBLIC	?_Max@?$_Tree@V?$_Tmap_traits@_KPEAVThreadInfo@@U?$less@_K@std@@V?$allocator@U?$pair@$$CB_KPEAVThreadInfo@@@std@@@3@$0A@@std@@@std@@KAPEAU_Node@?$_Tree_nod@V?$_Tmap_traits@_KPEAVThreadInfo@@U?$less@_K@std@@V?$allocator@U?$pair@$$CB_KPEAVThreadInfo@@@std@@@3@$0A@@std@@@2@PEAU342@@Z ; std::_Tree<std::_Tmap_traits<unsigned __int64,ThreadInfo * __ptr64,std::less<unsigned __int64>,std::allocator<std::pair<unsigned __int64 const ,ThreadInfo * __ptr64> >,0> >::_Max
PUBLIC	?_Rrotate@?$_Tree@V?$_Tmap_traits@_KPEAVThreadInfo@@U?$less@_K@std@@V?$allocator@U?$pair@$$CB_KPEAVThreadInfo@@@std@@@3@$0A@@std@@@std@@IEAAXPEAU_Node@?$_Tree_nod@V?$_Tmap_traits@_KPEAVThreadInfo@@U?$less@_K@std@@V?$allocator@U?$pair@$$CB_KPEAVThreadInfo@@@std@@@3@$0A@@std@@@2@@Z ; std::_Tree<std::_Tmap_traits<unsigned __int64,ThreadInfo * __ptr64,std::less<unsigned __int64>,std::allocator<std::pair<unsigned __int64 const ,ThreadInfo * __ptr64> >,0> >::_Rrotate
PUBLIC	?_Mynode@const_iterator@?$_Tree@V?$_Tmap_traits@_KPEAVThreadInfo@@U?$less@_K@std@@V?$allocator@U?$pair@$$CB_KPEAVThreadInfo@@@std@@@3@$0A@@std@@@std@@QEBAPEAU_Node@?$_Tree_nod@V?$_Tmap_traits@_KPEAVThreadInfo@@U?$less@_K@std@@V?$allocator@U?$pair@$$CB_KPEAVThreadInfo@@@std@@@3@$0A@@std@@@3@XZ ; std::_Tree<std::_Tmap_traits<unsigned __int64,ThreadInfo * __ptr64,std::less<unsigned __int64>,std::allocator<std::pair<unsigned __int64 const ,ThreadInfo * __ptr64> >,0> >::const_iterator::_Mynode
PUBLIC	?erase@?$_Tree@V?$_Tmap_traits@_KPEAVThreadInfo@@U?$less@_K@std@@V?$allocator@U?$pair@$$CB_KPEAVThreadInfo@@@std@@@3@$0A@@std@@@std@@QEAA?AViterator@12@Vconst_iterator@12@@Z ; std::_Tree<std::_Tmap_traits<unsigned __int64,ThreadInfo * __ptr64,std::less<unsigned __int64>,std::allocator<std::pair<unsigned __int64 const ,ThreadInfo * __ptr64> >,0> >::erase
PUBLIC	?deallocate@?$allocator@U_Node@?$_Tree_nod@V?$_Tmap_traits@_KPEAVThreadInfo@@U?$less@_K@std@@V?$allocator@U?$pair@$$CB_KPEAVThreadInfo@@@std@@@3@$0A@@std@@@std@@@std@@QEAAXPEAU_Node@?$_Tree_nod@V?$_Tmap_traits@_KPEAVThreadInfo@@U?$less@_K@std@@V?$allocator@U?$pair@$$CB_KPEAVThreadInfo@@@std@@@3@$0A@@std@@@2@_K@Z ; std::allocator<std::_Tree_nod<std::_Tmap_traits<unsigned __int64,ThreadInfo * __ptr64,std::less<unsigned __int64>,std::allocator<std::pair<unsigned __int64 const ,ThreadInfo * __ptr64> >,0> >::_Node>::deallocate
PUBLIC	??$_Destroy@U_Node@?$_Tree_nod@V?$_Tmap_traits@_KPEAVThreadInfo@@U?$less@_K@std@@V?$allocator@U?$pair@$$CB_KPEAVThreadInfo@@@std@@@3@$0A@@std@@@std@@@std@@YAXPEAU_Node@?$_Tree_nod@V?$_Tmap_traits@_KPEAVThreadInfo@@U?$less@_K@std@@V?$allocator@U?$pair@$$CB_KPEAVThreadInfo@@@std@@@3@$0A@@std@@@0@@Z ; std::_Destroy<std::_Tree_nod<std::_Tmap_traits<unsigned __int64,ThreadInfo * __ptr64,std::less<unsigned __int64>,std::allocator<std::pair<unsigned __int64 const ,ThreadInfo * __ptr64> >,0> >::_Node>
PUBLIC	?destroy@?$allocator@U_Node@?$_Tree_nod@V?$_Tmap_traits@_KPEAVThreadInfo@@U?$less@_K@std@@V?$allocator@U?$pair@$$CB_KPEAVThreadInfo@@@std@@@3@$0A@@std@@@std@@@std@@QEAAXPEAU_Node@?$_Tree_nod@V?$_Tmap_traits@_KPEAVThreadInfo@@U?$less@_K@std@@V?$allocator@U?$pair@$$CB_KPEAVThreadInfo@@@std@@@3@$0A@@std@@@2@@Z ; std::allocator<std::_Tree_nod<std::_Tmap_traits<unsigned __int64,ThreadInfo * __ptr64,std::less<unsigned __int64>,std::allocator<std::pair<unsigned __int64 const ,ThreadInfo * __ptr64> >,0> >::_Node>::destroy
PUBLIC	?_Erase@?$_Tree@V?$_Tmap_traits@_KPEAVThreadInfo@@U?$less@_K@std@@V?$allocator@U?$pair@$$CB_KPEAVThreadInfo@@@std@@@3@$0A@@std@@@std@@IEAAXPEAU_Node@?$_Tree_nod@V?$_Tmap_traits@_KPEAVThreadInfo@@U?$less@_K@std@@V?$allocator@U?$pair@$$CB_KPEAVThreadInfo@@@std@@@3@$0A@@std@@@2@@Z ; std::_Tree<std::_Tmap_traits<unsigned __int64,ThreadInfo * __ptr64,std::less<unsigned __int64>,std::allocator<std::pair<unsigned __int64 const ,ThreadInfo * __ptr64> >,0> >::_Erase
PUBLIC	?_Lmost@?$_Tree@V?$_Tmap_traits@_KPEAVThreadInfo@@U?$less@_K@std@@V?$allocator@U?$pair@$$CB_KPEAVThreadInfo@@@std@@@3@$0A@@std@@@std@@IEBAAEAPEAU_Node@?$_Tree_nod@V?$_Tmap_traits@_KPEAVThreadInfo@@U?$less@_K@std@@V?$allocator@U?$pair@$$CB_KPEAVThreadInfo@@@std@@@3@$0A@@std@@@2@XZ ; std::_Tree<std::_Tmap_traits<unsigned __int64,ThreadInfo * __ptr64,std::less<unsigned __int64>,std::allocator<std::pair<unsigned __int64 const ,ThreadInfo * __ptr64> >,0> >::_Lmost
PUBLIC	?_Rmost@?$_Tree@V?$_Tmap_traits@_KPEAVThreadInfo@@U?$less@_K@std@@V?$allocator@U?$pair@$$CB_KPEAVThreadInfo@@@std@@@3@$0A@@std@@@std@@IEBAAEAPEAU_Node@?$_Tree_nod@V?$_Tmap_traits@_KPEAVThreadInfo@@U?$less@_K@std@@V?$allocator@U?$pair@$$CB_KPEAVThreadInfo@@@std@@@3@$0A@@std@@@2@XZ ; std::_Tree<std::_Tmap_traits<unsigned __int64,ThreadInfo * __ptr64,std::less<unsigned __int64>,std::allocator<std::pair<unsigned __int64 const ,ThreadInfo * __ptr64> >,0> >::_Rmost
PUBLIC	?_Root@?$_Tree@V?$_Tmap_traits@_KPEAVThreadInfo@@U?$less@_K@std@@V?$allocator@U?$pair@$$CB_KPEAVThreadInfo@@@std@@@3@$0A@@std@@@std@@IEBAAEAPEAU_Node@?$_Tree_nod@V?$_Tmap_traits@_KPEAVThreadInfo@@U?$less@_K@std@@V?$allocator@U?$pair@$$CB_KPEAVThreadInfo@@@std@@@3@$0A@@std@@@2@XZ ; std::_Tree<std::_Tmap_traits<unsigned __int64,ThreadInfo * __ptr64,std::less<unsigned __int64>,std::allocator<std::pair<unsigned __int64 const ,ThreadInfo * __ptr64> >,0> >::_Root
PUBLIC	?clear@?$_Tree@V?$_Tmap_traits@_KPEAVThreadInfo@@U?$less@_K@std@@V?$allocator@U?$pair@$$CB_KPEAVThreadInfo@@@std@@@3@$0A@@std@@@std@@QEAAXXZ ; std::_Tree<std::_Tmap_traits<unsigned __int64,ThreadInfo * __ptr64,std::less<unsigned __int64>,std::allocator<std::pair<unsigned __int64 const ,ThreadInfo * __ptr64> >,0> >::clear
PUBLIC	?_Parent@?$_Tree@V?$_Tmap_traits@_KPEAVThreadInfo@@U?$less@_K@std@@V?$allocator@U?$pair@$$CB_KPEAVThreadInfo@@@std@@@3@$0A@@std@@@std@@KAAEAPEAU_Node@?$_Tree_nod@V?$_Tmap_traits@_KPEAVThreadInfo@@U?$less@_K@std@@V?$allocator@U?$pair@$$CB_KPEAVThreadInfo@@@std@@@3@$0A@@std@@@2@PEAU342@@Z ; std::_Tree<std::_Tmap_traits<unsigned __int64,ThreadInfo * __ptr64,std::less<unsigned __int64>,std::allocator<std::pair<unsigned __int64 const ,ThreadInfo * __ptr64> >,0> >::_Parent
PUBLIC	?_Right@?$_Tree@V?$_Tmap_traits@_KPEAVThreadInfo@@U?$less@_K@std@@V?$allocator@U?$pair@$$CB_KPEAVThreadInfo@@@std@@@3@$0A@@std@@@std@@KAAEAPEAU_Node@?$_Tree_nod@V?$_Tmap_traits@_KPEAVThreadInfo@@U?$less@_K@std@@V?$allocator@U?$pair@$$CB_KPEAVThreadInfo@@@std@@@3@$0A@@std@@@2@PEAU342@@Z ; std::_Tree<std::_Tmap_traits<unsigned __int64,ThreadInfo * __ptr64,std::less<unsigned __int64>,std::allocator<std::pair<unsigned __int64 const ,ThreadInfo * __ptr64> >,0> >::_Right
PUBLIC	?_Isnil@?$_Tree@V?$_Tmap_traits@_KPEAVThreadInfo@@U?$less@_K@std@@V?$allocator@U?$pair@$$CB_KPEAVThreadInfo@@@std@@@3@$0A@@std@@@std@@KAAEADPEAU_Node@?$_Tree_nod@V?$_Tmap_traits@_KPEAVThreadInfo@@U?$less@_K@std@@V?$allocator@U?$pair@$$CB_KPEAVThreadInfo@@@std@@@3@$0A@@std@@@2@@Z ; std::_Tree<std::_Tmap_traits<unsigned __int64,ThreadInfo * __ptr64,std::less<unsigned __int64>,std::allocator<std::pair<unsigned __int64 const ,ThreadInfo * __ptr64> >,0> >::_Isnil
PUBLIC	?_Left@?$_Tree@V?$_Tmap_traits@_KPEAVThreadInfo@@U?$less@_K@std@@V?$allocator@U?$pair@$$CB_KPEAVThreadInfo@@@std@@@3@$0A@@std@@@std@@KAAEAPEAU_Node@?$_Tree_nod@V?$_Tmap_traits@_KPEAVThreadInfo@@U?$less@_K@std@@V?$allocator@U?$pair@$$CB_KPEAVThreadInfo@@@std@@@3@$0A@@std@@@2@PEAU342@@Z ; std::_Tree<std::_Tmap_traits<unsigned __int64,ThreadInfo * __ptr64,std::less<unsigned __int64>,std::allocator<std::pair<unsigned __int64 const ,ThreadInfo * __ptr64> >,0> >::_Left
PUBLIC	?_Min@?$_Tree@V?$_Tmap_traits@_KPEAVThreadInfo@@U?$less@_K@std@@V?$allocator@U?$pair@$$CB_KPEAVThreadInfo@@@std@@@3@$0A@@std@@@std@@KAPEAU_Node@?$_Tree_nod@V?$_Tmap_traits@_KPEAVThreadInfo@@U?$less@_K@std@@V?$allocator@U?$pair@$$CB_KPEAVThreadInfo@@@std@@@3@$0A@@std@@@2@PEAU342@@Z ; std::_Tree<std::_Tmap_traits<unsigned __int64,ThreadInfo * __ptr64,std::less<unsigned __int64>,std::allocator<std::pair<unsigned __int64 const ,ThreadInfo * __ptr64> >,0> >::_Min
PUBLIC	?_Inc@const_iterator@?$_Tree@V?$_Tmap_traits@_KPEAVThreadInfo@@U?$less@_K@std@@V?$allocator@U?$pair@$$CB_KPEAVThreadInfo@@@std@@@3@$0A@@std@@@std@@QEAAXXZ ; std::_Tree<std::_Tmap_traits<unsigned __int64,ThreadInfo * __ptr64,std::less<unsigned __int64>,std::allocator<std::pair<unsigned __int64 const ,ThreadInfo * __ptr64> >,0> >::const_iterator::_Inc
PUBLIC	??Econst_iterator@?$_Tree@V?$_Tmap_traits@_KPEAVThreadInfo@@U?$less@_K@std@@V?$allocator@U?$pair@$$CB_KPEAVThreadInfo@@@std@@@3@$0A@@std@@@std@@QEAAAEAV012@XZ ; std::_Tree<std::_Tmap_traits<unsigned __int64,ThreadInfo * __ptr64,std::less<unsigned __int64>,std::allocator<std::pair<unsigned __int64 const ,ThreadInfo * __ptr64> >,0> >::const_iterator::operator++
PUBLIC	??Econst_iterator@?$_Tree@V?$_Tmap_traits@_KPEAVThreadInfo@@U?$less@_K@std@@V?$allocator@U?$pair@$$CB_KPEAVThreadInfo@@@std@@@3@$0A@@std@@@std@@QEAA?AV012@H@Z ; std::_Tree<std::_Tmap_traits<unsigned __int64,ThreadInfo * __ptr64,std::less<unsigned __int64>,std::allocator<std::pair<unsigned __int64 const ,ThreadInfo * __ptr64> >,0> >::const_iterator::operator++
PUBLIC	??8const_iterator@?$_Tree@V?$_Tmap_traits@_KPEAVThreadInfo@@U?$less@_K@std@@V?$allocator@U?$pair@$$CB_KPEAVThreadInfo@@@std@@@3@$0A@@std@@@std@@QEBA_NAEBV012@@Z ; std::_Tree<std::_Tmap_traits<unsigned __int64,ThreadInfo * __ptr64,std::less<unsigned __int64>,std::allocator<std::pair<unsigned __int64 const ,ThreadInfo * __ptr64> >,0> >::const_iterator::operator==
PUBLIC	??9const_iterator@?$_Tree@V?$_Tmap_traits@_KPEAVThreadInfo@@U?$less@_K@std@@V?$allocator@U?$pair@$$CB_KPEAVThreadInfo@@@std@@@3@$0A@@std@@@std@@QEBA_NAEBV012@@Z ; std::_Tree<std::_Tmap_traits<unsigned __int64,ThreadInfo * __ptr64,std::less<unsigned __int64>,std::allocator<std::pair<unsigned __int64 const ,ThreadInfo * __ptr64> >,0> >::const_iterator::operator!=
PUBLIC	?erase@?$_Tree@V?$_Tmap_traits@_KPEAVThreadInfo@@U?$less@_K@std@@V?$allocator@U?$pair@$$CB_KPEAVThreadInfo@@@std@@@3@$0A@@std@@@std@@QEAA?AViterator@12@Vconst_iterator@12@0@Z ; std::_Tree<std::_Tmap_traits<unsigned __int64,ThreadInfo * __ptr64,std::less<unsigned __int64>,std::allocator<std::pair<unsigned __int64 const ,ThreadInfo * __ptr64> >,0> >::erase
PUBLIC	?_Tidy@?$_Tree@V?$_Tmap_traits@_KPEAVThreadInfo@@U?$less@_K@std@@V?$allocator@U?$pair@$$CB_KPEAVThreadInfo@@@std@@@3@$0A@@std@@@std@@IEAAXXZ ; std::_Tree<std::_Tmap_traits<unsigned __int64,ThreadInfo * __ptr64,std::less<unsigned __int64>,std::allocator<std::pair<unsigned __int64 const ,ThreadInfo * __ptr64> >,0> >::_Tidy
PUBLIC	??1?$_Tree@V?$_Tmap_traits@_KPEAVThreadInfo@@U?$less@_K@std@@V?$allocator@U?$pair@$$CB_KPEAVThreadInfo@@@std@@@3@$0A@@std@@@std@@QEAA@XZ ; std::_Tree<std::_Tmap_traits<unsigned __int64,ThreadInfo * __ptr64,std::less<unsigned __int64>,std::allocator<std::pair<unsigned __int64 const ,ThreadInfo * __ptr64> >,0> >::~_Tree<std::_Tmap_traits<unsigned __int64,ThreadInfo * __ptr64,std::less<unsigned __int64>,std::allocator<std::pair<unsigned __int64 const ,ThreadInfo * __ptr64> >,0> >
PUBLIC	??1?$map@_KPEAVThreadInfo@@U?$less@_K@std@@V?$allocator@U?$pair@$$CB_KPEAVThreadInfo@@@std@@@3@@std@@QEAA@XZ ; std::map<unsigned __int64,ThreadInfo * __ptr64,std::less<unsigned __int64>,std::allocator<std::pair<unsigned __int64 const ,ThreadInfo * __ptr64> > >::~map<unsigned __int64,ThreadInfo * __ptr64,std::less<unsigned __int64>,std::allocator<std::pair<unsigned __int64 const ,ThreadInfo * __ptr64> > >
PUBLIC	??1_Container_base_aux@std@@QEAA@XZ		; std::_Container_base_aux::~_Container_base_aux
PUBLIC	?deallocate@?$allocator@V_Aux_cont@std@@@std@@QEAAXPEAV_Aux_cont@2@_K@Z ; std::allocator<std::_Aux_cont>::deallocate
PUBLIC	??1?$_Container_base_aux_alloc_real@V?$allocator@U?$pair@$$CBKPEAVThreadInfo@@@std@@@std@@@std@@IEAA@XZ ; std::_Container_base_aux_alloc_real<std::allocator<std::pair<unsigned long const ,ThreadInfo * __ptr64> > >::~_Container_base_aux_alloc_real<std::allocator<std::pair<unsigned long const ,ThreadInfo * __ptr64> > >
PUBLIC	??1?$_Tmap_traits@KPEAVThreadInfo@@U?$less@K@std@@V?$allocator@U?$pair@$$CBKPEAVThreadInfo@@@std@@@3@$0A@@std@@QEAA@XZ ; std::_Tmap_traits<unsigned long,ThreadInfo * __ptr64,std::less<unsigned long>,std::allocator<std::pair<unsigned long const ,ThreadInfo * __ptr64> >,0>::~_Tmap_traits<unsigned long,ThreadInfo * __ptr64,std::less<unsigned long>,std::allocator<std::pair<unsigned long const ,ThreadInfo * __ptr64> >,0>
PUBLIC	??1?$_Tree_nod@V?$_Tmap_traits@KPEAVThreadInfo@@U?$less@K@std@@V?$allocator@U?$pair@$$CBKPEAVThreadInfo@@@std@@@3@$0A@@std@@@std@@QEAA@XZ ; std::_Tree_nod<std::_Tmap_traits<unsigned long,ThreadInfo * __ptr64,std::less<unsigned long>,std::allocator<std::pair<unsigned long const ,ThreadInfo * __ptr64> >,0> >::~_Tree_nod<std::_Tmap_traits<unsigned long,ThreadInfo * __ptr64,std::less<unsigned long>,std::allocator<std::pair<unsigned long const ,ThreadInfo * __ptr64> >,0> >
PUBLIC	??1?$_Tree_ptr@V?$_Tmap_traits@KPEAVThreadInfo@@U?$less@K@std@@V?$allocator@U?$pair@$$CBKPEAVThreadInfo@@@std@@@3@$0A@@std@@@std@@QEAA@XZ ; std::_Tree_ptr<std::_Tmap_traits<unsigned long,ThreadInfo * __ptr64,std::less<unsigned long>,std::allocator<std::pair<unsigned long const ,ThreadInfo * __ptr64> >,0> >::~_Tree_ptr<std::_Tmap_traits<unsigned long,ThreadInfo * __ptr64,std::less<unsigned long>,std::allocator<std::pair<unsigned long const ,ThreadInfo * __ptr64> >,0> >
PUBLIC	??1?$_Tree_val@V?$_Tmap_traits@KPEAVThreadInfo@@U?$less@K@std@@V?$allocator@U?$pair@$$CBKPEAVThreadInfo@@@std@@@3@$0A@@std@@@std@@QEAA@XZ ; std::_Tree_val<std::_Tmap_traits<unsigned long,ThreadInfo * __ptr64,std::less<unsigned long>,std::allocator<std::pair<unsigned long const ,ThreadInfo * __ptr64> >,0> >::~_Tree_val<std::_Tmap_traits<unsigned long,ThreadInfo * __ptr64,std::less<unsigned long>,std::allocator<std::pair<unsigned long const ,ThreadInfo * __ptr64> >,0> >
PUBLIC	??$_Destroy@PEAU_Node@?$_Tree_nod@V?$_Tmap_traits@KPEAVThreadInfo@@U?$less@K@std@@V?$allocator@U?$pair@$$CBKPEAVThreadInfo@@@std@@@3@$0A@@std@@@std@@@std@@YAXPEAPEAU_Node@?$_Tree_nod@V?$_Tmap_traits@KPEAVThreadInfo@@U?$less@K@std@@V?$allocator@U?$pair@$$CBKPEAVThreadInfo@@@std@@@3@$0A@@std@@@0@@Z ; std::_Destroy<std::_Tree_nod<std::_Tmap_traits<unsigned long,ThreadInfo * __ptr64,std::less<unsigned long>,std::allocator<std::pair<unsigned long const ,ThreadInfo * __ptr64> >,0> >::_Node * __ptr64>
PUBLIC	?destroy@?$allocator@PEAU_Node@?$_Tree_nod@V?$_Tmap_traits@KPEAVThreadInfo@@U?$less@K@std@@V?$allocator@U?$pair@$$CBKPEAVThreadInfo@@@std@@@3@$0A@@std@@@std@@@std@@QEAAXPEAPEAU_Node@?$_Tree_nod@V?$_Tmap_traits@KPEAVThreadInfo@@U?$less@K@std@@V?$allocator@U?$pair@$$CBKPEAVThreadInfo@@@std@@@3@$0A@@std@@@2@@Z ; std::allocator<std::_Tree_nod<std::_Tmap_traits<unsigned long,ThreadInfo * __ptr64,std::less<unsigned long>,std::allocator<std::pair<unsigned long const ,ThreadInfo * __ptr64> >,0> >::_Node * __ptr64>::destroy
PUBLIC	?begin@?$_Tree@V?$_Tmap_traits@KPEAVThreadInfo@@U?$less@K@std@@V?$allocator@U?$pair@$$CBKPEAVThreadInfo@@@std@@@3@$0A@@std@@@std@@QEAA?AViterator@12@XZ ; std::_Tree<std::_Tmap_traits<unsigned long,ThreadInfo * __ptr64,std::less<unsigned long>,std::allocator<std::pair<unsigned long const ,ThreadInfo * __ptr64> >,0> >::begin
PUBLIC	?end@?$_Tree@V?$_Tmap_traits@KPEAVThreadInfo@@U?$less@K@std@@V?$allocator@U?$pair@$$CBKPEAVThreadInfo@@@std@@@3@$0A@@std@@@std@@QEAA?AViterator@12@XZ ; std::_Tree<std::_Tmap_traits<unsigned long,ThreadInfo * __ptr64,std::less<unsigned long>,std::allocator<std::pair<unsigned long const ,ThreadInfo * __ptr64> >,0> >::end
PUBLIC	??0logic_error@std@@QEAA@AEBV?$basic_string@DU?$char_traits@D@std@@V?$allocator@D@2@@1@@Z ; std::logic_error::logic_error
PUBLIC	??0out_of_range@std@@QEAA@AEBV?$basic_string@DU?$char_traits@D@std@@V?$allocator@D@2@@1@@Z ; std::out_of_range::out_of_range
PUBLIC	??1out_of_range@std@@UEAA@XZ			; std::out_of_range::~out_of_range
PUBLIC	??_Gout_of_range@std@@UEAAPEAXI@Z		; std::out_of_range::`scalar deleting destructor'
PUBLIC	??0out_of_range@std@@QEAA@AEBV01@@Z		; std::out_of_range::out_of_range
PUBLIC	?what@logic_error@std@@UEBAPEBDXZ		; std::logic_error::what
PUBLIC	??1logic_error@std@@UEAA@XZ			; std::logic_error::~logic_error
PUBLIC	??_Glogic_error@std@@UEAAPEAXI@Z		; std::logic_error::`scalar deleting destructor'
PUBLIC	??0logic_error@std@@QEAA@AEBV01@@Z		; std::logic_error::logic_error
PUBLIC	?_Color@?$_Tree@V?$_Tmap_traits@KPEAVThreadInfo@@U?$less@K@std@@V?$allocator@U?$pair@$$CBKPEAVThreadInfo@@@std@@@3@$0A@@std@@@std@@KAAEADPEAU_Node@?$_Tree_nod@V?$_Tmap_traits@KPEAVThreadInfo@@U?$less@K@std@@V?$allocator@U?$pair@$$CBKPEAVThreadInfo@@@std@@@3@$0A@@std@@@2@@Z ; std::_Tree<std::_Tmap_traits<unsigned long,ThreadInfo * __ptr64,std::less<unsigned long>,std::allocator<std::pair<unsigned long const ,ThreadInfo * __ptr64> >,0> >::_Color
PUBLIC	?_Set_container@_Iterator_base_aux@std@@QEAAXQEBV_Container_base_aux@2@@Z ; std::_Iterator_base_aux::_Set_container
PUBLIC	??0_Iterator_base_aux@std@@QEAA@XZ		; std::_Iterator_base_aux::_Iterator_base_aux
PUBLIC	??0?$_Iterator_with_base@Ubidirectional_iterator_tag@std@@U?$pair@$$CBKPEAVThreadInfo@@@2@_JPEBU32@AEBU32@V_Iterator_base_aux@2@@std@@QEAA@XZ ; std::_Iterator_with_base<std::bidirectional_iterator_tag,std::pair<unsigned long const ,ThreadInfo * __ptr64>,__int64,std::pair<unsigned long const ,ThreadInfo * __ptr64> const * __ptr64,std::pair<unsigned long const ,ThreadInfo * __ptr64> const & __ptr64,std::_Iterator_base_aux>::_Iterator_with_base<std::bidirectional_iterator_tag,std::pair<unsigned long const ,ThreadInfo * __ptr64>,__int64,std::pair<unsigned long const ,ThreadInfo * __ptr64> const * __ptr64,std::pair<unsigned long const ,ThreadInfo * __ptr64> const & __ptr64,std::_Iterator_base_aux>
PUBLIC	??0?$_Bidit@U?$pair@$$CBKPEAVThreadInfo@@@std@@_JPEBU12@AEBU12@@std@@QEAA@XZ ; std::_Bidit<std::pair<unsigned long const ,ThreadInfo * __ptr64>,__int64,std::pair<unsigned long const ,ThreadInfo * __ptr64> const * __ptr64,std::pair<unsigned long const ,ThreadInfo * __ptr64> const & __ptr64>::_Bidit<std::pair<unsigned long const ,ThreadInfo * __ptr64>,__int64,std::pair<unsigned long const ,ThreadInfo * __ptr64> const * __ptr64,std::pair<unsigned long const ,ThreadInfo * __ptr64> const & __ptr64>
PUBLIC	??0const_iterator@?$_Tree@V?$_Tmap_traits@KPEAVThreadInfo@@U?$less@K@std@@V?$allocator@U?$pair@$$CBKPEAVThreadInfo@@@std@@@3@$0A@@std@@@std@@QEAA@PEAU_Node@?$_Tree_nod@V?$_Tmap_traits@KPEAVThreadInfo@@U?$less@K@std@@V?$allocator@U?$pair@$$CBKPEAVThreadInfo@@@std@@@3@$0A@@std@@@2@PEBV12@@Z ; std::_Tree<std::_Tmap_traits<unsigned long,ThreadInfo * __ptr64,std::less<unsigned long>,std::allocator<std::pair<unsigned long const ,ThreadInfo * __ptr64> >,0> >::const_iterator::const_iterator
PUBLIC	??0iterator@?$_Tree@V?$_Tmap_traits@KPEAVThreadInfo@@U?$less@K@std@@V?$allocator@U?$pair@$$CBKPEAVThreadInfo@@@std@@@3@$0A@@std@@@std@@QEAA@PEAU_Node@?$_Tree_nod@V?$_Tmap_traits@KPEAVThreadInfo@@U?$less@K@std@@V?$allocator@U?$pair@$$CBKPEAVThreadInfo@@@std@@@3@$0A@@std@@@2@PEBV12@@Z ; std::_Tree<std::_Tmap_traits<unsigned long,ThreadInfo * __ptr64,std::less<unsigned long>,std::allocator<std::pair<unsigned long const ,ThreadInfo * __ptr64> >,0> >::iterator::iterator
PUBLIC	?_Make_iter@?$_Tree@V?$_Tmap_traits@KPEAVThreadInfo@@U?$less@K@std@@V?$allocator@U?$pair@$$CBKPEAVThreadInfo@@@std@@@3@$0A@@std@@@std@@QEBA?AViterator@12@Vconst_iterator@12@@Z ; std::_Tree<std::_Tmap_traits<unsigned long,ThreadInfo * __ptr64,std::less<unsigned long>,std::allocator<std::pair<unsigned long const ,ThreadInfo * __ptr64> >,0> >::_Make_iter
PUBLIC	?_Lrotate@?$_Tree@V?$_Tmap_traits@KPEAVThreadInfo@@U?$less@K@std@@V?$allocator@U?$pair@$$CBKPEAVThreadInfo@@@std@@@3@$0A@@std@@@std@@IEAAXPEAU_Node@?$_Tree_nod@V?$_Tmap_traits@KPEAVThreadInfo@@U?$less@K@std@@V?$allocator@U?$pair@$$CBKPEAVThreadInfo@@@std@@@3@$0A@@std@@@2@@Z ; std::_Tree<std::_Tmap_traits<unsigned long,ThreadInfo * __ptr64,std::less<unsigned long>,std::allocator<std::pair<unsigned long const ,ThreadInfo * __ptr64> >,0> >::_Lrotate
PUBLIC	?_Max@?$_Tree@V?$_Tmap_traits@KPEAVThreadInfo@@U?$less@K@std@@V?$allocator@U?$pair@$$CBKPEAVThreadInfo@@@std@@@3@$0A@@std@@@std@@KAPEAU_Node@?$_Tree_nod@V?$_Tmap_traits@KPEAVThreadInfo@@U?$less@K@std@@V?$allocator@U?$pair@$$CBKPEAVThreadInfo@@@std@@@3@$0A@@std@@@2@PEAU342@@Z ; std::_Tree<std::_Tmap_traits<unsigned long,ThreadInfo * __ptr64,std::less<unsigned long>,std::allocator<std::pair<unsigned long const ,ThreadInfo * __ptr64> >,0> >::_Max
PUBLIC	?_Rrotate@?$_Tree@V?$_Tmap_traits@KPEAVThreadInfo@@U?$less@K@std@@V?$allocator@U?$pair@$$CBKPEAVThreadInfo@@@std@@@3@$0A@@std@@@std@@IEAAXPEAU_Node@?$_Tree_nod@V?$_Tmap_traits@KPEAVThreadInfo@@U?$less@K@std@@V?$allocator@U?$pair@$$CBKPEAVThreadInfo@@@std@@@3@$0A@@std@@@2@@Z ; std::_Tree<std::_Tmap_traits<unsigned long,ThreadInfo * __ptr64,std::less<unsigned long>,std::allocator<std::pair<unsigned long const ,ThreadInfo * __ptr64> >,0> >::_Rrotate
PUBLIC	?_Mynode@const_iterator@?$_Tree@V?$_Tmap_traits@KPEAVThreadInfo@@U?$less@K@std@@V?$allocator@U?$pair@$$CBKPEAVThreadInfo@@@std@@@3@$0A@@std@@@std@@QEBAPEAU_Node@?$_Tree_nod@V?$_Tmap_traits@KPEAVThreadInfo@@U?$less@K@std@@V?$allocator@U?$pair@$$CBKPEAVThreadInfo@@@std@@@3@$0A@@std@@@3@XZ ; std::_Tree<std::_Tmap_traits<unsigned long,ThreadInfo * __ptr64,std::less<unsigned long>,std::allocator<std::pair<unsigned long const ,ThreadInfo * __ptr64> >,0> >::const_iterator::_Mynode
PUBLIC	??$swap@D@std@@YAXAEAD0@Z			; std::swap<char>
PUBLIC	?erase@?$_Tree@V?$_Tmap_traits@KPEAVThreadInfo@@U?$less@K@std@@V?$allocator@U?$pair@$$CBKPEAVThreadInfo@@@std@@@3@$0A@@std@@@std@@QEAA?AViterator@12@Vconst_iterator@12@@Z ; std::_Tree<std::_Tmap_traits<unsigned long,ThreadInfo * __ptr64,std::less<unsigned long>,std::allocator<std::pair<unsigned long const ,ThreadInfo * __ptr64> >,0> >::erase
PUBLIC	?deallocate@?$allocator@U_Node@?$_Tree_nod@V?$_Tmap_traits@KPEAVThreadInfo@@U?$less@K@std@@V?$allocator@U?$pair@$$CBKPEAVThreadInfo@@@std@@@3@$0A@@std@@@std@@@std@@QEAAXPEAU_Node@?$_Tree_nod@V?$_Tmap_traits@KPEAVThreadInfo@@U?$less@K@std@@V?$allocator@U?$pair@$$CBKPEAVThreadInfo@@@std@@@3@$0A@@std@@@2@_K@Z ; std::allocator<std::_Tree_nod<std::_Tmap_traits<unsigned long,ThreadInfo * __ptr64,std::less<unsigned long>,std::allocator<std::pair<unsigned long const ,ThreadInfo * __ptr64> >,0> >::_Node>::deallocate
PUBLIC	??$_Destroy@U_Node@?$_Tree_nod@V?$_Tmap_traits@KPEAVThreadInfo@@U?$less@K@std@@V?$allocator@U?$pair@$$CBKPEAVThreadInfo@@@std@@@3@$0A@@std@@@std@@@std@@YAXPEAU_Node@?$_Tree_nod@V?$_Tmap_traits@KPEAVThreadInfo@@U?$less@K@std@@V?$allocator@U?$pair@$$CBKPEAVThreadInfo@@@std@@@3@$0A@@std@@@0@@Z ; std::_Destroy<std::_Tree_nod<std::_Tmap_traits<unsigned long,ThreadInfo * __ptr64,std::less<unsigned long>,std::allocator<std::pair<unsigned long const ,ThreadInfo * __ptr64> >,0> >::_Node>
PUBLIC	?destroy@?$allocator@U_Node@?$_Tree_nod@V?$_Tmap_traits@KPEAVThreadInfo@@U?$less@K@std@@V?$allocator@U?$pair@$$CBKPEAVThreadInfo@@@std@@@3@$0A@@std@@@std@@@std@@QEAAXPEAU_Node@?$_Tree_nod@V?$_Tmap_traits@KPEAVThreadInfo@@U?$less@K@std@@V?$allocator@U?$pair@$$CBKPEAVThreadInfo@@@std@@@3@$0A@@std@@@2@@Z ; std::allocator<std::_Tree_nod<std::_Tmap_traits<unsigned long,ThreadInfo * __ptr64,std::less<unsigned long>,std::allocator<std::pair<unsigned long const ,ThreadInfo * __ptr64> >,0> >::_Node>::destroy
PUBLIC	?_Erase@?$_Tree@V?$_Tmap_traits@KPEAVThreadInfo@@U?$less@K@std@@V?$allocator@U?$pair@$$CBKPEAVThreadInfo@@@std@@@3@$0A@@std@@@std@@IEAAXPEAU_Node@?$_Tree_nod@V?$_Tmap_traits@KPEAVThreadInfo@@U?$less@K@std@@V?$allocator@U?$pair@$$CBKPEAVThreadInfo@@@std@@@3@$0A@@std@@@2@@Z ; std::_Tree<std::_Tmap_traits<unsigned long,ThreadInfo * __ptr64,std::less<unsigned long>,std::allocator<std::pair<unsigned long const ,ThreadInfo * __ptr64> >,0> >::_Erase
PUBLIC	?_Lmost@?$_Tree@V?$_Tmap_traits@KPEAVThreadInfo@@U?$less@K@std@@V?$allocator@U?$pair@$$CBKPEAVThreadInfo@@@std@@@3@$0A@@std@@@std@@IEBAAEAPEAU_Node@?$_Tree_nod@V?$_Tmap_traits@KPEAVThreadInfo@@U?$less@K@std@@V?$allocator@U?$pair@$$CBKPEAVThreadInfo@@@std@@@3@$0A@@std@@@2@XZ ; std::_Tree<std::_Tmap_traits<unsigned long,ThreadInfo * __ptr64,std::less<unsigned long>,std::allocator<std::pair<unsigned long const ,ThreadInfo * __ptr64> >,0> >::_Lmost
PUBLIC	?_Rmost@?$_Tree@V?$_Tmap_traits@KPEAVThreadInfo@@U?$less@K@std@@V?$allocator@U?$pair@$$CBKPEAVThreadInfo@@@std@@@3@$0A@@std@@@std@@IEBAAEAPEAU_Node@?$_Tree_nod@V?$_Tmap_traits@KPEAVThreadInfo@@U?$less@K@std@@V?$allocator@U?$pair@$$CBKPEAVThreadInfo@@@std@@@3@$0A@@std@@@2@XZ ; std::_Tree<std::_Tmap_traits<unsigned long,ThreadInfo * __ptr64,std::less<unsigned long>,std::allocator<std::pair<unsigned long const ,ThreadInfo * __ptr64> >,0> >::_Rmost
PUBLIC	?_Root@?$_Tree@V?$_Tmap_traits@KPEAVThreadInfo@@U?$less@K@std@@V?$allocator@U?$pair@$$CBKPEAVThreadInfo@@@std@@@3@$0A@@std@@@std@@IEBAAEAPEAU_Node@?$_Tree_nod@V?$_Tmap_traits@KPEAVThreadInfo@@U?$less@K@std@@V?$allocator@U?$pair@$$CBKPEAVThreadInfo@@@std@@@3@$0A@@std@@@2@XZ ; std::_Tree<std::_Tmap_traits<unsigned long,ThreadInfo * __ptr64,std::less<unsigned long>,std::allocator<std::pair<unsigned long const ,ThreadInfo * __ptr64> >,0> >::_Root
PUBLIC	?clear@?$_Tree@V?$_Tmap_traits@KPEAVThreadInfo@@U?$less@K@std@@V?$allocator@U?$pair@$$CBKPEAVThreadInfo@@@std@@@3@$0A@@std@@@std@@QEAAXXZ ; std::_Tree<std::_Tmap_traits<unsigned long,ThreadInfo * __ptr64,std::less<unsigned long>,std::allocator<std::pair<unsigned long const ,ThreadInfo * __ptr64> >,0> >::clear
PUBLIC	?_Parent@?$_Tree@V?$_Tmap_traits@KPEAVThreadInfo@@U?$less@K@std@@V?$allocator@U?$pair@$$CBKPEAVThreadInfo@@@std@@@3@$0A@@std@@@std@@KAAEAPEAU_Node@?$_Tree_nod@V?$_Tmap_traits@KPEAVThreadInfo@@U?$less@K@std@@V?$allocator@U?$pair@$$CBKPEAVThreadInfo@@@std@@@3@$0A@@std@@@2@PEAU342@@Z ; std::_Tree<std::_Tmap_traits<unsigned long,ThreadInfo * __ptr64,std::less<unsigned long>,std::allocator<std::pair<unsigned long const ,ThreadInfo * __ptr64> >,0> >::_Parent
PUBLIC	?_Right@?$_Tree@V?$_Tmap_traits@KPEAVThreadInfo@@U?$less@K@std@@V?$allocator@U?$pair@$$CBKPEAVThreadInfo@@@std@@@3@$0A@@std@@@std@@KAAEAPEAU_Node@?$_Tree_nod@V?$_Tmap_traits@KPEAVThreadInfo@@U?$less@K@std@@V?$allocator@U?$pair@$$CBKPEAVThreadInfo@@@std@@@3@$0A@@std@@@2@PEAU342@@Z ; std::_Tree<std::_Tmap_traits<unsigned long,ThreadInfo * __ptr64,std::less<unsigned long>,std::allocator<std::pair<unsigned long const ,ThreadInfo * __ptr64> >,0> >::_Right
PUBLIC	?_Isnil@?$_Tree@V?$_Tmap_traits@KPEAVThreadInfo@@U?$less@K@std@@V?$allocator@U?$pair@$$CBKPEAVThreadInfo@@@std@@@3@$0A@@std@@@std@@KAAEADPEAU_Node@?$_Tree_nod@V?$_Tmap_traits@KPEAVThreadInfo@@U?$less@K@std@@V?$allocator@U?$pair@$$CBKPEAVThreadInfo@@@std@@@3@$0A@@std@@@2@@Z ; std::_Tree<std::_Tmap_traits<unsigned long,ThreadInfo * __ptr64,std::less<unsigned long>,std::allocator<std::pair<unsigned long const ,ThreadInfo * __ptr64> >,0> >::_Isnil
PUBLIC	?_Left@?$_Tree@V?$_Tmap_traits@KPEAVThreadInfo@@U?$less@K@std@@V?$allocator@U?$pair@$$CBKPEAVThreadInfo@@@std@@@3@$0A@@std@@@std@@KAAEAPEAU_Node@?$_Tree_nod@V?$_Tmap_traits@KPEAVThreadInfo@@U?$less@K@std@@V?$allocator@U?$pair@$$CBKPEAVThreadInfo@@@std@@@3@$0A@@std@@@2@PEAU342@@Z ; std::_Tree<std::_Tmap_traits<unsigned long,ThreadInfo * __ptr64,std::less<unsigned long>,std::allocator<std::pair<unsigned long const ,ThreadInfo * __ptr64> >,0> >::_Left
PUBLIC	?_Min@?$_Tree@V?$_Tmap_traits@KPEAVThreadInfo@@U?$less@K@std@@V?$allocator@U?$pair@$$CBKPEAVThreadInfo@@@std@@@3@$0A@@std@@@std@@KAPEAU_Node@?$_Tree_nod@V?$_Tmap_traits@KPEAVThreadInfo@@U?$less@K@std@@V?$allocator@U?$pair@$$CBKPEAVThreadInfo@@@std@@@3@$0A@@std@@@2@PEAU342@@Z ; std::_Tree<std::_Tmap_traits<unsigned long,ThreadInfo * __ptr64,std::less<unsigned long>,std::allocator<std::pair<unsigned long const ,ThreadInfo * __ptr64> >,0> >::_Min
PUBLIC	?_Inc@const_iterator@?$_Tree@V?$_Tmap_traits@KPEAVThreadInfo@@U?$less@K@std@@V?$allocator@U?$pair@$$CBKPEAVThreadInfo@@@std@@@3@$0A@@std@@@std@@QEAAXXZ ; std::_Tree<std::_Tmap_traits<unsigned long,ThreadInfo * __ptr64,std::less<unsigned long>,std::allocator<std::pair<unsigned long const ,ThreadInfo * __ptr64> >,0> >::const_iterator::_Inc
PUBLIC	??Econst_iterator@?$_Tree@V?$_Tmap_traits@KPEAVThreadInfo@@U?$less@K@std@@V?$allocator@U?$pair@$$CBKPEAVThreadInfo@@@std@@@3@$0A@@std@@@std@@QEAAAEAV012@XZ ; std::_Tree<std::_Tmap_traits<unsigned long,ThreadInfo * __ptr64,std::less<unsigned long>,std::allocator<std::pair<unsigned long const ,ThreadInfo * __ptr64> >,0> >::const_iterator::operator++
PUBLIC	??Econst_iterator@?$_Tree@V?$_Tmap_traits@KPEAVThreadInfo@@U?$less@K@std@@V?$allocator@U?$pair@$$CBKPEAVThreadInfo@@@std@@@3@$0A@@std@@@std@@QEAA?AV012@H@Z ; std::_Tree<std::_Tmap_traits<unsigned long,ThreadInfo * __ptr64,std::less<unsigned long>,std::allocator<std::pair<unsigned long const ,ThreadInfo * __ptr64> >,0> >::const_iterator::operator++
PUBLIC	?_Same_container@_Iterator_base_aux@std@@QEBA_NAEBV12@@Z ; std::_Iterator_base_aux::_Same_container
PUBLIC	?_Has_container@_Iterator_base_aux@std@@QEBA_NXZ ; std::_Iterator_base_aux::_Has_container
PUBLIC	??8const_iterator@?$_Tree@V?$_Tmap_traits@KPEAVThreadInfo@@U?$less@K@std@@V?$allocator@U?$pair@$$CBKPEAVThreadInfo@@@std@@@3@$0A@@std@@@std@@QEBA_NAEBV012@@Z ; std::_Tree<std::_Tmap_traits<unsigned long,ThreadInfo * __ptr64,std::less<unsigned long>,std::allocator<std::pair<unsigned long const ,ThreadInfo * __ptr64> >,0> >::const_iterator::operator==
PUBLIC	??9const_iterator@?$_Tree@V?$_Tmap_traits@KPEAVThreadInfo@@U?$less@K@std@@V?$allocator@U?$pair@$$CBKPEAVThreadInfo@@@std@@@3@$0A@@std@@@std@@QEBA_NAEBV012@@Z ; std::_Tree<std::_Tmap_traits<unsigned long,ThreadInfo * __ptr64,std::less<unsigned long>,std::allocator<std::pair<unsigned long const ,ThreadInfo * __ptr64> >,0> >::const_iterator::operator!=
PUBLIC	?erase@?$_Tree@V?$_Tmap_traits@KPEAVThreadInfo@@U?$less@K@std@@V?$allocator@U?$pair@$$CBKPEAVThreadInfo@@@std@@@3@$0A@@std@@@std@@QEAA?AViterator@12@Vconst_iterator@12@0@Z ; std::_Tree<std::_Tmap_traits<unsigned long,ThreadInfo * __ptr64,std::less<unsigned long>,std::allocator<std::pair<unsigned long const ,ThreadInfo * __ptr64> >,0> >::erase
PUBLIC	?_Tidy@?$_Tree@V?$_Tmap_traits@KPEAVThreadInfo@@U?$less@K@std@@V?$allocator@U?$pair@$$CBKPEAVThreadInfo@@@std@@@3@$0A@@std@@@std@@IEAAXXZ ; std::_Tree<std::_Tmap_traits<unsigned long,ThreadInfo * __ptr64,std::less<unsigned long>,std::allocator<std::pair<unsigned long const ,ThreadInfo * __ptr64> >,0> >::_Tidy
PUBLIC	??1?$_Tree@V?$_Tmap_traits@KPEAVThreadInfo@@U?$less@K@std@@V?$allocator@U?$pair@$$CBKPEAVThreadInfo@@@std@@@3@$0A@@std@@@std@@QEAA@XZ ; std::_Tree<std::_Tmap_traits<unsigned long,ThreadInfo * __ptr64,std::less<unsigned long>,std::allocator<std::pair<unsigned long const ,ThreadInfo * __ptr64> >,0> >::~_Tree<std::_Tmap_traits<unsigned long,ThreadInfo * __ptr64,std::less<unsigned long>,std::allocator<std::pair<unsigned long const ,ThreadInfo * __ptr64> >,0> >
PUBLIC	??1?$map@KPEAVThreadInfo@@U?$less@K@std@@V?$allocator@U?$pair@$$CBKPEAVThreadInfo@@@std@@@3@@std@@QEAA@XZ ; std::map<unsigned long,ThreadInfo * __ptr64,std::less<unsigned long>,std::allocator<std::pair<unsigned long const ,ThreadInfo * __ptr64> > >::~map<unsigned long,ThreadInfo * __ptr64,std::less<unsigned long>,std::allocator<std::pair<unsigned long const ,ThreadInfo * __ptr64> > >
PUBLIC	??1CProfiler@@QEAA@XZ				; CProfiler::~CProfiler
PUBLIC	?sharedMemoryHeader@@3PEAUSharedMemoryHeader@@EA ; sharedMemoryHeader
PUBLIC	??_R0?AVexception@std@@@8			; std::exception `RTTI Type Descriptor'
PUBLIC	_CT??_R0?AVexception@std@@@8??0exception@std@@QEAA@AEBV01@@Z24
PUBLIC	??_R0?AVout_of_range@std@@@8			; std::out_of_range `RTTI Type Descriptor'
PUBLIC	??_R0?AVlogic_error@std@@@8			; std::logic_error `RTTI Type Descriptor'
PUBLIC	_CT??_R0?AVout_of_range@std@@@8??0out_of_range@std@@QEAA@AEBV01@@Z64
PUBLIC	_CT??_R0?AVlogic_error@std@@@8??0logic_error@std@@QEAA@AEBV01@@Z64
PUBLIC	_CTA3?AVout_of_range@std@@
PUBLIC	_TI3?AVout_of_range@std@@
PUBLIC	??_C@_0BM@PAPJHAGI@invalid?5map?1set?$DMT?$DO?5iterator?$AA@ ; `string'
PUBLIC	??_7logic_error@std@@6B@			; std::logic_error::`vftable'
PUBLIC	??_7out_of_range@std@@6B@			; std::out_of_range::`vftable'
EXTRN	??0exception@std@@QEAA@AEBV01@@Z:PROC		; std::exception::exception
EXTRN	__imp_GetCurrentThreadId:PROC
EXTRN	atexit:PROC
EXTRN	__imp_DeleteCriticalSection:PROC
EXTRN	__imp_??0exception@std@@QEAA@XZ:PROC
EXTRN	??_Eout_of_range@std@@UEAAPEAXI@Z:PROC		; std::out_of_range::`vector deleting destructor'
EXTRN	__imp_??0exception@std@@QEAA@AEBV01@@Z:PROC
EXTRN	__imp_??0?$basic_string@DU?$char_traits@D@std@@V?$allocator@D@2@@std@@QEAA@AEBV01@@Z:PROC
EXTRN	__imp_??1exception@std@@UEAA@XZ:PROC
EXTRN	??_Elogic_error@std@@UEAAPEAXI@Z:PROC		; std::logic_error::`vector deleting destructor'
EXTRN	__imp__invalid_parameter_noinfo:PROC
?sharedMemoryHeader@@3PEAUSharedMemoryHeader@@EA DQ 01H DUP (?) ; sharedMemoryHeader
;	COMDAT ??_7out_of_range@std@@6B@
CONST	SEGMENT
??_7out_of_range@std@@6B@ DQ FLAT:??_Eout_of_range@std@@UEAAPEAXI@Z ; std::out_of_range::`vftable'
	DQ	FLAT:?what@logic_error@std@@UEBAPEBDXZ
CONST	ENDS
;	COMDAT ??_7logic_error@std@@6B@
CONST	SEGMENT
??_7logic_error@std@@6B@ DQ FLAT:??_Elogic_error@std@@UEAAPEAXI@Z ; std::logic_error::`vftable'
	DQ	FLAT:?what@logic_error@std@@UEBAPEBDXZ
CONST	ENDS
;	COMDAT ??_C@_0BM@PAPJHAGI@invalid?5map?1set?$DMT?$DO?5iterator?$AA@
CONST	SEGMENT
??_C@_0BM@PAPJHAGI@invalid?5map?1set?$DMT?$DO?5iterator?$AA@ DB 'invalid '
	DB	'map/set<T> iterator', 00H			; `string'
CONST	ENDS
;	COMDAT _TI3?AVout_of_range@std@@
xdata$x	SEGMENT
_TI3?AVout_of_range@std@@ DD 00H
	DD	imagerel ??1out_of_range@std@@UEAA@XZ
	DD	00H
	DD	imagerel _CTA3?AVout_of_range@std@@
xdata$x	ENDS
;	COMDAT _CTA3?AVout_of_range@std@@
xdata$x	SEGMENT
_CTA3?AVout_of_range@std@@ DD 03H
	DD	imagerel _CT??_R0?AVout_of_range@std@@@8??0out_of_range@std@@QEAA@AEBV01@@Z64
	DD	imagerel _CT??_R0?AVlogic_error@std@@@8??0logic_error@std@@QEAA@AEBV01@@Z64
	DD	imagerel _CT??_R0?AVexception@std@@@8??0exception@std@@QEAA@AEBV01@@Z24
xdata$x	ENDS
;	COMDAT _CT??_R0?AVlogic_error@std@@@8??0logic_error@std@@QEAA@AEBV01@@Z64
xdata$x	SEGMENT
_CT??_R0?AVlogic_error@std@@@8??0logic_error@std@@QEAA@AEBV01@@Z64 DD 00H
	DD	imagerel ??_R0?AVlogic_error@std@@@8
	DD	00H
	DD	0ffffffffH
	ORG $+4
	DD	040H
	DD	imagerel ??0logic_error@std@@QEAA@AEBV01@@Z
xdata$x	ENDS
;	COMDAT _CT??_R0?AVout_of_range@std@@@8??0out_of_range@std@@QEAA@AEBV01@@Z64
xdata$x	SEGMENT
_CT??_R0?AVout_of_range@std@@@8??0out_of_range@std@@QEAA@AEBV01@@Z64 DD 00H
	DD	imagerel ??_R0?AVout_of_range@std@@@8
	DD	00H
	DD	0ffffffffH
	ORG $+4
	DD	040H
	DD	imagerel ??0out_of_range@std@@QEAA@AEBV01@@Z
xdata$x	ENDS
;	COMDAT ??_R0?AVlogic_error@std@@@8
_DATA	SEGMENT
??_R0?AVlogic_error@std@@@8 DQ FLAT:??_7type_info@@6B@	; std::logic_error `RTTI Type Descriptor'
	DQ	0000000000000000H
	DB	'.?AVlogic_error@std@@', 00H
_DATA	ENDS
;	COMDAT ??_R0?AVout_of_range@std@@@8
_DATA	SEGMENT
??_R0?AVout_of_range@std@@@8 DQ FLAT:??_7type_info@@6B@	; std::out_of_range `RTTI Type Descriptor'
	DQ	0000000000000000H
	DB	'.?AVout_of_range@std@@', 00H
_DATA	ENDS
;	COMDAT _CT??_R0?AVexception@std@@@8??0exception@std@@QEAA@AEBV01@@Z24
xdata$x	SEGMENT
_CT??_R0?AVexception@std@@@8??0exception@std@@QEAA@AEBV01@@Z24 DD 00H
	DD	imagerel ??_R0?AVexception@std@@@8
	DD	00H
	DD	0ffffffffH
	ORG $+4
	DD	018H
	DD	imagerel __imp_??0exception@std@@QEAA@AEBV01@@Z
xdata$x	ENDS
;	COMDAT ??_R0?AVexception@std@@@8
_DATA	SEGMENT
??_R0?AVexception@std@@@8 DQ FLAT:??_7type_info@@6B@	; std::exception `RTTI Type Descriptor'
	DQ	0000000000000000H
	DB	'.?AVexception@std@@', 00H
_bad_alloc_Message DQ FLAT:??_C@_0P@GHFPNOJB@bad?5allocation?$AA@
; Function compile flags: /Ogtpy
; File c:\program files\microsoft visual studio 9.0\vc\include\xmemory
;	COMDAT ??$_Destroy@U_Node@?$_Tree_nod@V?$_Tmap_traits@KPEAVThreadInfo@@U?$less@K@std@@V?$allocator@U?$pair@$$CBKPEAVThreadInfo@@@std@@@3@$0A@@std@@@std@@@std@@YAXPEAU_Node@?$_Tree_nod@V?$_Tmap_traits@KPEAVThreadInfo@@U?$less@K@std@@V?$allocator@U?$pair@$$CBKPEAVThreadInfo@@@std@@@3@$0A@@std@@@0@@Z
_TEXT	SEGMENT
_Ptr$ = 8
??$_Destroy@U_Node@?$_Tree_nod@V?$_Tmap_traits@KPEAVThreadInfo@@U?$less@K@std@@V?$allocator@U?$pair@$$CBKPEAVThreadInfo@@@std@@@3@$0A@@std@@@std@@@std@@YAXPEAU_Node@?$_Tree_nod@V?$_Tmap_traits@KPEAVThreadInfo@@U?$less@K@std@@V?$allocator@U?$pair@$$CBKPEAVThreadInfo@@@std@@@3@$0A@@std@@@0@@Z PROC ; std::_Destroy<std::_Tree_nod<std::_Tmap_traits<unsigned long,ThreadInfo * __ptr64,std::less<unsigned long>,std::allocator<std::pair<unsigned long const ,ThreadInfo * __ptr64> >,0> >::_Node>, COMDAT

; 59   : 	_DESTRUCTOR(_Ty, _Ptr);
; 60   : 	}

	ret	0
??$_Destroy@U_Node@?$_Tree_nod@V?$_Tmap_traits@KPEAVThreadInfo@@U?$less@K@std@@V?$allocator@U?$pair@$$CBKPEAVThreadInfo@@@std@@@3@$0A@@std@@@std@@@std@@YAXPEAU_Node@?$_Tree_nod@V?$_Tmap_traits@KPEAVThreadInfo@@U?$less@K@std@@V?$allocator@U?$pair@$$CBKPEAVThreadInfo@@@std@@@3@$0A@@std@@@0@@Z ENDP ; std::_Destroy<std::_Tree_nod<std::_Tmap_traits<unsigned long,ThreadInfo * __ptr64,std::less<unsigned long>,std::allocator<std::pair<unsigned long const ,ThreadInfo * __ptr64> >,0> >::_Node>
; Function compile flags: /Ogtpy
_TEXT	ENDS
;	COMDAT ??$_Destroy@U_Node@?$_Tree_nod@V?$_Tmap_traits@_KPEAVThreadInfo@@U?$less@_K@std@@V?$allocator@U?$pair@$$CB_KPEAVThreadInfo@@@std@@@3@$0A@@std@@@std@@@std@@YAXPEAU_Node@?$_Tree_nod@V?$_Tmap_traits@_KPEAVThreadInfo@@U?$less@_K@std@@V?$allocator@U?$pair@$$CB_KPEAVThreadInfo@@@std@@@3@$0A@@std@@@0@@Z
_TEXT	SEGMENT
_Ptr$ = 8
??$_Destroy@U_Node@?$_Tree_nod@V?$_Tmap_traits@_KPEAVThreadInfo@@U?$less@_K@std@@V?$allocator@U?$pair@$$CB_KPEAVThreadInfo@@@std@@@3@$0A@@std@@@std@@@std@@YAXPEAU_Node@?$_Tree_nod@V?$_Tmap_traits@_KPEAVThreadInfo@@U?$less@_K@std@@V?$allocator@U?$pair@$$CB_KPEAVThreadInfo@@@std@@@3@$0A@@std@@@0@@Z PROC ; std::_Destroy<std::_Tree_nod<std::_Tmap_traits<unsigned __int64,ThreadInfo * __ptr64,std::less<unsigned __int64>,std::allocator<std::pair<unsigned __int64 const ,ThreadInfo * __ptr64> >,0> >::_Node>, COMDAT

; 59   : 	_DESTRUCTOR(_Ty, _Ptr);
; 60   : 	}

	ret	0
??$_Destroy@U_Node@?$_Tree_nod@V?$_Tmap_traits@_KPEAVThreadInfo@@U?$less@_K@std@@V?$allocator@U?$pair@$$CB_KPEAVThreadInfo@@@std@@@3@$0A@@std@@@std@@@std@@YAXPEAU_Node@?$_Tree_nod@V?$_Tmap_traits@_KPEAVThreadInfo@@U?$less@_K@std@@V?$allocator@U?$pair@$$CB_KPEAVThreadInfo@@@std@@@3@$0A@@std@@@0@@Z ENDP ; std::_Destroy<std::_Tree_nod<std::_Tmap_traits<unsigned __int64,ThreadInfo * __ptr64,std::less<unsigned __int64>,std::allocator<std::pair<unsigned __int64 const ,ThreadInfo * __ptr64> >,0> >::_Node>
; Function compile flags: /Ogtpy
_TEXT	ENDS
;	COMDAT ??$_Destroy@U_Node@?$_Tree_nod@V?$_Tmap_traits@_KHU?$less@_K@std@@V?$allocator@U?$pair@$$CB_KH@std@@@2@$0A@@std@@@std@@@std@@YAXPEAU_Node@?$_Tree_nod@V?$_Tmap_traits@_KHU?$less@_K@std@@V?$allocator@U?$pair@$$CB_KH@std@@@2@$0A@@std@@@0@@Z
_TEXT	SEGMENT
_Ptr$ = 8
??$_Destroy@U_Node@?$_Tree_nod@V?$_Tmap_traits@_KHU?$less@_K@std@@V?$allocator@U?$pair@$$CB_KH@std@@@2@$0A@@std@@@std@@@std@@YAXPEAU_Node@?$_Tree_nod@V?$_Tmap_traits@_KHU?$less@_K@std@@V?$allocator@U?$pair@$$CB_KH@std@@@2@$0A@@std@@@0@@Z PROC ; std::_Destroy<std::_Tree_nod<std::_Tmap_traits<unsigned __int64,int,std::less<unsigned __int64>,std::allocator<std::pair<unsigned __int64 const ,int> >,0> >::_Node>, COMDAT

; 59   : 	_DESTRUCTOR(_Ty, _Ptr);
; 60   : 	}

	ret	0
??$_Destroy@U_Node@?$_Tree_nod@V?$_Tmap_traits@_KHU?$less@_K@std@@V?$allocator@U?$pair@$$CB_KH@std@@@2@$0A@@std@@@std@@@std@@YAXPEAU_Node@?$_Tree_nod@V?$_Tmap_traits@_KHU?$less@_K@std@@V?$allocator@U?$pair@$$CB_KH@std@@@2@$0A@@std@@@0@@Z ENDP ; std::_Destroy<std::_Tree_nod<std::_Tmap_traits<unsigned __int64,int,std::less<unsigned __int64>,std::allocator<std::pair<unsigned __int64 const ,int> >,0> >::_Node>
; Function compile flags: /Ogtpy
; File c:\program files\microsoft visual studio 9.0\vc\include\utility
_TEXT	ENDS
;	COMDAT ??$swap@D@std@@YAXAEAD0@Z
_TEXT	SEGMENT
_Left$ = 8
_Right$ = 16
??$swap@D@std@@YAXAEAD0@Z PROC				; std::swap<char>, COMDAT

; 18   : 	if (&_Left != &_Right)

	cmp	rcx, rdx
	je	SHORT $LN1@swap

; 19   : 		{	// different, worth swapping
; 20   : 		_Ty _Tmp = _Left;
; 21   : 
; 22   : 		_Left = _Right;

	movzx	eax, BYTE PTR [rdx]
	movzx	r8d, BYTE PTR [rcx]
	mov	BYTE PTR [rcx], al

; 23   : 		_Right = _Tmp;

	mov	BYTE PTR [rdx], r8b
$LN1@swap:

; 24   : 		}
; 25   : 	}

	fatret	0
??$swap@D@std@@YAXAEAD0@Z ENDP				; std::swap<char>
; Function compile flags: /Ogtpy
; File c:\program files\microsoft visual studio 9.0\vc\include\xmemory
_TEXT	ENDS
;	COMDAT ??$_Destroy@PEAU_Node@?$_Tree_nod@V?$_Tmap_traits@KPEAVThreadInfo@@U?$less@K@std@@V?$allocator@U?$pair@$$CBKPEAVThreadInfo@@@std@@@3@$0A@@std@@@std@@@std@@YAXPEAPEAU_Node@?$_Tree_nod@V?$_Tmap_traits@KPEAVThreadInfo@@U?$less@K@std@@V?$allocator@U?$pair@$$CBKPEAVThreadInfo@@@std@@@3@$0A@@std@@@0@@Z
_TEXT	SEGMENT
_Ptr$ = 8
??$_Destroy@PEAU_Node@?$_Tree_nod@V?$_Tmap_traits@KPEAVThreadInfo@@U?$less@K@std@@V?$allocator@U?$pair@$$CBKPEAVThreadInfo@@@std@@@3@$0A@@std@@@std@@@std@@YAXPEAPEAU_Node@?$_Tree_nod@V?$_Tmap_traits@KPEAVThreadInfo@@U?$less@K@std@@V?$allocator@U?$pair@$$CBKPEAVThreadInfo@@@std@@@3@$0A@@std@@@0@@Z PROC ; std::_Destroy<std::_Tree_nod<std::_Tmap_traits<unsigned long,ThreadInfo * __ptr64,std::less<unsigned long>,std::allocator<std::pair<unsigned long const ,ThreadInfo * __ptr64> >,0> >::_Node * __ptr64>, COMDAT

; 59   : 	_DESTRUCTOR(_Ty, _Ptr);
; 60   : 	}

	ret	0
??$_Destroy@PEAU_Node@?$_Tree_nod@V?$_Tmap_traits@KPEAVThreadInfo@@U?$less@K@std@@V?$allocator@U?$pair@$$CBKPEAVThreadInfo@@@std@@@3@$0A@@std@@@std@@@std@@YAXPEAPEAU_Node@?$_Tree_nod@V?$_Tmap_traits@KPEAVThreadInfo@@U?$less@K@std@@V?$allocator@U?$pair@$$CBKPEAVThreadInfo@@@std@@@3@$0A@@std@@@0@@Z ENDP ; std::_Destroy<std::_Tree_nod<std::_Tmap_traits<unsigned long,ThreadInfo * __ptr64,std::less<unsigned long>,std::allocator<std::pair<unsigned long const ,ThreadInfo * __ptr64> >,0> >::_Node * __ptr64>
; Function compile flags: /Ogtpy
_TEXT	ENDS
;	COMDAT ??$_Destroy@PEAU_Node@?$_Tree_nod@V?$_Tmap_traits@_KPEAVThreadInfo@@U?$less@_K@std@@V?$allocator@U?$pair@$$CB_KPEAVThreadInfo@@@std@@@3@$0A@@std@@@std@@@std@@YAXPEAPEAU_Node@?$_Tree_nod@V?$_Tmap_traits@_KPEAVThreadInfo@@U?$less@_K@std@@V?$allocator@U?$pair@$$CB_KPEAVThreadInfo@@@std@@@3@$0A@@std@@@0@@Z
_TEXT	SEGMENT
_Ptr$ = 8
??$_Destroy@PEAU_Node@?$_Tree_nod@V?$_Tmap_traits@_KPEAVThreadInfo@@U?$less@_K@std@@V?$allocator@U?$pair@$$CB_KPEAVThreadInfo@@@std@@@3@$0A@@std@@@std@@@std@@YAXPEAPEAU_Node@?$_Tree_nod@V?$_Tmap_traits@_KPEAVThreadInfo@@U?$less@_K@std@@V?$allocator@U?$pair@$$CB_KPEAVThreadInfo@@@std@@@3@$0A@@std@@@0@@Z PROC ; std::_Destroy<std::_Tree_nod<std::_Tmap_traits<unsigned __int64,ThreadInfo * __ptr64,std::less<unsigned __int64>,std::allocator<std::pair<unsigned __int64 const ,ThreadInfo * __ptr64> >,0> >::_Node * __ptr64>, COMDAT

; 59   : 	_DESTRUCTOR(_Ty, _Ptr);
; 60   : 	}

	ret	0
??$_Destroy@PEAU_Node@?$_Tree_nod@V?$_Tmap_traits@_KPEAVThreadInfo@@U?$less@_K@std@@V?$allocator@U?$pair@$$CB_KPEAVThreadInfo@@@std@@@3@$0A@@std@@@std@@@std@@YAXPEAPEAU_Node@?$_Tree_nod@V?$_Tmap_traits@_KPEAVThreadInfo@@U?$less@_K@std@@V?$allocator@U?$pair@$$CB_KPEAVThreadInfo@@@std@@@3@$0A@@std@@@0@@Z ENDP ; std::_Destroy<std::_Tree_nod<std::_Tmap_traits<unsigned __int64,ThreadInfo * __ptr64,std::less<unsigned __int64>,std::allocator<std::pair<unsigned __int64 const ,ThreadInfo * __ptr64> >,0> >::_Node * __ptr64>
; Function compile flags: /Ogtpy
_TEXT	ENDS
;	COMDAT ??$_Destroy@PEAU_Node@?$_Tree_nod@V?$_Tmap_traits@_KHU?$less@_K@std@@V?$allocator@U?$pair@$$CB_KH@std@@@2@$0A@@std@@@std@@@std@@YAXPEAPEAU_Node@?$_Tree_nod@V?$_Tmap_traits@_KHU?$less@_K@std@@V?$allocator@U?$pair@$$CB_KH@std@@@2@$0A@@std@@@0@@Z
_TEXT	SEGMENT
_Ptr$ = 8
??$_Destroy@PEAU_Node@?$_Tree_nod@V?$_Tmap_traits@_KHU?$less@_K@std@@V?$allocator@U?$pair@$$CB_KH@std@@@2@$0A@@std@@@std@@@std@@YAXPEAPEAU_Node@?$_Tree_nod@V?$_Tmap_traits@_KHU?$less@_K@std@@V?$allocator@U?$pair@$$CB_KH@std@@@2@$0A@@std@@@0@@Z PROC ; std::_Destroy<std::_Tree_nod<std::_Tmap_traits<unsigned __int64,int,std::less<unsigned __int64>,std::allocator<std::pair<unsigned __int64 const ,int> >,0> >::_Node * __ptr64>, COMDAT

; 59   : 	_DESTRUCTOR(_Ty, _Ptr);
; 60   : 	}

	ret	0
??$_Destroy@PEAU_Node@?$_Tree_nod@V?$_Tmap_traits@_KHU?$less@_K@std@@V?$allocator@U?$pair@$$CB_KH@std@@@2@$0A@@std@@@std@@@std@@YAXPEAPEAU_Node@?$_Tree_nod@V?$_Tmap_traits@_KHU?$less@_K@std@@V?$allocator@U?$pair@$$CB_KH@std@@@2@$0A@@std@@@0@@Z ENDP ; std::_Destroy<std::_Tree_nod<std::_Tmap_traits<unsigned __int64,int,std::less<unsigned __int64>,std::allocator<std::pair<unsigned __int64 const ,int> >,0> >::_Node * __ptr64>
; Function compile flags: /Ogtpy
; File c:\program files\microsoft visual studio 9.0\vc\include\xtree
_TEXT	ENDS
;	COMDAT ?_Mynode@const_iterator@?$_Tree@V?$_Tmap_traits@KPEAVThreadInfo@@U?$less@K@std@@V?$allocator@U?$pair@$$CBKPEAVThreadInfo@@@std@@@3@$0A@@std@@@std@@QEBAPEAU_Node@?$_Tree_nod@V?$_Tmap_traits@KPEAVThreadInfo@@U?$less@K@std@@V?$allocator@U?$pair@$$CBKPEAVThreadInfo@@@std@@@3@$0A@@std@@@3@XZ
_TEXT	SEGMENT
this$ = 8
?_Mynode@const_iterator@?$_Tree@V?$_Tmap_traits@KPEAVThreadInfo@@U?$less@K@std@@V?$allocator@U?$pair@$$CBKPEAVThreadInfo@@@std@@@3@$0A@@std@@@std@@QEBAPEAU_Node@?$_Tree_nod@V?$_Tmap_traits@KPEAVThreadInfo@@U?$less@K@std@@V?$allocator@U?$pair@$$CBKPEAVThreadInfo@@@std@@@3@$0A@@std@@@3@XZ PROC ; std::_Tree<std::_Tmap_traits<unsigned long,ThreadInfo * __ptr64,std::less<unsigned long>,std::allocator<std::pair<unsigned long const ,ThreadInfo * __ptr64> >,0> >::const_iterator::_Mynode, COMDAT

; 410  : 			return (_Ptr);

	mov	rax, QWORD PTR [rcx+8]

; 411  : 			}

	ret	0
?_Mynode@const_iterator@?$_Tree@V?$_Tmap_traits@KPEAVThreadInfo@@U?$less@K@std@@V?$allocator@U?$pair@$$CBKPEAVThreadInfo@@@std@@@3@$0A@@std@@@std@@QEBAPEAU_Node@?$_Tree_nod@V?$_Tmap_traits@KPEAVThreadInfo@@U?$less@K@std@@V?$allocator@U?$pair@$$CBKPEAVThreadInfo@@@std@@@3@$0A@@std@@@3@XZ ENDP ; std::_Tree<std::_Tmap_traits<unsigned long,ThreadInfo * __ptr64,std::less<unsigned long>,std::allocator<std::pair<unsigned long const ,ThreadInfo * __ptr64> >,0> >::const_iterator::_Mynode
; Function compile flags: /Ogtpy
_TEXT	ENDS
;	COMDAT ?_Mynode@const_iterator@?$_Tree@V?$_Tmap_traits@_KPEAVThreadInfo@@U?$less@_K@std@@V?$allocator@U?$pair@$$CB_KPEAVThreadInfo@@@std@@@3@$0A@@std@@@std@@QEBAPEAU_Node@?$_Tree_nod@V?$_Tmap_traits@_KPEAVThreadInfo@@U?$less@_K@std@@V?$allocator@U?$pair@$$CB_KPEAVThreadInfo@@@std@@@3@$0A@@std@@@3@XZ
_TEXT	SEGMENT
this$ = 8
?_Mynode@const_iterator@?$_Tree@V?$_Tmap_traits@_KPEAVThreadInfo@@U?$less@_K@std@@V?$allocator@U?$pair@$$CB_KPEAVThreadInfo@@@std@@@3@$0A@@std@@@std@@QEBAPEAU_Node@?$_Tree_nod@V?$_Tmap_traits@_KPEAVThreadInfo@@U?$less@_K@std@@V?$allocator@U?$pair@$$CB_KPEAVThreadInfo@@@std@@@3@$0A@@std@@@3@XZ PROC ; std::_Tree<std::_Tmap_traits<unsigned __int64,ThreadInfo * __ptr64,std::less<unsigned __int64>,std::allocator<std::pair<unsigned __int64 const ,ThreadInfo * __ptr64> >,0> >::const_iterator::_Mynode, COMDAT

; 410  : 			return (_Ptr);

	mov	rax, QWORD PTR [rcx+8]

; 411  : 			}

	ret	0
?_Mynode@const_iterator@?$_Tree@V?$_Tmap_traits@_KPEAVThreadInfo@@U?$less@_K@std@@V?$allocator@U?$pair@$$CB_KPEAVThreadInfo@@@std@@@3@$0A@@std@@@std@@QEBAPEAU_Node@?$_Tree_nod@V?$_Tmap_traits@_KPEAVThreadInfo@@U?$less@_K@std@@V?$allocator@U?$pair@$$CB_KPEAVThreadInfo@@@std@@@3@$0A@@std@@@3@XZ ENDP ; std::_Tree<std::_Tmap_traits<unsigned __int64,ThreadInfo * __ptr64,std::less<unsigned __int64>,std::allocator<std::pair<unsigned __int64 const ,ThreadInfo * __ptr64> >,0> >::const_iterator::_Mynode
; Function compile flags: /Ogtpy
_TEXT	ENDS
;	COMDAT ?_Mynode@const_iterator@?$_Tree@V?$_Tmap_traits@_KHU?$less@_K@std@@V?$allocator@U?$pair@$$CB_KH@std@@@2@$0A@@std@@@std@@QEBAPEAU_Node@?$_Tree_nod@V?$_Tmap_traits@_KHU?$less@_K@std@@V?$allocator@U?$pair@$$CB_KH@std@@@2@$0A@@std@@@3@XZ
_TEXT	SEGMENT
this$ = 8
?_Mynode@const_iterator@?$_Tree@V?$_Tmap_traits@_KHU?$less@_K@std@@V?$allocator@U?$pair@$$CB_KH@std@@@2@$0A@@std@@@std@@QEBAPEAU_Node@?$_Tree_nod@V?$_Tmap_traits@_KHU?$less@_K@std@@V?$allocator@U?$pair@$$CB_KH@std@@@2@$0A@@std@@@3@XZ PROC ; std::_Tree<std::_Tmap_traits<unsigned __int64,int,std::less<unsigned __int64>,std::allocator<std::pair<unsigned __int64 const ,int> >,0> >::const_iterator::_Mynode, COMDAT

; 410  : 			return (_Ptr);

	mov	rax, QWORD PTR [rcx+8]

; 411  : 			}

	ret	0
?_Mynode@const_iterator@?$_Tree@V?$_Tmap_traits@_KHU?$less@_K@std@@V?$allocator@U?$pair@$$CB_KH@std@@@2@$0A@@std@@@std@@QEBAPEAU_Node@?$_Tree_nod@V?$_Tmap_traits@_KHU?$less@_K@std@@V?$allocator@U?$pair@$$CB_KH@std@@@2@$0A@@std@@@3@XZ ENDP ; std::_Tree<std::_Tmap_traits<unsigned __int64,int,std::less<unsigned __int64>,std::allocator<std::pair<unsigned __int64 const ,int> >,0> >::const_iterator::_Mynode
; Function compile flags: /Ogtpy
; File c:\program files\microsoft visual studio 9.0\vc\include\xmemory
_TEXT	ENDS
;	COMDAT ?destroy@?$allocator@U_Node@?$_Tree_nod@V?$_Tmap_traits@KPEAVThreadInfo@@U?$less@K@std@@V?$allocator@U?$pair@$$CBKPEAVThreadInfo@@@std@@@3@$0A@@std@@@std@@@std@@QEAAXPEAU_Node@?$_Tree_nod@V?$_Tmap_traits@KPEAVThreadInfo@@U?$less@K@std@@V?$allocator@U?$pair@$$CBKPEAVThreadInfo@@@std@@@3@$0A@@std@@@2@@Z
_TEXT	SEGMENT
this$ = 8
_Ptr$ = 16
?destroy@?$allocator@U_Node@?$_Tree_nod@V?$_Tmap_traits@KPEAVThreadInfo@@U?$less@K@std@@V?$allocator@U?$pair@$$CBKPEAVThreadInfo@@@std@@@3@$0A@@std@@@std@@@std@@QEAAXPEAU_Node@?$_Tree_nod@V?$_Tmap_traits@KPEAVThreadInfo@@U?$less@K@std@@V?$allocator@U?$pair@$$CBKPEAVThreadInfo@@@std@@@3@$0A@@std@@@2@@Z PROC ; std::allocator<std::_Tree_nod<std::_Tmap_traits<unsigned long,ThreadInfo * __ptr64,std::less<unsigned long>,std::allocator<std::pair<unsigned long const ,ThreadInfo * __ptr64> >,0> >::_Node>::destroy, COMDAT

; 160  : 		_Destroy(_Ptr);
; 161  : 		}

	ret	0
?destroy@?$allocator@U_Node@?$_Tree_nod@V?$_Tmap_traits@KPEAVThreadInfo@@U?$less@K@std@@V?$allocator@U?$pair@$$CBKPEAVThreadInfo@@@std@@@3@$0A@@std@@@std@@@std@@QEAAXPEAU_Node@?$_Tree_nod@V?$_Tmap_traits@KPEAVThreadInfo@@U?$less@K@std@@V?$allocator@U?$pair@$$CBKPEAVThreadInfo@@@std@@@3@$0A@@std@@@2@@Z ENDP ; std::allocator<std::_Tree_nod<std::_Tmap_traits<unsigned long,ThreadInfo * __ptr64,std::less<unsigned long>,std::allocator<std::pair<unsigned long const ,ThreadInfo * __ptr64> >,0> >::_Node>::destroy
; Function compile flags: /Ogtpy
; File c:\program files\microsoft visual studio 9.0\vc\include\xtree
_TEXT	ENDS
;	COMDAT ?_Isnil@?$_Tree@V?$_Tmap_traits@KPEAVThreadInfo@@U?$less@K@std@@V?$allocator@U?$pair@$$CBKPEAVThreadInfo@@@std@@@3@$0A@@std@@@std@@KAAEADPEAU_Node@?$_Tree_nod@V?$_Tmap_traits@KPEAVThreadInfo@@U?$less@K@std@@V?$allocator@U?$pair@$$CBKPEAVThreadInfo@@@std@@@3@$0A@@std@@@2@@Z
_TEXT	SEGMENT
_Pnode$ = 8
?_Isnil@?$_Tree@V?$_Tmap_traits@KPEAVThreadInfo@@U?$less@K@std@@V?$allocator@U?$pair@$$CBKPEAVThreadInfo@@@std@@@3@$0A@@std@@@std@@KAAEADPEAU_Node@?$_Tree_nod@V?$_Tmap_traits@KPEAVThreadInfo@@U?$less@K@std@@V?$allocator@U?$pair@$$CBKPEAVThreadInfo@@@std@@@3@$0A@@std@@@2@@Z PROC ; std::_Tree<std::_Tmap_traits<unsigned long,ThreadInfo * __ptr64,std::less<unsigned long>,std::allocator<std::pair<unsigned long const ,ThreadInfo * __ptr64> >,0> >::_Isnil, COMDAT

; 157  : 		return ((_Charref)(*_Pnode)._Isnil);

	lea	rax, QWORD PTR [rcx+41]

; 158  : 		}

	ret	0
?_Isnil@?$_Tree@V?$_Tmap_traits@KPEAVThreadInfo@@U?$less@K@std@@V?$allocator@U?$pair@$$CBKPEAVThreadInfo@@@std@@@3@$0A@@std@@@std@@KAAEADPEAU_Node@?$_Tree_nod@V?$_Tmap_traits@KPEAVThreadInfo@@U?$less@K@std@@V?$allocator@U?$pair@$$CBKPEAVThreadInfo@@@std@@@3@$0A@@std@@@2@@Z ENDP ; std::_Tree<std::_Tmap_traits<unsigned long,ThreadInfo * __ptr64,std::less<unsigned long>,std::allocator<std::pair<unsigned long const ,ThreadInfo * __ptr64> >,0> >::_Isnil
; Function compile flags: /Ogtpy
_TEXT	ENDS
;	COMDAT ?_Color@?$_Tree@V?$_Tmap_traits@KPEAVThreadInfo@@U?$less@K@std@@V?$allocator@U?$pair@$$CBKPEAVThreadInfo@@@std@@@3@$0A@@std@@@std@@KAAEADPEAU_Node@?$_Tree_nod@V?$_Tmap_traits@KPEAVThreadInfo@@U?$less@K@std@@V?$allocator@U?$pair@$$CBKPEAVThreadInfo@@@std@@@3@$0A@@std@@@2@@Z
_TEXT	SEGMENT
_Pnode$ = 8
?_Color@?$_Tree@V?$_Tmap_traits@KPEAVThreadInfo@@U?$less@K@std@@V?$allocator@U?$pair@$$CBKPEAVThreadInfo@@@std@@@3@$0A@@std@@@std@@KAAEADPEAU_Node@?$_Tree_nod@V?$_Tmap_traits@KPEAVThreadInfo@@U?$less@K@std@@V?$allocator@U?$pair@$$CBKPEAVThreadInfo@@@std@@@3@$0A@@std@@@2@@Z PROC ; std::_Tree<std::_Tmap_traits<unsigned long,ThreadInfo * __ptr64,std::less<unsigned long>,std::allocator<std::pair<unsigned long const ,ThreadInfo * __ptr64> >,0> >::_Color, COMDAT

; 152  : 		return ((_Charref)(*_Pnode)._Color);

	lea	rax, QWORD PTR [rcx+40]

; 153  : 		}

	ret	0
?_Color@?$_Tree@V?$_Tmap_traits@KPEAVThreadInfo@@U?$less@K@std@@V?$allocator@U?$pair@$$CBKPEAVThreadInfo@@@std@@@3@$0A@@std@@@std@@KAAEADPEAU_Node@?$_Tree_nod@V?$_Tmap_traits@KPEAVThreadInfo@@U?$less@K@std@@V?$allocator@U?$pair@$$CBKPEAVThreadInfo@@@std@@@3@$0A@@std@@@2@@Z ENDP ; std::_Tree<std::_Tmap_traits<unsigned long,ThreadInfo * __ptr64,std::less<unsigned long>,std::allocator<std::pair<unsigned long const ,ThreadInfo * __ptr64> >,0> >::_Color
; Function compile flags: /Ogtpy
; File c:\program files\microsoft visual studio 9.0\vc\include\xmemory
_TEXT	ENDS
;	COMDAT ?destroy@?$allocator@U_Node@?$_Tree_nod@V?$_Tmap_traits@_KPEAVThreadInfo@@U?$less@_K@std@@V?$allocator@U?$pair@$$CB_KPEAVThreadInfo@@@std@@@3@$0A@@std@@@std@@@std@@QEAAXPEAU_Node@?$_Tree_nod@V?$_Tmap_traits@_KPEAVThreadInfo@@U?$less@_K@std@@V?$allocator@U?$pair@$$CB_KPEAVThreadInfo@@@std@@@3@$0A@@std@@@2@@Z
_TEXT	SEGMENT
this$ = 8
_Ptr$ = 16
?destroy@?$allocator@U_Node@?$_Tree_nod@V?$_Tmap_traits@_KPEAVThreadInfo@@U?$less@_K@std@@V?$allocator@U?$pair@$$CB_KPEAVThreadInfo@@@std@@@3@$0A@@std@@@std@@@std@@QEAAXPEAU_Node@?$_Tree_nod@V?$_Tmap_traits@_KPEAVThreadInfo@@U?$less@_K@std@@V?$allocator@U?$pair@$$CB_KPEAVThreadInfo@@@std@@@3@$0A@@std@@@2@@Z PROC ; std::allocator<std::_Tree_nod<std::_Tmap_traits<unsigned __int64,ThreadInfo * __ptr64,std::less<unsigned __int64>,std::allocator<std::pair<unsigned __int64 const ,ThreadInfo * __ptr64> >,0> >::_Node>::destroy, COMDAT

; 160  : 		_Destroy(_Ptr);
; 161  : 		}

	ret	0
?destroy@?$allocator@U_Node@?$_Tree_nod@V?$_Tmap_traits@_KPEAVThreadInfo@@U?$less@_K@std@@V?$allocator@U?$pair@$$CB_KPEAVThreadInfo@@@std@@@3@$0A@@std@@@std@@@std@@QEAAXPEAU_Node@?$_Tree_nod@V?$_Tmap_traits@_KPEAVThreadInfo@@U?$less@_K@std@@V?$allocator@U?$pair@$$CB_KPEAVThreadInfo@@@std@@@3@$0A@@std@@@2@@Z ENDP ; std::allocator<std::_Tree_nod<std::_Tmap_traits<unsigned __int64,ThreadInfo * __ptr64,std::less<unsigned __int64>,std::allocator<std::pair<unsigned __int64 const ,ThreadInfo * __ptr64> >,0> >::_Node>::destroy
; Function compile flags: /Ogtpy
; File c:\program files\microsoft visual studio 9.0\vc\include\xtree
_TEXT	ENDS
;	COMDAT ?_Isnil@?$_Tree@V?$_Tmap_traits@_KPEAVThreadInfo@@U?$less@_K@std@@V?$allocator@U?$pair@$$CB_KPEAVThreadInfo@@@std@@@3@$0A@@std@@@std@@KAAEADPEAU_Node@?$_Tree_nod@V?$_Tmap_traits@_KPEAVThreadInfo@@U?$less@_K@std@@V?$allocator@U?$pair@$$CB_KPEAVThreadInfo@@@std@@@3@$0A@@std@@@2@@Z
_TEXT	SEGMENT
_Pnode$ = 8
?_Isnil@?$_Tree@V?$_Tmap_traits@_KPEAVThreadInfo@@U?$less@_K@std@@V?$allocator@U?$pair@$$CB_KPEAVThreadInfo@@@std@@@3@$0A@@std@@@std@@KAAEADPEAU_Node@?$_Tree_nod@V?$_Tmap_traits@_KPEAVThreadInfo@@U?$less@_K@std@@V?$allocator@U?$pair@$$CB_KPEAVThreadInfo@@@std@@@3@$0A@@std@@@2@@Z PROC ; std::_Tree<std::_Tmap_traits<unsigned __int64,ThreadInfo * __ptr64,std::less<unsigned __int64>,std::allocator<std::pair<unsigned __int64 const ,ThreadInfo * __ptr64> >,0> >::_Isnil, COMDAT

; 157  : 		return ((_Charref)(*_Pnode)._Isnil);

	lea	rax, QWORD PTR [rcx+41]

; 158  : 		}

	ret	0
?_Isnil@?$_Tree@V?$_Tmap_traits@_KPEAVThreadInfo@@U?$less@_K@std@@V?$allocator@U?$pair@$$CB_KPEAVThreadInfo@@@std@@@3@$0A@@std@@@std@@KAAEADPEAU_Node@?$_Tree_nod@V?$_Tmap_traits@_KPEAVThreadInfo@@U?$less@_K@std@@V?$allocator@U?$pair@$$CB_KPEAVThreadInfo@@@std@@@3@$0A@@std@@@2@@Z ENDP ; std::_Tree<std::_Tmap_traits<unsigned __int64,ThreadInfo * __ptr64,std::less<unsigned __int64>,std::allocator<std::pair<unsigned __int64 const ,ThreadInfo * __ptr64> >,0> >::_Isnil
; Function compile flags: /Ogtpy
_TEXT	ENDS
;	COMDAT ?_Color@?$_Tree@V?$_Tmap_traits@_KPEAVThreadInfo@@U?$less@_K@std@@V?$allocator@U?$pair@$$CB_KPEAVThreadInfo@@@std@@@3@$0A@@std@@@std@@KAAEADPEAU_Node@?$_Tree_nod@V?$_Tmap_traits@_KPEAVThreadInfo@@U?$less@_K@std@@V?$allocator@U?$pair@$$CB_KPEAVThreadInfo@@@std@@@3@$0A@@std@@@2@@Z
_TEXT	SEGMENT
_Pnode$ = 8
?_Color@?$_Tree@V?$_Tmap_traits@_KPEAVThreadInfo@@U?$less@_K@std@@V?$allocator@U?$pair@$$CB_KPEAVThreadInfo@@@std@@@3@$0A@@std@@@std@@KAAEADPEAU_Node@?$_Tree_nod@V?$_Tmap_traits@_KPEAVThreadInfo@@U?$less@_K@std@@V?$allocator@U?$pair@$$CB_KPEAVThreadInfo@@@std@@@3@$0A@@std@@@2@@Z PROC ; std::_Tree<std::_Tmap_traits<unsigned __int64,ThreadInfo * __ptr64,std::less<unsigned __int64>,std::allocator<std::pair<unsigned __int64 const ,ThreadInfo * __ptr64> >,0> >::_Color, COMDAT

; 152  : 		return ((_Charref)(*_Pnode)._Color);

	lea	rax, QWORD PTR [rcx+40]

; 153  : 		}

	ret	0
?_Color@?$_Tree@V?$_Tmap_traits@_KPEAVThreadInfo@@U?$less@_K@std@@V?$allocator@U?$pair@$$CB_KPEAVThreadInfo@@@std@@@3@$0A@@std@@@std@@KAAEADPEAU_Node@?$_Tree_nod@V?$_Tmap_traits@_KPEAVThreadInfo@@U?$less@_K@std@@V?$allocator@U?$pair@$$CB_KPEAVThreadInfo@@@std@@@3@$0A@@std@@@2@@Z ENDP ; std::_Tree<std::_Tmap_traits<unsigned __int64,ThreadInfo * __ptr64,std::less<unsigned __int64>,std::allocator<std::pair<unsigned __int64 const ,ThreadInfo * __ptr64> >,0> >::_Color
; Function compile flags: /Ogtpy
; File c:\program files\microsoft visual studio 9.0\vc\include\xmemory
_TEXT	ENDS
;	COMDAT ?destroy@?$allocator@U_Node@?$_Tree_nod@V?$_Tmap_traits@_KHU?$less@_K@std@@V?$allocator@U?$pair@$$CB_KH@std@@@2@$0A@@std@@@std@@@std@@QEAAXPEAU_Node@?$_Tree_nod@V?$_Tmap_traits@_KHU?$less@_K@std@@V?$allocator@U?$pair@$$CB_KH@std@@@2@$0A@@std@@@2@@Z
_TEXT	SEGMENT
this$ = 8
_Ptr$ = 16
?destroy@?$allocator@U_Node@?$_Tree_nod@V?$_Tmap_traits@_KHU?$less@_K@std@@V?$allocator@U?$pair@$$CB_KH@std@@@2@$0A@@std@@@std@@@std@@QEAAXPEAU_Node@?$_Tree_nod@V?$_Tmap_traits@_KHU?$less@_K@std@@V?$allocator@U?$pair@$$CB_KH@std@@@2@$0A@@std@@@2@@Z PROC ; std::allocator<std::_Tree_nod<std::_Tmap_traits<unsigned __int64,int,std::less<unsigned __int64>,std::allocator<std::pair<unsigned __int64 const ,int> >,0> >::_Node>::destroy, COMDAT

; 160  : 		_Destroy(_Ptr);
; 161  : 		}

	ret	0
?destroy@?$allocator@U_Node@?$_Tree_nod@V?$_Tmap_traits@_KHU?$less@_K@std@@V?$allocator@U?$pair@$$CB_KH@std@@@2@$0A@@std@@@std@@@std@@QEAAXPEAU_Node@?$_Tree_nod@V?$_Tmap_traits@_KHU?$less@_K@std@@V?$allocator@U?$pair@$$CB_KH@std@@@2@$0A@@std@@@2@@Z ENDP ; std::allocator<std::_Tree_nod<std::_Tmap_traits<unsigned __int64,int,std::less<unsigned __int64>,std::allocator<std::pair<unsigned __int64 const ,int> >,0> >::_Node>::destroy
; Function compile flags: /Ogtpy
; File c:\program files\microsoft visual studio 9.0\vc\include\xtree
_TEXT	ENDS
;	COMDAT ?_Isnil@?$_Tree@V?$_Tmap_traits@_KHU?$less@_K@std@@V?$allocator@U?$pair@$$CB_KH@std@@@2@$0A@@std@@@std@@KAAEADPEAU_Node@?$_Tree_nod@V?$_Tmap_traits@_KHU?$less@_K@std@@V?$allocator@U?$pair@$$CB_KH@std@@@2@$0A@@std@@@2@@Z
_TEXT	SEGMENT
_Pnode$ = 8
?_Isnil@?$_Tree@V?$_Tmap_traits@_KHU?$less@_K@std@@V?$allocator@U?$pair@$$CB_KH@std@@@2@$0A@@std@@@std@@KAAEADPEAU_Node@?$_Tree_nod@V?$_Tmap_traits@_KHU?$less@_K@std@@V?$allocator@U?$pair@$$CB_KH@std@@@2@$0A@@std@@@2@@Z PROC ; std::_Tree<std::_Tmap_traits<unsigned __int64,int,std::less<unsigned __int64>,std::allocator<std::pair<unsigned __int64 const ,int> >,0> >::_Isnil, COMDAT

; 157  : 		return ((_Charref)(*_Pnode)._Isnil);

	lea	rax, QWORD PTR [rcx+41]

; 158  : 		}

	ret	0
?_Isnil@?$_Tree@V?$_Tmap_traits@_KHU?$less@_K@std@@V?$allocator@U?$pair@$$CB_KH@std@@@2@$0A@@std@@@std@@KAAEADPEAU_Node@?$_Tree_nod@V?$_Tmap_traits@_KHU?$less@_K@std@@V?$allocator@U?$pair@$$CB_KH@std@@@2@$0A@@std@@@2@@Z ENDP ; std::_Tree<std::_Tmap_traits<unsigned __int64,int,std::less<unsigned __int64>,std::allocator<std::pair<unsigned __int64 const ,int> >,0> >::_Isnil
; Function compile flags: /Ogtpy
_TEXT	ENDS
;	COMDAT ?_Color@?$_Tree@V?$_Tmap_traits@_KHU?$less@_K@std@@V?$allocator@U?$pair@$$CB_KH@std@@@2@$0A@@std@@@std@@KAAEADPEAU_Node@?$_Tree_nod@V?$_Tmap_traits@_KHU?$less@_K@std@@V?$allocator@U?$pair@$$CB_KH@std@@@2@$0A@@std@@@2@@Z
_TEXT	SEGMENT
_Pnode$ = 8
?_Color@?$_Tree@V?$_Tmap_traits@_KHU?$less@_K@std@@V?$allocator@U?$pair@$$CB_KH@std@@@2@$0A@@std@@@std@@KAAEADPEAU_Node@?$_Tree_nod@V?$_Tmap_traits@_KHU?$less@_K@std@@V?$allocator@U?$pair@$$CB_KH@std@@@2@$0A@@std@@@2@@Z PROC ; std::_Tree<std::_Tmap_traits<unsigned __int64,int,std::less<unsigned __int64>,std::allocator<std::pair<unsigned __int64 const ,int> >,0> >::_Color, COMDAT

; 152  : 		return ((_Charref)(*_Pnode)._Color);

	lea	rax, QWORD PTR [rcx+40]

; 153  : 		}

	ret	0
?_Color@?$_Tree@V?$_Tmap_traits@_KHU?$less@_K@std@@V?$allocator@U?$pair@$$CB_KH@std@@@2@$0A@@std@@@std@@KAAEADPEAU_Node@?$_Tree_nod@V?$_Tmap_traits@_KHU?$less@_K@std@@V?$allocator@U?$pair@$$CB_KH@std@@@2@$0A@@std@@@2@@Z ENDP ; std::_Tree<std::_Tmap_traits<unsigned __int64,int,std::less<unsigned __int64>,std::allocator<std::pair<unsigned __int64 const ,int> >,0> >::_Color
; Function compile flags: /Ogtpy
; File c:\program files\microsoft visual studio 9.0\vc\include\xmemory
_TEXT	ENDS
;	COMDAT ?destroy@?$allocator@PEAU_Node@?$_Tree_nod@V?$_Tmap_traits@KPEAVThreadInfo@@U?$less@K@std@@V?$allocator@U?$pair@$$CBKPEAVThreadInfo@@@std@@@3@$0A@@std@@@std@@@std@@QEAAXPEAPEAU_Node@?$_Tree_nod@V?$_Tmap_traits@KPEAVThreadInfo@@U?$less@K@std@@V?$allocator@U?$pair@$$CBKPEAVThreadInfo@@@std@@@3@$0A@@std@@@2@@Z
_TEXT	SEGMENT
this$ = 8
_Ptr$ = 16
?destroy@?$allocator@PEAU_Node@?$_Tree_nod@V?$_Tmap_traits@KPEAVThreadInfo@@U?$less@K@std@@V?$allocator@U?$pair@$$CBKPEAVThreadInfo@@@std@@@3@$0A@@std@@@std@@@std@@QEAAXPEAPEAU_Node@?$_Tree_nod@V?$_Tmap_traits@KPEAVThreadInfo@@U?$less@K@std@@V?$allocator@U?$pair@$$CBKPEAVThreadInfo@@@std@@@3@$0A@@std@@@2@@Z PROC ; std::allocator<std::_Tree_nod<std::_Tmap_traits<unsigned long,ThreadInfo * __ptr64,std::less<unsigned long>,std::allocator<std::pair<unsigned long const ,ThreadInfo * __ptr64> >,0> >::_Node * __ptr64>::destroy, COMDAT

; 160  : 		_Destroy(_Ptr);
; 161  : 		}

	ret	0
?destroy@?$allocator@PEAU_Node@?$_Tree_nod@V?$_Tmap_traits@KPEAVThreadInfo@@U?$less@K@std@@V?$allocator@U?$pair@$$CBKPEAVThreadInfo@@@std@@@3@$0A@@std@@@std@@@std@@QEAAXPEAPEAU_Node@?$_Tree_nod@V?$_Tmap_traits@KPEAVThreadInfo@@U?$less@K@std@@V?$allocator@U?$pair@$$CBKPEAVThreadInfo@@@std@@@3@$0A@@std@@@2@@Z ENDP ; std::allocator<std::_Tree_nod<std::_Tmap_traits<unsigned long,ThreadInfo * __ptr64,std::less<unsigned long>,std::allocator<std::pair<unsigned long const ,ThreadInfo * __ptr64> >,0> >::_Node * __ptr64>::destroy
; Function compile flags: /Ogtpy
_TEXT	ENDS
;	COMDAT ?deallocate@?$allocator@U_Node@?$_Tree_nod@V?$_Tmap_traits@KPEAVThreadInfo@@U?$less@K@std@@V?$allocator@U?$pair@$$CBKPEAVThreadInfo@@@std@@@3@$0A@@std@@@std@@@std@@QEAAXPEAU_Node@?$_Tree_nod@V?$_Tmap_traits@KPEAVThreadInfo@@U?$less@K@std@@V?$allocator@U?$pair@$$CBKPEAVThreadInfo@@@std@@@3@$0A@@std@@@2@_K@Z
_TEXT	SEGMENT
this$ = 8
_Ptr$ = 16
__formal$ = 24
?deallocate@?$allocator@U_Node@?$_Tree_nod@V?$_Tmap_traits@KPEAVThreadInfo@@U?$less@K@std@@V?$allocator@U?$pair@$$CBKPEAVThreadInfo@@@std@@@3@$0A@@std@@@std@@@std@@QEAAXPEAU_Node@?$_Tree_nod@V?$_Tmap_traits@KPEAVThreadInfo@@U?$less@K@std@@V?$allocator@U?$pair@$$CBKPEAVThreadInfo@@@std@@@3@$0A@@std@@@2@_K@Z PROC ; std::allocator<std::_Tree_nod<std::_Tmap_traits<unsigned long,ThreadInfo * __ptr64,std::less<unsigned long>,std::allocator<std::pair<unsigned long const ,ThreadInfo * __ptr64> >,0> >::_Node>::deallocate, COMDAT

; 140  : 		::operator delete(_Ptr);

	mov	rcx, rdx

; 141  : 		}

	jmp	??3@YAXPEAX@Z				; operator delete
?deallocate@?$allocator@U_Node@?$_Tree_nod@V?$_Tmap_traits@KPEAVThreadInfo@@U?$less@K@std@@V?$allocator@U?$pair@$$CBKPEAVThreadInfo@@@std@@@3@$0A@@std@@@std@@@std@@QEAAXPEAU_Node@?$_Tree_nod@V?$_Tmap_traits@KPEAVThreadInfo@@U?$less@K@std@@V?$allocator@U?$pair@$$CBKPEAVThreadInfo@@@std@@@3@$0A@@std@@@2@_K@Z ENDP ; std::allocator<std::_Tree_nod<std::_Tmap_traits<unsigned long,ThreadInfo * __ptr64,std::less<unsigned long>,std::allocator<std::pair<unsigned long const ,ThreadInfo * __ptr64> >,0> >::_Node>::deallocate
; Function compile flags: /Ogtpy
; File c:\program files\microsoft visual studio 9.0\vc\include\xtree
_TEXT	ENDS
;	COMDAT ?_Right@?$_Tree@V?$_Tmap_traits@KPEAVThreadInfo@@U?$less@K@std@@V?$allocator@U?$pair@$$CBKPEAVThreadInfo@@@std@@@3@$0A@@std@@@std@@KAAEAPEAU_Node@?$_Tree_nod@V?$_Tmap_traits@KPEAVThreadInfo@@U?$less@K@std@@V?$allocator@U?$pair@$$CBKPEAVThreadInfo@@@std@@@3@$0A@@std@@@2@PEAU342@@Z
_TEXT	SEGMENT
_Pnode$ = 8
?_Right@?$_Tree@V?$_Tmap_traits@KPEAVThreadInfo@@U?$less@K@std@@V?$allocator@U?$pair@$$CBKPEAVThreadInfo@@@std@@@3@$0A@@std@@@std@@KAAEAPEAU_Node@?$_Tree_nod@V?$_Tmap_traits@KPEAVThreadInfo@@U?$less@K@std@@V?$allocator@U?$pair@$$CBKPEAVThreadInfo@@@std@@@3@$0A@@std@@@2@PEAU342@@Z PROC ; std::_Tree<std::_Tmap_traits<unsigned long,ThreadInfo * __ptr64,std::less<unsigned long>,std::allocator<std::pair<unsigned long const ,ThreadInfo * __ptr64> >,0> >::_Right, COMDAT

; 177  : 		return ((_Nodepref)(*_Pnode)._Right);

	lea	rax, QWORD PTR [rcx+16]

; 178  : 		}

	ret	0
?_Right@?$_Tree@V?$_Tmap_traits@KPEAVThreadInfo@@U?$less@K@std@@V?$allocator@U?$pair@$$CBKPEAVThreadInfo@@@std@@@3@$0A@@std@@@std@@KAAEAPEAU_Node@?$_Tree_nod@V?$_Tmap_traits@KPEAVThreadInfo@@U?$less@K@std@@V?$allocator@U?$pair@$$CBKPEAVThreadInfo@@@std@@@3@$0A@@std@@@2@PEAU342@@Z ENDP ; std::_Tree<std::_Tmap_traits<unsigned long,ThreadInfo * __ptr64,std::less<unsigned long>,std::allocator<std::pair<unsigned long const ,ThreadInfo * __ptr64> >,0> >::_Right
; Function compile flags: /Ogtpy
_TEXT	ENDS
;	COMDAT ?_Parent@?$_Tree@V?$_Tmap_traits@KPEAVThreadInfo@@U?$less@K@std@@V?$allocator@U?$pair@$$CBKPEAVThreadInfo@@@std@@@3@$0A@@std@@@std@@KAAEAPEAU_Node@?$_Tree_nod@V?$_Tmap_traits@KPEAVThreadInfo@@U?$less@K@std@@V?$allocator@U?$pair@$$CBKPEAVThreadInfo@@@std@@@3@$0A@@std@@@2@PEAU342@@Z
_TEXT	SEGMENT
_Pnode$ = 8
?_Parent@?$_Tree@V?$_Tmap_traits@KPEAVThreadInfo@@U?$less@K@std@@V?$allocator@U?$pair@$$CBKPEAVThreadInfo@@@std@@@3@$0A@@std@@@std@@KAAEAPEAU_Node@?$_Tree_nod@V?$_Tmap_traits@KPEAVThreadInfo@@U?$less@K@std@@V?$allocator@U?$pair@$$CBKPEAVThreadInfo@@@std@@@3@$0A@@std@@@2@PEAU342@@Z PROC ; std::_Tree<std::_Tmap_traits<unsigned long,ThreadInfo * __ptr64,std::less<unsigned long>,std::allocator<std::pair<unsigned long const ,ThreadInfo * __ptr64> >,0> >::_Parent, COMDAT

; 172  : 		return ((_Nodepref)(*_Pnode)._Parent);

	lea	rax, QWORD PTR [rcx+8]

; 173  : 		}

	ret	0
?_Parent@?$_Tree@V?$_Tmap_traits@KPEAVThreadInfo@@U?$less@K@std@@V?$allocator@U?$pair@$$CBKPEAVThreadInfo@@@std@@@3@$0A@@std@@@std@@KAAEAPEAU_Node@?$_Tree_nod@V?$_Tmap_traits@KPEAVThreadInfo@@U?$less@K@std@@V?$allocator@U?$pair@$$CBKPEAVThreadInfo@@@std@@@3@$0A@@std@@@2@PEAU342@@Z ENDP ; std::_Tree<std::_Tmap_traits<unsigned long,ThreadInfo * __ptr64,std::less<unsigned long>,std::allocator<std::pair<unsigned long const ,ThreadInfo * __ptr64> >,0> >::_Parent
; Function compile flags: /Ogtpy
_TEXT	ENDS
;	COMDAT ?_Left@?$_Tree@V?$_Tmap_traits@KPEAVThreadInfo@@U?$less@K@std@@V?$allocator@U?$pair@$$CBKPEAVThreadInfo@@@std@@@3@$0A@@std@@@std@@KAAEAPEAU_Node@?$_Tree_nod@V?$_Tmap_traits@KPEAVThreadInfo@@U?$less@K@std@@V?$allocator@U?$pair@$$CBKPEAVThreadInfo@@@std@@@3@$0A@@std@@@2@PEAU342@@Z
_TEXT	SEGMENT
_Pnode$ = 8
?_Left@?$_Tree@V?$_Tmap_traits@KPEAVThreadInfo@@U?$less@K@std@@V?$allocator@U?$pair@$$CBKPEAVThreadInfo@@@std@@@3@$0A@@std@@@std@@KAAEAPEAU_Node@?$_Tree_nod@V?$_Tmap_traits@KPEAVThreadInfo@@U?$less@K@std@@V?$allocator@U?$pair@$$CBKPEAVThreadInfo@@@std@@@3@$0A@@std@@@2@PEAU342@@Z PROC ; std::_Tree<std::_Tmap_traits<unsigned long,ThreadInfo * __ptr64,std::less<unsigned long>,std::allocator<std::pair<unsigned long const ,ThreadInfo * __ptr64> >,0> >::_Left, COMDAT

; 167  : 		return ((_Nodepref)(*_Pnode)._Left);

	mov	rax, rcx

; 168  : 		}

	ret	0
?_Left@?$_Tree@V?$_Tmap_traits@KPEAVThreadInfo@@U?$less@K@std@@V?$allocator@U?$pair@$$CBKPEAVThreadInfo@@@std@@@3@$0A@@std@@@std@@KAAEAPEAU_Node@?$_Tree_nod@V?$_Tmap_traits@KPEAVThreadInfo@@U?$less@K@std@@V?$allocator@U?$pair@$$CBKPEAVThreadInfo@@@std@@@3@$0A@@std@@@2@PEAU342@@Z ENDP ; std::_Tree<std::_Tmap_traits<unsigned long,ThreadInfo * __ptr64,std::less<unsigned long>,std::allocator<std::pair<unsigned long const ,ThreadInfo * __ptr64> >,0> >::_Left
; Function compile flags: /Ogtpy
; File c:\program files\microsoft visual studio 9.0\vc\include\xmemory
_TEXT	ENDS
;	COMDAT ?destroy@?$allocator@PEAU_Node@?$_Tree_nod@V?$_Tmap_traits@_KPEAVThreadInfo@@U?$less@_K@std@@V?$allocator@U?$pair@$$CB_KPEAVThreadInfo@@@std@@@3@$0A@@std@@@std@@@std@@QEAAXPEAPEAU_Node@?$_Tree_nod@V?$_Tmap_traits@_KPEAVThreadInfo@@U?$less@_K@std@@V?$allocator@U?$pair@$$CB_KPEAVThreadInfo@@@std@@@3@$0A@@std@@@2@@Z
_TEXT	SEGMENT
this$ = 8
_Ptr$ = 16
?destroy@?$allocator@PEAU_Node@?$_Tree_nod@V?$_Tmap_traits@_KPEAVThreadInfo@@U?$less@_K@std@@V?$allocator@U?$pair@$$CB_KPEAVThreadInfo@@@std@@@3@$0A@@std@@@std@@@std@@QEAAXPEAPEAU_Node@?$_Tree_nod@V?$_Tmap_traits@_KPEAVThreadInfo@@U?$less@_K@std@@V?$allocator@U?$pair@$$CB_KPEAVThreadInfo@@@std@@@3@$0A@@std@@@2@@Z PROC ; std::allocator<std::_Tree_nod<std::_Tmap_traits<unsigned __int64,ThreadInfo * __ptr64,std::less<unsigned __int64>,std::allocator<std::pair<unsigned __int64 const ,ThreadInfo * __ptr64> >,0> >::_Node * __ptr64>::destroy, COMDAT

; 160  : 		_Destroy(_Ptr);
; 161  : 		}

	ret	0
?destroy@?$allocator@PEAU_Node@?$_Tree_nod@V?$_Tmap_traits@_KPEAVThreadInfo@@U?$less@_K@std@@V?$allocator@U?$pair@$$CB_KPEAVThreadInfo@@@std@@@3@$0A@@std@@@std@@@std@@QEAAXPEAPEAU_Node@?$_Tree_nod@V?$_Tmap_traits@_KPEAVThreadInfo@@U?$less@_K@std@@V?$allocator@U?$pair@$$CB_KPEAVThreadInfo@@@std@@@3@$0A@@std@@@2@@Z ENDP ; std::allocator<std::_Tree_nod<std::_Tmap_traits<unsigned __int64,ThreadInfo * __ptr64,std::less<unsigned __int64>,std::allocator<std::pair<unsigned __int64 const ,ThreadInfo * __ptr64> >,0> >::_Node * __ptr64>::destroy
; Function compile flags: /Ogtpy
_TEXT	ENDS
;	COMDAT ?deallocate@?$allocator@U_Node@?$_Tree_nod@V?$_Tmap_traits@_KPEAVThreadInfo@@U?$less@_K@std@@V?$allocator@U?$pair@$$CB_KPEAVThreadInfo@@@std@@@3@$0A@@std@@@std@@@std@@QEAAXPEAU_Node@?$_Tree_nod@V?$_Tmap_traits@_KPEAVThreadInfo@@U?$less@_K@std@@V?$allocator@U?$pair@$$CB_KPEAVThreadInfo@@@std@@@3@$0A@@std@@@2@_K@Z
_TEXT	SEGMENT
this$ = 8
_Ptr$ = 16
__formal$ = 24
?deallocate@?$allocator@U_Node@?$_Tree_nod@V?$_Tmap_traits@_KPEAVThreadInfo@@U?$less@_K@std@@V?$allocator@U?$pair@$$CB_KPEAVThreadInfo@@@std@@@3@$0A@@std@@@std@@@std@@QEAAXPEAU_Node@?$_Tree_nod@V?$_Tmap_traits@_KPEAVThreadInfo@@U?$less@_K@std@@V?$allocator@U?$pair@$$CB_KPEAVThreadInfo@@@std@@@3@$0A@@std@@@2@_K@Z PROC ; std::allocator<std::_Tree_nod<std::_Tmap_traits<unsigned __int64,ThreadInfo * __ptr64,std::less<unsigned __int64>,std::allocator<std::pair<unsigned __int64 const ,ThreadInfo * __ptr64> >,0> >::_Node>::deallocate, COMDAT

; 140  : 		::operator delete(_Ptr);

	mov	rcx, rdx

; 141  : 		}

	jmp	??3@YAXPEAX@Z				; operator delete
?deallocate@?$allocator@U_Node@?$_Tree_nod@V?$_Tmap_traits@_KPEAVThreadInfo@@U?$less@_K@std@@V?$allocator@U?$pair@$$CB_KPEAVThreadInfo@@@std@@@3@$0A@@std@@@std@@@std@@QEAAXPEAU_Node@?$_Tree_nod@V?$_Tmap_traits@_KPEAVThreadInfo@@U?$less@_K@std@@V?$allocator@U?$pair@$$CB_KPEAVThreadInfo@@@std@@@3@$0A@@std@@@2@_K@Z ENDP ; std::allocator<std::_Tree_nod<std::_Tmap_traits<unsigned __int64,ThreadInfo * __ptr64,std::less<unsigned __int64>,std::allocator<std::pair<unsigned __int64 const ,ThreadInfo * __ptr64> >,0> >::_Node>::deallocate
; Function compile flags: /Ogtpy
; File c:\program files\microsoft visual studio 9.0\vc\include\xtree
_TEXT	ENDS
;	COMDAT ?_Right@?$_Tree@V?$_Tmap_traits@_KPEAVThreadInfo@@U?$less@_K@std@@V?$allocator@U?$pair@$$CB_KPEAVThreadInfo@@@std@@@3@$0A@@std@@@std@@KAAEAPEAU_Node@?$_Tree_nod@V?$_Tmap_traits@_KPEAVThreadInfo@@U?$less@_K@std@@V?$allocator@U?$pair@$$CB_KPEAVThreadInfo@@@std@@@3@$0A@@std@@@2@PEAU342@@Z
_TEXT	SEGMENT
_Pnode$ = 8
?_Right@?$_Tree@V?$_Tmap_traits@_KPEAVThreadInfo@@U?$less@_K@std@@V?$allocator@U?$pair@$$CB_KPEAVThreadInfo@@@std@@@3@$0A@@std@@@std@@KAAEAPEAU_Node@?$_Tree_nod@V?$_Tmap_traits@_KPEAVThreadInfo@@U?$less@_K@std@@V?$allocator@U?$pair@$$CB_KPEAVThreadInfo@@@std@@@3@$0A@@std@@@2@PEAU342@@Z PROC ; std::_Tree<std::_Tmap_traits<unsigned __int64,ThreadInfo * __ptr64,std::less<unsigned __int64>,std::allocator<std::pair<unsigned __int64 const ,ThreadInfo * __ptr64> >,0> >::_Right, COMDAT

; 177  : 		return ((_Nodepref)(*_Pnode)._Right);

	lea	rax, QWORD PTR [rcx+16]

; 178  : 		}

	ret	0
?_Right@?$_Tree@V?$_Tmap_traits@_KPEAVThreadInfo@@U?$less@_K@std@@V?$allocator@U?$pair@$$CB_KPEAVThreadInfo@@@std@@@3@$0A@@std@@@std@@KAAEAPEAU_Node@?$_Tree_nod@V?$_Tmap_traits@_KPEAVThreadInfo@@U?$less@_K@std@@V?$allocator@U?$pair@$$CB_KPEAVThreadInfo@@@std@@@3@$0A@@std@@@2@PEAU342@@Z ENDP ; std::_Tree<std::_Tmap_traits<unsigned __int64,ThreadInfo * __ptr64,std::less<unsigned __int64>,std::allocator<std::pair<unsigned __int64 const ,ThreadInfo * __ptr64> >,0> >::_Right
; Function compile flags: /Ogtpy
_TEXT	ENDS
;	COMDAT ?_Parent@?$_Tree@V?$_Tmap_traits@_KPEAVThreadInfo@@U?$less@_K@std@@V?$allocator@U?$pair@$$CB_KPEAVThreadInfo@@@std@@@3@$0A@@std@@@std@@KAAEAPEAU_Node@?$_Tree_nod@V?$_Tmap_traits@_KPEAVThreadInfo@@U?$less@_K@std@@V?$allocator@U?$pair@$$CB_KPEAVThreadInfo@@@std@@@3@$0A@@std@@@2@PEAU342@@Z
_TEXT	SEGMENT
_Pnode$ = 8
?_Parent@?$_Tree@V?$_Tmap_traits@_KPEAVThreadInfo@@U?$less@_K@std@@V?$allocator@U?$pair@$$CB_KPEAVThreadInfo@@@std@@@3@$0A@@std@@@std@@KAAEAPEAU_Node@?$_Tree_nod@V?$_Tmap_traits@_KPEAVThreadInfo@@U?$less@_K@std@@V?$allocator@U?$pair@$$CB_KPEAVThreadInfo@@@std@@@3@$0A@@std@@@2@PEAU342@@Z PROC ; std::_Tree<std::_Tmap_traits<unsigned __int64,ThreadInfo * __ptr64,std::less<unsigned __int64>,std::allocator<std::pair<unsigned __int64 const ,ThreadInfo * __ptr64> >,0> >::_Parent, COMDAT

; 172  : 		return ((_Nodepref)(*_Pnode)._Parent);

	lea	rax, QWORD PTR [rcx+8]

; 173  : 		}

	ret	0
?_Parent@?$_Tree@V?$_Tmap_traits@_KPEAVThreadInfo@@U?$less@_K@std@@V?$allocator@U?$pair@$$CB_KPEAVThreadInfo@@@std@@@3@$0A@@std@@@std@@KAAEAPEAU_Node@?$_Tree_nod@V?$_Tmap_traits@_KPEAVThreadInfo@@U?$less@_K@std@@V?$allocator@U?$pair@$$CB_KPEAVThreadInfo@@@std@@@3@$0A@@std@@@2@PEAU342@@Z ENDP ; std::_Tree<std::_Tmap_traits<unsigned __int64,ThreadInfo * __ptr64,std::less<unsigned __int64>,std::allocator<std::pair<unsigned __int64 const ,ThreadInfo * __ptr64> >,0> >::_Parent
; Function compile flags: /Ogtpy
_TEXT	ENDS
;	COMDAT ?_Left@?$_Tree@V?$_Tmap_traits@_KPEAVThreadInfo@@U?$less@_K@std@@V?$allocator@U?$pair@$$CB_KPEAVThreadInfo@@@std@@@3@$0A@@std@@@std@@KAAEAPEAU_Node@?$_Tree_nod@V?$_Tmap_traits@_KPEAVThreadInfo@@U?$less@_K@std@@V?$allocator@U?$pair@$$CB_KPEAVThreadInfo@@@std@@@3@$0A@@std@@@2@PEAU342@@Z
_TEXT	SEGMENT
_Pnode$ = 8
?_Left@?$_Tree@V?$_Tmap_traits@_KPEAVThreadInfo@@U?$less@_K@std@@V?$allocator@U?$pair@$$CB_KPEAVThreadInfo@@@std@@@3@$0A@@std@@@std@@KAAEAPEAU_Node@?$_Tree_nod@V?$_Tmap_traits@_KPEAVThreadInfo@@U?$less@_K@std@@V?$allocator@U?$pair@$$CB_KPEAVThreadInfo@@@std@@@3@$0A@@std@@@2@PEAU342@@Z PROC ; std::_Tree<std::_Tmap_traits<unsigned __int64,ThreadInfo * __ptr64,std::less<unsigned __int64>,std::allocator<std::pair<unsigned __int64 const ,ThreadInfo * __ptr64> >,0> >::_Left, COMDAT

; 167  : 		return ((_Nodepref)(*_Pnode)._Left);

	mov	rax, rcx

; 168  : 		}

	ret	0
?_Left@?$_Tree@V?$_Tmap_traits@_KPEAVThreadInfo@@U?$less@_K@std@@V?$allocator@U?$pair@$$CB_KPEAVThreadInfo@@@std@@@3@$0A@@std@@@std@@KAAEAPEAU_Node@?$_Tree_nod@V?$_Tmap_traits@_KPEAVThreadInfo@@U?$less@_K@std@@V?$allocator@U?$pair@$$CB_KPEAVThreadInfo@@@std@@@3@$0A@@std@@@2@PEAU342@@Z ENDP ; std::_Tree<std::_Tmap_traits<unsigned __int64,ThreadInfo * __ptr64,std::less<unsigned __int64>,std::allocator<std::pair<unsigned __int64 const ,ThreadInfo * __ptr64> >,0> >::_Left
; Function compile flags: /Ogtpy
; File c:\program files\microsoft visual studio 9.0\vc\include\xmemory
_TEXT	ENDS
;	COMDAT ?destroy@?$allocator@PEAU_Node@?$_Tree_nod@V?$_Tmap_traits@_KHU?$less@_K@std@@V?$allocator@U?$pair@$$CB_KH@std@@@2@$0A@@std@@@std@@@std@@QEAAXPEAPEAU_Node@?$_Tree_nod@V?$_Tmap_traits@_KHU?$less@_K@std@@V?$allocator@U?$pair@$$CB_KH@std@@@2@$0A@@std@@@2@@Z
_TEXT	SEGMENT
this$ = 8
_Ptr$ = 16
?destroy@?$allocator@PEAU_Node@?$_Tree_nod@V?$_Tmap_traits@_KHU?$less@_K@std@@V?$allocator@U?$pair@$$CB_KH@std@@@2@$0A@@std@@@std@@@std@@QEAAXPEAPEAU_Node@?$_Tree_nod@V?$_Tmap_traits@_KHU?$less@_K@std@@V?$allocator@U?$pair@$$CB_KH@std@@@2@$0A@@std@@@2@@Z PROC ; std::allocator<std::_Tree_nod<std::_Tmap_traits<unsigned __int64,int,std::less<unsigned __int64>,std::allocator<std::pair<unsigned __int64 const ,int> >,0> >::_Node * __ptr64>::destroy, COMDAT

; 160  : 		_Destroy(_Ptr);
; 161  : 		}

	ret	0
?destroy@?$allocator@PEAU_Node@?$_Tree_nod@V?$_Tmap_traits@_KHU?$less@_K@std@@V?$allocator@U?$pair@$$CB_KH@std@@@2@$0A@@std@@@std@@@std@@QEAAXPEAPEAU_Node@?$_Tree_nod@V?$_Tmap_traits@_KHU?$less@_K@std@@V?$allocator@U?$pair@$$CB_KH@std@@@2@$0A@@std@@@2@@Z ENDP ; std::allocator<std::_Tree_nod<std::_Tmap_traits<unsigned __int64,int,std::less<unsigned __int64>,std::allocator<std::pair<unsigned __int64 const ,int> >,0> >::_Node * __ptr64>::destroy
; Function compile flags: /Ogtpy
_TEXT	ENDS
;	COMDAT ?deallocate@?$allocator@U_Node@?$_Tree_nod@V?$_Tmap_traits@_KHU?$less@_K@std@@V?$allocator@U?$pair@$$CB_KH@std@@@2@$0A@@std@@@std@@@std@@QEAAXPEAU_Node@?$_Tree_nod@V?$_Tmap_traits@_KHU?$less@_K@std@@V?$allocator@U?$pair@$$CB_KH@std@@@2@$0A@@std@@@2@_K@Z
_TEXT	SEGMENT
this$ = 8
_Ptr$ = 16
__formal$ = 24
?deallocate@?$allocator@U_Node@?$_Tree_nod@V?$_Tmap_traits@_KHU?$less@_K@std@@V?$allocator@U?$pair@$$CB_KH@std@@@2@$0A@@std@@@std@@@std@@QEAAXPEAU_Node@?$_Tree_nod@V?$_Tmap_traits@_KHU?$less@_K@std@@V?$allocator@U?$pair@$$CB_KH@std@@@2@$0A@@std@@@2@_K@Z PROC ; std::allocator<std::_Tree_nod<std::_Tmap_traits<unsigned __int64,int,std::less<unsigned __int64>,std::allocator<std::pair<unsigned __int64 const ,int> >,0> >::_Node>::deallocate, COMDAT

; 140  : 		::operator delete(_Ptr);

	mov	rcx, rdx

; 141  : 		}

	jmp	??3@YAXPEAX@Z				; operator delete
?deallocate@?$allocator@U_Node@?$_Tree_nod@V?$_Tmap_traits@_KHU?$less@_K@std@@V?$allocator@U?$pair@$$CB_KH@std@@@2@$0A@@std@@@std@@@std@@QEAAXPEAU_Node@?$_Tree_nod@V?$_Tmap_traits@_KHU?$less@_K@std@@V?$allocator@U?$pair@$$CB_KH@std@@@2@$0A@@std@@@2@_K@Z ENDP ; std::allocator<std::_Tree_nod<std::_Tmap_traits<unsigned __int64,int,std::less<unsigned __int64>,std::allocator<std::pair<unsigned __int64 const ,int> >,0> >::_Node>::deallocate
; Function compile flags: /Ogtpy
; File c:\program files\microsoft visual studio 9.0\vc\include\xtree
_TEXT	ENDS
;	COMDAT ?_Right@?$_Tree@V?$_Tmap_traits@_KHU?$less@_K@std@@V?$allocator@U?$pair@$$CB_KH@std@@@2@$0A@@std@@@std@@KAAEAPEAU_Node@?$_Tree_nod@V?$_Tmap_traits@_KHU?$less@_K@std@@V?$allocator@U?$pair@$$CB_KH@std@@@2@$0A@@std@@@2@PEAU342@@Z
_TEXT	SEGMENT
_Pnode$ = 8
?_Right@?$_Tree@V?$_Tmap_traits@_KHU?$less@_K@std@@V?$allocator@U?$pair@$$CB_KH@std@@@2@$0A@@std@@@std@@KAAEAPEAU_Node@?$_Tree_nod@V?$_Tmap_traits@_KHU?$less@_K@std@@V?$allocator@U?$pair@$$CB_KH@std@@@2@$0A@@std@@@2@PEAU342@@Z PROC ; std::_Tree<std::_Tmap_traits<unsigned __int64,int,std::less<unsigned __int64>,std::allocator<std::pair<unsigned __int64 const ,int> >,0> >::_Right, COMDAT

; 177  : 		return ((_Nodepref)(*_Pnode)._Right);

	lea	rax, QWORD PTR [rcx+16]

; 178  : 		}

	ret	0
?_Right@?$_Tree@V?$_Tmap_traits@_KHU?$less@_K@std@@V?$allocator@U?$pair@$$CB_KH@std@@@2@$0A@@std@@@std@@KAAEAPEAU_Node@?$_Tree_nod@V?$_Tmap_traits@_KHU?$less@_K@std@@V?$allocator@U?$pair@$$CB_KH@std@@@2@$0A@@std@@@2@PEAU342@@Z ENDP ; std::_Tree<std::_Tmap_traits<unsigned __int64,int,std::less<unsigned __int64>,std::allocator<std::pair<unsigned __int64 const ,int> >,0> >::_Right
; Function compile flags: /Ogtpy
_TEXT	ENDS
;	COMDAT ?_Parent@?$_Tree@V?$_Tmap_traits@_KHU?$less@_K@std@@V?$allocator@U?$pair@$$CB_KH@std@@@2@$0A@@std@@@std@@KAAEAPEAU_Node@?$_Tree_nod@V?$_Tmap_traits@_KHU?$less@_K@std@@V?$allocator@U?$pair@$$CB_KH@std@@@2@$0A@@std@@@2@PEAU342@@Z
_TEXT	SEGMENT
_Pnode$ = 8
?_Parent@?$_Tree@V?$_Tmap_traits@_KHU?$less@_K@std@@V?$allocator@U?$pair@$$CB_KH@std@@@2@$0A@@std@@@std@@KAAEAPEAU_Node@?$_Tree_nod@V?$_Tmap_traits@_KHU?$less@_K@std@@V?$allocator@U?$pair@$$CB_KH@std@@@2@$0A@@std@@@2@PEAU342@@Z PROC ; std::_Tree<std::_Tmap_traits<unsigned __int64,int,std::less<unsigned __int64>,std::allocator<std::pair<unsigned __int64 const ,int> >,0> >::_Parent, COMDAT

; 172  : 		return ((_Nodepref)(*_Pnode)._Parent);

	lea	rax, QWORD PTR [rcx+8]

; 173  : 		}

	ret	0
?_Parent@?$_Tree@V?$_Tmap_traits@_KHU?$less@_K@std@@V?$allocator@U?$pair@$$CB_KH@std@@@2@$0A@@std@@@std@@KAAEAPEAU_Node@?$_Tree_nod@V?$_Tmap_traits@_KHU?$less@_K@std@@V?$allocator@U?$pair@$$CB_KH@std@@@2@$0A@@std@@@2@PEAU342@@Z ENDP ; std::_Tree<std::_Tmap_traits<unsigned __int64,int,std::less<unsigned __int64>,std::allocator<std::pair<unsigned __int64 const ,int> >,0> >::_Parent
; Function compile flags: /Ogtpy
_TEXT	ENDS
;	COMDAT ?_Left@?$_Tree@V?$_Tmap_traits@_KHU?$less@_K@std@@V?$allocator@U?$pair@$$CB_KH@std@@@2@$0A@@std@@@std@@KAAEAPEAU_Node@?$_Tree_nod@V?$_Tmap_traits@_KHU?$less@_K@std@@V?$allocator@U?$pair@$$CB_KH@std@@@2@$0A@@std@@@2@PEAU342@@Z
_TEXT	SEGMENT
_Pnode$ = 8
?_Left@?$_Tree@V?$_Tmap_traits@_KHU?$less@_K@std@@V?$allocator@U?$pair@$$CB_KH@std@@@2@$0A@@std@@@std@@KAAEAPEAU_Node@?$_Tree_nod@V?$_Tmap_traits@_KHU?$less@_K@std@@V?$allocator@U?$pair@$$CB_KH@std@@@2@$0A@@std@@@2@PEAU342@@Z PROC ; std::_Tree<std::_Tmap_traits<unsigned __int64,int,std::less<unsigned __int64>,std::allocator<std::pair<unsigned __int64 const ,int> >,0> >::_Left, COMDAT

; 167  : 		return ((_Nodepref)(*_Pnode)._Left);

	mov	rax, rcx

; 168  : 		}

	ret	0
?_Left@?$_Tree@V?$_Tmap_traits@_KHU?$less@_K@std@@V?$allocator@U?$pair@$$CB_KH@std@@@2@$0A@@std@@@std@@KAAEAPEAU_Node@?$_Tree_nod@V?$_Tmap_traits@_KHU?$less@_K@std@@V?$allocator@U?$pair@$$CB_KH@std@@@2@$0A@@std@@@2@PEAU342@@Z ENDP ; std::_Tree<std::_Tmap_traits<unsigned __int64,int,std::less<unsigned __int64>,std::allocator<std::pair<unsigned __int64 const ,int> >,0> >::_Left
; Function compile flags: /Ogtpy
; File c:\program files\microsoft visual studio 9.0\vc\include\xmemory
_TEXT	ENDS
;	COMDAT ?deallocate@?$allocator@V_Aux_cont@std@@@std@@QEAAXPEAV_Aux_cont@2@_K@Z
_TEXT	SEGMENT
this$ = 8
_Ptr$ = 16
__formal$ = 24
?deallocate@?$allocator@V_Aux_cont@std@@@std@@QEAAXPEAV_Aux_cont@2@_K@Z PROC ; std::allocator<std::_Aux_cont>::deallocate, COMDAT

; 140  : 		::operator delete(_Ptr);

	mov	rcx, rdx

; 141  : 		}

	jmp	??3@YAXPEAX@Z				; operator delete
?deallocate@?$allocator@V_Aux_cont@std@@@std@@QEAAXPEAV_Aux_cont@2@_K@Z ENDP ; std::allocator<std::_Aux_cont>::deallocate
_TEXT	ENDS
PUBLIC	rdtsc
; Function compile flags: /Ogtpy
; File c:\local\sharpdevelop_3.2.0.5777_source\src\addins\misc\profiler\hook\main.cpp
;	COMDAT rdtsc
_TEXT	SEGMENT
tsc$ = 8
rdtsc	PROC						; COMDAT

; 42   :  *tsc = __rdtsc();

	rdtsc
	shl	rdx, 32					; 00000020H
	or	rax, rdx
	mov	QWORD PTR [rcx], rax

; 43   :  return S_OK;

	xor	eax, eax

; 44   : }

	ret	0
rdtsc	ENDP
; Function compile flags: /Ogtpy
; File c:\local\sharpdevelop_3.2.0.5777_source\src\addins\misc\profiler\hook\criticalsection.h
_TEXT	ENDS
;	COMDAT ??1CriticalSection@@QEAA@XZ
_TEXT	SEGMENT
this$ = 8
??1CriticalSection@@QEAA@XZ PROC			; CriticalSection::~CriticalSection, COMDAT

; 24   : 		DeleteCriticalSection(&criticalSection);
; 25   : 	}

	rex_jmp	QWORD PTR __imp_DeleteCriticalSection
??1CriticalSection@@QEAA@XZ ENDP			; CriticalSection::~CriticalSection
_TEXT	ENDS
;	COMDAT pdata
pdata	SEGMENT
$pdata$??0logic_error@std@@QEAA@AEBV01@@Z DD imagerel $LN5
	DD	imagerel $LN5+76
	DD	imagerel $unwind$??0logic_error@std@@QEAA@AEBV01@@Z
pdata	ENDS
;	COMDAT pdata
pdata	SEGMENT
$pdata$?dtor$0@?0???0logic_error@std@@QEAA@AEBV01@@Z@4HA DD imagerel ?dtor$0@?0???0logic_error@std@@QEAA@AEBV01@@Z@4HA
	DD	imagerel ?dtor$0@?0???0logic_error@std@@QEAA@AEBV01@@Z@4HA+25
	DD	imagerel $unwind$?dtor$0@?0???0logic_error@std@@QEAA@AEBV01@@Z@4HA
pdata	ENDS
;	COMDAT xdata
xdata	SEGMENT
$ip2state$??0logic_error@std@@QEAA@AEBV01@@Z DD imagerel ??0logic_error@std@@QEAA@AEBV01@@Z
	DD	0ffffffffH
	DD	imagerel ??0logic_error@std@@QEAA@AEBV01@@Z+37
	DD	00H
	DD	imagerel ??0logic_error@std@@QEAA@AEBV01@@Z+62
	DD	0ffffffffH
xdata	ENDS
;	COMDAT xdata
xdata	SEGMENT
$unwind$?dtor$0@?0???0logic_error@std@@QEAA@AEBV01@@Z@4HA DD 020601H
	DD	050023206H
xdata	ENDS
;	COMDAT xdata
xdata	SEGMENT
$unwind$??0logic_error@std@@QEAA@AEBV01@@Z DD 041811H
	DD	093418H
	DD	07006520aH
	DD	imagerel __CxxFrameHandler3
	DD	imagerel $cppxdata$??0logic_error@std@@QEAA@AEBV01@@Z
xdata	ENDS
;	COMDAT CONST
CONST	SEGMENT
$cppxdata$??0logic_error@std@@QEAA@AEBV01@@Z DD 019930522H
	DD	01H
	DD	imagerel $stateUnwindMap$??0logic_error@std@@QEAA@AEBV01@@Z
	DD	00H
	DD	00H
	DD	03H
	DD	imagerel $ip2state$??0logic_error@std@@QEAA@AEBV01@@Z
	DD	020H
	DD	00H
	DD	01H
CONST	ENDS
;	COMDAT xdata
xdata	SEGMENT
$stateUnwindMap$??0logic_error@std@@QEAA@AEBV01@@Z DD 0ffffffffH
	DD	imagerel ?dtor$0@?0???0logic_error@std@@QEAA@AEBV01@@Z@4HA
; Function compile flags: /Ogtpy
xdata	ENDS
;	COMDAT ??0logic_error@std@@QEAA@AEBV01@@Z
_TEXT	SEGMENT
$T145310 = 32
this$ = 64
__that$ = 72
??0logic_error@std@@QEAA@AEBV01@@Z PROC			; std::logic_error::logic_error, COMDAT
$LN5:
	mov	QWORD PTR [rsp+8], rcx
	push	rdi
	sub	rsp, 48					; 00000030H
	mov	QWORD PTR $T145310[rsp], -2
	mov	QWORD PTR [rsp+72], rbx
	mov	rbx, rdx
	mov	rdi, rcx
	call	QWORD PTR __imp_??0exception@std@@QEAA@AEBV01@@Z
	npad	1
	lea	rax, OFFSET FLAT:??_7logic_error@std@@6B@
	mov	QWORD PTR [rdi], rax
	lea	rdx, QWORD PTR [rbx+24]
	lea	rcx, QWORD PTR [rdi+24]
	call	QWORD PTR __imp_??0?$basic_string@DU?$char_traits@D@std@@V?$allocator@D@2@@std@@QEAA@AEBV01@@Z
	npad	1
	mov	rax, rdi
	mov	rbx, QWORD PTR [rsp+72]
	add	rsp, 48					; 00000030H
	pop	rdi
	ret	0
??0logic_error@std@@QEAA@AEBV01@@Z ENDP			; std::logic_error::logic_error
; Function compile flags: /Ogtpy
_TEXT	ENDS
;	COMDAT text$x
text$x	SEGMENT
$T145310 = 32
this$ = 64
__that$ = 72
?dtor$0@?0???0logic_error@std@@QEAA@AEBV01@@Z@4HA PROC	; `std::logic_error::logic_error'::`1'::dtor$0
	push	rbp
	sub	rsp, 32					; 00000020H
	mov	rbp, rdx
	mov	rcx, QWORD PTR this$[rbp]
	call	QWORD PTR __imp_??1exception@std@@UEAA@XZ
	add	rsp, 32					; 00000020H
	pop	rbp
	ret	0
?dtor$0@?0???0logic_error@std@@QEAA@AEBV01@@Z@4HA ENDP	; `std::logic_error::logic_error'::`1'::dtor$0
; Function compile flags: /Ogtpy
; File c:\program files\microsoft visual studio 9.0\vc\include\stdexcept
text$x	ENDS
;	COMDAT ?what@logic_error@std@@UEBAPEBDXZ
_TEXT	SEGMENT
this$ = 8
?what@logic_error@std@@UEBAPEBDXZ PROC			; std::logic_error::what, COMDAT

; 35   : 		return (_Str.c_str());

	cmp	QWORD PTR [rcx+56], 16
	jb	SHORT $LN7@what
	mov	rax, QWORD PTR [rcx+32]

; 36   : 		}

	ret	0

; 35   : 		return (_Str.c_str());

$LN7@what:
	lea	rax, QWORD PTR [rcx+32]

; 36   : 		}

	ret	0
?what@logic_error@std@@UEBAPEBDXZ ENDP			; std::logic_error::what
_TEXT	ENDS
;	COMDAT pdata
pdata	SEGMENT
$pdata$??1logic_error@std@@UEAA@XZ DD imagerel $LN3
	DD	imagerel $LN3+45
	DD	imagerel $unwind$??1logic_error@std@@UEAA@XZ
pdata	ENDS
;	COMDAT xdata
xdata	SEGMENT
$unwind$??1logic_error@std@@UEAA@XZ DD 020601H
	DD	030023206H
; Function compile flags: /Ogtpy
xdata	ENDS
;	COMDAT ??1logic_error@std@@UEAA@XZ
_TEXT	SEGMENT
this$ = 48
??1logic_error@std@@UEAA@XZ PROC			; std::logic_error::~logic_error, COMDAT

; 30   : 		{	// destroy the object

$LN3:
	push	rbx
	sub	rsp, 32					; 00000020H
	lea	rax, OFFSET FLAT:??_7logic_error@std@@6B@
	mov	rbx, rcx

; 31   : 		}

	add	rcx, 24
	mov	QWORD PTR [rcx-24], rax
	call	QWORD PTR __imp_??1?$basic_string@DU?$char_traits@D@std@@V?$allocator@D@2@@std@@QEAA@XZ
	mov	rcx, rbx
	add	rsp, 32					; 00000020H
	pop	rbx
	rex_jmp	QWORD PTR __imp_??1exception@std@@UEAA@XZ
??1logic_error@std@@UEAA@XZ ENDP			; std::logic_error::~logic_error
_TEXT	ENDS
;	COMDAT pdata
pdata	SEGMENT
$pdata$??0logic_error@std@@QEAA@AEBV?$basic_string@DU?$char_traits@D@std@@V?$allocator@D@2@@1@@Z DD imagerel $LN5
	DD	imagerel $LN5+75
	DD	imagerel $unwind$??0logic_error@std@@QEAA@AEBV?$basic_string@DU?$char_traits@D@std@@V?$allocator@D@2@@1@@Z
pdata	ENDS
;	COMDAT pdata
pdata	SEGMENT
$pdata$?dtor$0@?0???0logic_error@std@@QEAA@AEBV?$basic_string@DU?$char_traits@D@std@@V?$allocator@D@2@@1@@Z@4HA DD imagerel ?dtor$0@?0???0logic_error@std@@QEAA@AEBV?$basic_string@DU?$char_traits@D@std@@V?$allocator@D@2@@1@@Z@4HA
	DD	imagerel ?dtor$0@?0???0logic_error@std@@QEAA@AEBV?$basic_string@DU?$char_traits@D@std@@V?$allocator@D@2@@1@@Z@4HA+25
	DD	imagerel $unwind$?dtor$0@?0???0logic_error@std@@QEAA@AEBV?$basic_string@DU?$char_traits@D@std@@V?$allocator@D@2@@1@@Z@4HA
pdata	ENDS
;	COMDAT xdata
xdata	SEGMENT
$ip2state$??0logic_error@std@@QEAA@AEBV?$basic_string@DU?$char_traits@D@std@@V?$allocator@D@2@@1@@Z DD imagerel ??0logic_error@std@@QEAA@AEBV?$basic_string@DU?$char_traits@D@std@@V?$allocator@D@2@@1@@Z
	DD	0ffffffffH
	DD	imagerel ??0logic_error@std@@QEAA@AEBV?$basic_string@DU?$char_traits@D@std@@V?$allocator@D@2@@1@@Z+37
	DD	00H
	DD	imagerel ??0logic_error@std@@QEAA@AEBV?$basic_string@DU?$char_traits@D@std@@V?$allocator@D@2@@1@@Z+61
	DD	0ffffffffH
xdata	ENDS
;	COMDAT xdata
xdata	SEGMENT
$unwind$?dtor$0@?0???0logic_error@std@@QEAA@AEBV?$basic_string@DU?$char_traits@D@std@@V?$allocator@D@2@@1@@Z@4HA DD 020601H
	DD	050023206H
xdata	ENDS
;	COMDAT xdata
xdata	SEGMENT
$unwind$??0logic_error@std@@QEAA@AEBV?$basic_string@DU?$char_traits@D@std@@V?$allocator@D@2@@1@@Z DD 041811H
	DD	093418H
	DD	07006520aH
	DD	imagerel __CxxFrameHandler3
	DD	imagerel $cppxdata$??0logic_error@std@@QEAA@AEBV?$basic_string@DU?$char_traits@D@std@@V?$allocator@D@2@@1@@Z
xdata	ENDS
;	COMDAT CONST
CONST	SEGMENT
$cppxdata$??0logic_error@std@@QEAA@AEBV?$basic_string@DU?$char_traits@D@std@@V?$allocator@D@2@@1@@Z DD 019930522H
	DD	01H
	DD	imagerel $stateUnwindMap$??0logic_error@std@@QEAA@AEBV?$basic_string@DU?$char_traits@D@std@@V?$allocator@D@2@@1@@Z
	DD	00H
	DD	00H
	DD	03H
	DD	imagerel $ip2state$??0logic_error@std@@QEAA@AEBV?$basic_string@DU?$char_traits@D@std@@V?$allocator@D@2@@1@@Z
	DD	020H
	DD	00H
	DD	01H
CONST	ENDS
;	COMDAT xdata
xdata	SEGMENT
$stateUnwindMap$??0logic_error@std@@QEAA@AEBV?$basic_string@DU?$char_traits@D@std@@V?$allocator@D@2@@1@@Z DD 0ffffffffH
	DD	imagerel ?dtor$0@?0???0logic_error@std@@QEAA@AEBV?$basic_string@DU?$char_traits@D@std@@V?$allocator@D@2@@1@@Z@4HA
; Function compile flags: /Ogtpy
xdata	ENDS
;	COMDAT ??0logic_error@std@@QEAA@AEBV?$basic_string@DU?$char_traits@D@std@@V?$allocator@D@2@@1@@Z
_TEXT	SEGMENT
$T145372 = 32
this$ = 64
_Message$ = 72
??0logic_error@std@@QEAA@AEBV?$basic_string@DU?$char_traits@D@std@@V?$allocator@D@2@@1@@Z PROC ; std::logic_error::logic_error, COMDAT

; 26   : 		{	// construct from message string

$LN5:
	mov	QWORD PTR [rsp+8], rcx
	push	rdi
	sub	rsp, 48					; 00000030H
	mov	QWORD PTR $T145372[rsp], -2
	mov	QWORD PTR [rsp+72], rbx
	mov	rbx, rdx
	mov	rdi, rcx
	call	QWORD PTR __imp_??0exception@std@@QEAA@XZ
	npad	1
	lea	rax, OFFSET FLAT:??_7logic_error@std@@6B@
	mov	QWORD PTR [rdi], rax
	lea	rcx, QWORD PTR [rdi+24]
	mov	rdx, rbx
	call	QWORD PTR __imp_??0?$basic_string@DU?$char_traits@D@std@@V?$allocator@D@2@@std@@QEAA@AEBV01@@Z
	npad	1

; 27   : 		}

	mov	rax, rdi
	mov	rbx, QWORD PTR [rsp+72]
	add	rsp, 48					; 00000030H
	pop	rdi
	ret	0
??0logic_error@std@@QEAA@AEBV?$basic_string@DU?$char_traits@D@std@@V?$allocator@D@2@@1@@Z ENDP ; std::logic_error::logic_error
; Function compile flags: /Ogtpy
_TEXT	ENDS
;	COMDAT text$x
text$x	SEGMENT
$T145372 = 32
this$ = 64
_Message$ = 72
?dtor$0@?0???0logic_error@std@@QEAA@AEBV?$basic_string@DU?$char_traits@D@std@@V?$allocator@D@2@@1@@Z@4HA PROC ; `std::logic_error::logic_error'::`1'::dtor$0
	push	rbp
	sub	rsp, 32					; 00000020H
	mov	rbp, rdx
	mov	rcx, QWORD PTR this$[rbp]
	call	QWORD PTR __imp_??1exception@std@@UEAA@XZ
	add	rsp, 32					; 00000020H
	pop	rbp
	ret	0
?dtor$0@?0???0logic_error@std@@QEAA@AEBV?$basic_string@DU?$char_traits@D@std@@V?$allocator@D@2@@1@@Z@4HA ENDP ; `std::logic_error::logic_error'::`1'::dtor$0
; Function compile flags: /Ogtpy
; File c:\program files\microsoft visual studio 9.0\vc\include\xutility
text$x	ENDS
;	COMDAT ?_Has_container@_Iterator_base_aux@std@@QEBA_NXZ
_TEXT	SEGMENT
this$ = 8
?_Has_container@_Iterator_base_aux@std@@QEBA_NXZ PROC	; std::_Iterator_base_aux::_Has_container, COMDAT

; 468  : 		return _Myaux != 0;

	xor	eax, eax
	cmp	QWORD PTR [rcx], rax
	setne	al

; 469  : 		}

	ret	0
?_Has_container@_Iterator_base_aux@std@@QEBA_NXZ ENDP	; std::_Iterator_base_aux::_Has_container
; Function compile flags: /Ogtpy
_TEXT	ENDS
;	COMDAT ?_Same_container@_Iterator_base_aux@std@@QEBA_NAEBV12@@Z
_TEXT	SEGMENT
this$ = 8
_Other$ = 16
?_Same_container@_Iterator_base_aux@std@@QEBA_NAEBV12@@Z PROC ; std::_Iterator_base_aux::_Same_container, COMDAT

; 463  : 		return _Myaux == _Other._Myaux;

	mov	rdx, QWORD PTR [rdx]
	cmp	QWORD PTR [rcx], rdx
	sete	al

; 464  : 		}

	ret	0
?_Same_container@_Iterator_base_aux@std@@QEBA_NAEBV12@@Z ENDP ; std::_Iterator_base_aux::_Same_container
; Function compile flags: /Ogtpy
_TEXT	ENDS
;	COMDAT ?_Set_container@_Iterator_base_aux@std@@QEAAXQEBV_Container_base_aux@2@@Z
_TEXT	SEGMENT
this$ = 8
_Pcont$ = 16
?_Set_container@_Iterator_base_aux@std@@QEAAXQEBV_Container_base_aux@2@@Z PROC ; std::_Iterator_base_aux::_Set_container, COMDAT

; 453  : 		_Myaux = _Pcont->_Myownedaux;

	mov	rax, QWORD PTR [rdx]
	mov	QWORD PTR [rcx], rax

; 454  : 		}

	ret	0
?_Set_container@_Iterator_base_aux@std@@QEAAXQEBV_Container_base_aux@2@@Z ENDP ; std::_Iterator_base_aux::_Set_container
; Function compile flags: /Ogtpy
_TEXT	ENDS
;	COMDAT ??0_Iterator_base_aux@std@@QEAA@XZ
_TEXT	SEGMENT
this$ = 8
??0_Iterator_base_aux@std@@QEAA@XZ PROC			; std::_Iterator_base_aux::_Iterator_base_aux, COMDAT

; 448  : 	_Iterator_base_aux()

	mov	QWORD PTR [rcx], 0
	mov	rax, rcx
	ret	0
??0_Iterator_base_aux@std@@QEAA@XZ ENDP			; std::_Iterator_base_aux::_Iterator_base_aux
; Function compile flags: /Ogtpy
_TEXT	ENDS
;	COMDAT ??1_Container_base_aux@std@@QEAA@XZ
_TEXT	SEGMENT
this$ = 8
??1_Container_base_aux@std@@QEAA@XZ PROC		; std::_Container_base_aux::~_Container_base_aux, COMDAT

; 403  : 		// Do nothing: ~_Container_base_aux_alloc_real() previously destroyed the aux object.
; 404  : 		}

	ret	0
??1_Container_base_aux@std@@QEAA@XZ ENDP		; std::_Container_base_aux::~_Container_base_aux
; Function compile flags: /Ogtpy
;	COMDAT ??0?$_Iterator_with_base@Ubidirectional_iterator_tag@std@@U?$pair@$$CBKPEAVThreadInfo@@@2@_JPEBU32@AEBU32@V_Iterator_base_aux@2@@std@@QEAA@XZ
_TEXT	SEGMENT
this$ = 8
??0?$_Iterator_with_base@Ubidirectional_iterator_tag@std@@U?$pair@$$CBKPEAVThreadInfo@@@2@_JPEBU32@AEBU32@V_Iterator_base_aux@2@@std@@QEAA@XZ PROC ; std::_Iterator_with_base<std::bidirectional_iterator_tag,std::pair<unsigned long const ,ThreadInfo * __ptr64>,__int64,std::pair<unsigned long const ,ThreadInfo * __ptr64> const * __ptr64,std::pair<unsigned long const ,ThreadInfo * __ptr64> const & __ptr64,std::_Iterator_base_aux>::_Iterator_with_base<std::bidirectional_iterator_tag,std::pair<unsigned long const ,ThreadInfo * __ptr64>,__int64,std::pair<unsigned long const ,ThreadInfo * __ptr64> const * __ptr64,std::pair<unsigned long const ,ThreadInfo * __ptr64> const & __ptr64,std::_Iterator_base_aux>, COMDAT
	mov	QWORD PTR [rcx], 0
	mov	rax, rcx
	ret	0
??0?$_Iterator_with_base@Ubidirectional_iterator_tag@std@@U?$pair@$$CBKPEAVThreadInfo@@@2@_JPEBU32@AEBU32@V_Iterator_base_aux@2@@std@@QEAA@XZ ENDP ; std::_Iterator_with_base<std::bidirectional_iterator_tag,std::pair<unsigned long const ,ThreadInfo * __ptr64>,__int64,std::pair<unsigned long const ,ThreadInfo * __ptr64> const * __ptr64,std::pair<unsigned long const ,ThreadInfo * __ptr64> const & __ptr64,std::_Iterator_base_aux>::_Iterator_with_base<std::bidirectional_iterator_tag,std::pair<unsigned long const ,ThreadInfo * __ptr64>,__int64,std::pair<unsigned long const ,ThreadInfo * __ptr64> const * __ptr64,std::pair<unsigned long const ,ThreadInfo * __ptr64> const & __ptr64,std::_Iterator_base_aux>
; Function compile flags: /Ogtpy
_TEXT	ENDS
;	COMDAT ??0?$_Iterator_with_base@Ubidirectional_iterator_tag@std@@U?$pair@$$CB_KPEAVThreadInfo@@@2@_JPEBU32@AEBU32@V_Iterator_base_aux@2@@std@@QEAA@XZ
_TEXT	SEGMENT
this$ = 8
??0?$_Iterator_with_base@Ubidirectional_iterator_tag@std@@U?$pair@$$CB_KPEAVThreadInfo@@@2@_JPEBU32@AEBU32@V_Iterator_base_aux@2@@std@@QEAA@XZ PROC ; std::_Iterator_with_base<std::bidirectional_iterator_tag,std::pair<unsigned __int64 const ,ThreadInfo * __ptr64>,__int64,std::pair<unsigned __int64 const ,ThreadInfo * __ptr64> const * __ptr64,std::pair<unsigned __int64 const ,ThreadInfo * __ptr64> const & __ptr64,std::_Iterator_base_aux>::_Iterator_with_base<std::bidirectional_iterator_tag,std::pair<unsigned __int64 const ,ThreadInfo * __ptr64>,__int64,std::pair<unsigned __int64 const ,ThreadInfo * __ptr64> const * __ptr64,std::pair<unsigned __int64 const ,ThreadInfo * __ptr64> const & __ptr64,std::_Iterator_base_aux>, COMDAT
	mov	QWORD PTR [rcx], 0
	mov	rax, rcx
	ret	0
??0?$_Iterator_with_base@Ubidirectional_iterator_tag@std@@U?$pair@$$CB_KPEAVThreadInfo@@@2@_JPEBU32@AEBU32@V_Iterator_base_aux@2@@std@@QEAA@XZ ENDP ; std::_Iterator_with_base<std::bidirectional_iterator_tag,std::pair<unsigned __int64 const ,ThreadInfo * __ptr64>,__int64,std::pair<unsigned __int64 const ,ThreadInfo * __ptr64> const * __ptr64,std::pair<unsigned __int64 const ,ThreadInfo * __ptr64> const & __ptr64,std::_Iterator_base_aux>::_Iterator_with_base<std::bidirectional_iterator_tag,std::pair<unsigned __int64 const ,ThreadInfo * __ptr64>,__int64,std::pair<unsigned __int64 const ,ThreadInfo * __ptr64> const * __ptr64,std::pair<unsigned __int64 const ,ThreadInfo * __ptr64> const & __ptr64,std::_Iterator_base_aux>
; Function compile flags: /Ogtpy
_TEXT	ENDS
;	COMDAT ??0?$_Iterator_with_base@Ubidirectional_iterator_tag@std@@U?$pair@$$CB_KH@2@_JPEBU32@AEBU32@V_Iterator_base_aux@2@@std@@QEAA@XZ
_TEXT	SEGMENT
this$ = 8
??0?$_Iterator_with_base@Ubidirectional_iterator_tag@std@@U?$pair@$$CB_KH@2@_JPEBU32@AEBU32@V_Iterator_base_aux@2@@std@@QEAA@XZ PROC ; std::_Iterator_with_base<std::bidirectional_iterator_tag,std::pair<unsigned __int64 const ,int>,__int64,std::pair<unsigned __int64 const ,int> const * __ptr64,std::pair<unsigned __int64 const ,int> const & __ptr64,std::_Iterator_base_aux>::_Iterator_with_base<std::bidirectional_iterator_tag,std::pair<unsigned __int64 const ,int>,__int64,std::pair<unsigned __int64 const ,int> const * __ptr64,std::pair<unsigned __int64 const ,int> const & __ptr64,std::_Iterator_base_aux>, COMDAT
	mov	QWORD PTR [rcx], 0
	mov	rax, rcx
	ret	0
??0?$_Iterator_with_base@Ubidirectional_iterator_tag@std@@U?$pair@$$CB_KH@2@_JPEBU32@AEBU32@V_Iterator_base_aux@2@@std@@QEAA@XZ ENDP ; std::_Iterator_with_base<std::bidirectional_iterator_tag,std::pair<unsigned __int64 const ,int>,__int64,std::pair<unsigned __int64 const ,int> const * __ptr64,std::pair<unsigned __int64 const ,int> const & __ptr64,std::_Iterator_base_aux>::_Iterator_with_base<std::bidirectional_iterator_tag,std::pair<unsigned __int64 const ,int>,__int64,std::pair<unsigned __int64 const ,int> const * __ptr64,std::pair<unsigned __int64 const ,int> const & __ptr64,std::_Iterator_base_aux>
; Function compile flags: /Ogtpy
_TEXT	ENDS
;	COMDAT ??0?$_Bidit@U?$pair@$$CBKPEAVThreadInfo@@@std@@_JPEBU12@AEBU12@@std@@QEAA@XZ
_TEXT	SEGMENT
this$ = 8
??0?$_Bidit@U?$pair@$$CBKPEAVThreadInfo@@@std@@_JPEBU12@AEBU12@@std@@QEAA@XZ PROC ; std::_Bidit<std::pair<unsigned long const ,ThreadInfo * __ptr64>,__int64,std::pair<unsigned long const ,ThreadInfo * __ptr64> const * __ptr64,std::pair<unsigned long const ,ThreadInfo * __ptr64> const & __ptr64>::_Bidit<std::pair<unsigned long const ,ThreadInfo * __ptr64>,__int64,std::pair<unsigned long const ,ThreadInfo * __ptr64> const * __ptr64,std::pair<unsigned long const ,ThreadInfo * __ptr64> const & __ptr64>, COMDAT
	mov	QWORD PTR [rcx], 0
	mov	rax, rcx
	ret	0
??0?$_Bidit@U?$pair@$$CBKPEAVThreadInfo@@@std@@_JPEBU12@AEBU12@@std@@QEAA@XZ ENDP ; std::_Bidit<std::pair<unsigned long const ,ThreadInfo * __ptr64>,__int64,std::pair<unsigned long const ,ThreadInfo * __ptr64> const * __ptr64,std::pair<unsigned long const ,ThreadInfo * __ptr64> const & __ptr64>::_Bidit<std::pair<unsigned long const ,ThreadInfo * __ptr64>,__int64,std::pair<unsigned long const ,ThreadInfo * __ptr64> const * __ptr64,std::pair<unsigned long const ,ThreadInfo * __ptr64> const & __ptr64>
; Function compile flags: /Ogtpy
_TEXT	ENDS
;	COMDAT ??0?$_Bidit@U?$pair@$$CB_KPEAVThreadInfo@@@std@@_JPEBU12@AEBU12@@std@@QEAA@XZ
_TEXT	SEGMENT
this$ = 8
??0?$_Bidit@U?$pair@$$CB_KPEAVThreadInfo@@@std@@_JPEBU12@AEBU12@@std@@QEAA@XZ PROC ; std::_Bidit<std::pair<unsigned __int64 const ,ThreadInfo * __ptr64>,__int64,std::pair<unsigned __int64 const ,ThreadInfo * __ptr64> const * __ptr64,std::pair<unsigned __int64 const ,ThreadInfo * __ptr64> const & __ptr64>::_Bidit<std::pair<unsigned __int64 const ,ThreadInfo * __ptr64>,__int64,std::pair<unsigned __int64 const ,ThreadInfo * __ptr64> const * __ptr64,std::pair<unsigned __int64 const ,ThreadInfo * __ptr64> const & __ptr64>, COMDAT
	mov	QWORD PTR [rcx], 0
	mov	rax, rcx
	ret	0
??0?$_Bidit@U?$pair@$$CB_KPEAVThreadInfo@@@std@@_JPEBU12@AEBU12@@std@@QEAA@XZ ENDP ; std::_Bidit<std::pair<unsigned __int64 const ,ThreadInfo * __ptr64>,__int64,std::pair<unsigned __int64 const ,ThreadInfo * __ptr64> const * __ptr64,std::pair<unsigned __int64 const ,ThreadInfo * __ptr64> const & __ptr64>::_Bidit<std::pair<unsigned __int64 const ,ThreadInfo * __ptr64>,__int64,std::pair<unsigned __int64 const ,ThreadInfo * __ptr64> const * __ptr64,std::pair<unsigned __int64 const ,ThreadInfo * __ptr64> const & __ptr64>
; Function compile flags: /Ogtpy
_TEXT	ENDS
;	COMDAT ??0?$_Bidit@U?$pair@$$CB_KH@std@@_JPEBU12@AEBU12@@std@@QEAA@XZ
_TEXT	SEGMENT
this$ = 8
??0?$_Bidit@U?$pair@$$CB_KH@std@@_JPEBU12@AEBU12@@std@@QEAA@XZ PROC ; std::_Bidit<std::pair<unsigned __int64 const ,int>,__int64,std::pair<unsigned __int64 const ,int> const * __ptr64,std::pair<unsigned __int64 const ,int> const & __ptr64>::_Bidit<std::pair<unsigned __int64 const ,int>,__int64,std::pair<unsigned __int64 const ,int> const * __ptr64,std::pair<unsigned __int64 const ,int> const & __ptr64>, COMDAT
	mov	QWORD PTR [rcx], 0
	mov	rax, rcx
	ret	0
??0?$_Bidit@U?$pair@$$CB_KH@std@@_JPEBU12@AEBU12@@std@@QEAA@XZ ENDP ; std::_Bidit<std::pair<unsigned __int64 const ,int>,__int64,std::pair<unsigned __int64 const ,int> const * __ptr64,std::pair<unsigned __int64 const ,int> const & __ptr64>::_Bidit<std::pair<unsigned __int64 const ,int>,__int64,std::pair<unsigned __int64 const ,int> const * __ptr64,std::pair<unsigned __int64 const ,int> const & __ptr64>
_TEXT	ENDS
;	COMDAT pdata
pdata	SEGMENT
$pdata$??0const_iterator@?$_Tree@V?$_Tmap_traits@KPEAVThreadInfo@@U?$less@K@std@@V?$allocator@U?$pair@$$CBKPEAVThreadInfo@@@std@@@3@$0A@@std@@@std@@QEAA@PEAU_Node@?$_Tree_nod@V?$_Tmap_traits@KPEAVThreadInfo@@U?$less@K@std@@V?$allocator@U?$pair@$$CBKPEAVThreadInfo@@@std@@@3@$0A@@std@@@2@PEBV12@@Z DD imagerel $LN15
	DD	imagerel $LN15+58
	DD	imagerel $unwind$??0const_iterator@?$_Tree@V?$_Tmap_traits@KPEAVThreadInfo@@U?$less@K@std@@V?$allocator@U?$pair@$$CBKPEAVThreadInfo@@@std@@@3@$0A@@std@@@std@@QEAA@PEAU_Node@?$_Tree_nod@V?$_Tmap_traits@KPEAVThreadInfo@@U?$less@K@std@@V?$allocator@U?$pair@$$CBKPEAVThreadInfo@@@std@@@3@$0A@@std@@@2@PEBV12@@Z
pdata	ENDS
;	COMDAT xdata
xdata	SEGMENT
$unwind$??0const_iterator@?$_Tree@V?$_Tmap_traits@KPEAVThreadInfo@@U?$less@K@std@@V?$allocator@U?$pair@$$CBKPEAVThreadInfo@@@std@@@3@$0A@@std@@@std@@QEAA@PEAU_Node@?$_Tree_nod@V?$_Tmap_traits@KPEAVThreadInfo@@U?$less@K@std@@V?$allocator@U?$pair@$$CBKPEAVThreadInfo@@@std@@@3@$0A@@std@@@2@PEBV12@@Z DD 040a01H
	DD	06340aH
	DD	07006320aH
; Function compile flags: /Ogtpy
; File c:\program files\microsoft visual studio 9.0\vc\include\xtree
xdata	ENDS
;	COMDAT ??0const_iterator@?$_Tree@V?$_Tmap_traits@KPEAVThreadInfo@@U?$less@K@std@@V?$allocator@U?$pair@$$CBKPEAVThreadInfo@@@std@@@3@$0A@@std@@@std@@QEAA@PEAU_Node@?$_Tree_nod@V?$_Tmap_traits@KPEAVThreadInfo@@U?$less@K@std@@V?$allocator@U?$pair@$$CBKPEAVThreadInfo@@@std@@@3@$0A@@std@@@2@PEBV12@@Z
_TEXT	SEGMENT
this$ = 48
_Pnode$ = 56
_Plist$ = 64
??0const_iterator@?$_Tree@V?$_Tmap_traits@KPEAVThreadInfo@@U?$less@K@std@@V?$allocator@U?$pair@$$CBKPEAVThreadInfo@@@std@@@3@$0A@@std@@@std@@QEAA@PEAU_Node@?$_Tree_nod@V?$_Tmap_traits@KPEAVThreadInfo@@U?$less@K@std@@V?$allocator@U?$pair@$$CBKPEAVThreadInfo@@@std@@@3@$0A@@std@@@2@PEBV12@@Z PROC ; std::_Tree<std::_Tmap_traits<unsigned long,ThreadInfo * __ptr64,std::less<unsigned long>,std::allocator<std::pair<unsigned long const ,ThreadInfo * __ptr64> >,0> >::const_iterator::const_iterator, COMDAT

; 234  : 			{	// construct with node pointer _Pnode

$LN15:
	mov	QWORD PTR [rsp+8], rbx
	push	rdi
	sub	rsp, 32					; 00000020H
	mov	rdi, r8
	mov	rbx, rcx
	mov	QWORD PTR [rcx], 0
	mov	QWORD PTR [rcx+8], rdx

; 235  : 			_SCL_SECURE_VALIDATE(_Plist != NULL);

	test	r8, r8
	jne	SHORT $LN3@const_iter
	call	QWORD PTR __imp__invalid_parameter_noinfo
$LN3@const_iter:

; 236  : 			this->_Set_container(_Plist);

	mov	rax, QWORD PTR [rdi]
	mov	QWORD PTR [rbx], rax

; 237  : 			}

	mov	rax, rbx
	mov	rbx, QWORD PTR [rsp+48]
	add	rsp, 32					; 00000020H
	pop	rdi
	ret	0
??0const_iterator@?$_Tree@V?$_Tmap_traits@KPEAVThreadInfo@@U?$less@K@std@@V?$allocator@U?$pair@$$CBKPEAVThreadInfo@@@std@@@3@$0A@@std@@@std@@QEAA@PEAU_Node@?$_Tree_nod@V?$_Tmap_traits@KPEAVThreadInfo@@U?$less@K@std@@V?$allocator@U?$pair@$$CBKPEAVThreadInfo@@@std@@@3@$0A@@std@@@2@PEBV12@@Z ENDP ; std::_Tree<std::_Tmap_traits<unsigned long,ThreadInfo * __ptr64,std::less<unsigned long>,std::allocator<std::pair<unsigned long const ,ThreadInfo * __ptr64> >,0> >::const_iterator::const_iterator
_TEXT	ENDS
;	COMDAT pdata
; File c:\program files\microsoft visual studio 9.0\vc\include\xutility
pdata	SEGMENT
$pdata$??0const_iterator@?$_Tree@V?$_Tmap_traits@_KPEAVThreadInfo@@U?$less@_K@std@@V?$allocator@U?$pair@$$CB_KPEAVThreadInfo@@@std@@@3@$0A@@std@@@std@@QEAA@PEAU_Node@?$_Tree_nod@V?$_Tmap_traits@_KPEAVThreadInfo@@U?$less@_K@std@@V?$allocator@U?$pair@$$CB_KPEAVThreadInfo@@@std@@@3@$0A@@std@@@2@PEBV12@@Z DD imagerel $LN15
	DD	imagerel $LN15+58
	DD	imagerel $unwind$??0const_iterator@?$_Tree@V?$_Tmap_traits@_KPEAVThreadInfo@@U?$less@_K@std@@V?$allocator@U?$pair@$$CB_KPEAVThreadInfo@@@std@@@3@$0A@@std@@@std@@QEAA@PEAU_Node@?$_Tree_nod@V?$_Tmap_traits@_KPEAVThreadInfo@@U?$less@_K@std@@V?$allocator@U?$pair@$$CB_KPEAVThreadInfo@@@std@@@3@$0A@@std@@@2@PEBV12@@Z
pdata	ENDS
;	COMDAT xdata
xdata	SEGMENT
$unwind$??0const_iterator@?$_Tree@V?$_Tmap_traits@_KPEAVThreadInfo@@U?$less@_K@std@@V?$allocator@U?$pair@$$CB_KPEAVThreadInfo@@@std@@@3@$0A@@std@@@std@@QEAA@PEAU_Node@?$_Tree_nod@V?$_Tmap_traits@_KPEAVThreadInfo@@U?$less@_K@std@@V?$allocator@U?$pair@$$CB_KPEAVThreadInfo@@@std@@@3@$0A@@std@@@2@PEBV12@@Z DD 040a01H
	DD	06340aH
	DD	07006320aH
; Function compile flags: /Ogtpy
; File c:\program files\microsoft visual studio 9.0\vc\include\xtree
xdata	ENDS
;	COMDAT ??0const_iterator@?$_Tree@V?$_Tmap_traits@_KPEAVThreadInfo@@U?$less@_K@std@@V?$allocator@U?$pair@$$CB_KPEAVThreadInfo@@@std@@@3@$0A@@std@@@std@@QEAA@PEAU_Node@?$_Tree_nod@V?$_Tmap_traits@_KPEAVThreadInfo@@U?$less@_K@std@@V?$allocator@U?$pair@$$CB_KPEAVThreadInfo@@@std@@@3@$0A@@std@@@2@PEBV12@@Z
_TEXT	SEGMENT
this$ = 48
_Pnode$ = 56
_Plist$ = 64
??0const_iterator@?$_Tree@V?$_Tmap_traits@_KPEAVThreadInfo@@U?$less@_K@std@@V?$allocator@U?$pair@$$CB_KPEAVThreadInfo@@@std@@@3@$0A@@std@@@std@@QEAA@PEAU_Node@?$_Tree_nod@V?$_Tmap_traits@_KPEAVThreadInfo@@U?$less@_K@std@@V?$allocator@U?$pair@$$CB_KPEAVThreadInfo@@@std@@@3@$0A@@std@@@2@PEBV12@@Z PROC ; std::_Tree<std::_Tmap_traits<unsigned __int64,ThreadInfo * __ptr64,std::less<unsigned __int64>,std::allocator<std::pair<unsigned __int64 const ,ThreadInfo * __ptr64> >,0> >::const_iterator::const_iterator, COMDAT

; 234  : 			{	// construct with node pointer _Pnode

$LN15:
	mov	QWORD PTR [rsp+8], rbx
	push	rdi
	sub	rsp, 32					; 00000020H
	mov	rdi, r8
	mov	rbx, rcx
	mov	QWORD PTR [rcx], 0
	mov	QWORD PTR [rcx+8], rdx

; 235  : 			_SCL_SECURE_VALIDATE(_Plist != NULL);

	test	r8, r8
	jne	SHORT $LN3@const_iter@2
	call	QWORD PTR __imp__invalid_parameter_noinfo
$LN3@const_iter@2:

; 236  : 			this->_Set_container(_Plist);

	mov	rax, QWORD PTR [rdi]
	mov	QWORD PTR [rbx], rax

; 237  : 			}

	mov	rax, rbx
	mov	rbx, QWORD PTR [rsp+48]
	add	rsp, 32					; 00000020H
	pop	rdi
	ret	0
??0const_iterator@?$_Tree@V?$_Tmap_traits@_KPEAVThreadInfo@@U?$less@_K@std@@V?$allocator@U?$pair@$$CB_KPEAVThreadInfo@@@std@@@3@$0A@@std@@@std@@QEAA@PEAU_Node@?$_Tree_nod@V?$_Tmap_traits@_KPEAVThreadInfo@@U?$less@_K@std@@V?$allocator@U?$pair@$$CB_KPEAVThreadInfo@@@std@@@3@$0A@@std@@@2@PEBV12@@Z ENDP ; std::_Tree<std::_Tmap_traits<unsigned __int64,ThreadInfo * __ptr64,std::less<unsigned __int64>,std::allocator<std::pair<unsigned __int64 const ,ThreadInfo * __ptr64> >,0> >::const_iterator::const_iterator
_TEXT	ENDS
;	COMDAT pdata
; File c:\program files\microsoft visual studio 9.0\vc\include\xutility
pdata	SEGMENT
$pdata$??0const_iterator@?$_Tree@V?$_Tmap_traits@_KHU?$less@_K@std@@V?$allocator@U?$pair@$$CB_KH@std@@@2@$0A@@std@@@std@@QEAA@PEAU_Node@?$_Tree_nod@V?$_Tmap_traits@_KHU?$less@_K@std@@V?$allocator@U?$pair@$$CB_KH@std@@@2@$0A@@std@@@2@PEBV12@@Z DD imagerel $LN15
	DD	imagerel $LN15+58
	DD	imagerel $unwind$??0const_iterator@?$_Tree@V?$_Tmap_traits@_KHU?$less@_K@std@@V?$allocator@U?$pair@$$CB_KH@std@@@2@$0A@@std@@@std@@QEAA@PEAU_Node@?$_Tree_nod@V?$_Tmap_traits@_KHU?$less@_K@std@@V?$allocator@U?$pair@$$CB_KH@std@@@2@$0A@@std@@@2@PEBV12@@Z
pdata	ENDS
;	COMDAT xdata
xdata	SEGMENT
$unwind$??0const_iterator@?$_Tree@V?$_Tmap_traits@_KHU?$less@_K@std@@V?$allocator@U?$pair@$$CB_KH@std@@@2@$0A@@std@@@std@@QEAA@PEAU_Node@?$_Tree_nod@V?$_Tmap_traits@_KHU?$less@_K@std@@V?$allocator@U?$pair@$$CB_KH@std@@@2@$0A@@std@@@2@PEBV12@@Z DD 040a01H
	DD	06340aH
	DD	07006320aH
; Function compile flags: /Ogtpy
; File c:\program files\microsoft visual studio 9.0\vc\include\xtree
xdata	ENDS
;	COMDAT ??0const_iterator@?$_Tree@V?$_Tmap_traits@_KHU?$less@_K@std@@V?$allocator@U?$pair@$$CB_KH@std@@@2@$0A@@std@@@std@@QEAA@PEAU_Node@?$_Tree_nod@V?$_Tmap_traits@_KHU?$less@_K@std@@V?$allocator@U?$pair@$$CB_KH@std@@@2@$0A@@std@@@2@PEBV12@@Z
_TEXT	SEGMENT
this$ = 48
_Pnode$ = 56
_Plist$ = 64
??0const_iterator@?$_Tree@V?$_Tmap_traits@_KHU?$less@_K@std@@V?$allocator@U?$pair@$$CB_KH@std@@@2@$0A@@std@@@std@@QEAA@PEAU_Node@?$_Tree_nod@V?$_Tmap_traits@_KHU?$less@_K@std@@V?$allocator@U?$pair@$$CB_KH@std@@@2@$0A@@std@@@2@PEBV12@@Z PROC ; std::_Tree<std::_Tmap_traits<unsigned __int64,int,std::less<unsigned __int64>,std::allocator<std::pair<unsigned __int64 const ,int> >,0> >::const_iterator::const_iterator, COMDAT

; 234  : 			{	// construct with node pointer _Pnode

$LN15:
	mov	QWORD PTR [rsp+8], rbx
	push	rdi
	sub	rsp, 32					; 00000020H
	mov	rdi, r8
	mov	rbx, rcx
	mov	QWORD PTR [rcx], 0
	mov	QWORD PTR [rcx+8], rdx

; 235  : 			_SCL_SECURE_VALIDATE(_Plist != NULL);

	test	r8, r8
	jne	SHORT $LN3@const_iter@3
	call	QWORD PTR __imp__invalid_parameter_noinfo
$LN3@const_iter@3:

; 236  : 			this->_Set_container(_Plist);

	mov	rax, QWORD PTR [rdi]
	mov	QWORD PTR [rbx], rax

; 237  : 			}

	mov	rax, rbx
	mov	rbx, QWORD PTR [rsp+48]
	add	rsp, 32					; 00000020H
	pop	rdi
	ret	0
??0const_iterator@?$_Tree@V?$_Tmap_traits@_KHU?$less@_K@std@@V?$allocator@U?$pair@$$CB_KH@std@@@2@$0A@@std@@@std@@QEAA@PEAU_Node@?$_Tree_nod@V?$_Tmap_traits@_KHU?$less@_K@std@@V?$allocator@U?$pair@$$CB_KH@std@@@2@$0A@@std@@@2@PEBV12@@Z ENDP ; std::_Tree<std::_Tmap_traits<unsigned __int64,int,std::less<unsigned __int64>,std::allocator<std::pair<unsigned __int64 const ,int> >,0> >::const_iterator::const_iterator
; Function compile flags: /Ogtpy
_TEXT	ENDS
;	COMDAT ?_Root@?$_Tree@V?$_Tmap_traits@KPEAVThreadInfo@@U?$less@K@std@@V?$allocator@U?$pair@$$CBKPEAVThreadInfo@@@std@@@3@$0A@@std@@@std@@IEBAAEAPEAU_Node@?$_Tree_nod@V?$_Tmap_traits@KPEAVThreadInfo@@U?$less@K@std@@V?$allocator@U?$pair@$$CBKPEAVThreadInfo@@@std@@@3@$0A@@std@@@2@XZ
_TEXT	SEGMENT
this$ = 8
?_Root@?$_Tree@V?$_Tmap_traits@KPEAVThreadInfo@@U?$less@K@std@@V?$allocator@U?$pair@$$CBKPEAVThreadInfo@@@std@@@3@$0A@@std@@@std@@IEBAAEAPEAU_Node@?$_Tree_nod@V?$_Tmap_traits@KPEAVThreadInfo@@U?$less@K@std@@V?$allocator@U?$pair@$$CBKPEAVThreadInfo@@@std@@@3@$0A@@std@@@2@XZ PROC ; std::_Tree<std::_Tmap_traits<unsigned long,ThreadInfo * __ptr64,std::less<unsigned long>,std::allocator<std::pair<unsigned long const ,ThreadInfo * __ptr64> >,0> >::_Root, COMDAT

; 1325 : 		return (_Parent(_Myhead));

	mov	rax, QWORD PTR [rcx+48]
	add	rax, 8

; 1326 : 		}

	ret	0
?_Root@?$_Tree@V?$_Tmap_traits@KPEAVThreadInfo@@U?$less@K@std@@V?$allocator@U?$pair@$$CBKPEAVThreadInfo@@@std@@@3@$0A@@std@@@std@@IEBAAEAPEAU_Node@?$_Tree_nod@V?$_Tmap_traits@KPEAVThreadInfo@@U?$less@K@std@@V?$allocator@U?$pair@$$CBKPEAVThreadInfo@@@std@@@3@$0A@@std@@@2@XZ ENDP ; std::_Tree<std::_Tmap_traits<unsigned long,ThreadInfo * __ptr64,std::less<unsigned long>,std::allocator<std::pair<unsigned long const ,ThreadInfo * __ptr64> >,0> >::_Root
; Function compile flags: /Ogtpy
_TEXT	ENDS
;	COMDAT ?_Rmost@?$_Tree@V?$_Tmap_traits@KPEAVThreadInfo@@U?$less@K@std@@V?$allocator@U?$pair@$$CBKPEAVThreadInfo@@@std@@@3@$0A@@std@@@std@@IEBAAEAPEAU_Node@?$_Tree_nod@V?$_Tmap_traits@KPEAVThreadInfo@@U?$less@K@std@@V?$allocator@U?$pair@$$CBKPEAVThreadInfo@@@std@@@3@$0A@@std@@@2@XZ
_TEXT	SEGMENT
this$ = 8
?_Rmost@?$_Tree@V?$_Tmap_traits@KPEAVThreadInfo@@U?$less@K@std@@V?$allocator@U?$pair@$$CBKPEAVThreadInfo@@@std@@@3@$0A@@std@@@std@@IEBAAEAPEAU_Node@?$_Tree_nod@V?$_Tmap_traits@KPEAVThreadInfo@@U?$less@K@std@@V?$allocator@U?$pair@$$CBKPEAVThreadInfo@@@std@@@3@$0A@@std@@@2@XZ PROC ; std::_Tree<std::_Tmap_traits<unsigned long,ThreadInfo * __ptr64,std::less<unsigned long>,std::allocator<std::pair<unsigned long const ,ThreadInfo * __ptr64> >,0> >::_Rmost, COMDAT

; 1320 : 		return (_Right(_Myhead));

	mov	rax, QWORD PTR [rcx+48]
	add	rax, 16

; 1321 : 		}

	ret	0
?_Rmost@?$_Tree@V?$_Tmap_traits@KPEAVThreadInfo@@U?$less@K@std@@V?$allocator@U?$pair@$$CBKPEAVThreadInfo@@@std@@@3@$0A@@std@@@std@@IEBAAEAPEAU_Node@?$_Tree_nod@V?$_Tmap_traits@KPEAVThreadInfo@@U?$less@K@std@@V?$allocator@U?$pair@$$CBKPEAVThreadInfo@@@std@@@3@$0A@@std@@@2@XZ ENDP ; std::_Tree<std::_Tmap_traits<unsigned long,ThreadInfo * __ptr64,std::less<unsigned long>,std::allocator<std::pair<unsigned long const ,ThreadInfo * __ptr64> >,0> >::_Rmost
; Function compile flags: /Ogtpy
_TEXT	ENDS
;	COMDAT ?_Min@?$_Tree@V?$_Tmap_traits@KPEAVThreadInfo@@U?$less@K@std@@V?$allocator@U?$pair@$$CBKPEAVThreadInfo@@@std@@@3@$0A@@std@@@std@@KAPEAU_Node@?$_Tree_nod@V?$_Tmap_traits@KPEAVThreadInfo@@U?$less@K@std@@V?$allocator@U?$pair@$$CBKPEAVThreadInfo@@@std@@@3@$0A@@std@@@2@PEAU342@@Z
_TEXT	SEGMENT
_Pnode$ = 8
?_Min@?$_Tree@V?$_Tmap_traits@KPEAVThreadInfo@@U?$less@K@std@@V?$allocator@U?$pair@$$CBKPEAVThreadInfo@@@std@@@3@$0A@@std@@@std@@KAPEAU_Node@?$_Tree_nod@V?$_Tmap_traits@KPEAVThreadInfo@@U?$less@K@std@@V?$allocator@U?$pair@$$CBKPEAVThreadInfo@@@std@@@3@$0A@@std@@@2@PEAU342@@Z PROC ; std::_Tree<std::_Tmap_traits<unsigned long,ThreadInfo * __ptr64,std::less<unsigned long>,std::allocator<std::pair<unsigned long const ,ThreadInfo * __ptr64> >,0> >::_Min, COMDAT

; 1313 : 		while (!_Isnil(_Left(_Pnode)))

	mov	rax, QWORD PTR [rcx]
	cmp	BYTE PTR [rax+41], 0
	jne	SHORT $LN13@Min
	npad	7
$LL2@Min:

; 1314 : 			_Pnode = _Left(_Pnode);

	mov	rcx, rax
	mov	rax, QWORD PTR [rax]
	cmp	BYTE PTR [rax+41], 0
	je	SHORT $LL2@Min
$LN13@Min:

; 1315 : 		return (_Pnode);

	mov	rax, rcx

; 1316 : 		}

	ret	0
?_Min@?$_Tree@V?$_Tmap_traits@KPEAVThreadInfo@@U?$less@K@std@@V?$allocator@U?$pair@$$CBKPEAVThreadInfo@@@std@@@3@$0A@@std@@@std@@KAPEAU_Node@?$_Tree_nod@V?$_Tmap_traits@KPEAVThreadInfo@@U?$less@K@std@@V?$allocator@U?$pair@$$CBKPEAVThreadInfo@@@std@@@3@$0A@@std@@@2@PEAU342@@Z ENDP ; std::_Tree<std::_Tmap_traits<unsigned long,ThreadInfo * __ptr64,std::less<unsigned long>,std::allocator<std::pair<unsigned long const ,ThreadInfo * __ptr64> >,0> >::_Min
; Function compile flags: /Ogtpy
_TEXT	ENDS
;	COMDAT ?_Max@?$_Tree@V?$_Tmap_traits@KPEAVThreadInfo@@U?$less@K@std@@V?$allocator@U?$pair@$$CBKPEAVThreadInfo@@@std@@@3@$0A@@std@@@std@@KAPEAU_Node@?$_Tree_nod@V?$_Tmap_traits@KPEAVThreadInfo@@U?$less@K@std@@V?$allocator@U?$pair@$$CBKPEAVThreadInfo@@@std@@@3@$0A@@std@@@2@PEAU342@@Z
_TEXT	SEGMENT
_Pnode$ = 8
?_Max@?$_Tree@V?$_Tmap_traits@KPEAVThreadInfo@@U?$less@K@std@@V?$allocator@U?$pair@$$CBKPEAVThreadInfo@@@std@@@3@$0A@@std@@@std@@KAPEAU_Node@?$_Tree_nod@V?$_Tmap_traits@KPEAVThreadInfo@@U?$less@K@std@@V?$allocator@U?$pair@$$CBKPEAVThreadInfo@@@std@@@3@$0A@@std@@@2@PEAU342@@Z PROC ; std::_Tree<std::_Tmap_traits<unsigned long,ThreadInfo * __ptr64,std::less<unsigned long>,std::allocator<std::pair<unsigned long const ,ThreadInfo * __ptr64> >,0> >::_Max, COMDAT

; 1306 : 		while (!_Isnil(_Right(_Pnode)))

	mov	rax, QWORD PTR [rcx+16]
	cmp	BYTE PTR [rax+41], 0
	jne	SHORT $LN13@Max
	npad	6
$LL2@Max:

; 1307 : 			_Pnode = _Right(_Pnode);

	mov	rcx, rax
	mov	rax, QWORD PTR [rax+16]
	cmp	BYTE PTR [rax+41], 0
	je	SHORT $LL2@Max
$LN13@Max:

; 1308 : 		return (_Pnode);

	mov	rax, rcx

; 1309 : 		}

	ret	0
?_Max@?$_Tree@V?$_Tmap_traits@KPEAVThreadInfo@@U?$less@K@std@@V?$allocator@U?$pair@$$CBKPEAVThreadInfo@@@std@@@3@$0A@@std@@@std@@KAPEAU_Node@?$_Tree_nod@V?$_Tmap_traits@KPEAVThreadInfo@@U?$less@K@std@@V?$allocator@U?$pair@$$CBKPEAVThreadInfo@@@std@@@3@$0A@@std@@@2@PEAU342@@Z ENDP ; std::_Tree<std::_Tmap_traits<unsigned long,ThreadInfo * __ptr64,std::less<unsigned long>,std::allocator<std::pair<unsigned long const ,ThreadInfo * __ptr64> >,0> >::_Max
; Function compile flags: /Ogtpy
_TEXT	ENDS
;	COMDAT ?_Lrotate@?$_Tree@V?$_Tmap_traits@KPEAVThreadInfo@@U?$less@K@std@@V?$allocator@U?$pair@$$CBKPEAVThreadInfo@@@std@@@3@$0A@@std@@@std@@IEAAXPEAU_Node@?$_Tree_nod@V?$_Tmap_traits@KPEAVThreadInfo@@U?$less@K@std@@V?$allocator@U?$pair@$$CBKPEAVThreadInfo@@@std@@@3@$0A@@std@@@2@@Z
_TEXT	SEGMENT
this$ = 8
_Wherenode$ = 16
?_Lrotate@?$_Tree@V?$_Tmap_traits@KPEAVThreadInfo@@U?$less@K@std@@V?$allocator@U?$pair@$$CBKPEAVThreadInfo@@@std@@@3@$0A@@std@@@std@@IEAAXPEAU_Node@?$_Tree_nod@V?$_Tmap_traits@KPEAVThreadInfo@@U?$less@K@std@@V?$allocator@U?$pair@$$CBKPEAVThreadInfo@@@std@@@3@$0A@@std@@@2@@Z PROC ; std::_Tree<std::_Tmap_traits<unsigned long,ThreadInfo * __ptr64,std::less<unsigned long>,std::allocator<std::pair<unsigned long const ,ThreadInfo * __ptr64> >,0> >::_Lrotate, COMDAT

; 1286 : 		_Nodeptr _Pnode = _Right(_Wherenode);

	mov	r8, QWORD PTR [rdx+16]

; 1287 : 		_Right(_Wherenode) = _Left(_Pnode);

	mov	rax, QWORD PTR [r8]
	mov	QWORD PTR [rdx+16], rax

; 1288 : 
; 1289 : 		if (!_Isnil(_Left(_Pnode)))

	mov	rax, QWORD PTR [r8]
	cmp	BYTE PTR [rax+41], 0
	jne	SHORT $LN5@Lrotate

; 1290 : 			_Parent(_Left(_Pnode)) = _Wherenode;

	mov	QWORD PTR [rax+8], rdx
$LN5@Lrotate:

; 1291 : 		_Parent(_Pnode) = _Parent(_Wherenode);

	mov	rax, QWORD PTR [rdx+8]
	mov	QWORD PTR [r8+8], rax

; 1292 : 
; 1293 : 		if (_Wherenode == _Root())

	mov	rax, QWORD PTR [rcx+48]
	cmp	rdx, QWORD PTR [rax+8]
	jne	SHORT $LN4@Lrotate

; 1294 : 			_Root() = _Pnode;

	mov	QWORD PTR [rax+8], r8

; 1299 : 
; 1300 : 		_Left(_Pnode) = _Wherenode;

	mov	QWORD PTR [r8], rdx

; 1301 : 		_Parent(_Wherenode) = _Pnode;

	mov	QWORD PTR [rdx+8], r8

; 1302 : 		}

	ret	0
$LN4@Lrotate:

; 1295 : 		else if (_Wherenode == _Left(_Parent(_Wherenode)))

	mov	rax, QWORD PTR [rdx+8]
	cmp	rdx, QWORD PTR [rax]
	jne	SHORT $LN2@Lrotate

; 1296 : 			_Left(_Parent(_Wherenode)) = _Pnode;

	mov	QWORD PTR [rax], r8

; 1299 : 
; 1300 : 		_Left(_Pnode) = _Wherenode;

	mov	QWORD PTR [r8], rdx

; 1301 : 		_Parent(_Wherenode) = _Pnode;

	mov	QWORD PTR [rdx+8], r8

; 1302 : 		}

	ret	0
$LN2@Lrotate:

; 1297 : 		else
; 1298 : 			_Right(_Parent(_Wherenode)) = _Pnode;

	mov	QWORD PTR [rax+16], r8

; 1299 : 
; 1300 : 		_Left(_Pnode) = _Wherenode;

	mov	QWORD PTR [r8], rdx

; 1301 : 		_Parent(_Wherenode) = _Pnode;

	mov	QWORD PTR [rdx+8], r8

; 1302 : 		}

	ret	0
?_Lrotate@?$_Tree@V?$_Tmap_traits@KPEAVThreadInfo@@U?$less@K@std@@V?$allocator@U?$pair@$$CBKPEAVThreadInfo@@@std@@@3@$0A@@std@@@std@@IEAAXPEAU_Node@?$_Tree_nod@V?$_Tmap_traits@KPEAVThreadInfo@@U?$less@K@std@@V?$allocator@U?$pair@$$CBKPEAVThreadInfo@@@std@@@3@$0A@@std@@@2@@Z ENDP ; std::_Tree<std::_Tmap_traits<unsigned long,ThreadInfo * __ptr64,std::less<unsigned long>,std::allocator<std::pair<unsigned long const ,ThreadInfo * __ptr64> >,0> >::_Lrotate
_TEXT	ENDS
;	COMDAT pdata
; File c:\program files\microsoft visual studio 9.0\vc\include\xmemory
pdata	SEGMENT
$pdata$?_Erase@?$_Tree@V?$_Tmap_traits@KPEAVThreadInfo@@U?$less@K@std@@V?$allocator@U?$pair@$$CBKPEAVThreadInfo@@@std@@@3@$0A@@std@@@std@@IEAAXPEAU_Node@?$_Tree_nod@V?$_Tmap_traits@KPEAVThreadInfo@@U?$less@K@std@@V?$allocator@U?$pair@$$CBKPEAVThreadInfo@@@std@@@3@$0A@@std@@@2@@Z DD imagerel $LN16
	DD	imagerel $LN16+80
	DD	imagerel $unwind$?_Erase@?$_Tree@V?$_Tmap_traits@KPEAVThreadInfo@@U?$less@K@std@@V?$allocator@U?$pair@$$CBKPEAVThreadInfo@@@std@@@3@$0A@@std@@@std@@IEAAXPEAU_Node@?$_Tree_nod@V?$_Tmap_traits@KPEAVThreadInfo@@U?$less@K@std@@V?$allocator@U?$pair@$$CBKPEAVThreadInfo@@@std@@@3@$0A@@std@@@2@@Z
pdata	ENDS
;	COMDAT xdata
xdata	SEGMENT
$unwind$?_Erase@?$_Tree@V?$_Tmap_traits@KPEAVThreadInfo@@U?$less@K@std@@V?$allocator@U?$pair@$$CBKPEAVThreadInfo@@@std@@@3@$0A@@std@@@std@@IEAAXPEAU_Node@?$_Tree_nod@V?$_Tmap_traits@KPEAVThreadInfo@@U?$less@K@std@@V?$allocator@U?$pair@$$CBKPEAVThreadInfo@@@std@@@3@$0A@@std@@@2@@Z DD 060f01H
	DD	07640fH
	DD	06340fH
	DD	0700b320fH
; Function compile flags: /Ogtpy
; File c:\program files\microsoft visual studio 9.0\vc\include\xtree
xdata	ENDS
;	COMDAT ?_Erase@?$_Tree@V?$_Tmap_traits@KPEAVThreadInfo@@U?$less@K@std@@V?$allocator@U?$pair@$$CBKPEAVThreadInfo@@@std@@@3@$0A@@std@@@std@@IEAAXPEAU_Node@?$_Tree_nod@V?$_Tmap_traits@KPEAVThreadInfo@@U?$less@K@std@@V?$allocator@U?$pair@$$CBKPEAVThreadInfo@@@std@@@3@$0A@@std@@@2@@Z
_TEXT	SEGMENT
this$ = 48
_Rootnode$ = 56
?_Erase@?$_Tree@V?$_Tmap_traits@KPEAVThreadInfo@@U?$less@K@std@@V?$allocator@U?$pair@$$CBKPEAVThreadInfo@@@std@@@3@$0A@@std@@@std@@IEAAXPEAU_Node@?$_Tree_nod@V?$_Tmap_traits@KPEAVThreadInfo@@U?$less@K@std@@V?$allocator@U?$pair@$$CBKPEAVThreadInfo@@@std@@@3@$0A@@std@@@2@@Z PROC ; std::_Tree<std::_Tmap_traits<unsigned long,ThreadInfo * __ptr64,std::less<unsigned long>,std::allocator<std::pair<unsigned long const ,ThreadInfo * __ptr64> >,0> >::_Erase, COMDAT

; 1166 : 		{	// free entire subtree, recursively

$LN16:
	mov	QWORD PTR [rsp+8], rbx
	mov	QWORD PTR [rsp+16], rsi
	push	rdi
	sub	rsp, 32					; 00000020H

; 1167 : 		for (_Nodeptr _Pnode = _Rootnode; !_Isnil(_Pnode); _Rootnode = _Pnode)

	cmp	BYTE PTR [rdx+41], 0
	mov	rdi, rdx
	mov	rsi, rcx
	mov	rbx, rdx
	jne	SHORT $LN1@Erase
	npad	2
$LL3@Erase:

; 1168 : 			{	// free subtrees, then node
; 1169 : 			_Erase(_Right(_Pnode));

	mov	rdx, QWORD PTR [rbx+16]
	mov	rcx, rsi
	call	?_Erase@?$_Tree@V?$_Tmap_traits@KPEAVThreadInfo@@U?$less@K@std@@V?$allocator@U?$pair@$$CBKPEAVThreadInfo@@@std@@@3@$0A@@std@@@std@@IEAAXPEAU_Node@?$_Tree_nod@V?$_Tmap_traits@KPEAVThreadInfo@@U?$less@K@std@@V?$allocator@U?$pair@$$CBKPEAVThreadInfo@@@std@@@3@$0A@@std@@@2@@Z ; std::_Tree<std::_Tmap_traits<unsigned long,ThreadInfo * __ptr64,std::less<unsigned long>,std::allocator<std::pair<unsigned long const ,ThreadInfo * __ptr64> >,0> >::_Erase

; 1170 : 			_Pnode = _Left(_Pnode);

	mov	rbx, QWORD PTR [rbx]

; 1171 : 			this->_Alnod.destroy(_Rootnode);	// destroy, free erased node
; 1172 : 			this->_Alnod.deallocate(_Rootnode, 1);

	mov	rcx, rdi
	call	??3@YAXPEAX@Z				; operator delete
	cmp	BYTE PTR [rbx+41], 0
	mov	rdi, rbx
	je	SHORT $LL3@Erase
$LN1@Erase:

; 1173 : 			}
; 1174 : 		}

	mov	rbx, QWORD PTR [rsp+48]
	mov	rsi, QWORD PTR [rsp+56]
	add	rsp, 32					; 00000020H
	pop	rdi
	ret	0
?_Erase@?$_Tree@V?$_Tmap_traits@KPEAVThreadInfo@@U?$less@K@std@@V?$allocator@U?$pair@$$CBKPEAVThreadInfo@@@std@@@3@$0A@@std@@@std@@IEAAXPEAU_Node@?$_Tree_nod@V?$_Tmap_traits@KPEAVThreadInfo@@U?$less@K@std@@V?$allocator@U?$pair@$$CBKPEAVThreadInfo@@@std@@@3@$0A@@std@@@2@@Z ENDP ; std::_Tree<std::_Tmap_traits<unsigned long,ThreadInfo * __ptr64,std::less<unsigned long>,std::allocator<std::pair<unsigned long const ,ThreadInfo * __ptr64> >,0> >::_Erase
; Function compile flags: /Ogtpy
_TEXT	ENDS
;	COMDAT ?_Root@?$_Tree@V?$_Tmap_traits@_KPEAVThreadInfo@@U?$less@_K@std@@V?$allocator@U?$pair@$$CB_KPEAVThreadInfo@@@std@@@3@$0A@@std@@@std@@IEBAAEAPEAU_Node@?$_Tree_nod@V?$_Tmap_traits@_KPEAVThreadInfo@@U?$less@_K@std@@V?$allocator@U?$pair@$$CB_KPEAVThreadInfo@@@std@@@3@$0A@@std@@@2@XZ
_TEXT	SEGMENT
this$ = 8
?_Root@?$_Tree@V?$_Tmap_traits@_KPEAVThreadInfo@@U?$less@_K@std@@V?$allocator@U?$pair@$$CB_KPEAVThreadInfo@@@std@@@3@$0A@@std@@@std@@IEBAAEAPEAU_Node@?$_Tree_nod@V?$_Tmap_traits@_KPEAVThreadInfo@@U?$less@_K@std@@V?$allocator@U?$pair@$$CB_KPEAVThreadInfo@@@std@@@3@$0A@@std@@@2@XZ PROC ; std::_Tree<std::_Tmap_traits<unsigned __int64,ThreadInfo * __ptr64,std::less<unsigned __int64>,std::allocator<std::pair<unsigned __int64 const ,ThreadInfo * __ptr64> >,0> >::_Root, COMDAT

; 1325 : 		return (_Parent(_Myhead));

	mov	rax, QWORD PTR [rcx+48]
	add	rax, 8

; 1326 : 		}

	ret	0
?_Root@?$_Tree@V?$_Tmap_traits@_KPEAVThreadInfo@@U?$less@_K@std@@V?$allocator@U?$pair@$$CB_KPEAVThreadInfo@@@std@@@3@$0A@@std@@@std@@IEBAAEAPEAU_Node@?$_Tree_nod@V?$_Tmap_traits@_KPEAVThreadInfo@@U?$less@_K@std@@V?$allocator@U?$pair@$$CB_KPEAVThreadInfo@@@std@@@3@$0A@@std@@@2@XZ ENDP ; std::_Tree<std::_Tmap_traits<unsigned __int64,ThreadInfo * __ptr64,std::less<unsigned __int64>,std::allocator<std::pair<unsigned __int64 const ,ThreadInfo * __ptr64> >,0> >::_Root
; Function compile flags: /Ogtpy
_TEXT	ENDS
;	COMDAT ?_Rmost@?$_Tree@V?$_Tmap_traits@_KPEAVThreadInfo@@U?$less@_K@std@@V?$allocator@U?$pair@$$CB_KPEAVThreadInfo@@@std@@@3@$0A@@std@@@std@@IEBAAEAPEAU_Node@?$_Tree_nod@V?$_Tmap_traits@_KPEAVThreadInfo@@U?$less@_K@std@@V?$allocator@U?$pair@$$CB_KPEAVThreadInfo@@@std@@@3@$0A@@std@@@2@XZ
_TEXT	SEGMENT
this$ = 8
?_Rmost@?$_Tree@V?$_Tmap_traits@_KPEAVThreadInfo@@U?$less@_K@std@@V?$allocator@U?$pair@$$CB_KPEAVThreadInfo@@@std@@@3@$0A@@std@@@std@@IEBAAEAPEAU_Node@?$_Tree_nod@V?$_Tmap_traits@_KPEAVThreadInfo@@U?$less@_K@std@@V?$allocator@U?$pair@$$CB_KPEAVThreadInfo@@@std@@@3@$0A@@std@@@2@XZ PROC ; std::_Tree<std::_Tmap_traits<unsigned __int64,ThreadInfo * __ptr64,std::less<unsigned __int64>,std::allocator<std::pair<unsigned __int64 const ,ThreadInfo * __ptr64> >,0> >::_Rmost, COMDAT

; 1320 : 		return (_Right(_Myhead));

	mov	rax, QWORD PTR [rcx+48]
	add	rax, 16

; 1321 : 		}

	ret	0
?_Rmost@?$_Tree@V?$_Tmap_traits@_KPEAVThreadInfo@@U?$less@_K@std@@V?$allocator@U?$pair@$$CB_KPEAVThreadInfo@@@std@@@3@$0A@@std@@@std@@IEBAAEAPEAU_Node@?$_Tree_nod@V?$_Tmap_traits@_KPEAVThreadInfo@@U?$less@_K@std@@V?$allocator@U?$pair@$$CB_KPEAVThreadInfo@@@std@@@3@$0A@@std@@@2@XZ ENDP ; std::_Tree<std::_Tmap_traits<unsigned __int64,ThreadInfo * __ptr64,std::less<unsigned __int64>,std::allocator<std::pair<unsigned __int64 const ,ThreadInfo * __ptr64> >,0> >::_Rmost
; Function compile flags: /Ogtpy
_TEXT	ENDS
;	COMDAT ?_Min@?$_Tree@V?$_Tmap_traits@_KPEAVThreadInfo@@U?$less@_K@std@@V?$allocator@U?$pair@$$CB_KPEAVThreadInfo@@@std@@@3@$0A@@std@@@std@@KAPEAU_Node@?$_Tree_nod@V?$_Tmap_traits@_KPEAVThreadInfo@@U?$less@_K@std@@V?$allocator@U?$pair@$$CB_KPEAVThreadInfo@@@std@@@3@$0A@@std@@@2@PEAU342@@Z
_TEXT	SEGMENT
_Pnode$ = 8
?_Min@?$_Tree@V?$_Tmap_traits@_KPEAVThreadInfo@@U?$less@_K@std@@V?$allocator@U?$pair@$$CB_KPEAVThreadInfo@@@std@@@3@$0A@@std@@@std@@KAPEAU_Node@?$_Tree_nod@V?$_Tmap_traits@_KPEAVThreadInfo@@U?$less@_K@std@@V?$allocator@U?$pair@$$CB_KPEAVThreadInfo@@@std@@@3@$0A@@std@@@2@PEAU342@@Z PROC ; std::_Tree<std::_Tmap_traits<unsigned __int64,ThreadInfo * __ptr64,std::less<unsigned __int64>,std::allocator<std::pair<unsigned __int64 const ,ThreadInfo * __ptr64> >,0> >::_Min, COMDAT

; 1313 : 		while (!_Isnil(_Left(_Pnode)))

	mov	rax, QWORD PTR [rcx]
	cmp	BYTE PTR [rax+41], 0
	jne	SHORT $LN13@Min@2
	npad	7
$LL2@Min@2:

; 1314 : 			_Pnode = _Left(_Pnode);

	mov	rcx, rax
	mov	rax, QWORD PTR [rax]
	cmp	BYTE PTR [rax+41], 0
	je	SHORT $LL2@Min@2
$LN13@Min@2:

; 1315 : 		return (_Pnode);

	mov	rax, rcx

; 1316 : 		}

	ret	0
?_Min@?$_Tree@V?$_Tmap_traits@_KPEAVThreadInfo@@U?$less@_K@std@@V?$allocator@U?$pair@$$CB_KPEAVThreadInfo@@@std@@@3@$0A@@std@@@std@@KAPEAU_Node@?$_Tree_nod@V?$_Tmap_traits@_KPEAVThreadInfo@@U?$less@_K@std@@V?$allocator@U?$pair@$$CB_KPEAVThreadInfo@@@std@@@3@$0A@@std@@@2@PEAU342@@Z ENDP ; std::_Tree<std::_Tmap_traits<unsigned __int64,ThreadInfo * __ptr64,std::less<unsigned __int64>,std::allocator<std::pair<unsigned __int64 const ,ThreadInfo * __ptr64> >,0> >::_Min
; Function compile flags: /Ogtpy
_TEXT	ENDS
;	COMDAT ?_Max@?$_Tree@V?$_Tmap_traits@_KPEAVThreadInfo@@U?$less@_K@std@@V?$allocator@U?$pair@$$CB_KPEAVThreadInfo@@@std@@@3@$0A@@std@@@std@@KAPEAU_Node@?$_Tree_nod@V?$_Tmap_traits@_KPEAVThreadInfo@@U?$less@_K@std@@V?$allocator@U?$pair@$$CB_KPEAVThreadInfo@@@std@@@3@$0A@@std@@@2@PEAU342@@Z
_TEXT	SEGMENT
_Pnode$ = 8
?_Max@?$_Tree@V?$_Tmap_traits@_KPEAVThreadInfo@@U?$less@_K@std@@V?$allocator@U?$pair@$$CB_KPEAVThreadInfo@@@std@@@3@$0A@@std@@@std@@KAPEAU_Node@?$_Tree_nod@V?$_Tmap_traits@_KPEAVThreadInfo@@U?$less@_K@std@@V?$allocator@U?$pair@$$CB_KPEAVThreadInfo@@@std@@@3@$0A@@std@@@2@PEAU342@@Z PROC ; std::_Tree<std::_Tmap_traits<unsigned __int64,ThreadInfo * __ptr64,std::less<unsigned __int64>,std::allocator<std::pair<unsigned __int64 const ,ThreadInfo * __ptr64> >,0> >::_Max, COMDAT

; 1306 : 		while (!_Isnil(_Right(_Pnode)))

	mov	rax, QWORD PTR [rcx+16]
	cmp	BYTE PTR [rax+41], 0
	jne	SHORT $LN13@Max@2
	npad	6
$LL2@Max@2:

; 1307 : 			_Pnode = _Right(_Pnode);

	mov	rcx, rax
	mov	rax, QWORD PTR [rax+16]
	cmp	BYTE PTR [rax+41], 0
	je	SHORT $LL2@Max@2
$LN13@Max@2:

; 1308 : 		return (_Pnode);

	mov	rax, rcx

; 1309 : 		}

	ret	0
?_Max@?$_Tree@V?$_Tmap_traits@_KPEAVThreadInfo@@U?$less@_K@std@@V?$allocator@U?$pair@$$CB_KPEAVThreadInfo@@@std@@@3@$0A@@std@@@std@@KAPEAU_Node@?$_Tree_nod@V?$_Tmap_traits@_KPEAVThreadInfo@@U?$less@_K@std@@V?$allocator@U?$pair@$$CB_KPEAVThreadInfo@@@std@@@3@$0A@@std@@@2@PEAU342@@Z ENDP ; std::_Tree<std::_Tmap_traits<unsigned __int64,ThreadInfo * __ptr64,std::less<unsigned __int64>,std::allocator<std::pair<unsigned __int64 const ,ThreadInfo * __ptr64> >,0> >::_Max
; Function compile flags: /Ogtpy
_TEXT	ENDS
;	COMDAT ?_Lrotate@?$_Tree@V?$_Tmap_traits@_KPEAVThreadInfo@@U?$less@_K@std@@V?$allocator@U?$pair@$$CB_KPEAVThreadInfo@@@std@@@3@$0A@@std@@@std@@IEAAXPEAU_Node@?$_Tree_nod@V?$_Tmap_traits@_KPEAVThreadInfo@@U?$less@_K@std@@V?$allocator@U?$pair@$$CB_KPEAVThreadInfo@@@std@@@3@$0A@@std@@@2@@Z
_TEXT	SEGMENT
this$ = 8
_Wherenode$ = 16
?_Lrotate@?$_Tree@V?$_Tmap_traits@_KPEAVThreadInfo@@U?$less@_K@std@@V?$allocator@U?$pair@$$CB_KPEAVThreadInfo@@@std@@@3@$0A@@std@@@std@@IEAAXPEAU_Node@?$_Tree_nod@V?$_Tmap_traits@_KPEAVThreadInfo@@U?$less@_K@std@@V?$allocator@U?$pair@$$CB_KPEAVThreadInfo@@@std@@@3@$0A@@std@@@2@@Z PROC ; std::_Tree<std::_Tmap_traits<unsigned __int64,ThreadInfo * __ptr64,std::less<unsigned __int64>,std::allocator<std::pair<unsigned __int64 const ,ThreadInfo * __ptr64> >,0> >::_Lrotate, COMDAT

; 1286 : 		_Nodeptr _Pnode = _Right(_Wherenode);

	mov	r8, QWORD PTR [rdx+16]

; 1287 : 		_Right(_Wherenode) = _Left(_Pnode);

	mov	rax, QWORD PTR [r8]
	mov	QWORD PTR [rdx+16], rax

; 1288 : 
; 1289 : 		if (!_Isnil(_Left(_Pnode)))

	mov	rax, QWORD PTR [r8]
	cmp	BYTE PTR [rax+41], 0
	jne	SHORT $LN5@Lrotate@2

; 1290 : 			_Parent(_Left(_Pnode)) = _Wherenode;

	mov	QWORD PTR [rax+8], rdx
$LN5@Lrotate@2:

; 1291 : 		_Parent(_Pnode) = _Parent(_Wherenode);

	mov	rax, QWORD PTR [rdx+8]
	mov	QWORD PTR [r8+8], rax

; 1292 : 
; 1293 : 		if (_Wherenode == _Root())

	mov	rax, QWORD PTR [rcx+48]
	cmp	rdx, QWORD PTR [rax+8]
	jne	SHORT $LN4@Lrotate@2

; 1294 : 			_Root() = _Pnode;

	mov	QWORD PTR [rax+8], r8

; 1299 : 
; 1300 : 		_Left(_Pnode) = _Wherenode;

	mov	QWORD PTR [r8], rdx

; 1301 : 		_Parent(_Wherenode) = _Pnode;

	mov	QWORD PTR [rdx+8], r8

; 1302 : 		}

	ret	0
$LN4@Lrotate@2:

; 1295 : 		else if (_Wherenode == _Left(_Parent(_Wherenode)))

	mov	rax, QWORD PTR [rdx+8]
	cmp	rdx, QWORD PTR [rax]
	jne	SHORT $LN2@Lrotate@2

; 1296 : 			_Left(_Parent(_Wherenode)) = _Pnode;

	mov	QWORD PTR [rax], r8

; 1299 : 
; 1300 : 		_Left(_Pnode) = _Wherenode;

	mov	QWORD PTR [r8], rdx

; 1301 : 		_Parent(_Wherenode) = _Pnode;

	mov	QWORD PTR [rdx+8], r8

; 1302 : 		}

	ret	0
$LN2@Lrotate@2:

; 1297 : 		else
; 1298 : 			_Right(_Parent(_Wherenode)) = _Pnode;

	mov	QWORD PTR [rax+16], r8

; 1299 : 
; 1300 : 		_Left(_Pnode) = _Wherenode;

	mov	QWORD PTR [r8], rdx

; 1301 : 		_Parent(_Wherenode) = _Pnode;

	mov	QWORD PTR [rdx+8], r8

; 1302 : 		}

	ret	0
?_Lrotate@?$_Tree@V?$_Tmap_traits@_KPEAVThreadInfo@@U?$less@_K@std@@V?$allocator@U?$pair@$$CB_KPEAVThreadInfo@@@std@@@3@$0A@@std@@@std@@IEAAXPEAU_Node@?$_Tree_nod@V?$_Tmap_traits@_KPEAVThreadInfo@@U?$less@_K@std@@V?$allocator@U?$pair@$$CB_KPEAVThreadInfo@@@std@@@3@$0A@@std@@@2@@Z ENDP ; std::_Tree<std::_Tmap_traits<unsigned __int64,ThreadInfo * __ptr64,std::less<unsigned __int64>,std::allocator<std::pair<unsigned __int64 const ,ThreadInfo * __ptr64> >,0> >::_Lrotate
_TEXT	ENDS
;	COMDAT pdata
; File c:\program files\microsoft visual studio 9.0\vc\include\xmemory
pdata	SEGMENT
$pdata$?_Erase@?$_Tree@V?$_Tmap_traits@_KPEAVThreadInfo@@U?$less@_K@std@@V?$allocator@U?$pair@$$CB_KPEAVThreadInfo@@@std@@@3@$0A@@std@@@std@@IEAAXPEAU_Node@?$_Tree_nod@V?$_Tmap_traits@_KPEAVThreadInfo@@U?$less@_K@std@@V?$allocator@U?$pair@$$CB_KPEAVThreadInfo@@@std@@@3@$0A@@std@@@2@@Z DD imagerel $LN16
	DD	imagerel $LN16+80
	DD	imagerel $unwind$?_Erase@?$_Tree@V?$_Tmap_traits@_KPEAVThreadInfo@@U?$less@_K@std@@V?$allocator@U?$pair@$$CB_KPEAVThreadInfo@@@std@@@3@$0A@@std@@@std@@IEAAXPEAU_Node@?$_Tree_nod@V?$_Tmap_traits@_KPEAVThreadInfo@@U?$less@_K@std@@V?$allocator@U?$pair@$$CB_KPEAVThreadInfo@@@std@@@3@$0A@@std@@@2@@Z
pdata	ENDS
;	COMDAT xdata
xdata	SEGMENT
$unwind$?_Erase@?$_Tree@V?$_Tmap_traits@_KPEAVThreadInfo@@U?$less@_K@std@@V?$allocator@U?$pair@$$CB_KPEAVThreadInfo@@@std@@@3@$0A@@std@@@std@@IEAAXPEAU_Node@?$_Tree_nod@V?$_Tmap_traits@_KPEAVThreadInfo@@U?$less@_K@std@@V?$allocator@U?$pair@$$CB_KPEAVThreadInfo@@@std@@@3@$0A@@std@@@2@@Z DD 060f01H
	DD	07640fH
	DD	06340fH
	DD	0700b320fH
; Function compile flags: /Ogtpy
; File c:\program files\microsoft visual studio 9.0\vc\include\xtree
xdata	ENDS
;	COMDAT ?_Erase@?$_Tree@V?$_Tmap_traits@_KPEAVThreadInfo@@U?$less@_K@std@@V?$allocator@U?$pair@$$CB_KPEAVThreadInfo@@@std@@@3@$0A@@std@@@std@@IEAAXPEAU_Node@?$_Tree_nod@V?$_Tmap_traits@_KPEAVThreadInfo@@U?$less@_K@std@@V?$allocator@U?$pair@$$CB_KPEAVThreadInfo@@@std@@@3@$0A@@std@@@2@@Z
_TEXT	SEGMENT
this$ = 48
_Rootnode$ = 56
?_Erase@?$_Tree@V?$_Tmap_traits@_KPEAVThreadInfo@@U?$less@_K@std@@V?$allocator@U?$pair@$$CB_KPEAVThreadInfo@@@std@@@3@$0A@@std@@@std@@IEAAXPEAU_Node@?$_Tree_nod@V?$_Tmap_traits@_KPEAVThreadInfo@@U?$less@_K@std@@V?$allocator@U?$pair@$$CB_KPEAVThreadInfo@@@std@@@3@$0A@@std@@@2@@Z PROC ; std::_Tree<std::_Tmap_traits<unsigned __int64,ThreadInfo * __ptr64,std::less<unsigned __int64>,std::allocator<std::pair<unsigned __int64 const ,ThreadInfo * __ptr64> >,0> >::_Erase, COMDAT

; 1166 : 		{	// free entire subtree, recursively

$LN16:
	mov	QWORD PTR [rsp+8], rbx
	mov	QWORD PTR [rsp+16], rsi
	push	rdi
	sub	rsp, 32					; 00000020H

; 1167 : 		for (_Nodeptr _Pnode = _Rootnode; !_Isnil(_Pnode); _Rootnode = _Pnode)

	cmp	BYTE PTR [rdx+41], 0
	mov	rdi, rdx
	mov	rsi, rcx
	mov	rbx, rdx
	jne	SHORT $LN1@Erase@2
	npad	2
$LL3@Erase@2:

; 1168 : 			{	// free subtrees, then node
; 1169 : 			_Erase(_Right(_Pnode));

	mov	rdx, QWORD PTR [rbx+16]
	mov	rcx, rsi
	call	?_Erase@?$_Tree@V?$_Tmap_traits@_KPEAVThreadInfo@@U?$less@_K@std@@V?$allocator@U?$pair@$$CB_KPEAVThreadInfo@@@std@@@3@$0A@@std@@@std@@IEAAXPEAU_Node@?$_Tree_nod@V?$_Tmap_traits@_KPEAVThreadInfo@@U?$less@_K@std@@V?$allocator@U?$pair@$$CB_KPEAVThreadInfo@@@std@@@3@$0A@@std@@@2@@Z ; std::_Tree<std::_Tmap_traits<unsigned __int64,ThreadInfo * __ptr64,std::less<unsigned __int64>,std::allocator<std::pair<unsigned __int64 const ,ThreadInfo * __ptr64> >,0> >::_Erase

; 1170 : 			_Pnode = _Left(_Pnode);

	mov	rbx, QWORD PTR [rbx]

; 1171 : 			this->_Alnod.destroy(_Rootnode);	// destroy, free erased node
; 1172 : 			this->_Alnod.deallocate(_Rootnode, 1);

	mov	rcx, rdi
	call	??3@YAXPEAX@Z				; operator delete
	cmp	BYTE PTR [rbx+41], 0
	mov	rdi, rbx
	je	SHORT $LL3@Erase@2
$LN1@Erase@2:

; 1173 : 			}
; 1174 : 		}

	mov	rbx, QWORD PTR [rsp+48]
	mov	rsi, QWORD PTR [rsp+56]
	add	rsp, 32					; 00000020H
	pop	rdi
	ret	0
?_Erase@?$_Tree@V?$_Tmap_traits@_KPEAVThreadInfo@@U?$less@_K@std@@V?$allocator@U?$pair@$$CB_KPEAVThreadInfo@@@std@@@3@$0A@@std@@@std@@IEAAXPEAU_Node@?$_Tree_nod@V?$_Tmap_traits@_KPEAVThreadInfo@@U?$less@_K@std@@V?$allocator@U?$pair@$$CB_KPEAVThreadInfo@@@std@@@3@$0A@@std@@@2@@Z ENDP ; std::_Tree<std::_Tmap_traits<unsigned __int64,ThreadInfo * __ptr64,std::less<unsigned __int64>,std::allocator<std::pair<unsigned __int64 const ,ThreadInfo * __ptr64> >,0> >::_Erase
; Function compile flags: /Ogtpy
_TEXT	ENDS
;	COMDAT ?_Root@?$_Tree@V?$_Tmap_traits@_KHU?$less@_K@std@@V?$allocator@U?$pair@$$CB_KH@std@@@2@$0A@@std@@@std@@IEBAAEAPEAU_Node@?$_Tree_nod@V?$_Tmap_traits@_KHU?$less@_K@std@@V?$allocator@U?$pair@$$CB_KH@std@@@2@$0A@@std@@@2@XZ
_TEXT	SEGMENT
this$ = 8
?_Root@?$_Tree@V?$_Tmap_traits@_KHU?$less@_K@std@@V?$allocator@U?$pair@$$CB_KH@std@@@2@$0A@@std@@@std@@IEBAAEAPEAU_Node@?$_Tree_nod@V?$_Tmap_traits@_KHU?$less@_K@std@@V?$allocator@U?$pair@$$CB_KH@std@@@2@$0A@@std@@@2@XZ PROC ; std::_Tree<std::_Tmap_traits<unsigned __int64,int,std::less<unsigned __int64>,std::allocator<std::pair<unsigned __int64 const ,int> >,0> >::_Root, COMDAT

; 1325 : 		return (_Parent(_Myhead));

	mov	rax, QWORD PTR [rcx+48]
	add	rax, 8

; 1326 : 		}

	ret	0
?_Root@?$_Tree@V?$_Tmap_traits@_KHU?$less@_K@std@@V?$allocator@U?$pair@$$CB_KH@std@@@2@$0A@@std@@@std@@IEBAAEAPEAU_Node@?$_Tree_nod@V?$_Tmap_traits@_KHU?$less@_K@std@@V?$allocator@U?$pair@$$CB_KH@std@@@2@$0A@@std@@@2@XZ ENDP ; std::_Tree<std::_Tmap_traits<unsigned __int64,int,std::less<unsigned __int64>,std::allocator<std::pair<unsigned __int64 const ,int> >,0> >::_Root
; Function compile flags: /Ogtpy
_TEXT	ENDS
;	COMDAT ?_Rmost@?$_Tree@V?$_Tmap_traits@_KHU?$less@_K@std@@V?$allocator@U?$pair@$$CB_KH@std@@@2@$0A@@std@@@std@@IEBAAEAPEAU_Node@?$_Tree_nod@V?$_Tmap_traits@_KHU?$less@_K@std@@V?$allocator@U?$pair@$$CB_KH@std@@@2@$0A@@std@@@2@XZ
_TEXT	SEGMENT
this$ = 8
?_Rmost@?$_Tree@V?$_Tmap_traits@_KHU?$less@_K@std@@V?$allocator@U?$pair@$$CB_KH@std@@@2@$0A@@std@@@std@@IEBAAEAPEAU_Node@?$_Tree_nod@V?$_Tmap_traits@_KHU?$less@_K@std@@V?$allocator@U?$pair@$$CB_KH@std@@@2@$0A@@std@@@2@XZ PROC ; std::_Tree<std::_Tmap_traits<unsigned __int64,int,std::less<unsigned __int64>,std::allocator<std::pair<unsigned __int64 const ,int> >,0> >::_Rmost, COMDAT

; 1320 : 		return (_Right(_Myhead));

	mov	rax, QWORD PTR [rcx+48]
	add	rax, 16

; 1321 : 		}

	ret	0
?_Rmost@?$_Tree@V?$_Tmap_traits@_KHU?$less@_K@std@@V?$allocator@U?$pair@$$CB_KH@std@@@2@$0A@@std@@@std@@IEBAAEAPEAU_Node@?$_Tree_nod@V?$_Tmap_traits@_KHU?$less@_K@std@@V?$allocator@U?$pair@$$CB_KH@std@@@2@$0A@@std@@@2@XZ ENDP ; std::_Tree<std::_Tmap_traits<unsigned __int64,int,std::less<unsigned __int64>,std::allocator<std::pair<unsigned __int64 const ,int> >,0> >::_Rmost
; Function compile flags: /Ogtpy
_TEXT	ENDS
;	COMDAT ?_Min@?$_Tree@V?$_Tmap_traits@_KHU?$less@_K@std@@V?$allocator@U?$pair@$$CB_KH@std@@@2@$0A@@std@@@std@@KAPEAU_Node@?$_Tree_nod@V?$_Tmap_traits@_KHU?$less@_K@std@@V?$allocator@U?$pair@$$CB_KH@std@@@2@$0A@@std@@@2@PEAU342@@Z
_TEXT	SEGMENT
_Pnode$ = 8
?_Min@?$_Tree@V?$_Tmap_traits@_KHU?$less@_K@std@@V?$allocator@U?$pair@$$CB_KH@std@@@2@$0A@@std@@@std@@KAPEAU_Node@?$_Tree_nod@V?$_Tmap_traits@_KHU?$less@_K@std@@V?$allocator@U?$pair@$$CB_KH@std@@@2@$0A@@std@@@2@PEAU342@@Z PROC ; std::_Tree<std::_Tmap_traits<unsigned __int64,int,std::less<unsigned __int64>,std::allocator<std::pair<unsigned __int64 const ,int> >,0> >::_Min, COMDAT

; 1313 : 		while (!_Isnil(_Left(_Pnode)))

	mov	rax, QWORD PTR [rcx]
	cmp	BYTE PTR [rax+41], 0
	jne	SHORT $LN13@Min@3
	npad	7
$LL2@Min@3:

; 1314 : 			_Pnode = _Left(_Pnode);

	mov	rcx, rax
	mov	rax, QWORD PTR [rax]
	cmp	BYTE PTR [rax+41], 0
	je	SHORT $LL2@Min@3
$LN13@Min@3:

; 1315 : 		return (_Pnode);

	mov	rax, rcx

; 1316 : 		}

	ret	0
?_Min@?$_Tree@V?$_Tmap_traits@_KHU?$less@_K@std@@V?$allocator@U?$pair@$$CB_KH@std@@@2@$0A@@std@@@std@@KAPEAU_Node@?$_Tree_nod@V?$_Tmap_traits@_KHU?$less@_K@std@@V?$allocator@U?$pair@$$CB_KH@std@@@2@$0A@@std@@@2@PEAU342@@Z ENDP ; std::_Tree<std::_Tmap_traits<unsigned __int64,int,std::less<unsigned __int64>,std::allocator<std::pair<unsigned __int64 const ,int> >,0> >::_Min
; Function compile flags: /Ogtpy
_TEXT	ENDS
;	COMDAT ?_Max@?$_Tree@V?$_Tmap_traits@_KHU?$less@_K@std@@V?$allocator@U?$pair@$$CB_KH@std@@@2@$0A@@std@@@std@@KAPEAU_Node@?$_Tree_nod@V?$_Tmap_traits@_KHU?$less@_K@std@@V?$allocator@U?$pair@$$CB_KH@std@@@2@$0A@@std@@@2@PEAU342@@Z
_TEXT	SEGMENT
_Pnode$ = 8
?_Max@?$_Tree@V?$_Tmap_traits@_KHU?$less@_K@std@@V?$allocator@U?$pair@$$CB_KH@std@@@2@$0A@@std@@@std@@KAPEAU_Node@?$_Tree_nod@V?$_Tmap_traits@_KHU?$less@_K@std@@V?$allocator@U?$pair@$$CB_KH@std@@@2@$0A@@std@@@2@PEAU342@@Z PROC ; std::_Tree<std::_Tmap_traits<unsigned __int64,int,std::less<unsigned __int64>,std::allocator<std::pair<unsigned __int64 const ,int> >,0> >::_Max, COMDAT

; 1306 : 		while (!_Isnil(_Right(_Pnode)))

	mov	rax, QWORD PTR [rcx+16]
	cmp	BYTE PTR [rax+41], 0
	jne	SHORT $LN13@Max@3
	npad	6
$LL2@Max@3:

; 1307 : 			_Pnode = _Right(_Pnode);

	mov	rcx, rax
	mov	rax, QWORD PTR [rax+16]
	cmp	BYTE PTR [rax+41], 0
	je	SHORT $LL2@Max@3
$LN13@Max@3:

; 1308 : 		return (_Pnode);

	mov	rax, rcx

; 1309 : 		}

	ret	0
?_Max@?$_Tree@V?$_Tmap_traits@_KHU?$less@_K@std@@V?$allocator@U?$pair@$$CB_KH@std@@@2@$0A@@std@@@std@@KAPEAU_Node@?$_Tree_nod@V?$_Tmap_traits@_KHU?$less@_K@std@@V?$allocator@U?$pair@$$CB_KH@std@@@2@$0A@@std@@@2@PEAU342@@Z ENDP ; std::_Tree<std::_Tmap_traits<unsigned __int64,int,std::less<unsigned __int64>,std::allocator<std::pair<unsigned __int64 const ,int> >,0> >::_Max
; Function compile flags: /Ogtpy
_TEXT	ENDS
;	COMDAT ?_Lrotate@?$_Tree@V?$_Tmap_traits@_KHU?$less@_K@std@@V?$allocator@U?$pair@$$CB_KH@std@@@2@$0A@@std@@@std@@IEAAXPEAU_Node@?$_Tree_nod@V?$_Tmap_traits@_KHU?$less@_K@std@@V?$allocator@U?$pair@$$CB_KH@std@@@2@$0A@@std@@@2@@Z
_TEXT	SEGMENT
this$ = 8
_Wherenode$ = 16
?_Lrotate@?$_Tree@V?$_Tmap_traits@_KHU?$less@_K@std@@V?$allocator@U?$pair@$$CB_KH@std@@@2@$0A@@std@@@std@@IEAAXPEAU_Node@?$_Tree_nod@V?$_Tmap_traits@_KHU?$less@_K@std@@V?$allocator@U?$pair@$$CB_KH@std@@@2@$0A@@std@@@2@@Z PROC ; std::_Tree<std::_Tmap_traits<unsigned __int64,int,std::less<unsigned __int64>,std::allocator<std::pair<unsigned __int64 const ,int> >,0> >::_Lrotate, COMDAT

; 1286 : 		_Nodeptr _Pnode = _Right(_Wherenode);

	mov	r8, QWORD PTR [rdx+16]

; 1287 : 		_Right(_Wherenode) = _Left(_Pnode);

	mov	rax, QWORD PTR [r8]
	mov	QWORD PTR [rdx+16], rax

; 1288 : 
; 1289 : 		if (!_Isnil(_Left(_Pnode)))

	mov	rax, QWORD PTR [r8]
	cmp	BYTE PTR [rax+41], 0
	jne	SHORT $LN5@Lrotate@3

; 1290 : 			_Parent(_Left(_Pnode)) = _Wherenode;

	mov	QWORD PTR [rax+8], rdx
$LN5@Lrotate@3:

; 1291 : 		_Parent(_Pnode) = _Parent(_Wherenode);

	mov	rax, QWORD PTR [rdx+8]
	mov	QWORD PTR [r8+8], rax

; 1292 : 
; 1293 : 		if (_Wherenode == _Root())

	mov	rax, QWORD PTR [rcx+48]
	cmp	rdx, QWORD PTR [rax+8]
	jne	SHORT $LN4@Lrotate@3

; 1294 : 			_Root() = _Pnode;

	mov	QWORD PTR [rax+8], r8

; 1299 : 
; 1300 : 		_Left(_Pnode) = _Wherenode;

	mov	QWORD PTR [r8], rdx

; 1301 : 		_Parent(_Wherenode) = _Pnode;

	mov	QWORD PTR [rdx+8], r8

; 1302 : 		}

	ret	0
$LN4@Lrotate@3:

; 1295 : 		else if (_Wherenode == _Left(_Parent(_Wherenode)))

	mov	rax, QWORD PTR [rdx+8]
	cmp	rdx, QWORD PTR [rax]
	jne	SHORT $LN2@Lrotate@3

; 1296 : 			_Left(_Parent(_Wherenode)) = _Pnode;

	mov	QWORD PTR [rax], r8

; 1299 : 
; 1300 : 		_Left(_Pnode) = _Wherenode;

	mov	QWORD PTR [r8], rdx

; 1301 : 		_Parent(_Wherenode) = _Pnode;

	mov	QWORD PTR [rdx+8], r8

; 1302 : 		}

	ret	0
$LN2@Lrotate@3:

; 1297 : 		else
; 1298 : 			_Right(_Parent(_Wherenode)) = _Pnode;

	mov	QWORD PTR [rax+16], r8

; 1299 : 
; 1300 : 		_Left(_Pnode) = _Wherenode;

	mov	QWORD PTR [r8], rdx

; 1301 : 		_Parent(_Wherenode) = _Pnode;

	mov	QWORD PTR [rdx+8], r8

; 1302 : 		}

	ret	0
?_Lrotate@?$_Tree@V?$_Tmap_traits@_KHU?$less@_K@std@@V?$allocator@U?$pair@$$CB_KH@std@@@2@$0A@@std@@@std@@IEAAXPEAU_Node@?$_Tree_nod@V?$_Tmap_traits@_KHU?$less@_K@std@@V?$allocator@U?$pair@$$CB_KH@std@@@2@$0A@@std@@@2@@Z ENDP ; std::_Tree<std::_Tmap_traits<unsigned __int64,int,std::less<unsigned __int64>,std::allocator<std::pair<unsigned __int64 const ,int> >,0> >::_Lrotate
_TEXT	ENDS
;	COMDAT pdata
; File c:\program files\microsoft visual studio 9.0\vc\include\xmemory
pdata	SEGMENT
$pdata$?_Erase@?$_Tree@V?$_Tmap_traits@_KHU?$less@_K@std@@V?$allocator@U?$pair@$$CB_KH@std@@@2@$0A@@std@@@std@@IEAAXPEAU_Node@?$_Tree_nod@V?$_Tmap_traits@_KHU?$less@_K@std@@V?$allocator@U?$pair@$$CB_KH@std@@@2@$0A@@std@@@2@@Z DD imagerel $LN16
	DD	imagerel $LN16+80
	DD	imagerel $unwind$?_Erase@?$_Tree@V?$_Tmap_traits@_KHU?$less@_K@std@@V?$allocator@U?$pair@$$CB_KH@std@@@2@$0A@@std@@@std@@IEAAXPEAU_Node@?$_Tree_nod@V?$_Tmap_traits@_KHU?$less@_K@std@@V?$allocator@U?$pair@$$CB_KH@std@@@2@$0A@@std@@@2@@Z
pdata	ENDS
;	COMDAT xdata
xdata	SEGMENT
$unwind$?_Erase@?$_Tree@V?$_Tmap_traits@_KHU?$less@_K@std@@V?$allocator@U?$pair@$$CB_KH@std@@@2@$0A@@std@@@std@@IEAAXPEAU_Node@?$_Tree_nod@V?$_Tmap_traits@_KHU?$less@_K@std@@V?$allocator@U?$pair@$$CB_KH@std@@@2@$0A@@std@@@2@@Z DD 060f01H
	DD	07640fH
	DD	06340fH
	DD	0700b320fH
; Function compile flags: /Ogtpy
; File c:\program files\microsoft visual studio 9.0\vc\include\xtree
xdata	ENDS
;	COMDAT ?_Erase@?$_Tree@V?$_Tmap_traits@_KHU?$less@_K@std@@V?$allocator@U?$pair@$$CB_KH@std@@@2@$0A@@std@@@std@@IEAAXPEAU_Node@?$_Tree_nod@V?$_Tmap_traits@_KHU?$less@_K@std@@V?$allocator@U?$pair@$$CB_KH@std@@@2@$0A@@std@@@2@@Z
_TEXT	SEGMENT
this$ = 48
_Rootnode$ = 56
?_Erase@?$_Tree@V?$_Tmap_traits@_KHU?$less@_K@std@@V?$allocator@U?$pair@$$CB_KH@std@@@2@$0A@@std@@@std@@IEAAXPEAU_Node@?$_Tree_nod@V?$_Tmap_traits@_KHU?$less@_K@std@@V?$allocator@U?$pair@$$CB_KH@std@@@2@$0A@@std@@@2@@Z PROC ; std::_Tree<std::_Tmap_traits<unsigned __int64,int,std::less<unsigned __int64>,std::allocator<std::pair<unsigned __int64 const ,int> >,0> >::_Erase, COMDAT

; 1166 : 		{	// free entire subtree, recursively

$LN16:
	mov	QWORD PTR [rsp+8], rbx
	mov	QWORD PTR [rsp+16], rsi
	push	rdi
	sub	rsp, 32					; 00000020H

; 1167 : 		for (_Nodeptr _Pnode = _Rootnode; !_Isnil(_Pnode); _Rootnode = _Pnode)

	cmp	BYTE PTR [rdx+41], 0
	mov	rdi, rdx
	mov	rsi, rcx
	mov	rbx, rdx
	jne	SHORT $LN1@Erase@3
	npad	2
$LL3@Erase@3:

; 1168 : 			{	// free subtrees, then node
; 1169 : 			_Erase(_Right(_Pnode));

	mov	rdx, QWORD PTR [rbx+16]
	mov	rcx, rsi
	call	?_Erase@?$_Tree@V?$_Tmap_traits@_KHU?$less@_K@std@@V?$allocator@U?$pair@$$CB_KH@std@@@2@$0A@@std@@@std@@IEAAXPEAU_Node@?$_Tree_nod@V?$_Tmap_traits@_KHU?$less@_K@std@@V?$allocator@U?$pair@$$CB_KH@std@@@2@$0A@@std@@@2@@Z ; std::_Tree<std::_Tmap_traits<unsigned __int64,int,std::less<unsigned __int64>,std::allocator<std::pair<unsigned __int64 const ,int> >,0> >::_Erase

; 1170 : 			_Pnode = _Left(_Pnode);

	mov	rbx, QWORD PTR [rbx]

; 1171 : 			this->_Alnod.destroy(_Rootnode);	// destroy, free erased node
; 1172 : 			this->_Alnod.deallocate(_Rootnode, 1);

	mov	rcx, rdi
	call	??3@YAXPEAX@Z				; operator delete
	cmp	BYTE PTR [rbx+41], 0
	mov	rdi, rbx
	je	SHORT $LL3@Erase@3
$LN1@Erase@3:

; 1173 : 			}
; 1174 : 		}

	mov	rbx, QWORD PTR [rsp+48]
	mov	rsi, QWORD PTR [rsp+56]
	add	rsp, 32					; 00000020H
	pop	rdi
	ret	0
?_Erase@?$_Tree@V?$_Tmap_traits@_KHU?$less@_K@std@@V?$allocator@U?$pair@$$CB_KH@std@@@2@$0A@@std@@@std@@IEAAXPEAU_Node@?$_Tree_nod@V?$_Tmap_traits@_KHU?$less@_K@std@@V?$allocator@U?$pair@$$CB_KH@std@@@2@$0A@@std@@@2@@Z ENDP ; std::_Tree<std::_Tmap_traits<unsigned __int64,int,std::less<unsigned __int64>,std::allocator<std::pair<unsigned __int64 const ,int> >,0> >::_Erase
_TEXT	ENDS
;	COMDAT pdata
; File c:\program files\microsoft visual studio 9.0\vc\include\xutility
pdata	SEGMENT
$pdata$??8const_iterator@?$_Tree@V?$_Tmap_traits@KPEAVThreadInfo@@U?$less@K@std@@V?$allocator@U?$pair@$$CBKPEAVThreadInfo@@@std@@@3@$0A@@std@@@std@@QEBA_NAEBV012@@Z DD imagerel $LN12
	DD	imagerel $LN12+57
	DD	imagerel $unwind$??8const_iterator@?$_Tree@V?$_Tmap_traits@KPEAVThreadInfo@@U?$less@K@std@@V?$allocator@U?$pair@$$CBKPEAVThreadInfo@@@std@@@3@$0A@@std@@@std@@QEBA_NAEBV012@@Z
pdata	ENDS
;	COMDAT xdata
xdata	SEGMENT
$unwind$??8const_iterator@?$_Tree@V?$_Tmap_traits@KPEAVThreadInfo@@U?$less@K@std@@V?$allocator@U?$pair@$$CBKPEAVThreadInfo@@@std@@@3@$0A@@std@@@std@@QEBA_NAEBV012@@Z DD 040a01H
	DD	06340aH
	DD	07006320aH
; Function compile flags: /Ogtpy
; File c:\program files\microsoft visual studio 9.0\vc\include\xtree
xdata	ENDS
;	COMDAT ??8const_iterator@?$_Tree@V?$_Tmap_traits@KPEAVThreadInfo@@U?$less@K@std@@V?$allocator@U?$pair@$$CBKPEAVThreadInfo@@@std@@@3@$0A@@std@@@std@@QEBA_NAEBV012@@Z
_TEXT	SEGMENT
this$ = 48
_Right$ = 56
??8const_iterator@?$_Tree@V?$_Tmap_traits@KPEAVThreadInfo@@U?$less@K@std@@V?$allocator@U?$pair@$$CBKPEAVThreadInfo@@@std@@@3@$0A@@std@@@std@@QEBA_NAEBV012@@Z PROC ; std::_Tree<std::_Tmap_traits<unsigned long,ThreadInfo * __ptr64,std::less<unsigned long>,std::allocator<std::pair<unsigned long const ,ThreadInfo * __ptr64> >,0> >::const_iterator::operator==, COMDAT

; 299  : 			{	// test for iterator equality

$LN12:
	mov	QWORD PTR [rsp+8], rbx
	push	rdi
	sub	rsp, 32					; 00000020H

; 300  : 
; 301  :  #if _HAS_ITERATOR_DEBUGGING
; 302  : 			if (this->_Mycont == 0 || this->_Mycont != _Right._Mycont)
; 303  : 				{
; 304  : 				_DEBUG_ERROR("map/set iterators incompatible");
; 305  : 				_SCL_SECURE_INVALID_ARGUMENT;
; 306  : 				}
; 307  :  #else
; 308  : 			_SCL_SECURE_VALIDATE(this->_Has_container() && this->_Same_container(_Right));

	mov	rax, QWORD PTR [rcx]
	mov	rbx, rdx
	mov	rdi, rcx
	test	rax, rax
	je	SHORT $LN4@operator@3
	cmp	rax, QWORD PTR [rdx]
	je	SHORT $LN3@operator@3
$LN4@operator@3:
	call	QWORD PTR __imp__invalid_parameter_noinfo
$LN3@operator@3:

; 309  :  #endif /* _HAS_ITERATOR_DEBUGGING */
; 310  : 
; 311  : 			return (_Ptr == _Right._Ptr);

	mov	rdx, QWORD PTR [rbx+8]

; 312  : 			}

	mov	rbx, QWORD PTR [rsp+48]
	cmp	QWORD PTR [rdi+8], rdx
	sete	al
	add	rsp, 32					; 00000020H
	pop	rdi
	ret	0
??8const_iterator@?$_Tree@V?$_Tmap_traits@KPEAVThreadInfo@@U?$less@K@std@@V?$allocator@U?$pair@$$CBKPEAVThreadInfo@@@std@@@3@$0A@@std@@@std@@QEBA_NAEBV012@@Z ENDP ; std::_Tree<std::_Tmap_traits<unsigned long,ThreadInfo * __ptr64,std::less<unsigned long>,std::allocator<std::pair<unsigned long const ,ThreadInfo * __ptr64> >,0> >::const_iterator::operator==
_TEXT	ENDS
;	COMDAT pdata
; File c:\program files\microsoft visual studio 9.0\vc\include\xutility
pdata	SEGMENT
$pdata$??0iterator@?$_Tree@V?$_Tmap_traits@KPEAVThreadInfo@@U?$less@K@std@@V?$allocator@U?$pair@$$CBKPEAVThreadInfo@@@std@@@3@$0A@@std@@@std@@QEAA@PEAU_Node@?$_Tree_nod@V?$_Tmap_traits@KPEAVThreadInfo@@U?$less@K@std@@V?$allocator@U?$pair@$$CBKPEAVThreadInfo@@@std@@@3@$0A@@std@@@2@PEBV12@@Z DD imagerel $LN17
	DD	imagerel $LN17+58
	DD	imagerel $unwind$??0iterator@?$_Tree@V?$_Tmap_traits@KPEAVThreadInfo@@U?$less@K@std@@V?$allocator@U?$pair@$$CBKPEAVThreadInfo@@@std@@@3@$0A@@std@@@std@@QEAA@PEAU_Node@?$_Tree_nod@V?$_Tmap_traits@KPEAVThreadInfo@@U?$less@K@std@@V?$allocator@U?$pair@$$CBKPEAVThreadInfo@@@std@@@3@$0A@@std@@@2@PEBV12@@Z
pdata	ENDS
;	COMDAT xdata
xdata	SEGMENT
$unwind$??0iterator@?$_Tree@V?$_Tmap_traits@KPEAVThreadInfo@@U?$less@K@std@@V?$allocator@U?$pair@$$CBKPEAVThreadInfo@@@std@@@3@$0A@@std@@@std@@QEAA@PEAU_Node@?$_Tree_nod@V?$_Tmap_traits@KPEAVThreadInfo@@U?$less@K@std@@V?$allocator@U?$pair@$$CBKPEAVThreadInfo@@@std@@@3@$0A@@std@@@2@PEBV12@@Z DD 040a01H
	DD	06340aH
	DD	07006320aH
; Function compile flags: /Ogtpy
; File c:\program files\microsoft visual studio 9.0\vc\include\xtree
xdata	ENDS
;	COMDAT ??0iterator@?$_Tree@V?$_Tmap_traits@KPEAVThreadInfo@@U?$less@K@std@@V?$allocator@U?$pair@$$CBKPEAVThreadInfo@@@std@@@3@$0A@@std@@@std@@QEAA@PEAU_Node@?$_Tree_nod@V?$_Tmap_traits@KPEAVThreadInfo@@U?$less@K@std@@V?$allocator@U?$pair@$$CBKPEAVThreadInfo@@@std@@@3@$0A@@std@@@2@PEBV12@@Z
_TEXT	SEGMENT
this$ = 48
_Pnode$ = 56
_Plist$ = 64
??0iterator@?$_Tree@V?$_Tmap_traits@KPEAVThreadInfo@@U?$less@K@std@@V?$allocator@U?$pair@$$CBKPEAVThreadInfo@@@std@@@3@$0A@@std@@@std@@QEAA@PEAU_Node@?$_Tree_nod@V?$_Tmap_traits@KPEAVThreadInfo@@U?$less@K@std@@V?$allocator@U?$pair@$$CBKPEAVThreadInfo@@@std@@@3@$0A@@std@@@2@PEBV12@@Z PROC ; std::_Tree<std::_Tmap_traits<unsigned long,ThreadInfo * __ptr64,std::less<unsigned long>,std::allocator<std::pair<unsigned long const ,ThreadInfo * __ptr64> >,0> >::iterator::iterator, COMDAT

; 451  : 			{	// construct with node pointer _Pnode

$LN17:
	mov	QWORD PTR [rsp+8], rbx
	push	rdi
	sub	rsp, 32					; 00000020H
	mov	rdi, r8
	mov	rbx, rcx
	mov	QWORD PTR [rcx], 0
	mov	QWORD PTR [rcx+8], rdx
	test	r8, r8
	jne	SHORT $LN5@iterator
	call	QWORD PTR __imp__invalid_parameter_noinfo
$LN5@iterator:
	mov	rax, QWORD PTR [rdi]
	mov	QWORD PTR [rbx], rax

; 452  : 			}

	mov	rax, rbx
	mov	rbx, QWORD PTR [rsp+48]
	add	rsp, 32					; 00000020H
	pop	rdi
	ret	0
??0iterator@?$_Tree@V?$_Tmap_traits@KPEAVThreadInfo@@U?$less@K@std@@V?$allocator@U?$pair@$$CBKPEAVThreadInfo@@@std@@@3@$0A@@std@@@std@@QEAA@PEAU_Node@?$_Tree_nod@V?$_Tmap_traits@KPEAVThreadInfo@@U?$less@K@std@@V?$allocator@U?$pair@$$CBKPEAVThreadInfo@@@std@@@3@$0A@@std@@@2@PEBV12@@Z ENDP ; std::_Tree<std::_Tmap_traits<unsigned long,ThreadInfo * __ptr64,std::less<unsigned long>,std::allocator<std::pair<unsigned long const ,ThreadInfo * __ptr64> >,0> >::iterator::iterator
_TEXT	ENDS
;	COMDAT pdata
; File c:\program files\microsoft visual studio 9.0\vc\include\xutility
pdata	SEGMENT
$pdata$??8const_iterator@?$_Tree@V?$_Tmap_traits@_KPEAVThreadInfo@@U?$less@_K@std@@V?$allocator@U?$pair@$$CB_KPEAVThreadInfo@@@std@@@3@$0A@@std@@@std@@QEBA_NAEBV012@@Z DD imagerel $LN12
	DD	imagerel $LN12+57
	DD	imagerel $unwind$??8const_iterator@?$_Tree@V?$_Tmap_traits@_KPEAVThreadInfo@@U?$less@_K@std@@V?$allocator@U?$pair@$$CB_KPEAVThreadInfo@@@std@@@3@$0A@@std@@@std@@QEBA_NAEBV012@@Z
pdata	ENDS
;	COMDAT xdata
xdata	SEGMENT
$unwind$??8const_iterator@?$_Tree@V?$_Tmap_traits@_KPEAVThreadInfo@@U?$less@_K@std@@V?$allocator@U?$pair@$$CB_KPEAVThreadInfo@@@std@@@3@$0A@@std@@@std@@QEBA_NAEBV012@@Z DD 040a01H
	DD	06340aH
	DD	07006320aH
; Function compile flags: /Ogtpy
; File c:\program files\microsoft visual studio 9.0\vc\include\xtree
xdata	ENDS
;	COMDAT ??8const_iterator@?$_Tree@V?$_Tmap_traits@_KPEAVThreadInfo@@U?$less@_K@std@@V?$allocator@U?$pair@$$CB_KPEAVThreadInfo@@@std@@@3@$0A@@std@@@std@@QEBA_NAEBV012@@Z
_TEXT	SEGMENT
this$ = 48
_Right$ = 56
??8const_iterator@?$_Tree@V?$_Tmap_traits@_KPEAVThreadInfo@@U?$less@_K@std@@V?$allocator@U?$pair@$$CB_KPEAVThreadInfo@@@std@@@3@$0A@@std@@@std@@QEBA_NAEBV012@@Z PROC ; std::_Tree<std::_Tmap_traits<unsigned __int64,ThreadInfo * __ptr64,std::less<unsigned __int64>,std::allocator<std::pair<unsigned __int64 const ,ThreadInfo * __ptr64> >,0> >::const_iterator::operator==, COMDAT

; 299  : 			{	// test for iterator equality

$LN12:
	mov	QWORD PTR [rsp+8], rbx
	push	rdi
	sub	rsp, 32					; 00000020H

; 300  : 
; 301  :  #if _HAS_ITERATOR_DEBUGGING
; 302  : 			if (this->_Mycont == 0 || this->_Mycont != _Right._Mycont)
; 303  : 				{
; 304  : 				_DEBUG_ERROR("map/set iterators incompatible");
; 305  : 				_SCL_SECURE_INVALID_ARGUMENT;
; 306  : 				}
; 307  :  #else
; 308  : 			_SCL_SECURE_VALIDATE(this->_Has_container() && this->_Same_container(_Right));

	mov	rax, QWORD PTR [rcx]
	mov	rbx, rdx
	mov	rdi, rcx
	test	rax, rax
	je	SHORT $LN4@operator@4
	cmp	rax, QWORD PTR [rdx]
	je	SHORT $LN3@operator@4
$LN4@operator@4:
	call	QWORD PTR __imp__invalid_parameter_noinfo
$LN3@operator@4:

; 309  :  #endif /* _HAS_ITERATOR_DEBUGGING */
; 310  : 
; 311  : 			return (_Ptr == _Right._Ptr);

	mov	rdx, QWORD PTR [rbx+8]

; 312  : 			}

	mov	rbx, QWORD PTR [rsp+48]
	cmp	QWORD PTR [rdi+8], rdx
	sete	al
	add	rsp, 32					; 00000020H
	pop	rdi
	ret	0
??8const_iterator@?$_Tree@V?$_Tmap_traits@_KPEAVThreadInfo@@U?$less@_K@std@@V?$allocator@U?$pair@$$CB_KPEAVThreadInfo@@@std@@@3@$0A@@std@@@std@@QEBA_NAEBV012@@Z ENDP ; std::_Tree<std::_Tmap_traits<unsigned __int64,ThreadInfo * __ptr64,std::less<unsigned __int64>,std::allocator<std::pair<unsigned __int64 const ,ThreadInfo * __ptr64> >,0> >::const_iterator::operator==
_TEXT	ENDS
;	COMDAT pdata
; File c:\program files\microsoft visual studio 9.0\vc\include\xutility
pdata	SEGMENT
$pdata$??0iterator@?$_Tree@V?$_Tmap_traits@_KPEAVThreadInfo@@U?$less@_K@std@@V?$allocator@U?$pair@$$CB_KPEAVThreadInfo@@@std@@@3@$0A@@std@@@std@@QEAA@PEAU_Node@?$_Tree_nod@V?$_Tmap_traits@_KPEAVThreadInfo@@U?$less@_K@std@@V?$allocator@U?$pair@$$CB_KPEAVThreadInfo@@@std@@@3@$0A@@std@@@2@PEBV12@@Z DD imagerel $LN17
	DD	imagerel $LN17+58
	DD	imagerel $unwind$??0iterator@?$_Tree@V?$_Tmap_traits@_KPEAVThreadInfo@@U?$less@_K@std@@V?$allocator@U?$pair@$$CB_KPEAVThreadInfo@@@std@@@3@$0A@@std@@@std@@QEAA@PEAU_Node@?$_Tree_nod@V?$_Tmap_traits@_KPEAVThreadInfo@@U?$less@_K@std@@V?$allocator@U?$pair@$$CB_KPEAVThreadInfo@@@std@@@3@$0A@@std@@@2@PEBV12@@Z
pdata	ENDS
;	COMDAT xdata
xdata	SEGMENT
$unwind$??0iterator@?$_Tree@V?$_Tmap_traits@_KPEAVThreadInfo@@U?$less@_K@std@@V?$allocator@U?$pair@$$CB_KPEAVThreadInfo@@@std@@@3@$0A@@std@@@std@@QEAA@PEAU_Node@?$_Tree_nod@V?$_Tmap_traits@_KPEAVThreadInfo@@U?$less@_K@std@@V?$allocator@U?$pair@$$CB_KPEAVThreadInfo@@@std@@@3@$0A@@std@@@2@PEBV12@@Z DD 040a01H
	DD	06340aH
	DD	07006320aH
; Function compile flags: /Ogtpy
; File c:\program files\microsoft visual studio 9.0\vc\include\xtree
xdata	ENDS
;	COMDAT ??0iterator@?$_Tree@V?$_Tmap_traits@_KPEAVThreadInfo@@U?$less@_K@std@@V?$allocator@U?$pair@$$CB_KPEAVThreadInfo@@@std@@@3@$0A@@std@@@std@@QEAA@PEAU_Node@?$_Tree_nod@V?$_Tmap_traits@_KPEAVThreadInfo@@U?$less@_K@std@@V?$allocator@U?$pair@$$CB_KPEAVThreadInfo@@@std@@@3@$0A@@std@@@2@PEBV12@@Z
_TEXT	SEGMENT
this$ = 48
_Pnode$ = 56
_Plist$ = 64
??0iterator@?$_Tree@V?$_Tmap_traits@_KPEAVThreadInfo@@U?$less@_K@std@@V?$allocator@U?$pair@$$CB_KPEAVThreadInfo@@@std@@@3@$0A@@std@@@std@@QEAA@PEAU_Node@?$_Tree_nod@V?$_Tmap_traits@_KPEAVThreadInfo@@U?$less@_K@std@@V?$allocator@U?$pair@$$CB_KPEAVThreadInfo@@@std@@@3@$0A@@std@@@2@PEBV12@@Z PROC ; std::_Tree<std::_Tmap_traits<unsigned __int64,ThreadInfo * __ptr64,std::less<unsigned __int64>,std::allocator<std::pair<unsigned __int64 const ,ThreadInfo * __ptr64> >,0> >::iterator::iterator, COMDAT

; 451  : 			{	// construct with node pointer _Pnode

$LN17:
	mov	QWORD PTR [rsp+8], rbx
	push	rdi
	sub	rsp, 32					; 00000020H
	mov	rdi, r8
	mov	rbx, rcx
	mov	QWORD PTR [rcx], 0
	mov	QWORD PTR [rcx+8], rdx
	test	r8, r8
	jne	SHORT $LN5@iterator@2
	call	QWORD PTR __imp__invalid_parameter_noinfo
$LN5@iterator@2:
	mov	rax, QWORD PTR [rdi]
	mov	QWORD PTR [rbx], rax

; 452  : 			}

	mov	rax, rbx
	mov	rbx, QWORD PTR [rsp+48]
	add	rsp, 32					; 00000020H
	pop	rdi
	ret	0
??0iterator@?$_Tree@V?$_Tmap_traits@_KPEAVThreadInfo@@U?$less@_K@std@@V?$allocator@U?$pair@$$CB_KPEAVThreadInfo@@@std@@@3@$0A@@std@@@std@@QEAA@PEAU_Node@?$_Tree_nod@V?$_Tmap_traits@_KPEAVThreadInfo@@U?$less@_K@std@@V?$allocator@U?$pair@$$CB_KPEAVThreadInfo@@@std@@@3@$0A@@std@@@2@PEBV12@@Z ENDP ; std::_Tree<std::_Tmap_traits<unsigned __int64,ThreadInfo * __ptr64,std::less<unsigned __int64>,std::allocator<std::pair<unsigned __int64 const ,ThreadInfo * __ptr64> >,0> >::iterator::iterator
_TEXT	ENDS
;	COMDAT pdata
; File c:\program files\microsoft visual studio 9.0\vc\include\xutility
pdata	SEGMENT
$pdata$??8const_iterator@?$_Tree@V?$_Tmap_traits@_KHU?$less@_K@std@@V?$allocator@U?$pair@$$CB_KH@std@@@2@$0A@@std@@@std@@QEBA_NAEBV012@@Z DD imagerel $LN12
	DD	imagerel $LN12+57
	DD	imagerel $unwind$??8const_iterator@?$_Tree@V?$_Tmap_traits@_KHU?$less@_K@std@@V?$allocator@U?$pair@$$CB_KH@std@@@2@$0A@@std@@@std@@QEBA_NAEBV012@@Z
pdata	ENDS
;	COMDAT xdata
xdata	SEGMENT
$unwind$??8const_iterator@?$_Tree@V?$_Tmap_traits@_KHU?$less@_K@std@@V?$allocator@U?$pair@$$CB_KH@std@@@2@$0A@@std@@@std@@QEBA_NAEBV012@@Z DD 040a01H
	DD	06340aH
	DD	07006320aH
; Function compile flags: /Ogtpy
; File c:\program files\microsoft visual studio 9.0\vc\include\xtree
xdata	ENDS
;	COMDAT ??8const_iterator@?$_Tree@V?$_Tmap_traits@_KHU?$less@_K@std@@V?$allocator@U?$pair@$$CB_KH@std@@@2@$0A@@std@@@std@@QEBA_NAEBV012@@Z
_TEXT	SEGMENT
this$ = 48
_Right$ = 56
??8const_iterator@?$_Tree@V?$_Tmap_traits@_KHU?$less@_K@std@@V?$allocator@U?$pair@$$CB_KH@std@@@2@$0A@@std@@@std@@QEBA_NAEBV012@@Z PROC ; std::_Tree<std::_Tmap_traits<unsigned __int64,int,std::less<unsigned __int64>,std::allocator<std::pair<unsigned __int64 const ,int> >,0> >::const_iterator::operator==, COMDAT

; 299  : 			{	// test for iterator equality

$LN12:
	mov	QWORD PTR [rsp+8], rbx
	push	rdi
	sub	rsp, 32					; 00000020H

; 300  : 
; 301  :  #if _HAS_ITERATOR_DEBUGGING
; 302  : 			if (this->_Mycont == 0 || this->_Mycont != _Right._Mycont)
; 303  : 				{
; 304  : 				_DEBUG_ERROR("map/set iterators incompatible");
; 305  : 				_SCL_SECURE_INVALID_ARGUMENT;
; 306  : 				}
; 307  :  #else
; 308  : 			_SCL_SECURE_VALIDATE(this->_Has_container() && this->_Same_container(_Right));

	mov	rax, QWORD PTR [rcx]
	mov	rbx, rdx
	mov	rdi, rcx
	test	rax, rax
	je	SHORT $LN4@operator@5
	cmp	rax, QWORD PTR [rdx]
	je	SHORT $LN3@operator@5
$LN4@operator@5:
	call	QWORD PTR __imp__invalid_parameter_noinfo
$LN3@operator@5:

; 309  :  #endif /* _HAS_ITERATOR_DEBUGGING */
; 310  : 
; 311  : 			return (_Ptr == _Right._Ptr);

	mov	rdx, QWORD PTR [rbx+8]

; 312  : 			}

	mov	rbx, QWORD PTR [rsp+48]
	cmp	QWORD PTR [rdi+8], rdx
	sete	al
	add	rsp, 32					; 00000020H
	pop	rdi
	ret	0
??8const_iterator@?$_Tree@V?$_Tmap_traits@_KHU?$less@_K@std@@V?$allocator@U?$pair@$$CB_KH@std@@@2@$0A@@std@@@std@@QEBA_NAEBV012@@Z ENDP ; std::_Tree<std::_Tmap_traits<unsigned __int64,int,std::less<unsigned __int64>,std::allocator<std::pair<unsigned __int64 const ,int> >,0> >::const_iterator::operator==
_TEXT	ENDS
;	COMDAT pdata
; File c:\program files\microsoft visual studio 9.0\vc\include\xutility
pdata	SEGMENT
$pdata$??0iterator@?$_Tree@V?$_Tmap_traits@_KHU?$less@_K@std@@V?$allocator@U?$pair@$$CB_KH@std@@@2@$0A@@std@@@std@@QEAA@PEAU_Node@?$_Tree_nod@V?$_Tmap_traits@_KHU?$less@_K@std@@V?$allocator@U?$pair@$$CB_KH@std@@@2@$0A@@std@@@2@PEBV12@@Z DD imagerel $LN17
	DD	imagerel $LN17+58
	DD	imagerel $unwind$??0iterator@?$_Tree@V?$_Tmap_traits@_KHU?$less@_K@std@@V?$allocator@U?$pair@$$CB_KH@std@@@2@$0A@@std@@@std@@QEAA@PEAU_Node@?$_Tree_nod@V?$_Tmap_traits@_KHU?$less@_K@std@@V?$allocator@U?$pair@$$CB_KH@std@@@2@$0A@@std@@@2@PEBV12@@Z
pdata	ENDS
;	COMDAT xdata
xdata	SEGMENT
$unwind$??0iterator@?$_Tree@V?$_Tmap_traits@_KHU?$less@_K@std@@V?$allocator@U?$pair@$$CB_KH@std@@@2@$0A@@std@@@std@@QEAA@PEAU_Node@?$_Tree_nod@V?$_Tmap_traits@_KHU?$less@_K@std@@V?$allocator@U?$pair@$$CB_KH@std@@@2@$0A@@std@@@2@PEBV12@@Z DD 040a01H
	DD	06340aH
	DD	07006320aH
; Function compile flags: /Ogtpy
; File c:\program files\microsoft visual studio 9.0\vc\include\xtree
xdata	ENDS
;	COMDAT ??0iterator@?$_Tree@V?$_Tmap_traits@_KHU?$less@_K@std@@V?$allocator@U?$pair@$$CB_KH@std@@@2@$0A@@std@@@std@@QEAA@PEAU_Node@?$_Tree_nod@V?$_Tmap_traits@_KHU?$less@_K@std@@V?$allocator@U?$pair@$$CB_KH@std@@@2@$0A@@std@@@2@PEBV12@@Z
_TEXT	SEGMENT
this$ = 48
_Pnode$ = 56
_Plist$ = 64
??0iterator@?$_Tree@V?$_Tmap_traits@_KHU?$less@_K@std@@V?$allocator@U?$pair@$$CB_KH@std@@@2@$0A@@std@@@std@@QEAA@PEAU_Node@?$_Tree_nod@V?$_Tmap_traits@_KHU?$less@_K@std@@V?$allocator@U?$pair@$$CB_KH@std@@@2@$0A@@std@@@2@PEBV12@@Z PROC ; std::_Tree<std::_Tmap_traits<unsigned __int64,int,std::less<unsigned __int64>,std::allocator<std::pair<unsigned __int64 const ,int> >,0> >::iterator::iterator, COMDAT

; 451  : 			{	// construct with node pointer _Pnode

$LN17:
	mov	QWORD PTR [rsp+8], rbx
	push	rdi
	sub	rsp, 32					; 00000020H
	mov	rdi, r8
	mov	rbx, rcx
	mov	QWORD PTR [rcx], 0
	mov	QWORD PTR [rcx+8], rdx
	test	r8, r8
	jne	SHORT $LN5@iterator@3
	call	QWORD PTR __imp__invalid_parameter_noinfo
$LN5@iterator@3:
	mov	rax, QWORD PTR [rdi]
	mov	QWORD PTR [rbx], rax

; 452  : 			}

	mov	rax, rbx
	mov	rbx, QWORD PTR [rsp+48]
	add	rsp, 32					; 00000020H
	pop	rdi
	ret	0
??0iterator@?$_Tree@V?$_Tmap_traits@_KHU?$less@_K@std@@V?$allocator@U?$pair@$$CB_KH@std@@@2@$0A@@std@@@std@@QEAA@PEAU_Node@?$_Tree_nod@V?$_Tmap_traits@_KHU?$less@_K@std@@V?$allocator@U?$pair@$$CB_KH@std@@@2@$0A@@std@@@2@PEBV12@@Z ENDP ; std::_Tree<std::_Tmap_traits<unsigned __int64,int,std::less<unsigned __int64>,std::allocator<std::pair<unsigned __int64 const ,int> >,0> >::iterator::iterator
; Function compile flags: /Ogtpy
_TEXT	ENDS
;	COMDAT ?_Lmost@?$_Tree@V?$_Tmap_traits@KPEAVThreadInfo@@U?$less@K@std@@V?$allocator@U?$pair@$$CBKPEAVThreadInfo@@@std@@@3@$0A@@std@@@std@@IEBAAEAPEAU_Node@?$_Tree_nod@V?$_Tmap_traits@KPEAVThreadInfo@@U?$less@K@std@@V?$allocator@U?$pair@$$CBKPEAVThreadInfo@@@std@@@3@$0A@@std@@@2@XZ
_TEXT	SEGMENT
this$ = 8
?_Lmost@?$_Tree@V?$_Tmap_traits@KPEAVThreadInfo@@U?$less@K@std@@V?$allocator@U?$pair@$$CBKPEAVThreadInfo@@@std@@@3@$0A@@std@@@std@@IEBAAEAPEAU_Node@?$_Tree_nod@V?$_Tmap_traits@KPEAVThreadInfo@@U?$less@K@std@@V?$allocator@U?$pair@$$CBKPEAVThreadInfo@@@std@@@3@$0A@@std@@@2@XZ PROC ; std::_Tree<std::_Tmap_traits<unsigned long,ThreadInfo * __ptr64,std::less<unsigned long>,std::allocator<std::pair<unsigned long const ,ThreadInfo * __ptr64> >,0> >::_Lmost, COMDAT

; 1281 : 		return (_Left(_Myhead));

	mov	rax, QWORD PTR [rcx+48]

; 1282 : 		}

	ret	0
?_Lmost@?$_Tree@V?$_Tmap_traits@KPEAVThreadInfo@@U?$less@K@std@@V?$allocator@U?$pair@$$CBKPEAVThreadInfo@@@std@@@3@$0A@@std@@@std@@IEBAAEAPEAU_Node@?$_Tree_nod@V?$_Tmap_traits@KPEAVThreadInfo@@U?$less@K@std@@V?$allocator@U?$pair@$$CBKPEAVThreadInfo@@@std@@@3@$0A@@std@@@2@XZ ENDP ; std::_Tree<std::_Tmap_traits<unsigned long,ThreadInfo * __ptr64,std::less<unsigned long>,std::allocator<std::pair<unsigned long const ,ThreadInfo * __ptr64> >,0> >::_Lmost
_TEXT	ENDS
;	COMDAT pdata
pdata	SEGMENT
$pdata$?clear@?$_Tree@V?$_Tmap_traits@KPEAVThreadInfo@@U?$less@K@std@@V?$allocator@U?$pair@$$CBKPEAVThreadInfo@@@std@@@3@$0A@@std@@@std@@QEAAXXZ DD imagerel $LN34
	DD	imagerel $LN34+114
	DD	imagerel $unwind$?clear@?$_Tree@V?$_Tmap_traits@KPEAVThreadInfo@@U?$less@K@std@@V?$allocator@U?$pair@$$CBKPEAVThreadInfo@@@std@@@3@$0A@@std@@@std@@QEAAXXZ
pdata	ENDS
;	COMDAT xdata
xdata	SEGMENT
$unwind$?clear@?$_Tree@V?$_Tmap_traits@KPEAVThreadInfo@@U?$less@K@std@@V?$allocator@U?$pair@$$CBKPEAVThreadInfo@@@std@@@3@$0A@@std@@@std@@QEAAXXZ DD 060f01H
	DD	07640fH
	DD	06340fH
	DD	0700b320fH
; Function compile flags: /Ogtpy
xdata	ENDS
;	COMDAT ?clear@?$_Tree@V?$_Tmap_traits@KPEAVThreadInfo@@U?$less@K@std@@V?$allocator@U?$pair@$$CBKPEAVThreadInfo@@@std@@@3@$0A@@std@@@std@@QEAAXXZ
_TEXT	SEGMENT
this$ = 48
?clear@?$_Tree@V?$_Tmap_traits@KPEAVThreadInfo@@U?$less@K@std@@V?$allocator@U?$pair@$$CBKPEAVThreadInfo@@@std@@@3@$0A@@std@@@std@@QEAAXXZ PROC ; std::_Tree<std::_Tmap_traits<unsigned long,ThreadInfo * __ptr64,std::less<unsigned long>,std::allocator<std::pair<unsigned long const ,ThreadInfo * __ptr64> >,0> >::clear, COMDAT

; 965  : 		{	// erase all

$LN34:
	mov	QWORD PTR [rsp+8], rbx
	mov	QWORD PTR [rsp+16], rsi
	push	rdi
	sub	rsp, 32					; 00000020H

; 966  : 
; 967  :  #if _HAS_ITERATOR_DEBUGGING
; 968  : 		this->_Orphan_ptr(*this, 0);
; 969  :  #endif /* _HAS_ITERATOR_DEBUGGING */
; 970  : 
; 971  : 		_Erase(_Root());

	mov	rax, QWORD PTR [rcx+48]
	mov	rbx, rcx
	mov	rsi, QWORD PTR [rax+8]
	mov	rdi, rsi
	cmp	BYTE PTR [rsi+41], 0
	jne	SHORT $LN7@clear
$LL9@clear:
	mov	rdx, QWORD PTR [rdi+16]
	mov	rcx, rbx
	call	?_Erase@?$_Tree@V?$_Tmap_traits@KPEAVThreadInfo@@U?$less@K@std@@V?$allocator@U?$pair@$$CBKPEAVThreadInfo@@@std@@@3@$0A@@std@@@std@@IEAAXPEAU_Node@?$_Tree_nod@V?$_Tmap_traits@KPEAVThreadInfo@@U?$less@K@std@@V?$allocator@U?$pair@$$CBKPEAVThreadInfo@@@std@@@3@$0A@@std@@@2@@Z ; std::_Tree<std::_Tmap_traits<unsigned long,ThreadInfo * __ptr64,std::less<unsigned long>,std::allocator<std::pair<unsigned long const ,ThreadInfo * __ptr64> >,0> >::_Erase
	mov	rdi, QWORD PTR [rdi]
	mov	rcx, rsi
	call	??3@YAXPEAX@Z				; operator delete
	cmp	BYTE PTR [rdi+41], 0
	mov	rsi, rdi
	je	SHORT $LL9@clear
$LN7@clear:

; 972  : 		_Root() = _Myhead, _Mysize = 0;

	mov	rax, QWORD PTR [rbx+48]

; 973  : 		_Lmost() = _Myhead, _Rmost() = _Myhead;
; 974  : 		}

	mov	rsi, QWORD PTR [rsp+56]
	mov	QWORD PTR [rax+8], rax
	mov	rax, QWORD PTR [rbx+48]
	mov	QWORD PTR [rbx+56], 0
	mov	QWORD PTR [rax], rax
	mov	rax, QWORD PTR [rbx+48]
	mov	rbx, QWORD PTR [rsp+48]
	mov	QWORD PTR [rax+16], rax
	add	rsp, 32					; 00000020H
	pop	rdi
	ret	0
?clear@?$_Tree@V?$_Tmap_traits@KPEAVThreadInfo@@U?$less@K@std@@V?$allocator@U?$pair@$$CBKPEAVThreadInfo@@@std@@@3@$0A@@std@@@std@@QEAAXXZ ENDP ; std::_Tree<std::_Tmap_traits<unsigned long,ThreadInfo * __ptr64,std::less<unsigned long>,std::allocator<std::pair<unsigned long const ,ThreadInfo * __ptr64> >,0> >::clear
_TEXT	ENDS
;	COMDAT pdata
; File c:\program files\microsoft visual studio 9.0\vc\include\xutility
pdata	SEGMENT
$pdata$?_Make_iter@?$_Tree@V?$_Tmap_traits@KPEAVThreadInfo@@U?$less@K@std@@V?$allocator@U?$pair@$$CBKPEAVThreadInfo@@@std@@@3@$0A@@std@@@std@@QEBA?AViterator@12@Vconst_iterator@12@@Z DD imagerel $LN19
	DD	imagerel $LN19+77
	DD	imagerel $unwind$?_Make_iter@?$_Tree@V?$_Tmap_traits@KPEAVThreadInfo@@U?$less@K@std@@V?$allocator@U?$pair@$$CBKPEAVThreadInfo@@@std@@@3@$0A@@std@@@std@@QEBA?AViterator@12@Vconst_iterator@12@@Z
pdata	ENDS
;	COMDAT xdata
xdata	SEGMENT
$unwind$?_Make_iter@?$_Tree@V?$_Tmap_traits@KPEAVThreadInfo@@U?$less@K@std@@V?$allocator@U?$pair@$$CBKPEAVThreadInfo@@@std@@@3@$0A@@std@@@std@@QEBA?AViterator@12@Vconst_iterator@12@@Z DD 040a01H
	DD	08340aH
	DD	07006520aH
; Function compile flags: /Ogtpy
; File c:\program files\microsoft visual studio 9.0\vc\include\xtree
xdata	ENDS
;	COMDAT ?_Make_iter@?$_Tree@V?$_Tmap_traits@KPEAVThreadInfo@@U?$less@K@std@@V?$allocator@U?$pair@$$CBKPEAVThreadInfo@@@std@@@3@$0A@@std@@@std@@QEBA?AViterator@12@Vconst_iterator@12@@Z
_TEXT	SEGMENT
$T150132 = 32
this$ = 64
__$ReturnUdt$ = 72
_Where$ = 80
?_Make_iter@?$_Tree@V?$_Tmap_traits@KPEAVThreadInfo@@U?$less@K@std@@V?$allocator@U?$pair@$$CBKPEAVThreadInfo@@@std@@@3@$0A@@std@@@std@@QEBA?AViterator@12@Vconst_iterator@12@@Z PROC ; std::_Tree<std::_Tmap_traits<unsigned long,ThreadInfo * __ptr64,std::less<unsigned long>,std::allocator<std::pair<unsigned long const ,ThreadInfo * __ptr64> >,0> >::_Make_iter, COMDAT

; 575  : 		{	// make iterator from const_iterator

$LN19:
	mov	QWORD PTR [rsp+8], rbx
	push	rdi
	sub	rsp, 48					; 00000030H

; 576  : 		return (iterator(_TREE_ITERATOR(_Where._Ptr)));

	mov	rax, QWORD PTR [r8+8]
	mov	rbx, rdx
	mov	rdi, rcx
	mov	QWORD PTR $T150132[rsp+8], rax
	test	rcx, rcx
	jne	SHORT $LN7@Make_iter
	call	QWORD PTR __imp__invalid_parameter_noinfo
$LN7@Make_iter:
	mov	rax, QWORD PTR [rdi]
	lea	rcx, QWORD PTR $T150132[rsp]
	mov	QWORD PTR $T150132[rsp], rax
	mov	rax, QWORD PTR [rcx]
	mov	QWORD PTR [rbx], rax
	mov	rax, QWORD PTR [rcx+8]
	mov	QWORD PTR [rbx+8], rax
	mov	rax, rbx

; 577  : 		}

	mov	rbx, QWORD PTR [rsp+64]
	add	rsp, 48					; 00000030H
	pop	rdi
	ret	0
?_Make_iter@?$_Tree@V?$_Tmap_traits@KPEAVThreadInfo@@U?$less@K@std@@V?$allocator@U?$pair@$$CBKPEAVThreadInfo@@@std@@@3@$0A@@std@@@std@@QEBA?AViterator@12@Vconst_iterator@12@@Z ENDP ; std::_Tree<std::_Tmap_traits<unsigned long,ThreadInfo * __ptr64,std::less<unsigned long>,std::allocator<std::pair<unsigned long const ,ThreadInfo * __ptr64> >,0> >::_Make_iter
; Function compile flags: /Ogtpy
_TEXT	ENDS
;	COMDAT ?_Lmost@?$_Tree@V?$_Tmap_traits@_KPEAVThreadInfo@@U?$less@_K@std@@V?$allocator@U?$pair@$$CB_KPEAVThreadInfo@@@std@@@3@$0A@@std@@@std@@IEBAAEAPEAU_Node@?$_Tree_nod@V?$_Tmap_traits@_KPEAVThreadInfo@@U?$less@_K@std@@V?$allocator@U?$pair@$$CB_KPEAVThreadInfo@@@std@@@3@$0A@@std@@@2@XZ
_TEXT	SEGMENT
this$ = 8
?_Lmost@?$_Tree@V?$_Tmap_traits@_KPEAVThreadInfo@@U?$less@_K@std@@V?$allocator@U?$pair@$$CB_KPEAVThreadInfo@@@std@@@3@$0A@@std@@@std@@IEBAAEAPEAU_Node@?$_Tree_nod@V?$_Tmap_traits@_KPEAVThreadInfo@@U?$less@_K@std@@V?$allocator@U?$pair@$$CB_KPEAVThreadInfo@@@std@@@3@$0A@@std@@@2@XZ PROC ; std::_Tree<std::_Tmap_traits<unsigned __int64,ThreadInfo * __ptr64,std::less<unsigned __int64>,std::allocator<std::pair<unsigned __int64 const ,ThreadInfo * __ptr64> >,0> >::_Lmost, COMDAT

; 1281 : 		return (_Left(_Myhead));

	mov	rax, QWORD PTR [rcx+48]

; 1282 : 		}

	ret	0
?_Lmost@?$_Tree@V?$_Tmap_traits@_KPEAVThreadInfo@@U?$less@_K@std@@V?$allocator@U?$pair@$$CB_KPEAVThreadInfo@@@std@@@3@$0A@@std@@@std@@IEBAAEAPEAU_Node@?$_Tree_nod@V?$_Tmap_traits@_KPEAVThreadInfo@@U?$less@_K@std@@V?$allocator@U?$pair@$$CB_KPEAVThreadInfo@@@std@@@3@$0A@@std@@@2@XZ ENDP ; std::_Tree<std::_Tmap_traits<unsigned __int64,ThreadInfo * __ptr64,std::less<unsigned __int64>,std::allocator<std::pair<unsigned __int64 const ,ThreadInfo * __ptr64> >,0> >::_Lmost
_TEXT	ENDS
;	COMDAT pdata
pdata	SEGMENT
$pdata$?clear@?$_Tree@V?$_Tmap_traits@_KPEAVThreadInfo@@U?$less@_K@std@@V?$allocator@U?$pair@$$CB_KPEAVThreadInfo@@@std@@@3@$0A@@std@@@std@@QEAAXXZ DD imagerel $LN34
	DD	imagerel $LN34+114
	DD	imagerel $unwind$?clear@?$_Tree@V?$_Tmap_traits@_KPEAVThreadInfo@@U?$less@_K@std@@V?$allocator@U?$pair@$$CB_KPEAVThreadInfo@@@std@@@3@$0A@@std@@@std@@QEAAXXZ
pdata	ENDS
;	COMDAT xdata
xdata	SEGMENT
$unwind$?clear@?$_Tree@V?$_Tmap_traits@_KPEAVThreadInfo@@U?$less@_K@std@@V?$allocator@U?$pair@$$CB_KPEAVThreadInfo@@@std@@@3@$0A@@std@@@std@@QEAAXXZ DD 060f01H
	DD	07640fH
	DD	06340fH
	DD	0700b320fH
; Function compile flags: /Ogtpy
xdata	ENDS
;	COMDAT ?clear@?$_Tree@V?$_Tmap_traits@_KPEAVThreadInfo@@U?$less@_K@std@@V?$allocator@U?$pair@$$CB_KPEAVThreadInfo@@@std@@@3@$0A@@std@@@std@@QEAAXXZ
_TEXT	SEGMENT
this$ = 48
?clear@?$_Tree@V?$_Tmap_traits@_KPEAVThreadInfo@@U?$less@_K@std@@V?$allocator@U?$pair@$$CB_KPEAVThreadInfo@@@std@@@3@$0A@@std@@@std@@QEAAXXZ PROC ; std::_Tree<std::_Tmap_traits<unsigned __int64,ThreadInfo * __ptr64,std::less<unsigned __int64>,std::allocator<std::pair<unsigned __int64 const ,ThreadInfo * __ptr64> >,0> >::clear, COMDAT

; 965  : 		{	// erase all

$LN34:
	mov	QWORD PTR [rsp+8], rbx
	mov	QWORD PTR [rsp+16], rsi
	push	rdi
	sub	rsp, 32					; 00000020H

; 966  : 
; 967  :  #if _HAS_ITERATOR_DEBUGGING
; 968  : 		this->_Orphan_ptr(*this, 0);
; 969  :  #endif /* _HAS_ITERATOR_DEBUGGING */
; 970  : 
; 971  : 		_Erase(_Root());

	mov	rax, QWORD PTR [rcx+48]
	mov	rbx, rcx
	mov	rsi, QWORD PTR [rax+8]
	mov	rdi, rsi
	cmp	BYTE PTR [rsi+41], 0
	jne	SHORT $LN7@clear@2
$LL9@clear@2:
	mov	rdx, QWORD PTR [rdi+16]
	mov	rcx, rbx
	call	?_Erase@?$_Tree@V?$_Tmap_traits@_KPEAVThreadInfo@@U?$less@_K@std@@V?$allocator@U?$pair@$$CB_KPEAVThreadInfo@@@std@@@3@$0A@@std@@@std@@IEAAXPEAU_Node@?$_Tree_nod@V?$_Tmap_traits@_KPEAVThreadInfo@@U?$less@_K@std@@V?$allocator@U?$pair@$$CB_KPEAVThreadInfo@@@std@@@3@$0A@@std@@@2@@Z ; std::_Tree<std::_Tmap_traits<unsigned __int64,ThreadInfo * __ptr64,std::less<unsigned __int64>,std::allocator<std::pair<unsigned __int64 const ,ThreadInfo * __ptr64> >,0> >::_Erase
	mov	rdi, QWORD PTR [rdi]
	mov	rcx, rsi
	call	??3@YAXPEAX@Z				; operator delete
	cmp	BYTE PTR [rdi+41], 0
	mov	rsi, rdi
	je	SHORT $LL9@clear@2
$LN7@clear@2:

; 972  : 		_Root() = _Myhead, _Mysize = 0;

	mov	rax, QWORD PTR [rbx+48]

; 973  : 		_Lmost() = _Myhead, _Rmost() = _Myhead;
; 974  : 		}

	mov	rsi, QWORD PTR [rsp+56]
	mov	QWORD PTR [rax+8], rax
	mov	rax, QWORD PTR [rbx+48]
	mov	QWORD PTR [rbx+56], 0
	mov	QWORD PTR [rax], rax
	mov	rax, QWORD PTR [rbx+48]
	mov	rbx, QWORD PTR [rsp+48]
	mov	QWORD PTR [rax+16], rax
	add	rsp, 32					; 00000020H
	pop	rdi
	ret	0
?clear@?$_Tree@V?$_Tmap_traits@_KPEAVThreadInfo@@U?$less@_K@std@@V?$allocator@U?$pair@$$CB_KPEAVThreadInfo@@@std@@@3@$0A@@std@@@std@@QEAAXXZ ENDP ; std::_Tree<std::_Tmap_traits<unsigned __int64,ThreadInfo * __ptr64,std::less<unsigned __int64>,std::allocator<std::pair<unsigned __int64 const ,ThreadInfo * __ptr64> >,0> >::clear
_TEXT	ENDS
;	COMDAT pdata
; File c:\program files\microsoft visual studio 9.0\vc\include\xutility
pdata	SEGMENT
$pdata$?_Make_iter@?$_Tree@V?$_Tmap_traits@_KPEAVThreadInfo@@U?$less@_K@std@@V?$allocator@U?$pair@$$CB_KPEAVThreadInfo@@@std@@@3@$0A@@std@@@std@@QEBA?AViterator@12@Vconst_iterator@12@@Z DD imagerel $LN19
	DD	imagerel $LN19+77
	DD	imagerel $unwind$?_Make_iter@?$_Tree@V?$_Tmap_traits@_KPEAVThreadInfo@@U?$less@_K@std@@V?$allocator@U?$pair@$$CB_KPEAVThreadInfo@@@std@@@3@$0A@@std@@@std@@QEBA?AViterator@12@Vconst_iterator@12@@Z
pdata	ENDS
;	COMDAT xdata
xdata	SEGMENT
$unwind$?_Make_iter@?$_Tree@V?$_Tmap_traits@_KPEAVThreadInfo@@U?$less@_K@std@@V?$allocator@U?$pair@$$CB_KPEAVThreadInfo@@@std@@@3@$0A@@std@@@std@@QEBA?AViterator@12@Vconst_iterator@12@@Z DD 040a01H
	DD	08340aH
	DD	07006520aH
; Function compile flags: /Ogtpy
; File c:\program files\microsoft visual studio 9.0\vc\include\xtree
xdata	ENDS
;	COMDAT ?_Make_iter@?$_Tree@V?$_Tmap_traits@_KPEAVThreadInfo@@U?$less@_K@std@@V?$allocator@U?$pair@$$CB_KPEAVThreadInfo@@@std@@@3@$0A@@std@@@std@@QEBA?AViterator@12@Vconst_iterator@12@@Z
_TEXT	SEGMENT
$T150281 = 32
this$ = 64
__$ReturnUdt$ = 72
_Where$ = 80
?_Make_iter@?$_Tree@V?$_Tmap_traits@_KPEAVThreadInfo@@U?$less@_K@std@@V?$allocator@U?$pair@$$CB_KPEAVThreadInfo@@@std@@@3@$0A@@std@@@std@@QEBA?AViterator@12@Vconst_iterator@12@@Z PROC ; std::_Tree<std::_Tmap_traits<unsigned __int64,ThreadInfo * __ptr64,std::less<unsigned __int64>,std::allocator<std::pair<unsigned __int64 const ,ThreadInfo * __ptr64> >,0> >::_Make_iter, COMDAT

; 575  : 		{	// make iterator from const_iterator

$LN19:
	mov	QWORD PTR [rsp+8], rbx
	push	rdi
	sub	rsp, 48					; 00000030H

; 576  : 		return (iterator(_TREE_ITERATOR(_Where._Ptr)));

	mov	rax, QWORD PTR [r8+8]
	mov	rbx, rdx
	mov	rdi, rcx
	mov	QWORD PTR $T150281[rsp+8], rax
	test	rcx, rcx
	jne	SHORT $LN7@Make_iter@2
	call	QWORD PTR __imp__invalid_parameter_noinfo
$LN7@Make_iter@2:
	mov	rax, QWORD PTR [rdi]
	lea	rcx, QWORD PTR $T150281[rsp]
	mov	QWORD PTR $T150281[rsp], rax
	mov	rax, QWORD PTR [rcx]
	mov	QWORD PTR [rbx], rax
	mov	rax, QWORD PTR [rcx+8]
	mov	QWORD PTR [rbx+8], rax
	mov	rax, rbx

; 577  : 		}

	mov	rbx, QWORD PTR [rsp+64]
	add	rsp, 48					; 00000030H
	pop	rdi
	ret	0
?_Make_iter@?$_Tree@V?$_Tmap_traits@_KPEAVThreadInfo@@U?$less@_K@std@@V?$allocator@U?$pair@$$CB_KPEAVThreadInfo@@@std@@@3@$0A@@std@@@std@@QEBA?AViterator@12@Vconst_iterator@12@@Z ENDP ; std::_Tree<std::_Tmap_traits<unsigned __int64,ThreadInfo * __ptr64,std::less<unsigned __int64>,std::allocator<std::pair<unsigned __int64 const ,ThreadInfo * __ptr64> >,0> >::_Make_iter
; Function compile flags: /Ogtpy
_TEXT	ENDS
;	COMDAT ?_Lmost@?$_Tree@V?$_Tmap_traits@_KHU?$less@_K@std@@V?$allocator@U?$pair@$$CB_KH@std@@@2@$0A@@std@@@std@@IEBAAEAPEAU_Node@?$_Tree_nod@V?$_Tmap_traits@_KHU?$less@_K@std@@V?$allocator@U?$pair@$$CB_KH@std@@@2@$0A@@std@@@2@XZ
_TEXT	SEGMENT
this$ = 8
?_Lmost@?$_Tree@V?$_Tmap_traits@_KHU?$less@_K@std@@V?$allocator@U?$pair@$$CB_KH@std@@@2@$0A@@std@@@std@@IEBAAEAPEAU_Node@?$_Tree_nod@V?$_Tmap_traits@_KHU?$less@_K@std@@V?$allocator@U?$pair@$$CB_KH@std@@@2@$0A@@std@@@2@XZ PROC ; std::_Tree<std::_Tmap_traits<unsigned __int64,int,std::less<unsigned __int64>,std::allocator<std::pair<unsigned __int64 const ,int> >,0> >::_Lmost, COMDAT

; 1281 : 		return (_Left(_Myhead));

	mov	rax, QWORD PTR [rcx+48]

; 1282 : 		}

	ret	0
?_Lmost@?$_Tree@V?$_Tmap_traits@_KHU?$less@_K@std@@V?$allocator@U?$pair@$$CB_KH@std@@@2@$0A@@std@@@std@@IEBAAEAPEAU_Node@?$_Tree_nod@V?$_Tmap_traits@_KHU?$less@_K@std@@V?$allocator@U?$pair@$$CB_KH@std@@@2@$0A@@std@@@2@XZ ENDP ; std::_Tree<std::_Tmap_traits<unsigned __int64,int,std::less<unsigned __int64>,std::allocator<std::pair<unsigned __int64 const ,int> >,0> >::_Lmost
_TEXT	ENDS
;	COMDAT pdata
pdata	SEGMENT
$pdata$?clear@?$_Tree@V?$_Tmap_traits@_KHU?$less@_K@std@@V?$allocator@U?$pair@$$CB_KH@std@@@2@$0A@@std@@@std@@QEAAXXZ DD imagerel $LN34
	DD	imagerel $LN34+114
	DD	imagerel $unwind$?clear@?$_Tree@V?$_Tmap_traits@_KHU?$less@_K@std@@V?$allocator@U?$pair@$$CB_KH@std@@@2@$0A@@std@@@std@@QEAAXXZ
pdata	ENDS
;	COMDAT xdata
xdata	SEGMENT
$unwind$?clear@?$_Tree@V?$_Tmap_traits@_KHU?$less@_K@std@@V?$allocator@U?$pair@$$CB_KH@std@@@2@$0A@@std@@@std@@QEAAXXZ DD 060f01H
	DD	07640fH
	DD	06340fH
	DD	0700b320fH
; Function compile flags: /Ogtpy
xdata	ENDS
;	COMDAT ?clear@?$_Tree@V?$_Tmap_traits@_KHU?$less@_K@std@@V?$allocator@U?$pair@$$CB_KH@std@@@2@$0A@@std@@@std@@QEAAXXZ
_TEXT	SEGMENT
this$ = 48
?clear@?$_Tree@V?$_Tmap_traits@_KHU?$less@_K@std@@V?$allocator@U?$pair@$$CB_KH@std@@@2@$0A@@std@@@std@@QEAAXXZ PROC ; std::_Tree<std::_Tmap_traits<unsigned __int64,int,std::less<unsigned __int64>,std::allocator<std::pair<unsigned __int64 const ,int> >,0> >::clear, COMDAT

; 965  : 		{	// erase all

$LN34:
	mov	QWORD PTR [rsp+8], rbx
	mov	QWORD PTR [rsp+16], rsi
	push	rdi
	sub	rsp, 32					; 00000020H

; 966  : 
; 967  :  #if _HAS_ITERATOR_DEBUGGING
; 968  : 		this->_Orphan_ptr(*this, 0);
; 969  :  #endif /* _HAS_ITERATOR_DEBUGGING */
; 970  : 
; 971  : 		_Erase(_Root());

	mov	rax, QWORD PTR [rcx+48]
	mov	rbx, rcx
	mov	rsi, QWORD PTR [rax+8]
	mov	rdi, rsi
	cmp	BYTE PTR [rsi+41], 0
	jne	SHORT $LN7@clear@3
$LL9@clear@3:
	mov	rdx, QWORD PTR [rdi+16]
	mov	rcx, rbx
	call	?_Erase@?$_Tree@V?$_Tmap_traits@_KHU?$less@_K@std@@V?$allocator@U?$pair@$$CB_KH@std@@@2@$0A@@std@@@std@@IEAAXPEAU_Node@?$_Tree_nod@V?$_Tmap_traits@_KHU?$less@_K@std@@V?$allocator@U?$pair@$$CB_KH@std@@@2@$0A@@std@@@2@@Z ; std::_Tree<std::_Tmap_traits<unsigned __int64,int,std::less<unsigned __int64>,std::allocator<std::pair<unsigned __int64 const ,int> >,0> >::_Erase
	mov	rdi, QWORD PTR [rdi]
	mov	rcx, rsi
	call	??3@YAXPEAX@Z				; operator delete
	cmp	BYTE PTR [rdi+41], 0
	mov	rsi, rdi
	je	SHORT $LL9@clear@3
$LN7@clear@3:

; 972  : 		_Root() = _Myhead, _Mysize = 0;

	mov	rax, QWORD PTR [rbx+48]

; 973  : 		_Lmost() = _Myhead, _Rmost() = _Myhead;
; 974  : 		}

	mov	rsi, QWORD PTR [rsp+56]
	mov	QWORD PTR [rax+8], rax
	mov	rax, QWORD PTR [rbx+48]
	mov	QWORD PTR [rbx+56], 0
	mov	QWORD PTR [rax], rax
	mov	rax, QWORD PTR [rbx+48]
	mov	rbx, QWORD PTR [rsp+48]
	mov	QWORD PTR [rax+16], rax
	add	rsp, 32					; 00000020H
	pop	rdi
	ret	0
?clear@?$_Tree@V?$_Tmap_traits@_KHU?$less@_K@std@@V?$allocator@U?$pair@$$CB_KH@std@@@2@$0A@@std@@@std@@QEAAXXZ ENDP ; std::_Tree<std::_Tmap_traits<unsigned __int64,int,std::less<unsigned __int64>,std::allocator<std::pair<unsigned __int64 const ,int> >,0> >::clear
_TEXT	ENDS
;	COMDAT pdata
; File c:\program files\microsoft visual studio 9.0\vc\include\xutility
pdata	SEGMENT
$pdata$?_Make_iter@?$_Tree@V?$_Tmap_traits@_KHU?$less@_K@std@@V?$allocator@U?$pair@$$CB_KH@std@@@2@$0A@@std@@@std@@QEBA?AViterator@12@Vconst_iterator@12@@Z DD imagerel $LN19
	DD	imagerel $LN19+77
	DD	imagerel $unwind$?_Make_iter@?$_Tree@V?$_Tmap_traits@_KHU?$less@_K@std@@V?$allocator@U?$pair@$$CB_KH@std@@@2@$0A@@std@@@std@@QEBA?AViterator@12@Vconst_iterator@12@@Z
pdata	ENDS
;	COMDAT xdata
xdata	SEGMENT
$unwind$?_Make_iter@?$_Tree@V?$_Tmap_traits@_KHU?$less@_K@std@@V?$allocator@U?$pair@$$CB_KH@std@@@2@$0A@@std@@@std@@QEBA?AViterator@12@Vconst_iterator@12@@Z DD 040a01H
	DD	08340aH
	DD	07006520aH
; Function compile flags: /Ogtpy
; File c:\program files\microsoft visual studio 9.0\vc\include\xtree
xdata	ENDS
;	COMDAT ?_Make_iter@?$_Tree@V?$_Tmap_traits@_KHU?$less@_K@std@@V?$allocator@U?$pair@$$CB_KH@std@@@2@$0A@@std@@@std@@QEBA?AViterator@12@Vconst_iterator@12@@Z
_TEXT	SEGMENT
$T150430 = 32
this$ = 64
__$ReturnUdt$ = 72
_Where$ = 80
?_Make_iter@?$_Tree@V?$_Tmap_traits@_KHU?$less@_K@std@@V?$allocator@U?$pair@$$CB_KH@std@@@2@$0A@@std@@@std@@QEBA?AViterator@12@Vconst_iterator@12@@Z PROC ; std::_Tree<std::_Tmap_traits<unsigned __int64,int,std::less<unsigned __int64>,std::allocator<std::pair<unsigned __int64 const ,int> >,0> >::_Make_iter, COMDAT

; 575  : 		{	// make iterator from const_iterator

$LN19:
	mov	QWORD PTR [rsp+8], rbx
	push	rdi
	sub	rsp, 48					; 00000030H

; 576  : 		return (iterator(_TREE_ITERATOR(_Where._Ptr)));

	mov	rax, QWORD PTR [r8+8]
	mov	rbx, rdx
	mov	rdi, rcx
	mov	QWORD PTR $T150430[rsp+8], rax
	test	rcx, rcx
	jne	SHORT $LN7@Make_iter@3
	call	QWORD PTR __imp__invalid_parameter_noinfo
$LN7@Make_iter@3:
	mov	rax, QWORD PTR [rdi]
	lea	rcx, QWORD PTR $T150430[rsp]
	mov	QWORD PTR $T150430[rsp], rax
	mov	rax, QWORD PTR [rcx]
	mov	QWORD PTR [rbx], rax
	mov	rax, QWORD PTR [rcx+8]
	mov	QWORD PTR [rbx+8], rax
	mov	rax, rbx

; 577  : 		}

	mov	rbx, QWORD PTR [rsp+64]
	add	rsp, 48					; 00000030H
	pop	rdi
	ret	0
?_Make_iter@?$_Tree@V?$_Tmap_traits@_KHU?$less@_K@std@@V?$allocator@U?$pair@$$CB_KH@std@@@2@$0A@@std@@@std@@QEBA?AViterator@12@Vconst_iterator@12@@Z ENDP ; std::_Tree<std::_Tmap_traits<unsigned __int64,int,std::less<unsigned __int64>,std::allocator<std::pair<unsigned __int64 const ,int> >,0> >::_Make_iter
; Function compile flags: /Ogtpy
_TEXT	ENDS
;	COMDAT ?end@?$_Tree@V?$_Tmap_traits@KPEAVThreadInfo@@U?$less@K@std@@V?$allocator@U?$pair@$$CBKPEAVThreadInfo@@@std@@@3@$0A@@std@@@std@@QEAA?AViterator@12@XZ
_TEXT	SEGMENT
this$ = 8
__$ReturnUdt$ = 16
?end@?$_Tree@V?$_Tmap_traits@KPEAVThreadInfo@@U?$less@K@std@@V?$allocator@U?$pair@$$CBKPEAVThreadInfo@@@std@@@3@$0A@@std@@@std@@QEAA?AViterator@12@XZ PROC ; std::_Tree<std::_Tmap_traits<unsigned long,ThreadInfo * __ptr64,std::less<unsigned long>,std::allocator<std::pair<unsigned long const ,ThreadInfo * __ptr64> >,0> >::end, COMDAT

; 566  : 		return (_TREE_ITERATOR(_Myhead));

	mov	rax, QWORD PTR [rcx+48]
	mov	QWORD PTR [rdx+8], rax
	mov	rax, QWORD PTR [rcx]
	mov	QWORD PTR [rdx], rax
	mov	rax, rdx

; 567  : 		}

	ret	0
?end@?$_Tree@V?$_Tmap_traits@KPEAVThreadInfo@@U?$less@K@std@@V?$allocator@U?$pair@$$CBKPEAVThreadInfo@@@std@@@3@$0A@@std@@@std@@QEAA?AViterator@12@XZ ENDP ; std::_Tree<std::_Tmap_traits<unsigned long,ThreadInfo * __ptr64,std::less<unsigned long>,std::allocator<std::pair<unsigned long const ,ThreadInfo * __ptr64> >,0> >::end
; Function compile flags: /Ogtpy
_TEXT	ENDS
;	COMDAT ?begin@?$_Tree@V?$_Tmap_traits@KPEAVThreadInfo@@U?$less@K@std@@V?$allocator@U?$pair@$$CBKPEAVThreadInfo@@@std@@@3@$0A@@std@@@std@@QEAA?AViterator@12@XZ
_TEXT	SEGMENT
this$ = 8
__$ReturnUdt$ = 16
?begin@?$_Tree@V?$_Tmap_traits@KPEAVThreadInfo@@U?$less@K@std@@V?$allocator@U?$pair@$$CBKPEAVThreadInfo@@@std@@@3@$0A@@std@@@std@@QEAA?AViterator@12@XZ PROC ; std::_Tree<std::_Tmap_traits<unsigned long,ThreadInfo * __ptr64,std::less<unsigned long>,std::allocator<std::pair<unsigned long const ,ThreadInfo * __ptr64> >,0> >::begin, COMDAT

; 556  : 		return (_TREE_ITERATOR(_Lmost()));

	mov	rax, QWORD PTR [rcx+48]
	mov	r8, QWORD PTR [rax]
	mov	rax, QWORD PTR [rcx]
	mov	QWORD PTR [rdx], rax
	mov	rax, rdx
	mov	QWORD PTR [rdx+8], r8

; 557  : 		}

	ret	0
?begin@?$_Tree@V?$_Tmap_traits@KPEAVThreadInfo@@U?$less@K@std@@V?$allocator@U?$pair@$$CBKPEAVThreadInfo@@@std@@@3@$0A@@std@@@std@@QEAA?AViterator@12@XZ ENDP ; std::_Tree<std::_Tmap_traits<unsigned long,ThreadInfo * __ptr64,std::less<unsigned long>,std::allocator<std::pair<unsigned long const ,ThreadInfo * __ptr64> >,0> >::begin
; Function compile flags: /Ogtpy
_TEXT	ENDS
;	COMDAT ?end@?$_Tree@V?$_Tmap_traits@_KPEAVThreadInfo@@U?$less@_K@std@@V?$allocator@U?$pair@$$CB_KPEAVThreadInfo@@@std@@@3@$0A@@std@@@std@@QEAA?AViterator@12@XZ
_TEXT	SEGMENT
this$ = 8
__$ReturnUdt$ = 16
?end@?$_Tree@V?$_Tmap_traits@_KPEAVThreadInfo@@U?$less@_K@std@@V?$allocator@U?$pair@$$CB_KPEAVThreadInfo@@@std@@@3@$0A@@std@@@std@@QEAA?AViterator@12@XZ PROC ; std::_Tree<std::_Tmap_traits<unsigned __int64,ThreadInfo * __ptr64,std::less<unsigned __int64>,std::allocator<std::pair<unsigned __int64 const ,ThreadInfo * __ptr64> >,0> >::end, COMDAT

; 566  : 		return (_TREE_ITERATOR(_Myhead));

	mov	rax, QWORD PTR [rcx+48]
	mov	QWORD PTR [rdx+8], rax
	mov	rax, QWORD PTR [rcx]
	mov	QWORD PTR [rdx], rax
	mov	rax, rdx

; 567  : 		}

	ret	0
?end@?$_Tree@V?$_Tmap_traits@_KPEAVThreadInfo@@U?$less@_K@std@@V?$allocator@U?$pair@$$CB_KPEAVThreadInfo@@@std@@@3@$0A@@std@@@std@@QEAA?AViterator@12@XZ ENDP ; std::_Tree<std::_Tmap_traits<unsigned __int64,ThreadInfo * __ptr64,std::less<unsigned __int64>,std::allocator<std::pair<unsigned __int64 const ,ThreadInfo * __ptr64> >,0> >::end
; Function compile flags: /Ogtpy
_TEXT	ENDS
;	COMDAT ?begin@?$_Tree@V?$_Tmap_traits@_KPEAVThreadInfo@@U?$less@_K@std@@V?$allocator@U?$pair@$$CB_KPEAVThreadInfo@@@std@@@3@$0A@@std@@@std@@QEAA?AViterator@12@XZ
_TEXT	SEGMENT
this$ = 8
__$ReturnUdt$ = 16
?begin@?$_Tree@V?$_Tmap_traits@_KPEAVThreadInfo@@U?$less@_K@std@@V?$allocator@U?$pair@$$CB_KPEAVThreadInfo@@@std@@@3@$0A@@std@@@std@@QEAA?AViterator@12@XZ PROC ; std::_Tree<std::_Tmap_traits<unsigned __int64,ThreadInfo * __ptr64,std::less<unsigned __int64>,std::allocator<std::pair<unsigned __int64 const ,ThreadInfo * __ptr64> >,0> >::begin, COMDAT

; 556  : 		return (_TREE_ITERATOR(_Lmost()));

	mov	rax, QWORD PTR [rcx+48]
	mov	r8, QWORD PTR [rax]
	mov	rax, QWORD PTR [rcx]
	mov	QWORD PTR [rdx], rax
	mov	rax, rdx
	mov	QWORD PTR [rdx+8], r8

; 557  : 		}

	ret	0
?begin@?$_Tree@V?$_Tmap_traits@_KPEAVThreadInfo@@U?$less@_K@std@@V?$allocator@U?$pair@$$CB_KPEAVThreadInfo@@@std@@@3@$0A@@std@@@std@@QEAA?AViterator@12@XZ ENDP ; std::_Tree<std::_Tmap_traits<unsigned __int64,ThreadInfo * __ptr64,std::less<unsigned __int64>,std::allocator<std::pair<unsigned __int64 const ,ThreadInfo * __ptr64> >,0> >::begin
; Function compile flags: /Ogtpy
_TEXT	ENDS
;	COMDAT ?end@?$_Tree@V?$_Tmap_traits@_KHU?$less@_K@std@@V?$allocator@U?$pair@$$CB_KH@std@@@2@$0A@@std@@@std@@QEAA?AViterator@12@XZ
_TEXT	SEGMENT
this$ = 8
__$ReturnUdt$ = 16
?end@?$_Tree@V?$_Tmap_traits@_KHU?$less@_K@std@@V?$allocator@U?$pair@$$CB_KH@std@@@2@$0A@@std@@@std@@QEAA?AViterator@12@XZ PROC ; std::_Tree<std::_Tmap_traits<unsigned __int64,int,std::less<unsigned __int64>,std::allocator<std::pair<unsigned __int64 const ,int> >,0> >::end, COMDAT

; 566  : 		return (_TREE_ITERATOR(_Myhead));

	mov	rax, QWORD PTR [rcx+48]
	mov	QWORD PTR [rdx+8], rax
	mov	rax, QWORD PTR [rcx]
	mov	QWORD PTR [rdx], rax
	mov	rax, rdx

; 567  : 		}

	ret	0
?end@?$_Tree@V?$_Tmap_traits@_KHU?$less@_K@std@@V?$allocator@U?$pair@$$CB_KH@std@@@2@$0A@@std@@@std@@QEAA?AViterator@12@XZ ENDP ; std::_Tree<std::_Tmap_traits<unsigned __int64,int,std::less<unsigned __int64>,std::allocator<std::pair<unsigned __int64 const ,int> >,0> >::end
; Function compile flags: /Ogtpy
_TEXT	ENDS
;	COMDAT ?begin@?$_Tree@V?$_Tmap_traits@_KHU?$less@_K@std@@V?$allocator@U?$pair@$$CB_KH@std@@@2@$0A@@std@@@std@@QEAA?AViterator@12@XZ
_TEXT	SEGMENT
this$ = 8
__$ReturnUdt$ = 16
?begin@?$_Tree@V?$_Tmap_traits@_KHU?$less@_K@std@@V?$allocator@U?$pair@$$CB_KH@std@@@2@$0A@@std@@@std@@QEAA?AViterator@12@XZ PROC ; std::_Tree<std::_Tmap_traits<unsigned __int64,int,std::less<unsigned __int64>,std::allocator<std::pair<unsigned __int64 const ,int> >,0> >::begin, COMDAT

; 556  : 		return (_TREE_ITERATOR(_Lmost()));

	mov	rax, QWORD PTR [rcx+48]
	mov	r8, QWORD PTR [rax]
	mov	rax, QWORD PTR [rcx]
	mov	QWORD PTR [rdx], rax
	mov	rax, rdx
	mov	QWORD PTR [rdx+8], r8

; 557  : 		}

	ret	0
?begin@?$_Tree@V?$_Tmap_traits@_KHU?$less@_K@std@@V?$allocator@U?$pair@$$CB_KH@std@@@2@$0A@@std@@@std@@QEAA?AViterator@12@XZ ENDP ; std::_Tree<std::_Tmap_traits<unsigned __int64,int,std::less<unsigned __int64>,std::allocator<std::pair<unsigned __int64 const ,int> >,0> >::begin
; Function compile flags: /Ogtpy
; File c:\program files\microsoft visual studio 9.0\vc\include\xutility
_TEXT	ENDS
;	COMDAT ??1?$_Container_base_aux_alloc_real@V?$allocator@U?$pair@$$CBKPEAVThreadInfo@@@std@@@std@@@std@@IEAA@XZ
_TEXT	SEGMENT
this$ = 8
??1?$_Container_base_aux_alloc_real@V?$allocator@U?$pair@$$CBKPEAVThreadInfo@@@std@@@std@@@std@@IEAA@XZ PROC ; std::_Container_base_aux_alloc_real<std::allocator<std::pair<unsigned long const ,ThreadInfo * __ptr64> > >::~_Container_base_aux_alloc_real<std::allocator<std::pair<unsigned long const ,ThreadInfo * __ptr64> > >, COMDAT

; 437  : 		_Myownedaux->~_Aux_cont();
; 438  : 
; 439  : 		_Alaux.deallocate(_Myownedaux, 1);

	mov	rcx, QWORD PTR [rcx]

; 440  : 		}

	jmp	??3@YAXPEAX@Z				; operator delete
??1?$_Container_base_aux_alloc_real@V?$allocator@U?$pair@$$CBKPEAVThreadInfo@@@std@@@std@@@std@@IEAA@XZ ENDP ; std::_Container_base_aux_alloc_real<std::allocator<std::pair<unsigned long const ,ThreadInfo * __ptr64> > >::~_Container_base_aux_alloc_real<std::allocator<std::pair<unsigned long const ,ThreadInfo * __ptr64> > >
; Function compile flags: /Ogtpy
_TEXT	ENDS
;	COMDAT ??1?$_Container_base_aux_alloc_real@V?$allocator@U?$pair@$$CB_KPEAVThreadInfo@@@std@@@std@@@std@@IEAA@XZ
_TEXT	SEGMENT
this$ = 8
??1?$_Container_base_aux_alloc_real@V?$allocator@U?$pair@$$CB_KPEAVThreadInfo@@@std@@@std@@@std@@IEAA@XZ PROC ; std::_Container_base_aux_alloc_real<std::allocator<std::pair<unsigned __int64 const ,ThreadInfo * __ptr64> > >::~_Container_base_aux_alloc_real<std::allocator<std::pair<unsigned __int64 const ,ThreadInfo * __ptr64> > >, COMDAT

; 437  : 		_Myownedaux->~_Aux_cont();
; 438  : 
; 439  : 		_Alaux.deallocate(_Myownedaux, 1);

	mov	rcx, QWORD PTR [rcx]

; 440  : 		}

	jmp	??3@YAXPEAX@Z				; operator delete
??1?$_Container_base_aux_alloc_real@V?$allocator@U?$pair@$$CB_KPEAVThreadInfo@@@std@@@std@@@std@@IEAA@XZ ENDP ; std::_Container_base_aux_alloc_real<std::allocator<std::pair<unsigned __int64 const ,ThreadInfo * __ptr64> > >::~_Container_base_aux_alloc_real<std::allocator<std::pair<unsigned __int64 const ,ThreadInfo * __ptr64> > >
; Function compile flags: /Ogtpy
_TEXT	ENDS
;	COMDAT ??1?$_Container_base_aux_alloc_real@V?$allocator@U?$pair@$$CB_KH@std@@@std@@@std@@IEAA@XZ
_TEXT	SEGMENT
this$ = 8
??1?$_Container_base_aux_alloc_real@V?$allocator@U?$pair@$$CB_KH@std@@@std@@@std@@IEAA@XZ PROC ; std::_Container_base_aux_alloc_real<std::allocator<std::pair<unsigned __int64 const ,int> > >::~_Container_base_aux_alloc_real<std::allocator<std::pair<unsigned __int64 const ,int> > >, COMDAT

; 437  : 		_Myownedaux->~_Aux_cont();
; 438  : 
; 439  : 		_Alaux.deallocate(_Myownedaux, 1);

	mov	rcx, QWORD PTR [rcx]

; 440  : 		}

	jmp	??3@YAXPEAX@Z				; operator delete
??1?$_Container_base_aux_alloc_real@V?$allocator@U?$pair@$$CB_KH@std@@@std@@@std@@IEAA@XZ ENDP ; std::_Container_base_aux_alloc_real<std::allocator<std::pair<unsigned __int64 const ,int> > >::~_Container_base_aux_alloc_real<std::allocator<std::pair<unsigned __int64 const ,int> > >
; Function compile flags: /Ogtpy
_TEXT	ENDS
;	COMDAT ??1?$_Tmap_traits@KPEAVThreadInfo@@U?$less@K@std@@V?$allocator@U?$pair@$$CBKPEAVThreadInfo@@@std@@@3@$0A@@std@@QEAA@XZ
_TEXT	SEGMENT
this$ = 8
??1?$_Tmap_traits@KPEAVThreadInfo@@U?$less@K@std@@V?$allocator@U?$pair@$$CBKPEAVThreadInfo@@@std@@@3@$0A@@std@@QEAA@XZ PROC ; std::_Tmap_traits<unsigned long,ThreadInfo * __ptr64,std::less<unsigned long>,std::allocator<std::pair<unsigned long const ,ThreadInfo * __ptr64> >,0>::~_Tmap_traits<unsigned long,ThreadInfo * __ptr64,std::less<unsigned long>,std::allocator<std::pair<unsigned long const ,ThreadInfo * __ptr64> >,0>, COMDAT
	mov	rcx, QWORD PTR [rcx]
	jmp	??3@YAXPEAX@Z				; operator delete
??1?$_Tmap_traits@KPEAVThreadInfo@@U?$less@K@std@@V?$allocator@U?$pair@$$CBKPEAVThreadInfo@@@std@@@3@$0A@@std@@QEAA@XZ ENDP ; std::_Tmap_traits<unsigned long,ThreadInfo * __ptr64,std::less<unsigned long>,std::allocator<std::pair<unsigned long const ,ThreadInfo * __ptr64> >,0>::~_Tmap_traits<unsigned long,ThreadInfo * __ptr64,std::less<unsigned long>,std::allocator<std::pair<unsigned long const ,ThreadInfo * __ptr64> >,0>
; Function compile flags: /Ogtpy
_TEXT	ENDS
;	COMDAT ??1?$_Tmap_traits@_KPEAVThreadInfo@@U?$less@_K@std@@V?$allocator@U?$pair@$$CB_KPEAVThreadInfo@@@std@@@3@$0A@@std@@QEAA@XZ
_TEXT	SEGMENT
this$ = 8
??1?$_Tmap_traits@_KPEAVThreadInfo@@U?$less@_K@std@@V?$allocator@U?$pair@$$CB_KPEAVThreadInfo@@@std@@@3@$0A@@std@@QEAA@XZ PROC ; std::_Tmap_traits<unsigned __int64,ThreadInfo * __ptr64,std::less<unsigned __int64>,std::allocator<std::pair<unsigned __int64 const ,ThreadInfo * __ptr64> >,0>::~_Tmap_traits<unsigned __int64,ThreadInfo * __ptr64,std::less<unsigned __int64>,std::allocator<std::pair<unsigned __int64 const ,ThreadInfo * __ptr64> >,0>, COMDAT
	mov	rcx, QWORD PTR [rcx]
	jmp	??3@YAXPEAX@Z				; operator delete
??1?$_Tmap_traits@_KPEAVThreadInfo@@U?$less@_K@std@@V?$allocator@U?$pair@$$CB_KPEAVThreadInfo@@@std@@@3@$0A@@std@@QEAA@XZ ENDP ; std::_Tmap_traits<unsigned __int64,ThreadInfo * __ptr64,std::less<unsigned __int64>,std::allocator<std::pair<unsigned __int64 const ,ThreadInfo * __ptr64> >,0>::~_Tmap_traits<unsigned __int64,ThreadInfo * __ptr64,std::less<unsigned __int64>,std::allocator<std::pair<unsigned __int64 const ,ThreadInfo * __ptr64> >,0>
; Function compile flags: /Ogtpy
_TEXT	ENDS
;	COMDAT ??1?$_Tmap_traits@_KHU?$less@_K@std@@V?$allocator@U?$pair@$$CB_KH@std@@@2@$0A@@std@@QEAA@XZ
_TEXT	SEGMENT
this$ = 8
??1?$_Tmap_traits@_KHU?$less@_K@std@@V?$allocator@U?$pair@$$CB_KH@std@@@2@$0A@@std@@QEAA@XZ PROC ; std::_Tmap_traits<unsigned __int64,int,std::less<unsigned __int64>,std::allocator<std::pair<unsigned __int64 const ,int> >,0>::~_Tmap_traits<unsigned __int64,int,std::less<unsigned __int64>,std::allocator<std::pair<unsigned __int64 const ,int> >,0>, COMDAT
	mov	rcx, QWORD PTR [rcx]
	jmp	??3@YAXPEAX@Z				; operator delete
??1?$_Tmap_traits@_KHU?$less@_K@std@@V?$allocator@U?$pair@$$CB_KH@std@@@2@$0A@@std@@QEAA@XZ ENDP ; std::_Tmap_traits<unsigned __int64,int,std::less<unsigned __int64>,std::allocator<std::pair<unsigned __int64 const ,int> >,0>::~_Tmap_traits<unsigned __int64,int,std::less<unsigned __int64>,std::allocator<std::pair<unsigned __int64 const ,int> >,0>
; Function compile flags: /Ogtpy
_TEXT	ENDS
;	COMDAT ??1?$_Tree_nod@V?$_Tmap_traits@KPEAVThreadInfo@@U?$less@K@std@@V?$allocator@U?$pair@$$CBKPEAVThreadInfo@@@std@@@3@$0A@@std@@@std@@QEAA@XZ
_TEXT	SEGMENT
this$ = 8
??1?$_Tree_nod@V?$_Tmap_traits@KPEAVThreadInfo@@U?$less@K@std@@V?$allocator@U?$pair@$$CBKPEAVThreadInfo@@@std@@@3@$0A@@std@@@std@@QEAA@XZ PROC ; std::_Tree_nod<std::_Tmap_traits<unsigned long,ThreadInfo * __ptr64,std::less<unsigned long>,std::allocator<std::pair<unsigned long const ,ThreadInfo * __ptr64> >,0> >::~_Tree_nod<std::_Tmap_traits<unsigned long,ThreadInfo * __ptr64,std::less<unsigned long>,std::allocator<std::pair<unsigned long const ,ThreadInfo * __ptr64> >,0> >, COMDAT
	mov	rcx, QWORD PTR [rcx]
	jmp	??3@YAXPEAX@Z				; operator delete
??1?$_Tree_nod@V?$_Tmap_traits@KPEAVThreadInfo@@U?$less@K@std@@V?$allocator@U?$pair@$$CBKPEAVThreadInfo@@@std@@@3@$0A@@std@@@std@@QEAA@XZ ENDP ; std::_Tree_nod<std::_Tmap_traits<unsigned long,ThreadInfo * __ptr64,std::less<unsigned long>,std::allocator<std::pair<unsigned long const ,ThreadInfo * __ptr64> >,0> >::~_Tree_nod<std::_Tmap_traits<unsigned long,ThreadInfo * __ptr64,std::less<unsigned long>,std::allocator<std::pair<unsigned long const ,ThreadInfo * __ptr64> >,0> >
; Function compile flags: /Ogtpy
_TEXT	ENDS
;	COMDAT ??1?$_Tree_nod@V?$_Tmap_traits@_KPEAVThreadInfo@@U?$less@_K@std@@V?$allocator@U?$pair@$$CB_KPEAVThreadInfo@@@std@@@3@$0A@@std@@@std@@QEAA@XZ
_TEXT	SEGMENT
this$ = 8
??1?$_Tree_nod@V?$_Tmap_traits@_KPEAVThreadInfo@@U?$less@_K@std@@V?$allocator@U?$pair@$$CB_KPEAVThreadInfo@@@std@@@3@$0A@@std@@@std@@QEAA@XZ PROC ; std::_Tree_nod<std::_Tmap_traits<unsigned __int64,ThreadInfo * __ptr64,std::less<unsigned __int64>,std::allocator<std::pair<unsigned __int64 const ,ThreadInfo * __ptr64> >,0> >::~_Tree_nod<std::_Tmap_traits<unsigned __int64,ThreadInfo * __ptr64,std::less<unsigned __int64>,std::allocator<std::pair<unsigned __int64 const ,ThreadInfo * __ptr64> >,0> >, COMDAT
	mov	rcx, QWORD PTR [rcx]
	jmp	??3@YAXPEAX@Z				; operator delete
??1?$_Tree_nod@V?$_Tmap_traits@_KPEAVThreadInfo@@U?$less@_K@std@@V?$allocator@U?$pair@$$CB_KPEAVThreadInfo@@@std@@@3@$0A@@std@@@std@@QEAA@XZ ENDP ; std::_Tree_nod<std::_Tmap_traits<unsigned __int64,ThreadInfo * __ptr64,std::less<unsigned __int64>,std::allocator<std::pair<unsigned __int64 const ,ThreadInfo * __ptr64> >,0> >::~_Tree_nod<std::_Tmap_traits<unsigned __int64,ThreadInfo * __ptr64,std::less<unsigned __int64>,std::allocator<std::pair<unsigned __int64 const ,ThreadInfo * __ptr64> >,0> >
; Function compile flags: /Ogtpy
_TEXT	ENDS
;	COMDAT ??1?$_Tree_nod@V?$_Tmap_traits@_KHU?$less@_K@std@@V?$allocator@U?$pair@$$CB_KH@std@@@2@$0A@@std@@@std@@QEAA@XZ
_TEXT	SEGMENT
this$ = 8
??1?$_Tree_nod@V?$_Tmap_traits@_KHU?$less@_K@std@@V?$allocator@U?$pair@$$CB_KH@std@@@2@$0A@@std@@@std@@QEAA@XZ PROC ; std::_Tree_nod<std::_Tmap_traits<unsigned __int64,int,std::less<unsigned __int64>,std::allocator<std::pair<unsigned __int64 const ,int> >,0> >::~_Tree_nod<std::_Tmap_traits<unsigned __int64,int,std::less<unsigned __int64>,std::allocator<std::pair<unsigned __int64 const ,int> >,0> >, COMDAT
	mov	rcx, QWORD PTR [rcx]
	jmp	??3@YAXPEAX@Z				; operator delete
??1?$_Tree_nod@V?$_Tmap_traits@_KHU?$less@_K@std@@V?$allocator@U?$pair@$$CB_KH@std@@@2@$0A@@std@@@std@@QEAA@XZ ENDP ; std::_Tree_nod<std::_Tmap_traits<unsigned __int64,int,std::less<unsigned __int64>,std::allocator<std::pair<unsigned __int64 const ,int> >,0> >::~_Tree_nod<std::_Tmap_traits<unsigned __int64,int,std::less<unsigned __int64>,std::allocator<std::pair<unsigned __int64 const ,int> >,0> >
; Function compile flags: /Ogtpy
_TEXT	ENDS
;	COMDAT ??1?$_Tree_ptr@V?$_Tmap_traits@KPEAVThreadInfo@@U?$less@K@std@@V?$allocator@U?$pair@$$CBKPEAVThreadInfo@@@std@@@3@$0A@@std@@@std@@QEAA@XZ
_TEXT	SEGMENT
this$ = 8
??1?$_Tree_ptr@V?$_Tmap_traits@KPEAVThreadInfo@@U?$less@K@std@@V?$allocator@U?$pair@$$CBKPEAVThreadInfo@@@std@@@3@$0A@@std@@@std@@QEAA@XZ PROC ; std::_Tree_ptr<std::_Tmap_traits<unsigned long,ThreadInfo * __ptr64,std::less<unsigned long>,std::allocator<std::pair<unsigned long const ,ThreadInfo * __ptr64> >,0> >::~_Tree_ptr<std::_Tmap_traits<unsigned long,ThreadInfo * __ptr64,std::less<unsigned long>,std::allocator<std::pair<unsigned long const ,ThreadInfo * __ptr64> >,0> >, COMDAT
	mov	rcx, QWORD PTR [rcx]
	jmp	??3@YAXPEAX@Z				; operator delete
??1?$_Tree_ptr@V?$_Tmap_traits@KPEAVThreadInfo@@U?$less@K@std@@V?$allocator@U?$pair@$$CBKPEAVThreadInfo@@@std@@@3@$0A@@std@@@std@@QEAA@XZ ENDP ; std::_Tree_ptr<std::_Tmap_traits<unsigned long,ThreadInfo * __ptr64,std::less<unsigned long>,std::allocator<std::pair<unsigned long const ,ThreadInfo * __ptr64> >,0> >::~_Tree_ptr<std::_Tmap_traits<unsigned long,ThreadInfo * __ptr64,std::less<unsigned long>,std::allocator<std::pair<unsigned long const ,ThreadInfo * __ptr64> >,0> >
; Function compile flags: /Ogtpy
_TEXT	ENDS
;	COMDAT ??1?$_Tree_ptr@V?$_Tmap_traits@_KPEAVThreadInfo@@U?$less@_K@std@@V?$allocator@U?$pair@$$CB_KPEAVThreadInfo@@@std@@@3@$0A@@std@@@std@@QEAA@XZ
_TEXT	SEGMENT
this$ = 8
??1?$_Tree_ptr@V?$_Tmap_traits@_KPEAVThreadInfo@@U?$less@_K@std@@V?$allocator@U?$pair@$$CB_KPEAVThreadInfo@@@std@@@3@$0A@@std@@@std@@QEAA@XZ PROC ; std::_Tree_ptr<std::_Tmap_traits<unsigned __int64,ThreadInfo * __ptr64,std::less<unsigned __int64>,std::allocator<std::pair<unsigned __int64 const ,ThreadInfo * __ptr64> >,0> >::~_Tree_ptr<std::_Tmap_traits<unsigned __int64,ThreadInfo * __ptr64,std::less<unsigned __int64>,std::allocator<std::pair<unsigned __int64 const ,ThreadInfo * __ptr64> >,0> >, COMDAT
	mov	rcx, QWORD PTR [rcx]
	jmp	??3@YAXPEAX@Z				; operator delete
??1?$_Tree_ptr@V?$_Tmap_traits@_KPEAVThreadInfo@@U?$less@_K@std@@V?$allocator@U?$pair@$$CB_KPEAVThreadInfo@@@std@@@3@$0A@@std@@@std@@QEAA@XZ ENDP ; std::_Tree_ptr<std::_Tmap_traits<unsigned __int64,ThreadInfo * __ptr64,std::less<unsigned __int64>,std::allocator<std::pair<unsigned __int64 const ,ThreadInfo * __ptr64> >,0> >::~_Tree_ptr<std::_Tmap_traits<unsigned __int64,ThreadInfo * __ptr64,std::less<unsigned __int64>,std::allocator<std::pair<unsigned __int64 const ,ThreadInfo * __ptr64> >,0> >
; Function compile flags: /Ogtpy
_TEXT	ENDS
;	COMDAT ??1?$_Tree_ptr@V?$_Tmap_traits@_KHU?$less@_K@std@@V?$allocator@U?$pair@$$CB_KH@std@@@2@$0A@@std@@@std@@QEAA@XZ
_TEXT	SEGMENT
this$ = 8
??1?$_Tree_ptr@V?$_Tmap_traits@_KHU?$less@_K@std@@V?$allocator@U?$pair@$$CB_KH@std@@@2@$0A@@std@@@std@@QEAA@XZ PROC ; std::_Tree_ptr<std::_Tmap_traits<unsigned __int64,int,std::less<unsigned __int64>,std::allocator<std::pair<unsigned __int64 const ,int> >,0> >::~_Tree_ptr<std::_Tmap_traits<unsigned __int64,int,std::less<unsigned __int64>,std::allocator<std::pair<unsigned __int64 const ,int> >,0> >, COMDAT
	mov	rcx, QWORD PTR [rcx]
	jmp	??3@YAXPEAX@Z				; operator delete
??1?$_Tree_ptr@V?$_Tmap_traits@_KHU?$less@_K@std@@V?$allocator@U?$pair@$$CB_KH@std@@@2@$0A@@std@@@std@@QEAA@XZ ENDP ; std::_Tree_ptr<std::_Tmap_traits<unsigned __int64,int,std::less<unsigned __int64>,std::allocator<std::pair<unsigned __int64 const ,int> >,0> >::~_Tree_ptr<std::_Tmap_traits<unsigned __int64,int,std::less<unsigned __int64>,std::allocator<std::pair<unsigned __int64 const ,int> >,0> >
; Function compile flags: /Ogtpy
_TEXT	ENDS
;	COMDAT ??1?$_Tree_val@V?$_Tmap_traits@KPEAVThreadInfo@@U?$less@K@std@@V?$allocator@U?$pair@$$CBKPEAVThreadInfo@@@std@@@3@$0A@@std@@@std@@QEAA@XZ
_TEXT	SEGMENT
this$ = 8
??1?$_Tree_val@V?$_Tmap_traits@KPEAVThreadInfo@@U?$less@K@std@@V?$allocator@U?$pair@$$CBKPEAVThreadInfo@@@std@@@3@$0A@@std@@@std@@QEAA@XZ PROC ; std::_Tree_val<std::_Tmap_traits<unsigned long,ThreadInfo * __ptr64,std::less<unsigned long>,std::allocator<std::pair<unsigned long const ,ThreadInfo * __ptr64> >,0> >::~_Tree_val<std::_Tmap_traits<unsigned long,ThreadInfo * __ptr64,std::less<unsigned long>,std::allocator<std::pair<unsigned long const ,ThreadInfo * __ptr64> >,0> >, COMDAT
	mov	rcx, QWORD PTR [rcx]
	jmp	??3@YAXPEAX@Z				; operator delete
??1?$_Tree_val@V?$_Tmap_traits@KPEAVThreadInfo@@U?$less@K@std@@V?$allocator@U?$pair@$$CBKPEAVThreadInfo@@@std@@@3@$0A@@std@@@std@@QEAA@XZ ENDP ; std::_Tree_val<std::_Tmap_traits<unsigned long,ThreadInfo * __ptr64,std::less<unsigned long>,std::allocator<std::pair<unsigned long const ,ThreadInfo * __ptr64> >,0> >::~_Tree_val<std::_Tmap_traits<unsigned long,ThreadInfo * __ptr64,std::less<unsigned long>,std::allocator<std::pair<unsigned long const ,ThreadInfo * __ptr64> >,0> >
; Function compile flags: /Ogtpy
_TEXT	ENDS
;	COMDAT ??1?$_Tree_val@V?$_Tmap_traits@_KPEAVThreadInfo@@U?$less@_K@std@@V?$allocator@U?$pair@$$CB_KPEAVThreadInfo@@@std@@@3@$0A@@std@@@std@@QEAA@XZ
_TEXT	SEGMENT
this$ = 8
??1?$_Tree_val@V?$_Tmap_traits@_KPEAVThreadInfo@@U?$less@_K@std@@V?$allocator@U?$pair@$$CB_KPEAVThreadInfo@@@std@@@3@$0A@@std@@@std@@QEAA@XZ PROC ; std::_Tree_val<std::_Tmap_traits<unsigned __int64,ThreadInfo * __ptr64,std::less<unsigned __int64>,std::allocator<std::pair<unsigned __int64 const ,ThreadInfo * __ptr64> >,0> >::~_Tree_val<std::_Tmap_traits<unsigned __int64,ThreadInfo * __ptr64,std::less<unsigned __int64>,std::allocator<std::pair<unsigned __int64 const ,ThreadInfo * __ptr64> >,0> >, COMDAT
	mov	rcx, QWORD PTR [rcx]
	jmp	??3@YAXPEAX@Z				; operator delete
??1?$_Tree_val@V?$_Tmap_traits@_KPEAVThreadInfo@@U?$less@_K@std@@V?$allocator@U?$pair@$$CB_KPEAVThreadInfo@@@std@@@3@$0A@@std@@@std@@QEAA@XZ ENDP ; std::_Tree_val<std::_Tmap_traits<unsigned __int64,ThreadInfo * __ptr64,std::less<unsigned __int64>,std::allocator<std::pair<unsigned __int64 const ,ThreadInfo * __ptr64> >,0> >::~_Tree_val<std::_Tmap_traits<unsigned __int64,ThreadInfo * __ptr64,std::less<unsigned __int64>,std::allocator<std::pair<unsigned __int64 const ,ThreadInfo * __ptr64> >,0> >
; Function compile flags: /Ogtpy
_TEXT	ENDS
;	COMDAT ??1?$_Tree_val@V?$_Tmap_traits@_KHU?$less@_K@std@@V?$allocator@U?$pair@$$CB_KH@std@@@2@$0A@@std@@@std@@QEAA@XZ
_TEXT	SEGMENT
this$ = 8
??1?$_Tree_val@V?$_Tmap_traits@_KHU?$less@_K@std@@V?$allocator@U?$pair@$$CB_KH@std@@@2@$0A@@std@@@std@@QEAA@XZ PROC ; std::_Tree_val<std::_Tmap_traits<unsigned __int64,int,std::less<unsigned __int64>,std::allocator<std::pair<unsigned __int64 const ,int> >,0> >::~_Tree_val<std::_Tmap_traits<unsigned __int64,int,std::less<unsigned __int64>,std::allocator<std::pair<unsigned __int64 const ,int> >,0> >, COMDAT
	mov	rcx, QWORD PTR [rcx]
	jmp	??3@YAXPEAX@Z				; operator delete
??1?$_Tree_val@V?$_Tmap_traits@_KHU?$less@_K@std@@V?$allocator@U?$pair@$$CB_KH@std@@@2@$0A@@std@@@std@@QEAA@XZ ENDP ; std::_Tree_val<std::_Tmap_traits<unsigned __int64,int,std::less<unsigned __int64>,std::allocator<std::pair<unsigned __int64 const ,int> >,0> >::~_Tree_val<std::_Tmap_traits<unsigned __int64,int,std::less<unsigned __int64>,std::allocator<std::pair<unsigned __int64 const ,int> >,0> >
; Function compile flags: /Ogtpy
; File c:\local\sharpdevelop_3.2.0.5777_source\src\addins\misc\profiler\hook\lightweightstack.h
_TEXT	ENDS
;	COMDAT ??0?$LightweightStack@UStackEntry@@@@QEAA@XZ
_TEXT	SEGMENT
this$ = 8
??0?$LightweightStack@UStackEntry@@@@QEAA@XZ PROC	; LightweightStack<StackEntry>::LightweightStack<StackEntry>, COMDAT

; 37   : 		array = (T *)stackAllocator.malloc(64 * sizeof(T));

	mov	edx, 1536				; 00000600H
	lock xadd QWORD PTR ?stackAllocator@@3UfastAllocator@@A+8, rdx
	mov	rax, QWORD PTR ?stackAllocator@@3UfastAllocator@@A+16
	xor	r8d, r8d
	sub	rax, rdx
	cmp	rax, 1536				; 00000600H
	cmovg	r8, rdx
	mov	QWORD PTR [rcx], r8

; 38   : 		arrayEnd = array + 64;

	lea	rax, QWORD PTR [r8+1536]
	mov	QWORD PTR [rcx+16], rax

; 39   : 		topPointer = array - 1;

	lea	rax, QWORD PTR [r8-24]
	mov	QWORD PTR [rcx+8], rax

; 40   : 	}

	mov	rax, rcx
	ret	0
??0?$LightweightStack@UStackEntry@@@@QEAA@XZ ENDP	; LightweightStack<StackEntry>::LightweightStack<StackEntry>
_TEXT	ENDS
;	COMDAT pdata
pdata	SEGMENT
$pdata$??0out_of_range@std@@QEAA@AEBV01@@Z DD imagerel $LN8
	DD	imagerel $LN8+86
	DD	imagerel $unwind$??0out_of_range@std@@QEAA@AEBV01@@Z
pdata	ENDS
;	COMDAT pdata
pdata	SEGMENT
$pdata$?dtor$1@?0???0out_of_range@std@@QEAA@AEBV01@@Z@4HA DD imagerel ?dtor$1@?0???0out_of_range@std@@QEAA@AEBV01@@Z@4HA
	DD	imagerel ?dtor$1@?0???0out_of_range@std@@QEAA@AEBV01@@Z@4HA+25
	DD	imagerel $unwind$?dtor$1@?0???0out_of_range@std@@QEAA@AEBV01@@Z@4HA
pdata	ENDS
;	COMDAT xdata
xdata	SEGMENT
$ip2state$??0out_of_range@std@@QEAA@AEBV01@@Z DD imagerel ??0out_of_range@std@@QEAA@AEBV01@@Z
	DD	0ffffffffH
	DD	imagerel ??0out_of_range@std@@QEAA@AEBV01@@Z+37
	DD	00H
	DD	imagerel ??0out_of_range@std@@QEAA@AEBV01@@Z+62
	DD	0ffffffffH
xdata	ENDS
;	COMDAT xdata
xdata	SEGMENT
$unwind$?dtor$1@?0???0out_of_range@std@@QEAA@AEBV01@@Z@4HA DD 020601H
	DD	050023206H
xdata	ENDS
;	COMDAT xdata
xdata	SEGMENT
$unwind$??0out_of_range@std@@QEAA@AEBV01@@Z DD 041811H
	DD	093418H
	DD	07006520aH
	DD	imagerel __CxxFrameHandler3
	DD	imagerel $cppxdata$??0out_of_range@std@@QEAA@AEBV01@@Z
xdata	ENDS
;	COMDAT CONST
CONST	SEGMENT
$cppxdata$??0out_of_range@std@@QEAA@AEBV01@@Z DD 019930522H
	DD	01H
	DD	imagerel $stateUnwindMap$??0out_of_range@std@@QEAA@AEBV01@@Z
	DD	00H
	DD	00H
	DD	03H
	DD	imagerel $ip2state$??0out_of_range@std@@QEAA@AEBV01@@Z
	DD	020H
	DD	00H
	DD	01H
CONST	ENDS
;	COMDAT xdata
xdata	SEGMENT
$stateUnwindMap$??0out_of_range@std@@QEAA@AEBV01@@Z DD 0ffffffffH
	DD	imagerel ?dtor$1@?0???0out_of_range@std@@QEAA@AEBV01@@Z@4HA
; Function compile flags: /Ogtpy
xdata	ENDS
;	COMDAT ??0out_of_range@std@@QEAA@AEBV01@@Z
_TEXT	SEGMENT
$T151356 = 32
this$ = 64
__that$ = 72
??0out_of_range@std@@QEAA@AEBV01@@Z PROC		; std::out_of_range::out_of_range, COMDAT
$LN8:
	mov	QWORD PTR [rsp+8], rcx
	push	rdi
	sub	rsp, 48					; 00000030H
	mov	QWORD PTR $T151356[rsp], -2
	mov	QWORD PTR [rsp+72], rbx
	mov	rbx, rdx
	mov	rdi, rcx
	call	QWORD PTR __imp_??0exception@std@@QEAA@AEBV01@@Z
	npad	1
	lea	rax, OFFSET FLAT:??_7logic_error@std@@6B@
	mov	QWORD PTR [rdi], rax
	lea	rdx, QWORD PTR [rbx+24]
	lea	rcx, QWORD PTR [rdi+24]
	call	QWORD PTR __imp_??0?$basic_string@DU?$char_traits@D@std@@V?$allocator@D@2@@std@@QEAA@AEBV01@@Z
	npad	1
	lea	rax, OFFSET FLAT:??_7out_of_range@std@@6B@
	mov	QWORD PTR [rdi], rax
	mov	rax, rdi
	mov	rbx, QWORD PTR [rsp+72]
	add	rsp, 48					; 00000030H
	pop	rdi
	ret	0
??0out_of_range@std@@QEAA@AEBV01@@Z ENDP		; std::out_of_range::out_of_range
; Function compile flags: /Ogtpy
_TEXT	ENDS
;	COMDAT text$x
text$x	SEGMENT
$T151356 = 32
this$ = 64
__that$ = 72
?dtor$1@?0???0out_of_range@std@@QEAA@AEBV01@@Z@4HA PROC	; `std::out_of_range::out_of_range'::`1'::dtor$1
	push	rbp
	sub	rsp, 32					; 00000020H
	mov	rbp, rdx
	mov	rcx, QWORD PTR this$[rbp]
	call	QWORD PTR __imp_??1exception@std@@UEAA@XZ
	add	rsp, 32					; 00000020H
	pop	rbp
	ret	0
?dtor$1@?0???0out_of_range@std@@QEAA@AEBV01@@Z@4HA ENDP	; `std::out_of_range::out_of_range'::`1'::dtor$1
text$x	ENDS
;	COMDAT pdata
; File c:\program files\microsoft visual studio 9.0\vc\include\stdexcept
pdata	SEGMENT
$pdata$??1out_of_range@std@@UEAA@XZ DD imagerel $LN5
	DD	imagerel $LN5+45
	DD	imagerel $unwind$??1out_of_range@std@@UEAA@XZ
pdata	ENDS
;	COMDAT xdata
xdata	SEGMENT
$unwind$??1out_of_range@std@@UEAA@XZ DD 020601H
	DD	030023206H
; Function compile flags: /Ogtpy
xdata	ENDS
;	COMDAT ??1out_of_range@std@@UEAA@XZ
_TEXT	SEGMENT
this$ = 48
??1out_of_range@std@@UEAA@XZ PROC			; std::out_of_range::~out_of_range, COMDAT

; 133  : 		{	// destroy the object

$LN5:
	push	rbx
	sub	rsp, 32					; 00000020H

; 134  : 		}

	lea	rax, OFFSET FLAT:??_7logic_error@std@@6B@
	mov	rbx, rcx
	add	rcx, 24
	mov	QWORD PTR [rcx-24], rax
	call	QWORD PTR __imp_??1?$basic_string@DU?$char_traits@D@std@@V?$allocator@D@2@@std@@QEAA@XZ
	mov	rcx, rbx
	add	rsp, 32					; 00000020H
	pop	rbx
	rex_jmp	QWORD PTR __imp_??1exception@std@@UEAA@XZ
??1out_of_range@std@@UEAA@XZ ENDP			; std::out_of_range::~out_of_range
_TEXT	ENDS
;	COMDAT pdata
pdata	SEGMENT
$pdata$??0out_of_range@std@@QEAA@AEBV?$basic_string@DU?$char_traits@D@std@@V?$allocator@D@2@@1@@Z DD imagerel $LN8
	DD	imagerel $LN8+85
	DD	imagerel $unwind$??0out_of_range@std@@QEAA@AEBV?$basic_string@DU?$char_traits@D@std@@V?$allocator@D@2@@1@@Z
pdata	ENDS
;	COMDAT pdata
pdata	SEGMENT
$pdata$?dtor$1@?0???0out_of_range@std@@QEAA@AEBV?$basic_string@DU?$char_traits@D@std@@V?$allocator@D@2@@1@@Z@4HA DD imagerel ?dtor$1@?0???0out_of_range@std@@QEAA@AEBV?$basic_string@DU?$char_traits@D@std@@V?$allocator@D@2@@1@@Z@4HA
	DD	imagerel ?dtor$1@?0???0out_of_range@std@@QEAA@AEBV?$basic_string@DU?$char_traits@D@std@@V?$allocator@D@2@@1@@Z@4HA+25
	DD	imagerel $unwind$?dtor$1@?0???0out_of_range@std@@QEAA@AEBV?$basic_string@DU?$char_traits@D@std@@V?$allocator@D@2@@1@@Z@4HA
pdata	ENDS
;	COMDAT xdata
xdata	SEGMENT
$ip2state$??0out_of_range@std@@QEAA@AEBV?$basic_string@DU?$char_traits@D@std@@V?$allocator@D@2@@1@@Z DD imagerel ??0out_of_range@std@@QEAA@AEBV?$basic_string@DU?$char_traits@D@std@@V?$allocator@D@2@@1@@Z
	DD	0ffffffffH
	DD	imagerel ??0out_of_range@std@@QEAA@AEBV?$basic_string@DU?$char_traits@D@std@@V?$allocator@D@2@@1@@Z+37
	DD	00H
	DD	imagerel ??0out_of_range@std@@QEAA@AEBV?$basic_string@DU?$char_traits@D@std@@V?$allocator@D@2@@1@@Z+61
	DD	0ffffffffH
xdata	ENDS
;	COMDAT xdata
xdata	SEGMENT
$unwind$?dtor$1@?0???0out_of_range@std@@QEAA@AEBV?$basic_string@DU?$char_traits@D@std@@V?$allocator@D@2@@1@@Z@4HA DD 020601H
	DD	050023206H
xdata	ENDS
;	COMDAT xdata
xdata	SEGMENT
$unwind$??0out_of_range@std@@QEAA@AEBV?$basic_string@DU?$char_traits@D@std@@V?$allocator@D@2@@1@@Z DD 041811H
	DD	093418H
	DD	07006520aH
	DD	imagerel __CxxFrameHandler3
	DD	imagerel $cppxdata$??0out_of_range@std@@QEAA@AEBV?$basic_string@DU?$char_traits@D@std@@V?$allocator@D@2@@1@@Z
xdata	ENDS
;	COMDAT CONST
CONST	SEGMENT
$cppxdata$??0out_of_range@std@@QEAA@AEBV?$basic_string@DU?$char_traits@D@std@@V?$allocator@D@2@@1@@Z DD 019930522H
	DD	01H
	DD	imagerel $stateUnwindMap$??0out_of_range@std@@QEAA@AEBV?$basic_string@DU?$char_traits@D@std@@V?$allocator@D@2@@1@@Z
	DD	00H
	DD	00H
	DD	03H
	DD	imagerel $ip2state$??0out_of_range@std@@QEAA@AEBV?$basic_string@DU?$char_traits@D@std@@V?$allocator@D@2@@1@@Z
	DD	020H
	DD	00H
	DD	01H
CONST	ENDS
;	COMDAT xdata
xdata	SEGMENT
$stateUnwindMap$??0out_of_range@std@@QEAA@AEBV?$basic_string@DU?$char_traits@D@std@@V?$allocator@D@2@@1@@Z DD 0ffffffffH
	DD	imagerel ?dtor$1@?0???0out_of_range@std@@QEAA@AEBV?$basic_string@DU?$char_traits@D@std@@V?$allocator@D@2@@1@@Z@4HA
; Function compile flags: /Ogtpy
xdata	ENDS
;	COMDAT ??0out_of_range@std@@QEAA@AEBV?$basic_string@DU?$char_traits@D@std@@V?$allocator@D@2@@1@@Z
_TEXT	SEGMENT
$T151404 = 32
this$ = 64
_Message$ = 72
??0out_of_range@std@@QEAA@AEBV?$basic_string@DU?$char_traits@D@std@@V?$allocator@D@2@@1@@Z PROC ; std::out_of_range::out_of_range, COMDAT

; 129  : 		{	// construct from message string

$LN8:
	mov	QWORD PTR [rsp+8], rcx
	push	rdi
	sub	rsp, 48					; 00000030H
	mov	QWORD PTR $T151404[rsp], -2
	mov	QWORD PTR [rsp+72], rbx
	mov	rbx, rdx
	mov	rdi, rcx
	call	QWORD PTR __imp_??0exception@std@@QEAA@XZ
	npad	1
	lea	rax, OFFSET FLAT:??_7logic_error@std@@6B@
	mov	QWORD PTR [rdi], rax
	lea	rcx, QWORD PTR [rdi+24]
	mov	rdx, rbx
	call	QWORD PTR __imp_??0?$basic_string@DU?$char_traits@D@std@@V?$allocator@D@2@@std@@QEAA@AEBV01@@Z
	npad	1
	lea	rax, OFFSET FLAT:??_7out_of_range@std@@6B@
	mov	QWORD PTR [rdi], rax

; 130  : 		}

	mov	rax, rdi
	mov	rbx, QWORD PTR [rsp+72]
	add	rsp, 48					; 00000030H
	pop	rdi
	ret	0
??0out_of_range@std@@QEAA@AEBV?$basic_string@DU?$char_traits@D@std@@V?$allocator@D@2@@1@@Z ENDP ; std::out_of_range::out_of_range
; Function compile flags: /Ogtpy
_TEXT	ENDS
;	COMDAT text$x
text$x	SEGMENT
$T151404 = 32
this$ = 64
_Message$ = 72
?dtor$1@?0???0out_of_range@std@@QEAA@AEBV?$basic_string@DU?$char_traits@D@std@@V?$allocator@D@2@@1@@Z@4HA PROC ; `std::out_of_range::out_of_range'::`1'::dtor$1
	push	rbp
	sub	rsp, 32					; 00000020H
	mov	rbp, rdx
	mov	rcx, QWORD PTR this$[rbp]
	call	QWORD PTR __imp_??1exception@std@@UEAA@XZ
	add	rsp, 32					; 00000020H
	pop	rbp
	ret	0
?dtor$1@?0???0out_of_range@std@@QEAA@AEBV?$basic_string@DU?$char_traits@D@std@@V?$allocator@D@2@@1@@Z@4HA ENDP ; `std::out_of_range::out_of_range'::`1'::dtor$1
text$x	ENDS
;	COMDAT pdata
pdata	SEGMENT
$pdata$??_Glogic_error@std@@UEAAPEAXI@Z DD imagerel $LN7
	DD	imagerel $LN7+72
	DD	imagerel $unwind$??_Glogic_error@std@@UEAAPEAXI@Z
pdata	ENDS
;	COMDAT xdata
xdata	SEGMENT
$unwind$??_Glogic_error@std@@UEAAPEAXI@Z DD 040a01H
	DD	06340aH
	DD	07006320aH
; Function compile flags: /Ogtpy
xdata	ENDS
;	COMDAT ??_Glogic_error@std@@UEAAPEAXI@Z
_TEXT	SEGMENT
this$ = 48
__flags$ = 56
??_Glogic_error@std@@UEAAPEAXI@Z PROC			; std::logic_error::`scalar deleting destructor', COMDAT
$LN7:
	mov	QWORD PTR [rsp+8], rbx
	push	rdi
	sub	rsp, 32					; 00000020H
	lea	rax, OFFSET FLAT:??_7logic_error@std@@6B@
	mov	rdi, rcx
	add	rcx, 24
	mov	QWORD PTR [rcx-24], rax
	mov	ebx, edx
	call	QWORD PTR __imp_??1?$basic_string@DU?$char_traits@D@std@@V?$allocator@D@2@@std@@QEAA@XZ
	mov	rcx, rdi
	call	QWORD PTR __imp_??1exception@std@@UEAA@XZ
	test	bl, 1
	je	SHORT $LN6@scalar@2
	mov	rcx, rdi
	call	??3@YAXPEAX@Z				; operator delete
$LN6@scalar@2:
	mov	rax, rdi
	mov	rbx, QWORD PTR [rsp+48]
	add	rsp, 32					; 00000020H
	pop	rdi
	ret	0
??_Glogic_error@std@@UEAAPEAXI@Z ENDP			; std::logic_error::`scalar deleting destructor'
;	COMDAT pdata
; File c:\program files\microsoft visual studio 9.0\vc\include\xtree
pdata	SEGMENT
$pdata$?_Inc@const_iterator@?$_Tree@V?$_Tmap_traits@KPEAVThreadInfo@@U?$less@K@std@@V?$allocator@U?$pair@$$CBKPEAVThreadInfo@@@std@@@3@$0A@@std@@@std@@QEAAXXZ DD imagerel $LN44
	DD	imagerel $LN44+130
	DD	imagerel $unwind$?_Inc@const_iterator@?$_Tree@V?$_Tmap_traits@KPEAVThreadInfo@@U?$less@K@std@@V?$allocator@U?$pair@$$CBKPEAVThreadInfo@@@std@@@3@$0A@@std@@@std@@QEAAXXZ
pdata	ENDS
;	COMDAT xdata
xdata	SEGMENT
$unwind$?_Inc@const_iterator@?$_Tree@V?$_Tmap_traits@KPEAVThreadInfo@@U?$less@K@std@@V?$allocator@U?$pair@$$CBKPEAVThreadInfo@@@std@@@3@$0A@@std@@@std@@QEAAXXZ DD 020601H
	DD	030023206H
; Function compile flags: /Ogtpy
xdata	ENDS
;	COMDAT ?_Inc@const_iterator@?$_Tree@V?$_Tmap_traits@KPEAVThreadInfo@@U?$less@K@std@@V?$allocator@U?$pair@$$CBKPEAVThreadInfo@@@std@@@3@$0A@@std@@@std@@QEAAXXZ
_TEXT	SEGMENT
this$ = 48
?_Inc@const_iterator@?$_Tree@V?$_Tmap_traits@KPEAVThreadInfo@@U?$less@K@std@@V?$allocator@U?$pair@$$CBKPEAVThreadInfo@@@std@@@3@$0A@@std@@@std@@QEAAXXZ PROC ; std::_Tree<std::_Tmap_traits<unsigned long,ThreadInfo * __ptr64,std::less<unsigned long>,std::allocator<std::pair<unsigned long const ,ThreadInfo * __ptr64> >,0> >::const_iterator::_Inc, COMDAT

; 377  : 			{	// move to node with next larger value

$LN44:
	push	rbx
	sub	rsp, 32					; 00000020H

; 378  : 
; 379  :  #if _HAS_ITERATOR_DEBUGGING
; 380  : 			if (this->_Mycont == 0
; 381  : 				|| _Ptr == 0
; 382  : 				|| _Isnil(_Ptr))
; 383  : 				{
; 384  : 				_DEBUG_ERROR("map/set iterator not incrementable");
; 385  : 				_SCL_SECURE_OUT_OF_RANGE;
; 386  : 				}
; 387  :  #else
; 388  : 			_SCL_SECURE_VALIDATE(this->_Has_container());

	cmp	QWORD PTR [rcx], 0
	mov	rbx, rcx
	jne	SHORT $LN9@Inc
	call	QWORD PTR __imp__invalid_parameter_noinfo
$LN9@Inc:

; 389  : 			if (_Isnil(_Ptr))

	mov	rcx, QWORD PTR [rbx+8]
	cmp	BYTE PTR [rcx+41], 0
	je	SHORT $LN6@Inc

; 405  : 				}
; 406  : 			}

	add	rsp, 32					; 00000020H
	pop	rbx
	rex_jmp	QWORD PTR __imp__invalid_parameter_noinfo
$LN6@Inc:

; 390  : 				{
; 391  : 				_SCL_SECURE_OUT_OF_RANGE;
; 392  : 				// end() shouldn't be incremented, don't move if _SCL_SECURE is not turned on
; 393  : 				}
; 394  :  #endif /* _HAS_ITERATOR_DEBUGGING */
; 395  : 
; 396  : 			else if (!_Isnil(_Right(_Ptr)))

	mov	rax, QWORD PTR [rcx+16]
	cmp	BYTE PTR [rax+41], 0
	jne	SHORT $LN40@Inc

; 397  : 				_Ptr = _Min(_Right(_Ptr));	// ==> smallest of right subtree

	mov	rcx, QWORD PTR [rax]
	cmp	BYTE PTR [rcx+41], 0
	jne	SHORT $LN23@Inc
	npad	2
$LL24@Inc:
	mov	rax, rcx
	mov	rcx, QWORD PTR [rcx]
	cmp	BYTE PTR [rcx+41], 0
	je	SHORT $LL24@Inc
$LN23@Inc:
	mov	QWORD PTR [rbx+8], rax

; 405  : 				}
; 406  : 			}

	add	rsp, 32					; 00000020H
	pop	rbx
	ret	0
$LN40@Inc:

; 398  : 			else
; 399  : 				{	// climb looking for right subtree
; 400  : 				_Nodeptr _Pnode;
; 401  : 				while (!_Isnil(_Pnode = _Parent(_Ptr))
; 402  : 					&& _Ptr == _Right(_Pnode))

	mov	rcx, QWORD PTR [rcx+8]
	cmp	BYTE PTR [rcx+41], 0
	jne	SHORT $LN43@Inc
$LL2@Inc:
	mov	rax, QWORD PTR [rcx+16]
	cmp	QWORD PTR [rbx+8], rax
	jne	SHORT $LN43@Inc

; 403  : 					_Ptr = _Pnode;	// ==> parent while right subtree

	mov	QWORD PTR [rbx+8], rcx
	mov	rcx, QWORD PTR [rcx+8]
	cmp	BYTE PTR [rcx+41], 0
	je	SHORT $LL2@Inc
$LN43@Inc:

; 404  : 				_Ptr = _Pnode;	// ==> parent (head if end())

	mov	QWORD PTR [rbx+8], rcx

; 405  : 				}
; 406  : 			}

	add	rsp, 32					; 00000020H
	pop	rbx
	ret	0
?_Inc@const_iterator@?$_Tree@V?$_Tmap_traits@KPEAVThreadInfo@@U?$less@K@std@@V?$allocator@U?$pair@$$CBKPEAVThreadInfo@@@std@@@3@$0A@@std@@@std@@QEAAXXZ ENDP ; std::_Tree<std::_Tmap_traits<unsigned long,ThreadInfo * __ptr64,std::less<unsigned long>,std::allocator<std::pair<unsigned long const ,ThreadInfo * __ptr64> >,0> >::const_iterator::_Inc
_TEXT	ENDS
;	COMDAT pdata
pdata	SEGMENT
$pdata$?_Inc@const_iterator@?$_Tree@V?$_Tmap_traits@_KPEAVThreadInfo@@U?$less@_K@std@@V?$allocator@U?$pair@$$CB_KPEAVThreadInfo@@@std@@@3@$0A@@std@@@std@@QEAAXXZ DD imagerel $LN44
	DD	imagerel $LN44+130
	DD	imagerel $unwind$?_Inc@const_iterator@?$_Tree@V?$_Tmap_traits@_KPEAVThreadInfo@@U?$less@_K@std@@V?$allocator@U?$pair@$$CB_KPEAVThreadInfo@@@std@@@3@$0A@@std@@@std@@QEAAXXZ
pdata	ENDS
;	COMDAT xdata
xdata	SEGMENT
$unwind$?_Inc@const_iterator@?$_Tree@V?$_Tmap_traits@_KPEAVThreadInfo@@U?$less@_K@std@@V?$allocator@U?$pair@$$CB_KPEAVThreadInfo@@@std@@@3@$0A@@std@@@std@@QEAAXXZ DD 020601H
	DD	030023206H
; Function compile flags: /Ogtpy
xdata	ENDS
;	COMDAT ?_Inc@const_iterator@?$_Tree@V?$_Tmap_traits@_KPEAVThreadInfo@@U?$less@_K@std@@V?$allocator@U?$pair@$$CB_KPEAVThreadInfo@@@std@@@3@$0A@@std@@@std@@QEAAXXZ
_TEXT	SEGMENT
this$ = 48
?_Inc@const_iterator@?$_Tree@V?$_Tmap_traits@_KPEAVThreadInfo@@U?$less@_K@std@@V?$allocator@U?$pair@$$CB_KPEAVThreadInfo@@@std@@@3@$0A@@std@@@std@@QEAAXXZ PROC ; std::_Tree<std::_Tmap_traits<unsigned __int64,ThreadInfo * __ptr64,std::less<unsigned __int64>,std::allocator<std::pair<unsigned __int64 const ,ThreadInfo * __ptr64> >,0> >::const_iterator::_Inc, COMDAT

; 377  : 			{	// move to node with next larger value

$LN44:
	push	rbx
	sub	rsp, 32					; 00000020H

; 378  : 
; 379  :  #if _HAS_ITERATOR_DEBUGGING
; 380  : 			if (this->_Mycont == 0
; 381  : 				|| _Ptr == 0
; 382  : 				|| _Isnil(_Ptr))
; 383  : 				{
; 384  : 				_DEBUG_ERROR("map/set iterator not incrementable");
; 385  : 				_SCL_SECURE_OUT_OF_RANGE;
; 386  : 				}
; 387  :  #else
; 388  : 			_SCL_SECURE_VALIDATE(this->_Has_container());

	cmp	QWORD PTR [rcx], 0
	mov	rbx, rcx
	jne	SHORT $LN9@Inc@2
	call	QWORD PTR __imp__invalid_parameter_noinfo
$LN9@Inc@2:

; 389  : 			if (_Isnil(_Ptr))

	mov	rcx, QWORD PTR [rbx+8]
	cmp	BYTE PTR [rcx+41], 0
	je	SHORT $LN6@Inc@2

; 405  : 				}
; 406  : 			}

	add	rsp, 32					; 00000020H
	pop	rbx
	rex_jmp	QWORD PTR __imp__invalid_parameter_noinfo
$LN6@Inc@2:

; 390  : 				{
; 391  : 				_SCL_SECURE_OUT_OF_RANGE;
; 392  : 				// end() shouldn't be incremented, don't move if _SCL_SECURE is not turned on
; 393  : 				}
; 394  :  #endif /* _HAS_ITERATOR_DEBUGGING */
; 395  : 
; 396  : 			else if (!_Isnil(_Right(_Ptr)))

	mov	rax, QWORD PTR [rcx+16]
	cmp	BYTE PTR [rax+41], 0
	jne	SHORT $LN40@Inc@2

; 397  : 				_Ptr = _Min(_Right(_Ptr));	// ==> smallest of right subtree

	mov	rcx, QWORD PTR [rax]
	cmp	BYTE PTR [rcx+41], 0
	jne	SHORT $LN23@Inc@2
	npad	2
$LL24@Inc@2:
	mov	rax, rcx
	mov	rcx, QWORD PTR [rcx]
	cmp	BYTE PTR [rcx+41], 0
	je	SHORT $LL24@Inc@2
$LN23@Inc@2:
	mov	QWORD PTR [rbx+8], rax

; 405  : 				}
; 406  : 			}

	add	rsp, 32					; 00000020H
	pop	rbx
	ret	0
$LN40@Inc@2:

; 398  : 			else
; 399  : 				{	// climb looking for right subtree
; 400  : 				_Nodeptr _Pnode;
; 401  : 				while (!_Isnil(_Pnode = _Parent(_Ptr))
; 402  : 					&& _Ptr == _Right(_Pnode))

	mov	rcx, QWORD PTR [rcx+8]
	cmp	BYTE PTR [rcx+41], 0
	jne	SHORT $LN43@Inc@2
$LL2@Inc@2:
	mov	rax, QWORD PTR [rcx+16]
	cmp	QWORD PTR [rbx+8], rax
	jne	SHORT $LN43@Inc@2

; 403  : 					_Ptr = _Pnode;	// ==> parent while right subtree

	mov	QWORD PTR [rbx+8], rcx
	mov	rcx, QWORD PTR [rcx+8]
	cmp	BYTE PTR [rcx+41], 0
	je	SHORT $LL2@Inc@2
$LN43@Inc@2:

; 404  : 				_Ptr = _Pnode;	// ==> parent (head if end())

	mov	QWORD PTR [rbx+8], rcx

; 405  : 				}
; 406  : 			}

	add	rsp, 32					; 00000020H
	pop	rbx
	ret	0
?_Inc@const_iterator@?$_Tree@V?$_Tmap_traits@_KPEAVThreadInfo@@U?$less@_K@std@@V?$allocator@U?$pair@$$CB_KPEAVThreadInfo@@@std@@@3@$0A@@std@@@std@@QEAAXXZ ENDP ; std::_Tree<std::_Tmap_traits<unsigned __int64,ThreadInfo * __ptr64,std::less<unsigned __int64>,std::allocator<std::pair<unsigned __int64 const ,ThreadInfo * __ptr64> >,0> >::const_iterator::_Inc
_TEXT	ENDS
;	COMDAT pdata
pdata	SEGMENT
$pdata$?_Inc@const_iterator@?$_Tree@V?$_Tmap_traits@_KHU?$less@_K@std@@V?$allocator@U?$pair@$$CB_KH@std@@@2@$0A@@std@@@std@@QEAAXXZ DD imagerel $LN44
	DD	imagerel $LN44+130
	DD	imagerel $unwind$?_Inc@const_iterator@?$_Tree@V?$_Tmap_traits@_KHU?$less@_K@std@@V?$allocator@U?$pair@$$CB_KH@std@@@2@$0A@@std@@@std@@QEAAXXZ
pdata	ENDS
;	COMDAT xdata
xdata	SEGMENT
$unwind$?_Inc@const_iterator@?$_Tree@V?$_Tmap_traits@_KHU?$less@_K@std@@V?$allocator@U?$pair@$$CB_KH@std@@@2@$0A@@std@@@std@@QEAAXXZ DD 020601H
	DD	030023206H
; Function compile flags: /Ogtpy
xdata	ENDS
;	COMDAT ?_Inc@const_iterator@?$_Tree@V?$_Tmap_traits@_KHU?$less@_K@std@@V?$allocator@U?$pair@$$CB_KH@std@@@2@$0A@@std@@@std@@QEAAXXZ
_TEXT	SEGMENT
this$ = 48
?_Inc@const_iterator@?$_Tree@V?$_Tmap_traits@_KHU?$less@_K@std@@V?$allocator@U?$pair@$$CB_KH@std@@@2@$0A@@std@@@std@@QEAAXXZ PROC ; std::_Tree<std::_Tmap_traits<unsigned __int64,int,std::less<unsigned __int64>,std::allocator<std::pair<unsigned __int64 const ,int> >,0> >::const_iterator::_Inc, COMDAT

; 377  : 			{	// move to node with next larger value

$LN44:
	push	rbx
	sub	rsp, 32					; 00000020H

; 378  : 
; 379  :  #if _HAS_ITERATOR_DEBUGGING
; 380  : 			if (this->_Mycont == 0
; 381  : 				|| _Ptr == 0
; 382  : 				|| _Isnil(_Ptr))
; 383  : 				{
; 384  : 				_DEBUG_ERROR("map/set iterator not incrementable");
; 385  : 				_SCL_SECURE_OUT_OF_RANGE;
; 386  : 				}
; 387  :  #else
; 388  : 			_SCL_SECURE_VALIDATE(this->_Has_container());

	cmp	QWORD PTR [rcx], 0
	mov	rbx, rcx
	jne	SHORT $LN9@Inc@3
	call	QWORD PTR __imp__invalid_parameter_noinfo
$LN9@Inc@3:

; 389  : 			if (_Isnil(_Ptr))

	mov	rcx, QWORD PTR [rbx+8]
	cmp	BYTE PTR [rcx+41], 0
	je	SHORT $LN6@Inc@3

; 405  : 				}
; 406  : 			}

	add	rsp, 32					; 00000020H
	pop	rbx
	rex_jmp	QWORD PTR __imp__invalid_parameter_noinfo
$LN6@Inc@3:

; 390  : 				{
; 391  : 				_SCL_SECURE_OUT_OF_RANGE;
; 392  : 				// end() shouldn't be incremented, don't move if _SCL_SECURE is not turned on
; 393  : 				}
; 394  :  #endif /* _HAS_ITERATOR_DEBUGGING */
; 395  : 
; 396  : 			else if (!_Isnil(_Right(_Ptr)))

	mov	rax, QWORD PTR [rcx+16]
	cmp	BYTE PTR [rax+41], 0
	jne	SHORT $LN40@Inc@3

; 397  : 				_Ptr = _Min(_Right(_Ptr));	// ==> smallest of right subtree

	mov	rcx, QWORD PTR [rax]
	cmp	BYTE PTR [rcx+41], 0
	jne	SHORT $LN23@Inc@3
	npad	2
$LL24@Inc@3:
	mov	rax, rcx
	mov	rcx, QWORD PTR [rcx]
	cmp	BYTE PTR [rcx+41], 0
	je	SHORT $LL24@Inc@3
$LN23@Inc@3:
	mov	QWORD PTR [rbx+8], rax

; 405  : 				}
; 406  : 			}

	add	rsp, 32					; 00000020H
	pop	rbx
	ret	0
$LN40@Inc@3:

; 398  : 			else
; 399  : 				{	// climb looking for right subtree
; 400  : 				_Nodeptr _Pnode;
; 401  : 				while (!_Isnil(_Pnode = _Parent(_Ptr))
; 402  : 					&& _Ptr == _Right(_Pnode))

	mov	rcx, QWORD PTR [rcx+8]
	cmp	BYTE PTR [rcx+41], 0
	jne	SHORT $LN43@Inc@3
$LL2@Inc@3:
	mov	rax, QWORD PTR [rcx+16]
	cmp	QWORD PTR [rbx+8], rax
	jne	SHORT $LN43@Inc@3

; 403  : 					_Ptr = _Pnode;	// ==> parent while right subtree

	mov	QWORD PTR [rbx+8], rcx
	mov	rcx, QWORD PTR [rcx+8]
	cmp	BYTE PTR [rcx+41], 0
	je	SHORT $LL2@Inc@3
$LN43@Inc@3:

; 404  : 				_Ptr = _Pnode;	// ==> parent (head if end())

	mov	QWORD PTR [rbx+8], rcx

; 405  : 				}
; 406  : 			}

	add	rsp, 32					; 00000020H
	pop	rbx
	ret	0
?_Inc@const_iterator@?$_Tree@V?$_Tmap_traits@_KHU?$less@_K@std@@V?$allocator@U?$pair@$$CB_KH@std@@@2@$0A@@std@@@std@@QEAAXXZ ENDP ; std::_Tree<std::_Tmap_traits<unsigned __int64,int,std::less<unsigned __int64>,std::allocator<std::pair<unsigned __int64 const ,int> >,0> >::const_iterator::_Inc
_TEXT	ENDS
;	COMDAT pdata
pdata	SEGMENT
$pdata$??Econst_iterator@?$_Tree@V?$_Tmap_traits@KPEAVThreadInfo@@U?$less@K@std@@V?$allocator@U?$pair@$$CBKPEAVThreadInfo@@@std@@@3@$0A@@std@@@std@@QEAAAEAV012@XZ DD imagerel $LN3
	DD	imagerel $LN3+23
	DD	imagerel $unwind$??Econst_iterator@?$_Tree@V?$_Tmap_traits@KPEAVThreadInfo@@U?$less@K@std@@V?$allocator@U?$pair@$$CBKPEAVThreadInfo@@@std@@@3@$0A@@std@@@std@@QEAAAEAV012@XZ
pdata	ENDS
;	COMDAT xdata
xdata	SEGMENT
$unwind$??Econst_iterator@?$_Tree@V?$_Tmap_traits@KPEAVThreadInfo@@U?$less@K@std@@V?$allocator@U?$pair@$$CBKPEAVThreadInfo@@@std@@@3@$0A@@std@@@std@@QEAAAEAV012@XZ DD 020601H
	DD	030023206H
; Function compile flags: /Ogtpy
xdata	ENDS
;	COMDAT ??Econst_iterator@?$_Tree@V?$_Tmap_traits@KPEAVThreadInfo@@U?$less@K@std@@V?$allocator@U?$pair@$$CBKPEAVThreadInfo@@@std@@@3@$0A@@std@@@std@@QEAAAEAV012@XZ
_TEXT	SEGMENT
this$ = 48
??Econst_iterator@?$_Tree@V?$_Tmap_traits@KPEAVThreadInfo@@U?$less@K@std@@V?$allocator@U?$pair@$$CBKPEAVThreadInfo@@@std@@@3@$0A@@std@@@std@@QEAAAEAV012@XZ PROC ; std::_Tree<std::_Tmap_traits<unsigned long,ThreadInfo * __ptr64,std::less<unsigned long>,std::allocator<std::pair<unsigned long const ,ThreadInfo * __ptr64> >,0> >::const_iterator::operator++, COMDAT

; 273  : 			{	// preincrement

$LN3:
	push	rbx
	sub	rsp, 32					; 00000020H
	mov	rbx, rcx

; 274  : 			_Inc();

	call	?_Inc@const_iterator@?$_Tree@V?$_Tmap_traits@KPEAVThreadInfo@@U?$less@K@std@@V?$allocator@U?$pair@$$CBKPEAVThreadInfo@@@std@@@3@$0A@@std@@@std@@QEAAXXZ ; std::_Tree<std::_Tmap_traits<unsigned long,ThreadInfo * __ptr64,std::less<unsigned long>,std::allocator<std::pair<unsigned long const ,ThreadInfo * __ptr64> >,0> >::const_iterator::_Inc

; 275  : 			return (*this);

	mov	rax, rbx

; 276  : 			}

	add	rsp, 32					; 00000020H
	pop	rbx
	ret	0
??Econst_iterator@?$_Tree@V?$_Tmap_traits@KPEAVThreadInfo@@U?$less@K@std@@V?$allocator@U?$pair@$$CBKPEAVThreadInfo@@@std@@@3@$0A@@std@@@std@@QEAAAEAV012@XZ ENDP ; std::_Tree<std::_Tmap_traits<unsigned long,ThreadInfo * __ptr64,std::less<unsigned long>,std::allocator<std::pair<unsigned long const ,ThreadInfo * __ptr64> >,0> >::const_iterator::operator++
_TEXT	ENDS
;	COMDAT pdata
pdata	SEGMENT
$pdata$??Econst_iterator@?$_Tree@V?$_Tmap_traits@_KPEAVThreadInfo@@U?$less@_K@std@@V?$allocator@U?$pair@$$CB_KPEAVThreadInfo@@@std@@@3@$0A@@std@@@std@@QEAAAEAV012@XZ DD imagerel $LN3
	DD	imagerel $LN3+23
	DD	imagerel $unwind$??Econst_iterator@?$_Tree@V?$_Tmap_traits@_KPEAVThreadInfo@@U?$less@_K@std@@V?$allocator@U?$pair@$$CB_KPEAVThreadInfo@@@std@@@3@$0A@@std@@@std@@QEAAAEAV012@XZ
pdata	ENDS
;	COMDAT xdata
xdata	SEGMENT
$unwind$??Econst_iterator@?$_Tree@V?$_Tmap_traits@_KPEAVThreadInfo@@U?$less@_K@std@@V?$allocator@U?$pair@$$CB_KPEAVThreadInfo@@@std@@@3@$0A@@std@@@std@@QEAAAEAV012@XZ DD 020601H
	DD	030023206H
; Function compile flags: /Ogtpy
xdata	ENDS
;	COMDAT ??Econst_iterator@?$_Tree@V?$_Tmap_traits@_KPEAVThreadInfo@@U?$less@_K@std@@V?$allocator@U?$pair@$$CB_KPEAVThreadInfo@@@std@@@3@$0A@@std@@@std@@QEAAAEAV012@XZ
_TEXT	SEGMENT
this$ = 48
??Econst_iterator@?$_Tree@V?$_Tmap_traits@_KPEAVThreadInfo@@U?$less@_K@std@@V?$allocator@U?$pair@$$CB_KPEAVThreadInfo@@@std@@@3@$0A@@std@@@std@@QEAAAEAV012@XZ PROC ; std::_Tree<std::_Tmap_traits<unsigned __int64,ThreadInfo * __ptr64,std::less<unsigned __int64>,std::allocator<std::pair<unsigned __int64 const ,ThreadInfo * __ptr64> >,0> >::const_iterator::operator++, COMDAT

; 273  : 			{	// preincrement

$LN3:
	push	rbx
	sub	rsp, 32					; 00000020H
	mov	rbx, rcx

; 274  : 			_Inc();

	call	?_Inc@const_iterator@?$_Tree@V?$_Tmap_traits@_KPEAVThreadInfo@@U?$less@_K@std@@V?$allocator@U?$pair@$$CB_KPEAVThreadInfo@@@std@@@3@$0A@@std@@@std@@QEAAXXZ ; std::_Tree<std::_Tmap_traits<unsigned __int64,ThreadInfo * __ptr64,std::less<unsigned __int64>,std::allocator<std::pair<unsigned __int64 const ,ThreadInfo * __ptr64> >,0> >::const_iterator::_Inc

; 275  : 			return (*this);

	mov	rax, rbx

; 276  : 			}

	add	rsp, 32					; 00000020H
	pop	rbx
	ret	0
??Econst_iterator@?$_Tree@V?$_Tmap_traits@_KPEAVThreadInfo@@U?$less@_K@std@@V?$allocator@U?$pair@$$CB_KPEAVThreadInfo@@@std@@@3@$0A@@std@@@std@@QEAAAEAV012@XZ ENDP ; std::_Tree<std::_Tmap_traits<unsigned __int64,ThreadInfo * __ptr64,std::less<unsigned __int64>,std::allocator<std::pair<unsigned __int64 const ,ThreadInfo * __ptr64> >,0> >::const_iterator::operator++
_TEXT	ENDS
;	COMDAT pdata
pdata	SEGMENT
$pdata$??Econst_iterator@?$_Tree@V?$_Tmap_traits@_KHU?$less@_K@std@@V?$allocator@U?$pair@$$CB_KH@std@@@2@$0A@@std@@@std@@QEAAAEAV012@XZ DD imagerel $LN3
	DD	imagerel $LN3+23
	DD	imagerel $unwind$??Econst_iterator@?$_Tree@V?$_Tmap_traits@_KHU?$less@_K@std@@V?$allocator@U?$pair@$$CB_KH@std@@@2@$0A@@std@@@std@@QEAAAEAV012@XZ
pdata	ENDS
;	COMDAT xdata
xdata	SEGMENT
$unwind$??Econst_iterator@?$_Tree@V?$_Tmap_traits@_KHU?$less@_K@std@@V?$allocator@U?$pair@$$CB_KH@std@@@2@$0A@@std@@@std@@QEAAAEAV012@XZ DD 020601H
	DD	030023206H
; Function compile flags: /Ogtpy
xdata	ENDS
;	COMDAT ??Econst_iterator@?$_Tree@V?$_Tmap_traits@_KHU?$less@_K@std@@V?$allocator@U?$pair@$$CB_KH@std@@@2@$0A@@std@@@std@@QEAAAEAV012@XZ
_TEXT	SEGMENT
this$ = 48
??Econst_iterator@?$_Tree@V?$_Tmap_traits@_KHU?$less@_K@std@@V?$allocator@U?$pair@$$CB_KH@std@@@2@$0A@@std@@@std@@QEAAAEAV012@XZ PROC ; std::_Tree<std::_Tmap_traits<unsigned __int64,int,std::less<unsigned __int64>,std::allocator<std::pair<unsigned __int64 const ,int> >,0> >::const_iterator::operator++, COMDAT

; 273  : 			{	// preincrement

$LN3:
	push	rbx
	sub	rsp, 32					; 00000020H
	mov	rbx, rcx

; 274  : 			_Inc();

	call	?_Inc@const_iterator@?$_Tree@V?$_Tmap_traits@_KHU?$less@_K@std@@V?$allocator@U?$pair@$$CB_KH@std@@@2@$0A@@std@@@std@@QEAAXXZ ; std::_Tree<std::_Tmap_traits<unsigned __int64,int,std::less<unsigned __int64>,std::allocator<std::pair<unsigned __int64 const ,int> >,0> >::const_iterator::_Inc

; 275  : 			return (*this);

	mov	rax, rbx

; 276  : 			}

	add	rsp, 32					; 00000020H
	pop	rbx
	ret	0
??Econst_iterator@?$_Tree@V?$_Tmap_traits@_KHU?$less@_K@std@@V?$allocator@U?$pair@$$CB_KH@std@@@2@$0A@@std@@@std@@QEAAAEAV012@XZ ENDP ; std::_Tree<std::_Tmap_traits<unsigned __int64,int,std::less<unsigned __int64>,std::allocator<std::pair<unsigned __int64 const ,int> >,0> >::const_iterator::operator++
; Function compile flags: /Ogtpy
_TEXT	ENDS
;	COMDAT ?_Rrotate@?$_Tree@V?$_Tmap_traits@KPEAVThreadInfo@@U?$less@K@std@@V?$allocator@U?$pair@$$CBKPEAVThreadInfo@@@std@@@3@$0A@@std@@@std@@IEAAXPEAU_Node@?$_Tree_nod@V?$_Tmap_traits@KPEAVThreadInfo@@U?$less@K@std@@V?$allocator@U?$pair@$$CBKPEAVThreadInfo@@@std@@@3@$0A@@std@@@2@@Z
_TEXT	SEGMENT
this$ = 8
_Wherenode$ = 16
?_Rrotate@?$_Tree@V?$_Tmap_traits@KPEAVThreadInfo@@U?$less@K@std@@V?$allocator@U?$pair@$$CBKPEAVThreadInfo@@@std@@@3@$0A@@std@@@std@@IEAAXPEAU_Node@?$_Tree_nod@V?$_Tmap_traits@KPEAVThreadInfo@@U?$less@K@std@@V?$allocator@U?$pair@$$CBKPEAVThreadInfo@@@std@@@3@$0A@@std@@@2@@Z PROC ; std::_Tree<std::_Tmap_traits<unsigned long,ThreadInfo * __ptr64,std::less<unsigned long>,std::allocator<std::pair<unsigned long const ,ThreadInfo * __ptr64> >,0> >::_Rrotate, COMDAT

; 1330 : 		_Nodeptr _Pnode = _Left(_Wherenode);

	mov	r8, QWORD PTR [rdx]

; 1331 : 		_Left(_Wherenode) = _Right(_Pnode);

	mov	rax, QWORD PTR [r8+16]
	mov	QWORD PTR [rdx], rax

; 1332 : 
; 1333 : 		if (!_Isnil(_Right(_Pnode)))

	mov	rax, QWORD PTR [r8+16]
	cmp	BYTE PTR [rax+41], 0
	jne	SHORT $LN5@Rrotate

; 1334 : 			_Parent(_Right(_Pnode)) = _Wherenode;

	mov	QWORD PTR [rax+8], rdx
$LN5@Rrotate:

; 1335 : 		_Parent(_Pnode) = _Parent(_Wherenode);

	mov	rax, QWORD PTR [rdx+8]
	mov	QWORD PTR [r8+8], rax

; 1336 : 
; 1337 : 		if (_Wherenode == _Root())

	mov	rax, QWORD PTR [rcx+48]
	cmp	rdx, QWORD PTR [rax+8]
	jne	SHORT $LN4@Rrotate

; 1338 : 			_Root() = _Pnode;

	mov	QWORD PTR [rax+8], r8

; 1343 : 
; 1344 : 		_Right(_Pnode) = _Wherenode;

	mov	QWORD PTR [r8+16], rdx

; 1345 : 		_Parent(_Wherenode) = _Pnode;

	mov	QWORD PTR [rdx+8], r8

; 1346 : 		}

	ret	0
$LN4@Rrotate:

; 1339 : 		else if (_Wherenode == _Right(_Parent(_Wherenode)))

	mov	rax, QWORD PTR [rdx+8]
	cmp	rdx, QWORD PTR [rax+16]
	jne	SHORT $LN2@Rrotate

; 1340 : 			_Right(_Parent(_Wherenode)) = _Pnode;

	mov	QWORD PTR [rax+16], r8

; 1343 : 
; 1344 : 		_Right(_Pnode) = _Wherenode;

	mov	QWORD PTR [r8+16], rdx

; 1345 : 		_Parent(_Wherenode) = _Pnode;

	mov	QWORD PTR [rdx+8], r8

; 1346 : 		}

	ret	0
$LN2@Rrotate:

; 1341 : 		else
; 1342 : 			_Left(_Parent(_Wherenode)) = _Pnode;

	mov	QWORD PTR [rax], r8

; 1343 : 
; 1344 : 		_Right(_Pnode) = _Wherenode;

	mov	QWORD PTR [r8+16], rdx

; 1345 : 		_Parent(_Wherenode) = _Pnode;

	mov	QWORD PTR [rdx+8], r8

; 1346 : 		}

	ret	0
?_Rrotate@?$_Tree@V?$_Tmap_traits@KPEAVThreadInfo@@U?$less@K@std@@V?$allocator@U?$pair@$$CBKPEAVThreadInfo@@@std@@@3@$0A@@std@@@std@@IEAAXPEAU_Node@?$_Tree_nod@V?$_Tmap_traits@KPEAVThreadInfo@@U?$less@K@std@@V?$allocator@U?$pair@$$CBKPEAVThreadInfo@@@std@@@3@$0A@@std@@@2@@Z ENDP ; std::_Tree<std::_Tmap_traits<unsigned long,ThreadInfo * __ptr64,std::less<unsigned long>,std::allocator<std::pair<unsigned long const ,ThreadInfo * __ptr64> >,0> >::_Rrotate
; Function compile flags: /Ogtpy
_TEXT	ENDS
;	COMDAT ?_Rrotate@?$_Tree@V?$_Tmap_traits@_KPEAVThreadInfo@@U?$less@_K@std@@V?$allocator@U?$pair@$$CB_KPEAVThreadInfo@@@std@@@3@$0A@@std@@@std@@IEAAXPEAU_Node@?$_Tree_nod@V?$_Tmap_traits@_KPEAVThreadInfo@@U?$less@_K@std@@V?$allocator@U?$pair@$$CB_KPEAVThreadInfo@@@std@@@3@$0A@@std@@@2@@Z
_TEXT	SEGMENT
this$ = 8
_Wherenode$ = 16
?_Rrotate@?$_Tree@V?$_Tmap_traits@_KPEAVThreadInfo@@U?$less@_K@std@@V?$allocator@U?$pair@$$CB_KPEAVThreadInfo@@@std@@@3@$0A@@std@@@std@@IEAAXPEAU_Node@?$_Tree_nod@V?$_Tmap_traits@_KPEAVThreadInfo@@U?$less@_K@std@@V?$allocator@U?$pair@$$CB_KPEAVThreadInfo@@@std@@@3@$0A@@std@@@2@@Z PROC ; std::_Tree<std::_Tmap_traits<unsigned __int64,ThreadInfo * __ptr64,std::less<unsigned __int64>,std::allocator<std::pair<unsigned __int64 const ,ThreadInfo * __ptr64> >,0> >::_Rrotate, COMDAT

; 1330 : 		_Nodeptr _Pnode = _Left(_Wherenode);

	mov	r8, QWORD PTR [rdx]

; 1331 : 		_Left(_Wherenode) = _Right(_Pnode);

	mov	rax, QWORD PTR [r8+16]
	mov	QWORD PTR [rdx], rax

; 1332 : 
; 1333 : 		if (!_Isnil(_Right(_Pnode)))

	mov	rax, QWORD PTR [r8+16]
	cmp	BYTE PTR [rax+41], 0
	jne	SHORT $LN5@Rrotate@2

; 1334 : 			_Parent(_Right(_Pnode)) = _Wherenode;

	mov	QWORD PTR [rax+8], rdx
$LN5@Rrotate@2:

; 1335 : 		_Parent(_Pnode) = _Parent(_Wherenode);

	mov	rax, QWORD PTR [rdx+8]
	mov	QWORD PTR [r8+8], rax

; 1336 : 
; 1337 : 		if (_Wherenode == _Root())

	mov	rax, QWORD PTR [rcx+48]
	cmp	rdx, QWORD PTR [rax+8]
	jne	SHORT $LN4@Rrotate@2

; 1338 : 			_Root() = _Pnode;

	mov	QWORD PTR [rax+8], r8

; 1343 : 
; 1344 : 		_Right(_Pnode) = _Wherenode;

	mov	QWORD PTR [r8+16], rdx

; 1345 : 		_Parent(_Wherenode) = _Pnode;

	mov	QWORD PTR [rdx+8], r8

; 1346 : 		}

	ret	0
$LN4@Rrotate@2:

; 1339 : 		else if (_Wherenode == _Right(_Parent(_Wherenode)))

	mov	rax, QWORD PTR [rdx+8]
	cmp	rdx, QWORD PTR [rax+16]
	jne	SHORT $LN2@Rrotate@2

; 1340 : 			_Right(_Parent(_Wherenode)) = _Pnode;

	mov	QWORD PTR [rax+16], r8

; 1343 : 
; 1344 : 		_Right(_Pnode) = _Wherenode;

	mov	QWORD PTR [r8+16], rdx

; 1345 : 		_Parent(_Wherenode) = _Pnode;

	mov	QWORD PTR [rdx+8], r8

; 1346 : 		}

	ret	0
$LN2@Rrotate@2:

; 1341 : 		else
; 1342 : 			_Left(_Parent(_Wherenode)) = _Pnode;

	mov	QWORD PTR [rax], r8

; 1343 : 
; 1344 : 		_Right(_Pnode) = _Wherenode;

	mov	QWORD PTR [r8+16], rdx

; 1345 : 		_Parent(_Wherenode) = _Pnode;

	mov	QWORD PTR [rdx+8], r8

; 1346 : 		}

	ret	0
?_Rrotate@?$_Tree@V?$_Tmap_traits@_KPEAVThreadInfo@@U?$less@_K@std@@V?$allocator@U?$pair@$$CB_KPEAVThreadInfo@@@std@@@3@$0A@@std@@@std@@IEAAXPEAU_Node@?$_Tree_nod@V?$_Tmap_traits@_KPEAVThreadInfo@@U?$less@_K@std@@V?$allocator@U?$pair@$$CB_KPEAVThreadInfo@@@std@@@3@$0A@@std@@@2@@Z ENDP ; std::_Tree<std::_Tmap_traits<unsigned __int64,ThreadInfo * __ptr64,std::less<unsigned __int64>,std::allocator<std::pair<unsigned __int64 const ,ThreadInfo * __ptr64> >,0> >::_Rrotate
; Function compile flags: /Ogtpy
_TEXT	ENDS
;	COMDAT ?_Rrotate@?$_Tree@V?$_Tmap_traits@_KHU?$less@_K@std@@V?$allocator@U?$pair@$$CB_KH@std@@@2@$0A@@std@@@std@@IEAAXPEAU_Node@?$_Tree_nod@V?$_Tmap_traits@_KHU?$less@_K@std@@V?$allocator@U?$pair@$$CB_KH@std@@@2@$0A@@std@@@2@@Z
_TEXT	SEGMENT
this$ = 8
_Wherenode$ = 16
?_Rrotate@?$_Tree@V?$_Tmap_traits@_KHU?$less@_K@std@@V?$allocator@U?$pair@$$CB_KH@std@@@2@$0A@@std@@@std@@IEAAXPEAU_Node@?$_Tree_nod@V?$_Tmap_traits@_KHU?$less@_K@std@@V?$allocator@U?$pair@$$CB_KH@std@@@2@$0A@@std@@@2@@Z PROC ; std::_Tree<std::_Tmap_traits<unsigned __int64,int,std::less<unsigned __int64>,std::allocator<std::pair<unsigned __int64 const ,int> >,0> >::_Rrotate, COMDAT

; 1330 : 		_Nodeptr _Pnode = _Left(_Wherenode);

	mov	r8, QWORD PTR [rdx]

; 1331 : 		_Left(_Wherenode) = _Right(_Pnode);

	mov	rax, QWORD PTR [r8+16]
	mov	QWORD PTR [rdx], rax

; 1332 : 
; 1333 : 		if (!_Isnil(_Right(_Pnode)))

	mov	rax, QWORD PTR [r8+16]
	cmp	BYTE PTR [rax+41], 0
	jne	SHORT $LN5@Rrotate@3

; 1334 : 			_Parent(_Right(_Pnode)) = _Wherenode;

	mov	QWORD PTR [rax+8], rdx
$LN5@Rrotate@3:

; 1335 : 		_Parent(_Pnode) = _Parent(_Wherenode);

	mov	rax, QWORD PTR [rdx+8]
	mov	QWORD PTR [r8+8], rax

; 1336 : 
; 1337 : 		if (_Wherenode == _Root())

	mov	rax, QWORD PTR [rcx+48]
	cmp	rdx, QWORD PTR [rax+8]
	jne	SHORT $LN4@Rrotate@3

; 1338 : 			_Root() = _Pnode;

	mov	QWORD PTR [rax+8], r8

; 1343 : 
; 1344 : 		_Right(_Pnode) = _Wherenode;

	mov	QWORD PTR [r8+16], rdx

; 1345 : 		_Parent(_Wherenode) = _Pnode;

	mov	QWORD PTR [rdx+8], r8

; 1346 : 		}

	ret	0
$LN4@Rrotate@3:

; 1339 : 		else if (_Wherenode == _Right(_Parent(_Wherenode)))

	mov	rax, QWORD PTR [rdx+8]
	cmp	rdx, QWORD PTR [rax+16]
	jne	SHORT $LN2@Rrotate@3

; 1340 : 			_Right(_Parent(_Wherenode)) = _Pnode;

	mov	QWORD PTR [rax+16], r8

; 1343 : 
; 1344 : 		_Right(_Pnode) = _Wherenode;

	mov	QWORD PTR [r8+16], rdx

; 1345 : 		_Parent(_Wherenode) = _Pnode;

	mov	QWORD PTR [rdx+8], r8

; 1346 : 		}

	ret	0
$LN2@Rrotate@3:

; 1341 : 		else
; 1342 : 			_Left(_Parent(_Wherenode)) = _Pnode;

	mov	QWORD PTR [rax], r8

; 1343 : 
; 1344 : 		_Right(_Pnode) = _Wherenode;

	mov	QWORD PTR [r8+16], rdx

; 1345 : 		_Parent(_Wherenode) = _Pnode;

	mov	QWORD PTR [rdx+8], r8

; 1346 : 		}

	ret	0
?_Rrotate@?$_Tree@V?$_Tmap_traits@_KHU?$less@_K@std@@V?$allocator@U?$pair@$$CB_KH@std@@@2@$0A@@std@@@std@@IEAAXPEAU_Node@?$_Tree_nod@V?$_Tmap_traits@_KHU?$less@_K@std@@V?$allocator@U?$pair@$$CB_KH@std@@@2@$0A@@std@@@2@@Z ENDP ; std::_Tree<std::_Tmap_traits<unsigned __int64,int,std::less<unsigned __int64>,std::allocator<std::pair<unsigned __int64 const ,int> >,0> >::_Rrotate
_TEXT	ENDS
;	COMDAT pdata
; File c:\program files\microsoft visual studio 9.0\vc\include\xutility
pdata	SEGMENT
$pdata$??9const_iterator@?$_Tree@V?$_Tmap_traits@KPEAVThreadInfo@@U?$less@K@std@@V?$allocator@U?$pair@$$CBKPEAVThreadInfo@@@std@@@3@$0A@@std@@@std@@QEBA_NAEBV012@@Z DD imagerel $LN14
	DD	imagerel $LN14+57
	DD	imagerel $unwind$??9const_iterator@?$_Tree@V?$_Tmap_traits@KPEAVThreadInfo@@U?$less@K@std@@V?$allocator@U?$pair@$$CBKPEAVThreadInfo@@@std@@@3@$0A@@std@@@std@@QEBA_NAEBV012@@Z
pdata	ENDS
;	COMDAT xdata
xdata	SEGMENT
$unwind$??9const_iterator@?$_Tree@V?$_Tmap_traits@KPEAVThreadInfo@@U?$less@K@std@@V?$allocator@U?$pair@$$CBKPEAVThreadInfo@@@std@@@3@$0A@@std@@@std@@QEBA_NAEBV012@@Z DD 040a01H
	DD	06340aH
	DD	07006320aH
; Function compile flags: /Ogtpy
; File c:\program files\microsoft visual studio 9.0\vc\include\xtree
xdata	ENDS
;	COMDAT ??9const_iterator@?$_Tree@V?$_Tmap_traits@KPEAVThreadInfo@@U?$less@K@std@@V?$allocator@U?$pair@$$CBKPEAVThreadInfo@@@std@@@3@$0A@@std@@@std@@QEBA_NAEBV012@@Z
_TEXT	SEGMENT
this$ = 48
_Right$ = 56
??9const_iterator@?$_Tree@V?$_Tmap_traits@KPEAVThreadInfo@@U?$less@K@std@@V?$allocator@U?$pair@$$CBKPEAVThreadInfo@@@std@@@3@$0A@@std@@@std@@QEBA_NAEBV012@@Z PROC ; std::_Tree<std::_Tmap_traits<unsigned long,ThreadInfo * __ptr64,std::less<unsigned long>,std::allocator<std::pair<unsigned long const ,ThreadInfo * __ptr64> >,0> >::const_iterator::operator!=, COMDAT

; 315  : 			{	// test for iterator inequality

$LN14:
	mov	QWORD PTR [rsp+8], rbx
	push	rdi
	sub	rsp, 32					; 00000020H

; 316  : 			return (!(*this == _Right));

	mov	rax, QWORD PTR [rcx]
	mov	rbx, rdx
	mov	rdi, rcx
	test	rax, rax
	je	SHORT $LN6@operator@26
	cmp	rax, QWORD PTR [rdx]
	je	SHORT $LN5@operator@26
$LN6@operator@26:
	call	QWORD PTR __imp__invalid_parameter_noinfo
$LN5@operator@26:
	mov	rdx, QWORD PTR [rbx+8]

; 317  : 			}

	mov	rbx, QWORD PTR [rsp+48]
	cmp	QWORD PTR [rdi+8], rdx
	setne	al
	add	rsp, 32					; 00000020H
	pop	rdi
	ret	0
??9const_iterator@?$_Tree@V?$_Tmap_traits@KPEAVThreadInfo@@U?$less@K@std@@V?$allocator@U?$pair@$$CBKPEAVThreadInfo@@@std@@@3@$0A@@std@@@std@@QEBA_NAEBV012@@Z ENDP ; std::_Tree<std::_Tmap_traits<unsigned long,ThreadInfo * __ptr64,std::less<unsigned long>,std::allocator<std::pair<unsigned long const ,ThreadInfo * __ptr64> >,0> >::const_iterator::operator!=
_TEXT	ENDS
;	COMDAT pdata
pdata	SEGMENT
$pdata$??Econst_iterator@?$_Tree@V?$_Tmap_traits@KPEAVThreadInfo@@U?$less@K@std@@V?$allocator@U?$pair@$$CBKPEAVThreadInfo@@@std@@@3@$0A@@std@@@std@@QEAA?AV012@H@Z DD imagerel $LN5
	DD	imagerel $LN5+37
	DD	imagerel $unwind$??Econst_iterator@?$_Tree@V?$_Tmap_traits@KPEAVThreadInfo@@U?$less@K@std@@V?$allocator@U?$pair@$$CBKPEAVThreadInfo@@@std@@@3@$0A@@std@@@std@@QEAA?AV012@H@Z
pdata	ENDS
;	COMDAT xdata
xdata	SEGMENT
$unwind$??Econst_iterator@?$_Tree@V?$_Tmap_traits@KPEAVThreadInfo@@U?$less@K@std@@V?$allocator@U?$pair@$$CBKPEAVThreadInfo@@@std@@@3@$0A@@std@@@std@@QEAA?AV012@H@Z DD 020601H
	DD	030023206H
; Function compile flags: /Ogtpy
xdata	ENDS
;	COMDAT ??Econst_iterator@?$_Tree@V?$_Tmap_traits@KPEAVThreadInfo@@U?$less@K@std@@V?$allocator@U?$pair@$$CBKPEAVThreadInfo@@@std@@@3@$0A@@std@@@std@@QEAA?AV012@H@Z
_TEXT	SEGMENT
this$ = 48
__$ReturnUdt$ = 56
__formal$ = 64
??Econst_iterator@?$_Tree@V?$_Tmap_traits@KPEAVThreadInfo@@U?$less@K@std@@V?$allocator@U?$pair@$$CBKPEAVThreadInfo@@@std@@@3@$0A@@std@@@std@@QEAA?AV012@H@Z PROC ; std::_Tree<std::_Tmap_traits<unsigned long,ThreadInfo * __ptr64,std::less<unsigned long>,std::allocator<std::pair<unsigned long const ,ThreadInfo * __ptr64> >,0> >::const_iterator::operator++, COMDAT

; 279  : 			{	// postincrement

$LN5:
	push	rbx
	sub	rsp, 32					; 00000020H

; 280  : 			const_iterator _Tmp = *this;

	mov	rax, QWORD PTR [rcx]
	mov	rbx, rdx
	mov	QWORD PTR [rdx], rax
	mov	rax, QWORD PTR [rcx+8]
	mov	QWORD PTR [rdx+8], rax

; 281  : 			++*this;

	call	?_Inc@const_iterator@?$_Tree@V?$_Tmap_traits@KPEAVThreadInfo@@U?$less@K@std@@V?$allocator@U?$pair@$$CBKPEAVThreadInfo@@@std@@@3@$0A@@std@@@std@@QEAAXXZ ; std::_Tree<std::_Tmap_traits<unsigned long,ThreadInfo * __ptr64,std::less<unsigned long>,std::allocator<std::pair<unsigned long const ,ThreadInfo * __ptr64> >,0> >::const_iterator::_Inc

; 282  : 			return (_Tmp);

	mov	rax, rbx

; 283  : 			}

	add	rsp, 32					; 00000020H
	pop	rbx
	ret	0
??Econst_iterator@?$_Tree@V?$_Tmap_traits@KPEAVThreadInfo@@U?$less@K@std@@V?$allocator@U?$pair@$$CBKPEAVThreadInfo@@@std@@@3@$0A@@std@@@std@@QEAA?AV012@H@Z ENDP ; std::_Tree<std::_Tmap_traits<unsigned long,ThreadInfo * __ptr64,std::less<unsigned long>,std::allocator<std::pair<unsigned long const ,ThreadInfo * __ptr64> >,0> >::const_iterator::operator++
_TEXT	ENDS
;	COMDAT pdata
; File c:\program files\microsoft visual studio 9.0\vc\include\xutility
pdata	SEGMENT
$pdata$??9const_iterator@?$_Tree@V?$_Tmap_traits@_KPEAVThreadInfo@@U?$less@_K@std@@V?$allocator@U?$pair@$$CB_KPEAVThreadInfo@@@std@@@3@$0A@@std@@@std@@QEBA_NAEBV012@@Z DD imagerel $LN14
	DD	imagerel $LN14+57
	DD	imagerel $unwind$??9const_iterator@?$_Tree@V?$_Tmap_traits@_KPEAVThreadInfo@@U?$less@_K@std@@V?$allocator@U?$pair@$$CB_KPEAVThreadInfo@@@std@@@3@$0A@@std@@@std@@QEBA_NAEBV012@@Z
pdata	ENDS
;	COMDAT xdata
xdata	SEGMENT
$unwind$??9const_iterator@?$_Tree@V?$_Tmap_traits@_KPEAVThreadInfo@@U?$less@_K@std@@V?$allocator@U?$pair@$$CB_KPEAVThreadInfo@@@std@@@3@$0A@@std@@@std@@QEBA_NAEBV012@@Z DD 040a01H
	DD	06340aH
	DD	07006320aH
; Function compile flags: /Ogtpy
; File c:\program files\microsoft visual studio 9.0\vc\include\xtree
xdata	ENDS
;	COMDAT ??9const_iterator@?$_Tree@V?$_Tmap_traits@_KPEAVThreadInfo@@U?$less@_K@std@@V?$allocator@U?$pair@$$CB_KPEAVThreadInfo@@@std@@@3@$0A@@std@@@std@@QEBA_NAEBV012@@Z
_TEXT	SEGMENT
this$ = 48
_Right$ = 56
??9const_iterator@?$_Tree@V?$_Tmap_traits@_KPEAVThreadInfo@@U?$less@_K@std@@V?$allocator@U?$pair@$$CB_KPEAVThreadInfo@@@std@@@3@$0A@@std@@@std@@QEBA_NAEBV012@@Z PROC ; std::_Tree<std::_Tmap_traits<unsigned __int64,ThreadInfo * __ptr64,std::less<unsigned __int64>,std::allocator<std::pair<unsigned __int64 const ,ThreadInfo * __ptr64> >,0> >::const_iterator::operator!=, COMDAT

; 315  : 			{	// test for iterator inequality

$LN14:
	mov	QWORD PTR [rsp+8], rbx
	push	rdi
	sub	rsp, 32					; 00000020H

; 316  : 			return (!(*this == _Right));

	mov	rax, QWORD PTR [rcx]
	mov	rbx, rdx
	mov	rdi, rcx
	test	rax, rax
	je	SHORT $LN6@operator@27
	cmp	rax, QWORD PTR [rdx]
	je	SHORT $LN5@operator@27
$LN6@operator@27:
	call	QWORD PTR __imp__invalid_parameter_noinfo
$LN5@operator@27:
	mov	rdx, QWORD PTR [rbx+8]

; 317  : 			}

	mov	rbx, QWORD PTR [rsp+48]
	cmp	QWORD PTR [rdi+8], rdx
	setne	al
	add	rsp, 32					; 00000020H
	pop	rdi
	ret	0
??9const_iterator@?$_Tree@V?$_Tmap_traits@_KPEAVThreadInfo@@U?$less@_K@std@@V?$allocator@U?$pair@$$CB_KPEAVThreadInfo@@@std@@@3@$0A@@std@@@std@@QEBA_NAEBV012@@Z ENDP ; std::_Tree<std::_Tmap_traits<unsigned __int64,ThreadInfo * __ptr64,std::less<unsigned __int64>,std::allocator<std::pair<unsigned __int64 const ,ThreadInfo * __ptr64> >,0> >::const_iterator::operator!=
_TEXT	ENDS
;	COMDAT pdata
pdata	SEGMENT
$pdata$??Econst_iterator@?$_Tree@V?$_Tmap_traits@_KPEAVThreadInfo@@U?$less@_K@std@@V?$allocator@U?$pair@$$CB_KPEAVThreadInfo@@@std@@@3@$0A@@std@@@std@@QEAA?AV012@H@Z DD imagerel $LN5
	DD	imagerel $LN5+37
	DD	imagerel $unwind$??Econst_iterator@?$_Tree@V?$_Tmap_traits@_KPEAVThreadInfo@@U?$less@_K@std@@V?$allocator@U?$pair@$$CB_KPEAVThreadInfo@@@std@@@3@$0A@@std@@@std@@QEAA?AV012@H@Z
pdata	ENDS
;	COMDAT xdata
xdata	SEGMENT
$unwind$??Econst_iterator@?$_Tree@V?$_Tmap_traits@_KPEAVThreadInfo@@U?$less@_K@std@@V?$allocator@U?$pair@$$CB_KPEAVThreadInfo@@@std@@@3@$0A@@std@@@std@@QEAA?AV012@H@Z DD 020601H
	DD	030023206H
; Function compile flags: /Ogtpy
xdata	ENDS
;	COMDAT ??Econst_iterator@?$_Tree@V?$_Tmap_traits@_KPEAVThreadInfo@@U?$less@_K@std@@V?$allocator@U?$pair@$$CB_KPEAVThreadInfo@@@std@@@3@$0A@@std@@@std@@QEAA?AV012@H@Z
_TEXT	SEGMENT
this$ = 48
__$ReturnUdt$ = 56
__formal$ = 64
??Econst_iterator@?$_Tree@V?$_Tmap_traits@_KPEAVThreadInfo@@U?$less@_K@std@@V?$allocator@U?$pair@$$CB_KPEAVThreadInfo@@@std@@@3@$0A@@std@@@std@@QEAA?AV012@H@Z PROC ; std::_Tree<std::_Tmap_traits<unsigned __int64,ThreadInfo * __ptr64,std::less<unsigned __int64>,std::allocator<std::pair<unsigned __int64 const ,ThreadInfo * __ptr64> >,0> >::const_iterator::operator++, COMDAT

; 279  : 			{	// postincrement

$LN5:
	push	rbx
	sub	rsp, 32					; 00000020H

; 280  : 			const_iterator _Tmp = *this;

	mov	rax, QWORD PTR [rcx]
	mov	rbx, rdx
	mov	QWORD PTR [rdx], rax
	mov	rax, QWORD PTR [rcx+8]
	mov	QWORD PTR [rdx+8], rax

; 281  : 			++*this;

	call	?_Inc@const_iterator@?$_Tree@V?$_Tmap_traits@_KPEAVThreadInfo@@U?$less@_K@std@@V?$allocator@U?$pair@$$CB_KPEAVThreadInfo@@@std@@@3@$0A@@std@@@std@@QEAAXXZ ; std::_Tree<std::_Tmap_traits<unsigned __int64,ThreadInfo * __ptr64,std::less<unsigned __int64>,std::allocator<std::pair<unsigned __int64 const ,ThreadInfo * __ptr64> >,0> >::const_iterator::_Inc

; 282  : 			return (_Tmp);

	mov	rax, rbx

; 283  : 			}

	add	rsp, 32					; 00000020H
	pop	rbx
	ret	0
??Econst_iterator@?$_Tree@V?$_Tmap_traits@_KPEAVThreadInfo@@U?$less@_K@std@@V?$allocator@U?$pair@$$CB_KPEAVThreadInfo@@@std@@@3@$0A@@std@@@std@@QEAA?AV012@H@Z ENDP ; std::_Tree<std::_Tmap_traits<unsigned __int64,ThreadInfo * __ptr64,std::less<unsigned __int64>,std::allocator<std::pair<unsigned __int64 const ,ThreadInfo * __ptr64> >,0> >::const_iterator::operator++
_TEXT	ENDS
;	COMDAT pdata
; File c:\program files\microsoft visual studio 9.0\vc\include\xutility
pdata	SEGMENT
$pdata$??9const_iterator@?$_Tree@V?$_Tmap_traits@_KHU?$less@_K@std@@V?$allocator@U?$pair@$$CB_KH@std@@@2@$0A@@std@@@std@@QEBA_NAEBV012@@Z DD imagerel $LN14
	DD	imagerel $LN14+57
	DD	imagerel $unwind$??9const_iterator@?$_Tree@V?$_Tmap_traits@_KHU?$less@_K@std@@V?$allocator@U?$pair@$$CB_KH@std@@@2@$0A@@std@@@std@@QEBA_NAEBV012@@Z
pdata	ENDS
;	COMDAT xdata
xdata	SEGMENT
$unwind$??9const_iterator@?$_Tree@V?$_Tmap_traits@_KHU?$less@_K@std@@V?$allocator@U?$pair@$$CB_KH@std@@@2@$0A@@std@@@std@@QEBA_NAEBV012@@Z DD 040a01H
	DD	06340aH
	DD	07006320aH
; Function compile flags: /Ogtpy
; File c:\program files\microsoft visual studio 9.0\vc\include\xtree
xdata	ENDS
;	COMDAT ??9const_iterator@?$_Tree@V?$_Tmap_traits@_KHU?$less@_K@std@@V?$allocator@U?$pair@$$CB_KH@std@@@2@$0A@@std@@@std@@QEBA_NAEBV012@@Z
_TEXT	SEGMENT
this$ = 48
_Right$ = 56
??9const_iterator@?$_Tree@V?$_Tmap_traits@_KHU?$less@_K@std@@V?$allocator@U?$pair@$$CB_KH@std@@@2@$0A@@std@@@std@@QEBA_NAEBV012@@Z PROC ; std::_Tree<std::_Tmap_traits<unsigned __int64,int,std::less<unsigned __int64>,std::allocator<std::pair<unsigned __int64 const ,int> >,0> >::const_iterator::operator!=, COMDAT

; 315  : 			{	// test for iterator inequality

$LN14:
	mov	QWORD PTR [rsp+8], rbx
	push	rdi
	sub	rsp, 32					; 00000020H

; 316  : 			return (!(*this == _Right));

	mov	rax, QWORD PTR [rcx]
	mov	rbx, rdx
	mov	rdi, rcx
	test	rax, rax
	je	SHORT $LN6@operator@28
	cmp	rax, QWORD PTR [rdx]
	je	SHORT $LN5@operator@28
$LN6@operator@28:
	call	QWORD PTR __imp__invalid_parameter_noinfo
$LN5@operator@28:
	mov	rdx, QWORD PTR [rbx+8]

; 317  : 			}

	mov	rbx, QWORD PTR [rsp+48]
	cmp	QWORD PTR [rdi+8], rdx
	setne	al
	add	rsp, 32					; 00000020H
	pop	rdi
	ret	0
??9const_iterator@?$_Tree@V?$_Tmap_traits@_KHU?$less@_K@std@@V?$allocator@U?$pair@$$CB_KH@std@@@2@$0A@@std@@@std@@QEBA_NAEBV012@@Z ENDP ; std::_Tree<std::_Tmap_traits<unsigned __int64,int,std::less<unsigned __int64>,std::allocator<std::pair<unsigned __int64 const ,int> >,0> >::const_iterator::operator!=
_TEXT	ENDS
;	COMDAT pdata
pdata	SEGMENT
$pdata$??Econst_iterator@?$_Tree@V?$_Tmap_traits@_KHU?$less@_K@std@@V?$allocator@U?$pair@$$CB_KH@std@@@2@$0A@@std@@@std@@QEAA?AV012@H@Z DD imagerel $LN5
	DD	imagerel $LN5+37
	DD	imagerel $unwind$??Econst_iterator@?$_Tree@V?$_Tmap_traits@_KHU?$less@_K@std@@V?$allocator@U?$pair@$$CB_KH@std@@@2@$0A@@std@@@std@@QEAA?AV012@H@Z
pdata	ENDS
;	COMDAT xdata
xdata	SEGMENT
$unwind$??Econst_iterator@?$_Tree@V?$_Tmap_traits@_KHU?$less@_K@std@@V?$allocator@U?$pair@$$CB_KH@std@@@2@$0A@@std@@@std@@QEAA?AV012@H@Z DD 020601H
	DD	030023206H
; Function compile flags: /Ogtpy
xdata	ENDS
;	COMDAT ??Econst_iterator@?$_Tree@V?$_Tmap_traits@_KHU?$less@_K@std@@V?$allocator@U?$pair@$$CB_KH@std@@@2@$0A@@std@@@std@@QEAA?AV012@H@Z
_TEXT	SEGMENT
this$ = 48
__$ReturnUdt$ = 56
__formal$ = 64
??Econst_iterator@?$_Tree@V?$_Tmap_traits@_KHU?$less@_K@std@@V?$allocator@U?$pair@$$CB_KH@std@@@2@$0A@@std@@@std@@QEAA?AV012@H@Z PROC ; std::_Tree<std::_Tmap_traits<unsigned __int64,int,std::less<unsigned __int64>,std::allocator<std::pair<unsigned __int64 const ,int> >,0> >::const_iterator::operator++, COMDAT

; 279  : 			{	// postincrement

$LN5:
	push	rbx
	sub	rsp, 32					; 00000020H

; 280  : 			const_iterator _Tmp = *this;

	mov	rax, QWORD PTR [rcx]
	mov	rbx, rdx
	mov	QWORD PTR [rdx], rax
	mov	rax, QWORD PTR [rcx+8]
	mov	QWORD PTR [rdx+8], rax

; 281  : 			++*this;

	call	?_Inc@const_iterator@?$_Tree@V?$_Tmap_traits@_KHU?$less@_K@std@@V?$allocator@U?$pair@$$CB_KH@std@@@2@$0A@@std@@@std@@QEAAXXZ ; std::_Tree<std::_Tmap_traits<unsigned __int64,int,std::less<unsigned __int64>,std::allocator<std::pair<unsigned __int64 const ,int> >,0> >::const_iterator::_Inc

; 282  : 			return (_Tmp);

	mov	rax, rbx

; 283  : 			}

	add	rsp, 32					; 00000020H
	pop	rbx
	ret	0
??Econst_iterator@?$_Tree@V?$_Tmap_traits@_KHU?$less@_K@std@@V?$allocator@U?$pair@$$CB_KH@std@@@2@$0A@@std@@@std@@QEAA?AV012@H@Z ENDP ; std::_Tree<std::_Tmap_traits<unsigned __int64,int,std::less<unsigned __int64>,std::allocator<std::pair<unsigned __int64 const ,int> >,0> >::const_iterator::operator++
_TEXT	ENDS
PUBLIC	$T165140
;	COMDAT pdata
; File c:\program files\microsoft visual studio 9.0\vc\include\xutility
pdata	SEGMENT
$pdata$?erase@?$_Tree@V?$_Tmap_traits@KPEAVThreadInfo@@U?$less@K@std@@V?$allocator@U?$pair@$$CBKPEAVThreadInfo@@@std@@@3@$0A@@std@@@std@@QEAA?AViterator@12@Vconst_iterator@12@@Z DD imagerel $LN376
	DD	imagerel $LN376+1012
	DD	imagerel $unwind$?erase@?$_Tree@V?$_Tmap_traits@KPEAVThreadInfo@@U?$less@K@std@@V?$allocator@U?$pair@$$CBKPEAVThreadInfo@@@std@@@3@$0A@@std@@@std@@QEAA?AViterator@12@Vconst_iterator@12@@Z
pdata	ENDS
;	COMDAT pdata
pdata	SEGMENT
$pdata$?dtor$0@?0??erase@?$_Tree@V?$_Tmap_traits@KPEAVThreadInfo@@U?$less@K@std@@V?$allocator@U?$pair@$$CBKPEAVThreadInfo@@@std@@@3@$0A@@std@@@std@@QEAA?AViterator@12@Vconst_iterator@12@@Z@4HA DD imagerel ?dtor$0@?0??erase@?$_Tree@V?$_Tmap_traits@KPEAVThreadInfo@@U?$less@K@std@@V?$allocator@U?$pair@$$CBKPEAVThreadInfo@@@std@@@3@$0A@@std@@@std@@QEAA?AViterator@12@Vconst_iterator@12@@Z@4HA
	DD	imagerel ?dtor$0@?0??erase@?$_Tree@V?$_Tmap_traits@KPEAVThreadInfo@@U?$less@K@std@@V?$allocator@U?$pair@$$CBKPEAVThreadInfo@@@std@@@3@$0A@@std@@@std@@QEAA?AViterator@12@Vconst_iterator@12@@Z@4HA+25
	DD	imagerel $unwind$?dtor$0@?0??erase@?$_Tree@V?$_Tmap_traits@KPEAVThreadInfo@@U?$less@K@std@@V?$allocator@U?$pair@$$CBKPEAVThreadInfo@@@std@@@3@$0A@@std@@@std@@QEAA?AViterator@12@Vconst_iterator@12@@Z@4HA
pdata	ENDS
;	COMDAT pdata
pdata	SEGMENT
$pdata$?dtor$2@?0??erase@?$_Tree@V?$_Tmap_traits@KPEAVThreadInfo@@U?$less@K@std@@V?$allocator@U?$pair@$$CBKPEAVThreadInfo@@@std@@@3@$0A@@std@@@std@@QEAA?AViterator@12@Vconst_iterator@12@@Z@4HA DD imagerel ?dtor$2@?0??erase@?$_Tree@V?$_Tmap_traits@KPEAVThreadInfo@@U?$less@K@std@@V?$allocator@U?$pair@$$CBKPEAVThreadInfo@@@std@@@3@$0A@@std@@@std@@QEAA?AViterator@12@Vconst_iterator@12@@Z@4HA
	DD	imagerel ?dtor$2@?0??erase@?$_Tree@V?$_Tmap_traits@KPEAVThreadInfo@@U?$less@K@std@@V?$allocator@U?$pair@$$CBKPEAVThreadInfo@@@std@@@3@$0A@@std@@@std@@QEAA?AViterator@12@Vconst_iterator@12@@Z@4HA+25
	DD	imagerel $unwind$?dtor$2@?0??erase@?$_Tree@V?$_Tmap_traits@KPEAVThreadInfo@@U?$less@K@std@@V?$allocator@U?$pair@$$CBKPEAVThreadInfo@@@std@@@3@$0A@@std@@@std@@QEAA?AViterator@12@Vconst_iterator@12@@Z@4HA
pdata	ENDS
;	COMDAT xdata
xdata	SEGMENT
$ip2state$?erase@?$_Tree@V?$_Tmap_traits@KPEAVThreadInfo@@U?$less@K@std@@V?$allocator@U?$pair@$$CBKPEAVThreadInfo@@@std@@@3@$0A@@std@@@std@@QEAA?AViterator@12@Vconst_iterator@12@@Z DD imagerel ?erase@?$_Tree@V?$_Tmap_traits@KPEAVThreadInfo@@U?$less@K@std@@V?$allocator@U?$pair@$$CBKPEAVThreadInfo@@@std@@@3@$0A@@std@@@std@@QEAA?AViterator@12@Vconst_iterator@12@@Z
	DD	0ffffffffH
	DD	imagerel ?erase@?$_Tree@V?$_Tmap_traits@KPEAVThreadInfo@@U?$less@K@std@@V?$allocator@U?$pair@$$CBKPEAVThreadInfo@@@std@@@3@$0A@@std@@@std@@QEAA?AViterator@12@Vconst_iterator@12@@Z+73
	DD	00H
	DD	imagerel ?erase@?$_Tree@V?$_Tmap_traits@KPEAVThreadInfo@@U?$less@K@std@@V?$allocator@U?$pair@$$CBKPEAVThreadInfo@@@std@@@3@$0A@@std@@@std@@QEAA?AViterator@12@Vconst_iterator@12@@Z+85
	DD	01H
	DD	imagerel ?erase@?$_Tree@V?$_Tmap_traits@KPEAVThreadInfo@@U?$less@K@std@@V?$allocator@U?$pair@$$CBKPEAVThreadInfo@@@std@@@3@$0A@@std@@@std@@QEAA?AViterator@12@Vconst_iterator@12@@Z+114
	DD	00H
	DD	imagerel ?erase@?$_Tree@V?$_Tmap_traits@KPEAVThreadInfo@@U?$less@K@std@@V?$allocator@U?$pair@$$CBKPEAVThreadInfo@@@std@@@3@$0A@@std@@@std@@QEAA?AViterator@12@Vconst_iterator@12@@Z+144
	DD	0ffffffffH
xdata	ENDS
;	COMDAT xdata
xdata	SEGMENT
$unwind$?dtor$2@?0??erase@?$_Tree@V?$_Tmap_traits@KPEAVThreadInfo@@U?$less@K@std@@V?$allocator@U?$pair@$$CBKPEAVThreadInfo@@@std@@@3@$0A@@std@@@std@@QEAA?AViterator@12@Vconst_iterator@12@@Z@4HA DD 020601H
	DD	050023206H
xdata	ENDS
;	COMDAT xdata
xdata	SEGMENT
$unwind$?dtor$0@?0??erase@?$_Tree@V?$_Tmap_traits@KPEAVThreadInfo@@U?$less@K@std@@V?$allocator@U?$pair@$$CBKPEAVThreadInfo@@@std@@@3@$0A@@std@@@std@@QEAA?AViterator@12@Vconst_iterator@12@@Z@4HA DD 020601H
	DD	050023206H
xdata	ENDS
;	COMDAT xdata
xdata	SEGMENT
$unwind$?erase@?$_Tree@V?$_Tmap_traits@KPEAVThreadInfo@@U?$less@K@std@@V?$allocator@U?$pair@$$CBKPEAVThreadInfo@@@std@@@3@$0A@@std@@@std@@QEAA?AViterator@12@Vconst_iterator@12@@Z DD 0b2411H
	DD	01a6424H
	DD	0195420H
	DD	018341cH
	DD	014010fH
	DD	0c006d008H
	DD	07004H
	DD	imagerel __CxxFrameHandler3
	DD	imagerel $cppxdata$?erase@?$_Tree@V?$_Tmap_traits@KPEAVThreadInfo@@U?$less@K@std@@V?$allocator@U?$pair@$$CBKPEAVThreadInfo@@@std@@@3@$0A@@std@@@std@@QEAA?AViterator@12@Vconst_iterator@12@@Z
xdata	ENDS
;	COMDAT CONST
CONST	SEGMENT
$cppxdata$?erase@?$_Tree@V?$_Tmap_traits@KPEAVThreadInfo@@U?$less@K@std@@V?$allocator@U?$pair@$$CBKPEAVThreadInfo@@@std@@@3@$0A@@std@@@std@@QEAA?AViterator@12@Vconst_iterator@12@@Z DD 019930522H
	DD	02H
	DD	imagerel $stateUnwindMap$?erase@?$_Tree@V?$_Tmap_traits@KPEAVThreadInfo@@U?$less@K@std@@V?$allocator@U?$pair@$$CBKPEAVThreadInfo@@@std@@@3@$0A@@std@@@std@@QEAA?AViterator@12@Vconst_iterator@12@@Z
	DD	00H
	DD	00H
	DD	05H
	DD	imagerel $ip2state$?erase@?$_Tree@V?$_Tmap_traits@KPEAVThreadInfo@@U?$less@K@std@@V?$allocator@U?$pair@$$CBKPEAVThreadInfo@@@std@@@3@$0A@@std@@@std@@QEAA?AViterator@12@Vconst_iterator@12@@Z
	DD	030H
	DD	00H
	DD	01H
CONST	ENDS
;	COMDAT xdata
xdata	SEGMENT
$stateUnwindMap$?erase@?$_Tree@V?$_Tmap_traits@KPEAVThreadInfo@@U?$less@K@std@@V?$allocator@U?$pair@$$CBKPEAVThreadInfo@@@std@@@3@$0A@@std@@@std@@QEAA?AViterator@12@Vconst_iterator@12@@Z DD 0ffffffffH
	DD	imagerel ?dtor$0@?0??erase@?$_Tree@V?$_Tmap_traits@KPEAVThreadInfo@@U?$less@K@std@@V?$allocator@U?$pair@$$CBKPEAVThreadInfo@@@std@@@3@$0A@@std@@@std@@QEAA?AViterator@12@Vconst_iterator@12@@Z@4HA
	DD	00H
	DD	imagerel ?dtor$2@?0??erase@?$_Tree@V?$_Tmap_traits@KPEAVThreadInfo@@U?$less@K@std@@V?$allocator@U?$pair@$$CBKPEAVThreadInfo@@@std@@@3@$0A@@std@@@std@@QEAA?AViterator@12@Vconst_iterator@12@@Z@4HA
; Function compile flags: /Ogtpy
; File c:\program files\microsoft visual studio 9.0\vc\include\xtree
xdata	ENDS
;	COMDAT ?erase@?$_Tree@V?$_Tmap_traits@KPEAVThreadInfo@@U?$less@K@std@@V?$allocator@U?$pair@$$CBKPEAVThreadInfo@@@std@@@3@$0A@@std@@@std@@QEAA?AViterator@12@Vconst_iterator@12@@Z
_TEXT	SEGMENT
$T165738 = 32
$T165140 = 32
$T165781 = 48
$T165134 = 56
$T165135 = 120
this$ = 192
__$ReturnUdt$ = 200
_Where$ = 208
?erase@?$_Tree@V?$_Tmap_traits@KPEAVThreadInfo@@U?$less@K@std@@V?$allocator@U?$pair@$$CBKPEAVThreadInfo@@@std@@@3@$0A@@std@@@std@@QEAA?AViterator@12@Vconst_iterator@12@@Z PROC ; std::_Tree<std::_Tmap_traits<unsigned long,ThreadInfo * __ptr64,std::less<unsigned long>,std::allocator<std::pair<unsigned long const ,ThreadInfo * __ptr64> >,0> >::erase, COMDAT

; 764  : 		{	// erase element at _Where

$LN376:
	mov	rax, rsp
	push	rdi
	push	r12
	push	r13
	sub	rsp, 160				; 000000a0H
	mov	QWORD PTR $T165781[rsp], -2
	mov	QWORD PTR [rax+8], rbx
	mov	QWORD PTR [rax+16], rbp
	mov	QWORD PTR [rax+24], rsi
	mov	r12, r8
	mov	r13, rdx
	mov	rbp, rcx

; 765  : 
; 766  :  #if _HAS_ITERATOR_DEBUGGING
; 767  : 		if (_Where._Mycont != this || _Isnil(_Where._Mynode()))
; 768  : 			_DEBUG_ERROR("map/set erase iterator outside range");
; 769  : 		_Nodeptr _Erasednode = _Where._Mynode();	// node to erase
; 770  : 		++_Where;	// save successor iterator for return
; 771  : 		_Orphan_ptr(*this, _Erasednode);
; 772  : 
; 773  :  #else /* _HAS_ITERATOR_DEBUGGING */
; 774  : 		if (_Isnil(_Where._Mynode()))

	mov	rsi, QWORD PTR [r8+8]
	cmp	BYTE PTR [rsi+41], 0
	je	SHORT $LN40@erase

; 775  : 			_THROW(out_of_range, "invalid map/set<T> iterator");

	lea	rdx, OFFSET FLAT:??_C@_0BM@PAPJHAGI@invalid?5map?1set?$DMT?$DO?5iterator?$AA@
	lea	rcx, QWORD PTR [rax-64]
	call	QWORD PTR __imp_??0?$basic_string@DU?$char_traits@D@std@@V?$allocator@D@2@@std@@QEAA@PEBD@Z
	npad	1
	lea	rcx, QWORD PTR $T165134[rsp]
	call	QWORD PTR __imp_??0exception@std@@QEAA@XZ
	npad	1
	lea	rax, OFFSET FLAT:??_7logic_error@std@@6B@
	mov	QWORD PTR $T165134[rsp], rax
	lea	rdx, QWORD PTR $T165135[rsp]
	lea	rcx, QWORD PTR $T165134[rsp+24]
	call	QWORD PTR __imp_??0?$basic_string@DU?$char_traits@D@std@@V?$allocator@D@2@@std@@QEAA@AEBV01@@Z
	npad	1
	lea	rax, OFFSET FLAT:??_7out_of_range@std@@6B@
	mov	QWORD PTR $T165134[rsp], rax
	lea	rdx, OFFSET FLAT:_TI3?AVout_of_range@std@@
	lea	rcx, QWORD PTR $T165134[rsp]
	call	_CxxThrowException
	npad	1
$LN40@erase:

; 776  : 		_Nodeptr _Erasednode = _Where._Mynode();	// node to erase
; 777  : 		++_Where;	// save successor iterator for return

	mov	rcx, r8
	call	?_Inc@const_iterator@?$_Tree@V?$_Tmap_traits@KPEAVThreadInfo@@U?$less@K@std@@V?$allocator@U?$pair@$$CBKPEAVThreadInfo@@@std@@@3@$0A@@std@@@std@@QEAAXXZ ; std::_Tree<std::_Tmap_traits<unsigned long,ThreadInfo * __ptr64,std::less<unsigned long>,std::allocator<std::pair<unsigned long const ,ThreadInfo * __ptr64> >,0> >::const_iterator::_Inc

; 778  :  #endif /* _HAS_ITERATOR_DEBUGGING */
; 779  : 
; 780  : 		_Nodeptr _Fixnode;	// the node to recolor as needed
; 781  : 		_Nodeptr _Fixnodeparent;	// parent of _Fixnode (which may be nil)
; 782  : 		_Nodeptr _Pnode = _Erasednode;
; 783  : 
; 784  : 		if (_Isnil(_Left(_Pnode)))

	mov	r11, QWORD PTR [rsi]
	cmp	BYTE PTR [r11+41], 0
	je	SHORT $LN39@erase

; 785  : 			_Fixnode = _Right(_Pnode);	// must stitch up right subtree

	mov	rdi, QWORD PTR [rsi+16]
	jmp	SHORT $LN373@erase
$LN39@erase:

; 786  : 		else if (_Isnil(_Right(_Pnode)))

	mov	rax, QWORD PTR [rsi+16]
	cmp	BYTE PTR [rax+41], 0
	je	SHORT $LN37@erase

; 787  : 			_Fixnode = _Left(_Pnode);	// must stitch up left subtree

	mov	rdi, r11

; 788  : 		else

	jmp	SHORT $LN373@erase
$LN37@erase:

; 789  : 			{	// two subtrees, must lift successor node to replace erased
; 790  : 			_Pnode = _Where._Mynode();	// _Pnode is successor node

	mov	rcx, QWORD PTR [r12+8]

; 791  : 			_Fixnode = _Right(_Pnode);	// _Fixnode is its only subtree

	mov	rdi, QWORD PTR [rcx+16]

; 792  : 			}
; 793  : 
; 794  : 		if (_Pnode == _Erasednode)

	cmp	rcx, rsi
	jne	$LN35@erase
$LN373@erase:

; 795  : 			{	// at most one subtree, relink it
; 796  : 			_Fixnodeparent = _Parent(_Erasednode);

	mov	rbx, QWORD PTR [rsi+8]

; 797  : 			if (!_Isnil(_Fixnode))

	cmp	BYTE PTR [rdi+41], 0
	jne	SHORT $LN34@erase

; 798  : 				_Parent(_Fixnode) = _Fixnodeparent;	// link up

	mov	QWORD PTR [rdi+8], rbx
$LN34@erase:

; 799  : 
; 800  : 			if (_Root() == _Erasednode)

	mov	rax, QWORD PTR [rbp+48]
	cmp	QWORD PTR [rax+8], rsi
	jne	SHORT $LN33@erase

; 801  : 				_Root() = _Fixnode;	// link down from root

	mov	QWORD PTR [rax+8], rdi
	jmp	SHORT $LN30@erase
$LN33@erase:

; 802  : 			else if (_Left(_Fixnodeparent) == _Erasednode)

	cmp	QWORD PTR [rbx], rsi
	jne	SHORT $LN31@erase

; 803  : 				_Left(_Fixnodeparent) = _Fixnode;	// link down to left

	mov	QWORD PTR [rbx], rdi

; 804  : 			else

	jmp	SHORT $LN30@erase
$LN31@erase:

; 805  : 				_Right(_Fixnodeparent) = _Fixnode;	// link down to right

	mov	QWORD PTR [rbx+16], rdi
$LN30@erase:

; 806  : 
; 807  : 			if (_Lmost() == _Erasednode)

	mov	rdx, QWORD PTR [rbp+48]
	cmp	QWORD PTR [rdx], rsi
	jne	SHORT $LN29@erase

; 808  : 				_Lmost() = _Isnil(_Fixnode)
; 809  : 					? _Fixnodeparent	// smallest is parent of erased node
; 810  : 					: _Min(_Fixnode);	// smallest in relinked subtree

	cmp	BYTE PTR [rdi+41], 0
	je	SHORT $LN43@erase
	mov	rcx, rbx
	jmp	SHORT $LN44@erase
$LN43@erase:
	mov	rcx, rdi
	mov	rax, QWORD PTR [rdi]
	cmp	BYTE PTR [rax+41], 0
	jne	SHORT $LN44@erase
	npad	11
$LL106@erase:
	mov	rcx, rax
	mov	rax, QWORD PTR [rax]
	cmp	BYTE PTR [rax+41], 0
	je	SHORT $LL106@erase
$LN44@erase:
	mov	QWORD PTR [rdx], rcx
$LN29@erase:

; 811  : 
; 812  : 			if (_Rmost() == _Erasednode)

	mov	rdx, QWORD PTR [rbp+48]
	cmp	QWORD PTR [rdx+16], rsi
	jne	$LN193@erase

; 813  : 				_Rmost() = _Isnil(_Fixnode)
; 814  : 					? _Fixnodeparent	// largest is parent of erased node
; 815  : 					: _Max(_Fixnode);	// largest in relinked subtree

	cmp	BYTE PTR [rdi+41], 0
	je	SHORT $LN45@erase
	mov	rcx, rbx
	jmp	SHORT $LN46@erase
$LN45@erase:
	mov	rcx, rdi
	mov	rax, QWORD PTR [rdi+16]
	cmp	BYTE PTR [rax+41], 0
	jne	SHORT $LN46@erase
	npad	11
$LL126@erase:
	mov	rcx, rax
	mov	rax, QWORD PTR [rax+16]
	cmp	BYTE PTR [rax+41], 0
	je	SHORT $LL126@erase
$LN46@erase:
	mov	QWORD PTR [rdx+16], rcx

; 816  : 			}
; 817  : 		else

	jmp	SHORT $LN193@erase
$LN35@erase:

; 818  : 			{	// erased has two subtrees, _Pnode is successor to erased
; 819  : 			_Parent(_Left(_Erasednode)) = _Pnode;	// link left up

	mov	QWORD PTR [r11+8], rcx

; 820  : 			_Left(_Pnode) = _Left(_Erasednode);	// link successor down

	mov	rax, QWORD PTR [rsi]
	mov	QWORD PTR [rcx], rax

; 821  : 
; 822  : 			if (_Pnode == _Right(_Erasednode))

	cmp	rcx, QWORD PTR [rsi+16]
	jne	SHORT $LN26@erase

; 823  : 				_Fixnodeparent = _Pnode;	// successor is next to erased

	mov	rbx, rcx

; 824  : 			else

	jmp	SHORT $LN25@erase
$LN26@erase:

; 825  : 				{	// successor further down, link in place of erased
; 826  : 				_Fixnodeparent = _Parent(_Pnode);	// parent is successor's

	mov	rbx, QWORD PTR [rcx+8]

; 827  : 				if (!_Isnil(_Fixnode))

	cmp	BYTE PTR [rdi+41], 0
	jne	SHORT $LN24@erase

; 828  : 					_Parent(_Fixnode) = _Fixnodeparent;	// link fix up

	mov	QWORD PTR [rdi+8], rbx
$LN24@erase:

; 829  : 				_Left(_Fixnodeparent) = _Fixnode;	// link fix down

	mov	QWORD PTR [rbx], rdi

; 830  : 				_Right(_Pnode) = _Right(_Erasednode);	// link successor down

	mov	rax, QWORD PTR [rsi+16]
	mov	QWORD PTR [rcx+16], rax

; 831  : 				_Parent(_Right(_Erasednode)) = _Pnode;	// link right up

	mov	rax, QWORD PTR [rsi+16]
	mov	QWORD PTR [rax+8], rcx
$LN25@erase:

; 832  : 				}
; 833  : 
; 834  : 			if (_Root() == _Erasednode)

	mov	rax, QWORD PTR [rbp+48]
	cmp	QWORD PTR [rax+8], rsi
	jne	SHORT $LN23@erase

; 835  : 				_Root() = _Pnode;	// link down from root

	mov	QWORD PTR [rax+8], rcx
	jmp	SHORT $LN20@erase
$LN23@erase:

; 836  : 			else if (_Left(_Parent(_Erasednode)) == _Erasednode)

	mov	rax, QWORD PTR [rsi+8]
	cmp	QWORD PTR [rax], rsi
	jne	SHORT $LN21@erase

; 837  : 				_Left(_Parent(_Erasednode)) = _Pnode;	// link down to left

	mov	QWORD PTR [rax], rcx

; 838  : 			else

	jmp	SHORT $LN20@erase
$LN21@erase:

; 839  : 				_Right(_Parent(_Erasednode)) = _Pnode;	// link down to right

	mov	QWORD PTR [rax+16], rcx
$LN20@erase:

; 840  : 
; 841  : 			_Parent(_Pnode) = _Parent(_Erasednode);	// link successor up

	mov	rax, QWORD PTR [rsi+8]
	mov	QWORD PTR [rcx+8], rax

; 842  : 			_STD swap(_Color(_Pnode), _Color(_Erasednode));	// recolor it

	lea	rdx, QWORD PTR [rsi+40]
	lea	r8, QWORD PTR [rcx+40]
	cmp	r8, rdx
	je	SHORT $LN193@erase
	movzx	ecx, BYTE PTR [r8]
	movzx	eax, BYTE PTR [rdx]
	mov	BYTE PTR [r8], al
	mov	BYTE PTR [rdx], cl
$LN193@erase:

; 843  : 			}
; 844  : 
; 845  : 		if (_Color(_Erasednode) == _Black)

	cmp	BYTE PTR [rsi+40], 1
	jne	$LN19@erase

; 846  : 			{	// erasing black link, must recolor/rebalance tree
; 847  : 			for (; _Fixnode != _Root() && _Color(_Fixnode) == _Black;
; 848  : 				_Fixnodeparent = _Parent(_Fixnode))

	mov	rax, QWORD PTR [rbp+48]
	cmp	rdi, QWORD PTR [rax+8]
	je	$LN16@erase
$LL18@erase:
	cmp	BYTE PTR [rdi+40], 1
	jne	$LN16@erase

; 849  : 				if (_Fixnode == _Left(_Fixnodeparent))

	mov	rcx, QWORD PTR [rbx]
	cmp	rdi, rcx
	jne	$LN15@erase

; 850  : 					{	// fixup left subtree
; 851  : 					_Pnode = _Right(_Fixnodeparent);

	mov	rcx, QWORD PTR [rbx+16]

; 852  : 					if (_Color(_Pnode) == _Red)

	cmp	BYTE PTR [rcx+40], 0
	jne	SHORT $LN14@erase

; 853  : 						{	// rotate red up from right subtree
; 854  : 						_Color(_Pnode) = _Black;

	mov	BYTE PTR [rcx+40], 1

; 855  : 						_Color(_Fixnodeparent) = _Red;

	mov	BYTE PTR [rbx+40], 0

; 856  : 						_Lrotate(_Fixnodeparent);

	mov	rcx, QWORD PTR [rbx+16]
	mov	rax, QWORD PTR [rcx]
	mov	QWORD PTR [rbx+16], rax
	mov	rax, QWORD PTR [rcx]
	cmp	BYTE PTR [rax+41], 0
	jne	SHORT $LN220@erase
	mov	QWORD PTR [rax+8], rbx
$LN220@erase:
	mov	rax, QWORD PTR [rbx+8]
	mov	QWORD PTR [rcx+8], rax
	mov	rax, QWORD PTR [rbp+48]
	cmp	rbx, QWORD PTR [rax+8]
	jne	SHORT $LN219@erase
	mov	QWORD PTR [rax+8], rcx
	jmp	SHORT $LN216@erase
$LN219@erase:
	mov	rax, QWORD PTR [rbx+8]
	cmp	rbx, QWORD PTR [rax]
	jne	SHORT $LN217@erase
	mov	QWORD PTR [rax], rcx
	jmp	SHORT $LN216@erase
$LN217@erase:
	mov	QWORD PTR [rax+16], rcx
$LN216@erase:
	mov	QWORD PTR [rcx], rbx
	mov	QWORD PTR [rbx+8], rcx

; 857  : 						_Pnode = _Right(_Fixnodeparent);

	mov	rcx, QWORD PTR [rbx+16]
$LN14@erase:

; 858  : 						}
; 859  : 
; 860  : 					if (_Isnil(_Pnode))

	cmp	BYTE PTR [rcx+41], 0
	je	SHORT $LN13@erase

; 861  : 						_Fixnode = _Fixnodeparent;	// shouldn't happen

	mov	rdi, rbx

; 862  : 					else if (_Color(_Left(_Pnode)) == _Black

	jmp	SHORT $LN17@erase
$LN13@erase:

; 863  : 						&& _Color(_Right(_Pnode)) == _Black)

	mov	rax, QWORD PTR [rcx]
	cmp	BYTE PTR [rax+40], 1
	jne	SHORT $LN11@erase
	mov	rax, QWORD PTR [rcx+16]
	cmp	BYTE PTR [rax+40], 1
	jne	SHORT $LN11@erase

; 864  : 						{	// redden right subtree with black children
; 865  : 						_Color(_Pnode) = _Red;

	mov	BYTE PTR [rcx+40], 0

; 866  : 						_Fixnode = _Fixnodeparent;

	mov	rdi, rbx

; 883  : 						}
; 884  : 					}
; 885  : 				else

	jmp	SHORT $LN17@erase
$LN15@erase:

; 886  : 					{	// fixup right subtree
; 887  : 					_Pnode = _Left(_Fixnodeparent);
; 888  : 					if (_Color(_Pnode) == _Red)

	cmp	BYTE PTR [rcx+40], 0
	jne	SHORT $LN7@erase

; 889  : 						{	// rotate red up from left subtree
; 890  : 						_Color(_Pnode) = _Black;

	mov	BYTE PTR [rcx+40], 1

; 891  : 						_Color(_Fixnodeparent) = _Red;

	mov	BYTE PTR [rbx+40], 0

; 892  : 						_Rrotate(_Fixnodeparent);

	mov	rdx, rbx
	mov	rcx, rbp
	call	?_Rrotate@?$_Tree@V?$_Tmap_traits@KPEAVThreadInfo@@U?$less@K@std@@V?$allocator@U?$pair@$$CBKPEAVThreadInfo@@@std@@@3@$0A@@std@@@std@@IEAAXPEAU_Node@?$_Tree_nod@V?$_Tmap_traits@KPEAVThreadInfo@@U?$less@K@std@@V?$allocator@U?$pair@$$CBKPEAVThreadInfo@@@std@@@3@$0A@@std@@@2@@Z ; std::_Tree<std::_Tmap_traits<unsigned long,ThreadInfo * __ptr64,std::less<unsigned long>,std::allocator<std::pair<unsigned long const ,ThreadInfo * __ptr64> >,0> >::_Rrotate

; 893  : 						_Pnode = _Left(_Fixnodeparent);

	mov	rcx, QWORD PTR [rbx]
$LN7@erase:

; 894  : 						}
; 895  : 					if (_Isnil(_Pnode))

	cmp	BYTE PTR [rcx+41], 0
	je	SHORT $LN6@erase

; 896  : 						_Fixnode = _Fixnodeparent;	// shouldn't happen

	mov	rdi, rbx

; 897  : 					else if (_Color(_Right(_Pnode)) == _Black

	jmp	SHORT $LN17@erase
$LN6@erase:

; 898  : 						&& _Color(_Left(_Pnode)) == _Black)

	mov	rax, QWORD PTR [rcx+16]
	cmp	BYTE PTR [rax+40], 1
	jne	SHORT $LN4@erase
	mov	rax, QWORD PTR [rcx]
	cmp	BYTE PTR [rax+40], 1
	jne	SHORT $LN4@erase

; 899  : 						{	// redden left subtree with black children
; 900  : 						_Color(_Pnode) = _Red;

	mov	BYTE PTR [rcx+40], 0

; 901  : 						_Fixnode = _Fixnodeparent;

	mov	rdi, rbx
$LN17@erase:

; 846  : 			{	// erasing black link, must recolor/rebalance tree
; 847  : 			for (; _Fixnode != _Root() && _Color(_Fixnode) == _Black;
; 848  : 				_Fixnodeparent = _Parent(_Fixnode))

	mov	rbx, QWORD PTR [rbx+8]
	mov	rax, QWORD PTR [rbp+48]
	cmp	rdi, QWORD PTR [rax+8]
	je	$LN16@erase
	jmp	$LL18@erase
$LN11@erase:

; 867  : 						}
; 868  : 					else
; 869  : 						{	// must rearrange right subtree
; 870  : 						if (_Color(_Right(_Pnode)) == _Black)

	mov	rax, QWORD PTR [rcx+16]
	cmp	BYTE PTR [rax+40], 1
	jne	SHORT $LN9@erase

; 871  : 							{	// rotate red up from left sub-subtree
; 872  : 							_Color(_Left(_Pnode)) = _Black;

	mov	rax, QWORD PTR [rcx]
	mov	BYTE PTR [rax+40], 1

; 873  : 							_Color(_Pnode) = _Red;

	mov	BYTE PTR [rcx+40], 0

; 874  : 							_Rrotate(_Pnode);

	mov	rdx, rcx
	mov	rcx, rbp
	call	?_Rrotate@?$_Tree@V?$_Tmap_traits@KPEAVThreadInfo@@U?$less@K@std@@V?$allocator@U?$pair@$$CBKPEAVThreadInfo@@@std@@@3@$0A@@std@@@std@@IEAAXPEAU_Node@?$_Tree_nod@V?$_Tmap_traits@KPEAVThreadInfo@@U?$less@K@std@@V?$allocator@U?$pair@$$CBKPEAVThreadInfo@@@std@@@3@$0A@@std@@@2@@Z ; std::_Tree<std::_Tmap_traits<unsigned long,ThreadInfo * __ptr64,std::less<unsigned long>,std::allocator<std::pair<unsigned long const ,ThreadInfo * __ptr64> >,0> >::_Rrotate

; 875  : 							_Pnode = _Right(_Fixnodeparent);

	mov	rcx, QWORD PTR [rbx+16]
$LN9@erase:

; 876  : 							}
; 877  : 
; 878  : 						_Color(_Pnode) = _Color(_Fixnodeparent);

	movzx	eax, BYTE PTR [rbx+40]
	mov	BYTE PTR [rcx+40], al

; 879  : 						_Color(_Fixnodeparent) = _Black;

	mov	BYTE PTR [rbx+40], 1

; 880  : 						_Color(_Right(_Pnode)) = _Black;

	mov	rax, QWORD PTR [rcx+16]
	mov	BYTE PTR [rax+40], 1

; 881  : 						_Lrotate(_Fixnodeparent);

	mov	rdx, rbx
	mov	rcx, rbp
	call	?_Lrotate@?$_Tree@V?$_Tmap_traits@KPEAVThreadInfo@@U?$less@K@std@@V?$allocator@U?$pair@$$CBKPEAVThreadInfo@@@std@@@3@$0A@@std@@@std@@IEAAXPEAU_Node@?$_Tree_nod@V?$_Tmap_traits@KPEAVThreadInfo@@U?$less@K@std@@V?$allocator@U?$pair@$$CBKPEAVThreadInfo@@@std@@@3@$0A@@std@@@2@@Z ; std::_Tree<std::_Tmap_traits<unsigned long,ThreadInfo * __ptr64,std::less<unsigned long>,std::allocator<std::pair<unsigned long const ,ThreadInfo * __ptr64> >,0> >::_Lrotate

; 882  : 						break;	// tree now recolored/rebalanced

	jmp	SHORT $LN16@erase
$LN4@erase:

; 902  : 						}
; 903  : 					else
; 904  : 						{	// must rearrange left subtree
; 905  : 						if (_Color(_Left(_Pnode)) == _Black)

	mov	rax, QWORD PTR [rcx]
	cmp	BYTE PTR [rax+40], 1
	jne	SHORT $LN2@erase

; 906  : 							{	// rotate red up from right sub-subtree
; 907  : 							_Color(_Right(_Pnode)) = _Black;

	mov	rax, QWORD PTR [rcx+16]
	mov	BYTE PTR [rax+40], 1

; 908  : 							_Color(_Pnode) = _Red;

	mov	BYTE PTR [rcx+40], 0

; 909  : 							_Lrotate(_Pnode);

	mov	rdx, rcx
	mov	rcx, rbp
	call	?_Lrotate@?$_Tree@V?$_Tmap_traits@KPEAVThreadInfo@@U?$less@K@std@@V?$allocator@U?$pair@$$CBKPEAVThreadInfo@@@std@@@3@$0A@@std@@@std@@IEAAXPEAU_Node@?$_Tree_nod@V?$_Tmap_traits@KPEAVThreadInfo@@U?$less@K@std@@V?$allocator@U?$pair@$$CBKPEAVThreadInfo@@@std@@@3@$0A@@std@@@2@@Z ; std::_Tree<std::_Tmap_traits<unsigned long,ThreadInfo * __ptr64,std::less<unsigned long>,std::allocator<std::pair<unsigned long const ,ThreadInfo * __ptr64> >,0> >::_Lrotate

; 910  : 							_Pnode = _Left(_Fixnodeparent);

	mov	rcx, QWORD PTR [rbx]
$LN2@erase:

; 911  : 							}
; 912  : 
; 913  : 						_Color(_Pnode) = _Color(_Fixnodeparent);

	movzx	eax, BYTE PTR [rbx+40]
	mov	BYTE PTR [rcx+40], al

; 914  : 						_Color(_Fixnodeparent) = _Black;

	mov	BYTE PTR [rbx+40], 1

; 915  : 						_Color(_Left(_Pnode)) = _Black;

	mov	rax, QWORD PTR [rcx]
	mov	BYTE PTR [rax+40], 1

; 916  : 						_Rrotate(_Fixnodeparent);

	mov	rdx, rbx
	mov	rcx, rbp
	call	?_Rrotate@?$_Tree@V?$_Tmap_traits@KPEAVThreadInfo@@U?$less@K@std@@V?$allocator@U?$pair@$$CBKPEAVThreadInfo@@@std@@@3@$0A@@std@@@std@@IEAAXPEAU_Node@?$_Tree_nod@V?$_Tmap_traits@KPEAVThreadInfo@@U?$less@K@std@@V?$allocator@U?$pair@$$CBKPEAVThreadInfo@@@std@@@3@$0A@@std@@@2@@Z ; std::_Tree<std::_Tmap_traits<unsigned long,ThreadInfo * __ptr64,std::less<unsigned long>,std::allocator<std::pair<unsigned long const ,ThreadInfo * __ptr64> >,0> >::_Rrotate
$LN16@erase:

; 917  : 						break;	// tree now recolored/rebalanced
; 918  : 						}
; 919  : 					}
; 920  : 
; 921  : 			_Color(_Fixnode) = _Black;	// ensure stopping node is black

	mov	BYTE PTR [rdi+40], 1
$LN19@erase:

; 922  : 			}
; 923  : 
; 924  : 		this->_Alnod.destroy(_Erasednode);	// destroy, free erased node
; 925  : 		this->_Alnod.deallocate(_Erasednode, 1);

	mov	rcx, rsi
	call	??3@YAXPEAX@Z				; operator delete

; 926  : 
; 927  : 		if (0 < _Mysize)

	mov	rax, QWORD PTR [rbp+56]
	test	rax, rax
	je	SHORT $LN1@erase

; 928  : 			--_Mysize;

	dec	rax
	mov	QWORD PTR [rbp+56], rax
$LN1@erase:

; 929  : 
; 930  : 		return (_Make_iter(_Where));	// return successor iterator

	lea	rcx, QWORD PTR $T165140[rsp]
	mov	rax, QWORD PTR [r12]
	mov	QWORD PTR [rcx], rax
	mov	rax, QWORD PTR [r12+8]
	mov	QWORD PTR [rcx+8], rax
	mov	rax, QWORD PTR $T165140[rsp+8]
	mov	QWORD PTR $T165738[rsp+8], rax
	mov	rax, QWORD PTR [rbp]
	mov	QWORD PTR $T165738[rsp], rax
	lea	rcx, QWORD PTR $T165738[rsp]
	mov	rax, QWORD PTR [rcx]
	mov	QWORD PTR [r13], rax
	mov	rax, QWORD PTR [rcx+8]
	mov	QWORD PTR [r13+8], rax
	mov	rax, r13

; 931  : 		}

	lea	r11, QWORD PTR [rsp+160]
	mov	rbx, QWORD PTR [r11+32]
	mov	rbp, QWORD PTR [r11+40]
	mov	rsi, QWORD PTR [r11+48]
	mov	rsp, r11
	pop	r13
	pop	r12
	pop	rdi
	ret	0
$LN375@erase:
?erase@?$_Tree@V?$_Tmap_traits@KPEAVThreadInfo@@U?$less@K@std@@V?$allocator@U?$pair@$$CBKPEAVThreadInfo@@@std@@@3@$0A@@std@@@std@@QEAA?AViterator@12@Vconst_iterator@12@@Z ENDP ; std::_Tree<std::_Tmap_traits<unsigned long,ThreadInfo * __ptr64,std::less<unsigned long>,std::allocator<std::pair<unsigned long const ,ThreadInfo * __ptr64> >,0> >::erase
; Function compile flags: /Ogtpy
_TEXT	ENDS
;	COMDAT text$x
text$x	SEGMENT
$T165738 = 32
$T165140 = 32
$T165781 = 48
$T165134 = 56
$T165135 = 120
this$ = 192
__$ReturnUdt$ = 200
_Where$ = 208
?dtor$0@?0??erase@?$_Tree@V?$_Tmap_traits@KPEAVThreadInfo@@U?$less@K@std@@V?$allocator@U?$pair@$$CBKPEAVThreadInfo@@@std@@@3@$0A@@std@@@std@@QEAA?AViterator@12@Vconst_iterator@12@@Z@4HA PROC ; `std::_Tree<std::_Tmap_traits<unsigned long,ThreadInfo * __ptr64,std::less<unsigned long>,std::allocator<std::pair<unsigned long const ,ThreadInfo * __ptr64> >,0> >::erase'::`1'::dtor$0
	push	rbp
	sub	rsp, 32					; 00000020H
	mov	rbp, rdx
	lea	rcx, QWORD PTR $T165135[rbp]
	call	QWORD PTR __imp_??1?$basic_string@DU?$char_traits@D@std@@V?$allocator@D@2@@std@@QEAA@XZ
	add	rsp, 32					; 00000020H
	pop	rbp
	ret	0
?dtor$0@?0??erase@?$_Tree@V?$_Tmap_traits@KPEAVThreadInfo@@U?$less@K@std@@V?$allocator@U?$pair@$$CBKPEAVThreadInfo@@@std@@@3@$0A@@std@@@std@@QEAA?AViterator@12@Vconst_iterator@12@@Z@4HA ENDP ; `std::_Tree<std::_Tmap_traits<unsigned long,ThreadInfo * __ptr64,std::less<unsigned long>,std::allocator<std::pair<unsigned long const ,ThreadInfo * __ptr64> >,0> >::erase'::`1'::dtor$0
; Function compile flags: /Ogtpy
$T165738 = 32
$T165140 = 32
$T165781 = 48
$T165134 = 56
$T165135 = 120
this$ = 192
__$ReturnUdt$ = 200
_Where$ = 208
?dtor$2@?0??erase@?$_Tree@V?$_Tmap_traits@KPEAVThreadInfo@@U?$less@K@std@@V?$allocator@U?$pair@$$CBKPEAVThreadInfo@@@std@@@3@$0A@@std@@@std@@QEAA?AViterator@12@Vconst_iterator@12@@Z@4HA PROC ; `std::_Tree<std::_Tmap_traits<unsigned long,ThreadInfo * __ptr64,std::less<unsigned long>,std::allocator<std::pair<unsigned long const ,ThreadInfo * __ptr64> >,0> >::erase'::`1'::dtor$2
	push	rbp
	sub	rsp, 32					; 00000020H
	mov	rbp, rdx
	lea	rcx, QWORD PTR $T165134[rbp]
	call	QWORD PTR __imp_??1exception@std@@UEAA@XZ
	add	rsp, 32					; 00000020H
	pop	rbp
	ret	0
?dtor$2@?0??erase@?$_Tree@V?$_Tmap_traits@KPEAVThreadInfo@@U?$less@K@std@@V?$allocator@U?$pair@$$CBKPEAVThreadInfo@@@std@@@3@$0A@@std@@@std@@QEAA?AViterator@12@Vconst_iterator@12@@Z@4HA ENDP ; `std::_Tree<std::_Tmap_traits<unsigned long,ThreadInfo * __ptr64,std::less<unsigned long>,std::allocator<std::pair<unsigned long const ,ThreadInfo * __ptr64> >,0> >::erase'::`1'::dtor$2
text$x	ENDS
PUBLIC	$T165811
;	COMDAT pdata
; File c:\program files\microsoft visual studio 9.0\vc\include\xutility
pdata	SEGMENT
$pdata$?erase@?$_Tree@V?$_Tmap_traits@_KPEAVThreadInfo@@U?$less@_K@std@@V?$allocator@U?$pair@$$CB_KPEAVThreadInfo@@@std@@@3@$0A@@std@@@std@@QEAA?AViterator@12@Vconst_iterator@12@@Z DD imagerel $LN376
	DD	imagerel $LN376+1012
	DD	imagerel $unwind$?erase@?$_Tree@V?$_Tmap_traits@_KPEAVThreadInfo@@U?$less@_K@std@@V?$allocator@U?$pair@$$CB_KPEAVThreadInfo@@@std@@@3@$0A@@std@@@std@@QEAA?AViterator@12@Vconst_iterator@12@@Z
pdata	ENDS
;	COMDAT pdata
pdata	SEGMENT
$pdata$?dtor$0@?0??erase@?$_Tree@V?$_Tmap_traits@_KPEAVThreadInfo@@U?$less@_K@std@@V?$allocator@U?$pair@$$CB_KPEAVThreadInfo@@@std@@@3@$0A@@std@@@std@@QEAA?AViterator@12@Vconst_iterator@12@@Z@4HA DD imagerel ?dtor$0@?0??erase@?$_Tree@V?$_Tmap_traits@_KPEAVThreadInfo@@U?$less@_K@std@@V?$allocator@U?$pair@$$CB_KPEAVThreadInfo@@@std@@@3@$0A@@std@@@std@@QEAA?AViterator@12@Vconst_iterator@12@@Z@4HA
	DD	imagerel ?dtor$0@?0??erase@?$_Tree@V?$_Tmap_traits@_KPEAVThreadInfo@@U?$less@_K@std@@V?$allocator@U?$pair@$$CB_KPEAVThreadInfo@@@std@@@3@$0A@@std@@@std@@QEAA?AViterator@12@Vconst_iterator@12@@Z@4HA+25
	DD	imagerel $unwind$?dtor$0@?0??erase@?$_Tree@V?$_Tmap_traits@_KPEAVThreadInfo@@U?$less@_K@std@@V?$allocator@U?$pair@$$CB_KPEAVThreadInfo@@@std@@@3@$0A@@std@@@std@@QEAA?AViterator@12@Vconst_iterator@12@@Z@4HA
pdata	ENDS
;	COMDAT pdata
pdata	SEGMENT
$pdata$?dtor$2@?0??erase@?$_Tree@V?$_Tmap_traits@_KPEAVThreadInfo@@U?$less@_K@std@@V?$allocator@U?$pair@$$CB_KPEAVThreadInfo@@@std@@@3@$0A@@std@@@std@@QEAA?AViterator@12@Vconst_iterator@12@@Z@4HA DD imagerel ?dtor$2@?0??erase@?$_Tree@V?$_Tmap_traits@_KPEAVThreadInfo@@U?$less@_K@std@@V?$allocator@U?$pair@$$CB_KPEAVThreadInfo@@@std@@@3@$0A@@std@@@std@@QEAA?AViterator@12@Vconst_iterator@12@@Z@4HA
	DD	imagerel ?dtor$2@?0??erase@?$_Tree@V?$_Tmap_traits@_KPEAVThreadInfo@@U?$less@_K@std@@V?$allocator@U?$pair@$$CB_KPEAVThreadInfo@@@std@@@3@$0A@@std@@@std@@QEAA?AViterator@12@Vconst_iterator@12@@Z@4HA+25
	DD	imagerel $unwind$?dtor$2@?0??erase@?$_Tree@V?$_Tmap_traits@_KPEAVThreadInfo@@U?$less@_K@std@@V?$allocator@U?$pair@$$CB_KPEAVThreadInfo@@@std@@@3@$0A@@std@@@std@@QEAA?AViterator@12@Vconst_iterator@12@@Z@4HA
pdata	ENDS
;	COMDAT xdata
xdata	SEGMENT
$ip2state$?erase@?$_Tree@V?$_Tmap_traits@_KPEAVThreadInfo@@U?$less@_K@std@@V?$allocator@U?$pair@$$CB_KPEAVThreadInfo@@@std@@@3@$0A@@std@@@std@@QEAA?AViterator@12@Vconst_iterator@12@@Z DD imagerel ?erase@?$_Tree@V?$_Tmap_traits@_KPEAVThreadInfo@@U?$less@_K@std@@V?$allocator@U?$pair@$$CB_KPEAVThreadInfo@@@std@@@3@$0A@@std@@@std@@QEAA?AViterator@12@Vconst_iterator@12@@Z
	DD	0ffffffffH
	DD	imagerel ?erase@?$_Tree@V?$_Tmap_traits@_KPEAVThreadInfo@@U?$less@_K@std@@V?$allocator@U?$pair@$$CB_KPEAVThreadInfo@@@std@@@3@$0A@@std@@@std@@QEAA?AViterator@12@Vconst_iterator@12@@Z+73
	DD	00H
	DD	imagerel ?erase@?$_Tree@V?$_Tmap_traits@_KPEAVThreadInfo@@U?$less@_K@std@@V?$allocator@U?$pair@$$CB_KPEAVThreadInfo@@@std@@@3@$0A@@std@@@std@@QEAA?AViterator@12@Vconst_iterator@12@@Z+85
	DD	01H
	DD	imagerel ?erase@?$_Tree@V?$_Tmap_traits@_KPEAVThreadInfo@@U?$less@_K@std@@V?$allocator@U?$pair@$$CB_KPEAVThreadInfo@@@std@@@3@$0A@@std@@@std@@QEAA?AViterator@12@Vconst_iterator@12@@Z+114
	DD	00H
	DD	imagerel ?erase@?$_Tree@V?$_Tmap_traits@_KPEAVThreadInfo@@U?$less@_K@std@@V?$allocator@U?$pair@$$CB_KPEAVThreadInfo@@@std@@@3@$0A@@std@@@std@@QEAA?AViterator@12@Vconst_iterator@12@@Z+144
	DD	0ffffffffH
xdata	ENDS
;	COMDAT xdata
xdata	SEGMENT
$unwind$?dtor$2@?0??erase@?$_Tree@V?$_Tmap_traits@_KPEAVThreadInfo@@U?$less@_K@std@@V?$allocator@U?$pair@$$CB_KPEAVThreadInfo@@@std@@@3@$0A@@std@@@std@@QEAA?AViterator@12@Vconst_iterator@12@@Z@4HA DD 020601H
	DD	050023206H
xdata	ENDS
;	COMDAT xdata
xdata	SEGMENT
$unwind$?dtor$0@?0??erase@?$_Tree@V?$_Tmap_traits@_KPEAVThreadInfo@@U?$less@_K@std@@V?$allocator@U?$pair@$$CB_KPEAVThreadInfo@@@std@@@3@$0A@@std@@@std@@QEAA?AViterator@12@Vconst_iterator@12@@Z@4HA DD 020601H
	DD	050023206H
xdata	ENDS
;	COMDAT xdata
xdata	SEGMENT
$unwind$?erase@?$_Tree@V?$_Tmap_traits@_KPEAVThreadInfo@@U?$less@_K@std@@V?$allocator@U?$pair@$$CB_KPEAVThreadInfo@@@std@@@3@$0A@@std@@@std@@QEAA?AViterator@12@Vconst_iterator@12@@Z DD 0b2411H
	DD	01a6424H
	DD	0195420H
	DD	018341cH
	DD	014010fH
	DD	0c006d008H
	DD	07004H
	DD	imagerel __CxxFrameHandler3
	DD	imagerel $cppxdata$?erase@?$_Tree@V?$_Tmap_traits@_KPEAVThreadInfo@@U?$less@_K@std@@V?$allocator@U?$pair@$$CB_KPEAVThreadInfo@@@std@@@3@$0A@@std@@@std@@QEAA?AViterator@12@Vconst_iterator@12@@Z
xdata	ENDS
;	COMDAT CONST
CONST	SEGMENT
$cppxdata$?erase@?$_Tree@V?$_Tmap_traits@_KPEAVThreadInfo@@U?$less@_K@std@@V?$allocator@U?$pair@$$CB_KPEAVThreadInfo@@@std@@@3@$0A@@std@@@std@@QEAA?AViterator@12@Vconst_iterator@12@@Z DD 019930522H
	DD	02H
	DD	imagerel $stateUnwindMap$?erase@?$_Tree@V?$_Tmap_traits@_KPEAVThreadInfo@@U?$less@_K@std@@V?$allocator@U?$pair@$$CB_KPEAVThreadInfo@@@std@@@3@$0A@@std@@@std@@QEAA?AViterator@12@Vconst_iterator@12@@Z
	DD	00H
	DD	00H
	DD	05H
	DD	imagerel $ip2state$?erase@?$_Tree@V?$_Tmap_traits@_KPEAVThreadInfo@@U?$less@_K@std@@V?$allocator@U?$pair@$$CB_KPEAVThreadInfo@@@std@@@3@$0A@@std@@@std@@QEAA?AViterator@12@Vconst_iterator@12@@Z
	DD	030H
	DD	00H
	DD	01H
CONST	ENDS
;	COMDAT xdata
xdata	SEGMENT
$stateUnwindMap$?erase@?$_Tree@V?$_Tmap_traits@_KPEAVThreadInfo@@U?$less@_K@std@@V?$allocator@U?$pair@$$CB_KPEAVThreadInfo@@@std@@@3@$0A@@std@@@std@@QEAA?AViterator@12@Vconst_iterator@12@@Z DD 0ffffffffH
	DD	imagerel ?dtor$0@?0??erase@?$_Tree@V?$_Tmap_traits@_KPEAVThreadInfo@@U?$less@_K@std@@V?$allocator@U?$pair@$$CB_KPEAVThreadInfo@@@std@@@3@$0A@@std@@@std@@QEAA?AViterator@12@Vconst_iterator@12@@Z@4HA
	DD	00H
	DD	imagerel ?dtor$2@?0??erase@?$_Tree@V?$_Tmap_traits@_KPEAVThreadInfo@@U?$less@_K@std@@V?$allocator@U?$pair@$$CB_KPEAVThreadInfo@@@std@@@3@$0A@@std@@@std@@QEAA?AViterator@12@Vconst_iterator@12@@Z@4HA
; Function compile flags: /Ogtpy
; File c:\program files\microsoft visual studio 9.0\vc\include\xtree
xdata	ENDS
;	COMDAT ?erase@?$_Tree@V?$_Tmap_traits@_KPEAVThreadInfo@@U?$less@_K@std@@V?$allocator@U?$pair@$$CB_KPEAVThreadInfo@@@std@@@3@$0A@@std@@@std@@QEAA?AViterator@12@Vconst_iterator@12@@Z
_TEXT	SEGMENT
$T166409 = 32
$T165811 = 32
$T166452 = 48
$T165805 = 56
$T165806 = 120
this$ = 192
__$ReturnUdt$ = 200
_Where$ = 208
?erase@?$_Tree@V?$_Tmap_traits@_KPEAVThreadInfo@@U?$less@_K@std@@V?$allocator@U?$pair@$$CB_KPEAVThreadInfo@@@std@@@3@$0A@@std@@@std@@QEAA?AViterator@12@Vconst_iterator@12@@Z PROC ; std::_Tree<std::_Tmap_traits<unsigned __int64,ThreadInfo * __ptr64,std::less<unsigned __int64>,std::allocator<std::pair<unsigned __int64 const ,ThreadInfo * __ptr64> >,0> >::erase, COMDAT

; 764  : 		{	// erase element at _Where

$LN376:
	mov	rax, rsp
	push	rdi
	push	r12
	push	r13
	sub	rsp, 160				; 000000a0H
	mov	QWORD PTR $T166452[rsp], -2
	mov	QWORD PTR [rax+8], rbx
	mov	QWORD PTR [rax+16], rbp
	mov	QWORD PTR [rax+24], rsi
	mov	r12, r8
	mov	r13, rdx
	mov	rbp, rcx

; 765  : 
; 766  :  #if _HAS_ITERATOR_DEBUGGING
; 767  : 		if (_Where._Mycont != this || _Isnil(_Where._Mynode()))
; 768  : 			_DEBUG_ERROR("map/set erase iterator outside range");
; 769  : 		_Nodeptr _Erasednode = _Where._Mynode();	// node to erase
; 770  : 		++_Where;	// save successor iterator for return
; 771  : 		_Orphan_ptr(*this, _Erasednode);
; 772  : 
; 773  :  #else /* _HAS_ITERATOR_DEBUGGING */
; 774  : 		if (_Isnil(_Where._Mynode()))

	mov	rsi, QWORD PTR [r8+8]
	cmp	BYTE PTR [rsi+41], 0
	je	SHORT $LN40@erase@2

; 775  : 			_THROW(out_of_range, "invalid map/set<T> iterator");

	lea	rdx, OFFSET FLAT:??_C@_0BM@PAPJHAGI@invalid?5map?1set?$DMT?$DO?5iterator?$AA@
	lea	rcx, QWORD PTR [rax-64]
	call	QWORD PTR __imp_??0?$basic_string@DU?$char_traits@D@std@@V?$allocator@D@2@@std@@QEAA@PEBD@Z
	npad	1
	lea	rcx, QWORD PTR $T165805[rsp]
	call	QWORD PTR __imp_??0exception@std@@QEAA@XZ
	npad	1
	lea	rax, OFFSET FLAT:??_7logic_error@std@@6B@
	mov	QWORD PTR $T165805[rsp], rax
	lea	rdx, QWORD PTR $T165806[rsp]
	lea	rcx, QWORD PTR $T165805[rsp+24]
	call	QWORD PTR __imp_??0?$basic_string@DU?$char_traits@D@std@@V?$allocator@D@2@@std@@QEAA@AEBV01@@Z
	npad	1
	lea	rax, OFFSET FLAT:??_7out_of_range@std@@6B@
	mov	QWORD PTR $T165805[rsp], rax
	lea	rdx, OFFSET FLAT:_TI3?AVout_of_range@std@@
	lea	rcx, QWORD PTR $T165805[rsp]
	call	_CxxThrowException
	npad	1
$LN40@erase@2:

; 776  : 		_Nodeptr _Erasednode = _Where._Mynode();	// node to erase
; 777  : 		++_Where;	// save successor iterator for return

	mov	rcx, r8
	call	?_Inc@const_iterator@?$_Tree@V?$_Tmap_traits@_KPEAVThreadInfo@@U?$less@_K@std@@V?$allocator@U?$pair@$$CB_KPEAVThreadInfo@@@std@@@3@$0A@@std@@@std@@QEAAXXZ ; std::_Tree<std::_Tmap_traits<unsigned __int64,ThreadInfo * __ptr64,std::less<unsigned __int64>,std::allocator<std::pair<unsigned __int64 const ,ThreadInfo * __ptr64> >,0> >::const_iterator::_Inc

; 778  :  #endif /* _HAS_ITERATOR_DEBUGGING */
; 779  : 
; 780  : 		_Nodeptr _Fixnode;	// the node to recolor as needed
; 781  : 		_Nodeptr _Fixnodeparent;	// parent of _Fixnode (which may be nil)
; 782  : 		_Nodeptr _Pnode = _Erasednode;
; 783  : 
; 784  : 		if (_Isnil(_Left(_Pnode)))

	mov	r11, QWORD PTR [rsi]
	cmp	BYTE PTR [r11+41], 0
	je	SHORT $LN39@erase@2

; 785  : 			_Fixnode = _Right(_Pnode);	// must stitch up right subtree

	mov	rdi, QWORD PTR [rsi+16]
	jmp	SHORT $LN373@erase@2
$LN39@erase@2:

; 786  : 		else if (_Isnil(_Right(_Pnode)))

	mov	rax, QWORD PTR [rsi+16]
	cmp	BYTE PTR [rax+41], 0
	je	SHORT $LN37@erase@2

; 787  : 			_Fixnode = _Left(_Pnode);	// must stitch up left subtree

	mov	rdi, r11

; 788  : 		else

	jmp	SHORT $LN373@erase@2
$LN37@erase@2:

; 789  : 			{	// two subtrees, must lift successor node to replace erased
; 790  : 			_Pnode = _Where._Mynode();	// _Pnode is successor node

	mov	rcx, QWORD PTR [r12+8]

; 791  : 			_Fixnode = _Right(_Pnode);	// _Fixnode is its only subtree

	mov	rdi, QWORD PTR [rcx+16]

; 792  : 			}
; 793  : 
; 794  : 		if (_Pnode == _Erasednode)

	cmp	rcx, rsi
	jne	$LN35@erase@2
$LN373@erase@2:

; 795  : 			{	// at most one subtree, relink it
; 796  : 			_Fixnodeparent = _Parent(_Erasednode);

	mov	rbx, QWORD PTR [rsi+8]

; 797  : 			if (!_Isnil(_Fixnode))

	cmp	BYTE PTR [rdi+41], 0
	jne	SHORT $LN34@erase@2

; 798  : 				_Parent(_Fixnode) = _Fixnodeparent;	// link up

	mov	QWORD PTR [rdi+8], rbx
$LN34@erase@2:

; 799  : 
; 800  : 			if (_Root() == _Erasednode)

	mov	rax, QWORD PTR [rbp+48]
	cmp	QWORD PTR [rax+8], rsi
	jne	SHORT $LN33@erase@2

; 801  : 				_Root() = _Fixnode;	// link down from root

	mov	QWORD PTR [rax+8], rdi
	jmp	SHORT $LN30@erase@2
$LN33@erase@2:

; 802  : 			else if (_Left(_Fixnodeparent) == _Erasednode)

	cmp	QWORD PTR [rbx], rsi
	jne	SHORT $LN31@erase@2

; 803  : 				_Left(_Fixnodeparent) = _Fixnode;	// link down to left

	mov	QWORD PTR [rbx], rdi

; 804  : 			else

	jmp	SHORT $LN30@erase@2
$LN31@erase@2:

; 805  : 				_Right(_Fixnodeparent) = _Fixnode;	// link down to right

	mov	QWORD PTR [rbx+16], rdi
$LN30@erase@2:

; 806  : 
; 807  : 			if (_Lmost() == _Erasednode)

	mov	rdx, QWORD PTR [rbp+48]
	cmp	QWORD PTR [rdx], rsi
	jne	SHORT $LN29@erase@2

; 808  : 				_Lmost() = _Isnil(_Fixnode)
; 809  : 					? _Fixnodeparent	// smallest is parent of erased node
; 810  : 					: _Min(_Fixnode);	// smallest in relinked subtree

	cmp	BYTE PTR [rdi+41], 0
	je	SHORT $LN43@erase@2
	mov	rcx, rbx
	jmp	SHORT $LN44@erase@2
$LN43@erase@2:
	mov	rcx, rdi
	mov	rax, QWORD PTR [rdi]
	cmp	BYTE PTR [rax+41], 0
	jne	SHORT $LN44@erase@2
	npad	11
$LL106@erase@2:
	mov	rcx, rax
	mov	rax, QWORD PTR [rax]
	cmp	BYTE PTR [rax+41], 0
	je	SHORT $LL106@erase@2
$LN44@erase@2:
	mov	QWORD PTR [rdx], rcx
$LN29@erase@2:

; 811  : 
; 812  : 			if (_Rmost() == _Erasednode)

	mov	rdx, QWORD PTR [rbp+48]
	cmp	QWORD PTR [rdx+16], rsi
	jne	$LN193@erase@2

; 813  : 				_Rmost() = _Isnil(_Fixnode)
; 814  : 					? _Fixnodeparent	// largest is parent of erased node
; 815  : 					: _Max(_Fixnode);	// largest in relinked subtree

	cmp	BYTE PTR [rdi+41], 0
	je	SHORT $LN45@erase@2
	mov	rcx, rbx
	jmp	SHORT $LN46@erase@2
$LN45@erase@2:
	mov	rcx, rdi
	mov	rax, QWORD PTR [rdi+16]
	cmp	BYTE PTR [rax+41], 0
	jne	SHORT $LN46@erase@2
	npad	11
$LL126@erase@2:
	mov	rcx, rax
	mov	rax, QWORD PTR [rax+16]
	cmp	BYTE PTR [rax+41], 0
	je	SHORT $LL126@erase@2
$LN46@erase@2:
	mov	QWORD PTR [rdx+16], rcx

; 816  : 			}
; 817  : 		else

	jmp	SHORT $LN193@erase@2
$LN35@erase@2:

; 818  : 			{	// erased has two subtrees, _Pnode is successor to erased
; 819  : 			_Parent(_Left(_Erasednode)) = _Pnode;	// link left up

	mov	QWORD PTR [r11+8], rcx

; 820  : 			_Left(_Pnode) = _Left(_Erasednode);	// link successor down

	mov	rax, QWORD PTR [rsi]
	mov	QWORD PTR [rcx], rax

; 821  : 
; 822  : 			if (_Pnode == _Right(_Erasednode))

	cmp	rcx, QWORD PTR [rsi+16]
	jne	SHORT $LN26@erase@2

; 823  : 				_Fixnodeparent = _Pnode;	// successor is next to erased

	mov	rbx, rcx

; 824  : 			else

	jmp	SHORT $LN25@erase@2
$LN26@erase@2:

; 825  : 				{	// successor further down, link in place of erased
; 826  : 				_Fixnodeparent = _Parent(_Pnode);	// parent is successor's

	mov	rbx, QWORD PTR [rcx+8]

; 827  : 				if (!_Isnil(_Fixnode))

	cmp	BYTE PTR [rdi+41], 0
	jne	SHORT $LN24@erase@2

; 828  : 					_Parent(_Fixnode) = _Fixnodeparent;	// link fix up

	mov	QWORD PTR [rdi+8], rbx
$LN24@erase@2:

; 829  : 				_Left(_Fixnodeparent) = _Fixnode;	// link fix down

	mov	QWORD PTR [rbx], rdi

; 830  : 				_Right(_Pnode) = _Right(_Erasednode);	// link successor down

	mov	rax, QWORD PTR [rsi+16]
	mov	QWORD PTR [rcx+16], rax

; 831  : 				_Parent(_Right(_Erasednode)) = _Pnode;	// link right up

	mov	rax, QWORD PTR [rsi+16]
	mov	QWORD PTR [rax+8], rcx
$LN25@erase@2:

; 832  : 				}
; 833  : 
; 834  : 			if (_Root() == _Erasednode)

	mov	rax, QWORD PTR [rbp+48]
	cmp	QWORD PTR [rax+8], rsi
	jne	SHORT $LN23@erase@2

; 835  : 				_Root() = _Pnode;	// link down from root

	mov	QWORD PTR [rax+8], rcx
	jmp	SHORT $LN20@erase@2
$LN23@erase@2:

; 836  : 			else if (_Left(_Parent(_Erasednode)) == _Erasednode)

	mov	rax, QWORD PTR [rsi+8]
	cmp	QWORD PTR [rax], rsi
	jne	SHORT $LN21@erase@2

; 837  : 				_Left(_Parent(_Erasednode)) = _Pnode;	// link down to left

	mov	QWORD PTR [rax], rcx

; 838  : 			else

	jmp	SHORT $LN20@erase@2
$LN21@erase@2:

; 839  : 				_Right(_Parent(_Erasednode)) = _Pnode;	// link down to right

	mov	QWORD PTR [rax+16], rcx
$LN20@erase@2:

; 840  : 
; 841  : 			_Parent(_Pnode) = _Parent(_Erasednode);	// link successor up

	mov	rax, QWORD PTR [rsi+8]
	mov	QWORD PTR [rcx+8], rax

; 842  : 			_STD swap(_Color(_Pnode), _Color(_Erasednode));	// recolor it

	lea	rdx, QWORD PTR [rsi+40]
	lea	r8, QWORD PTR [rcx+40]
	cmp	r8, rdx
	je	SHORT $LN193@erase@2
	movzx	ecx, BYTE PTR [r8]
	movzx	eax, BYTE PTR [rdx]
	mov	BYTE PTR [r8], al
	mov	BYTE PTR [rdx], cl
$LN193@erase@2:

; 843  : 			}
; 844  : 
; 845  : 		if (_Color(_Erasednode) == _Black)

	cmp	BYTE PTR [rsi+40], 1
	jne	$LN19@erase@2

; 846  : 			{	// erasing black link, must recolor/rebalance tree
; 847  : 			for (; _Fixnode != _Root() && _Color(_Fixnode) == _Black;
; 848  : 				_Fixnodeparent = _Parent(_Fixnode))

	mov	rax, QWORD PTR [rbp+48]
	cmp	rdi, QWORD PTR [rax+8]
	je	$LN16@erase@2
$LL18@erase@2:
	cmp	BYTE PTR [rdi+40], 1
	jne	$LN16@erase@2

; 849  : 				if (_Fixnode == _Left(_Fixnodeparent))

	mov	rcx, QWORD PTR [rbx]
	cmp	rdi, rcx
	jne	$LN15@erase@2

; 850  : 					{	// fixup left subtree
; 851  : 					_Pnode = _Right(_Fixnodeparent);

	mov	rcx, QWORD PTR [rbx+16]

; 852  : 					if (_Color(_Pnode) == _Red)

	cmp	BYTE PTR [rcx+40], 0
	jne	SHORT $LN14@erase@2

; 853  : 						{	// rotate red up from right subtree
; 854  : 						_Color(_Pnode) = _Black;

	mov	BYTE PTR [rcx+40], 1

; 855  : 						_Color(_Fixnodeparent) = _Red;

	mov	BYTE PTR [rbx+40], 0

; 856  : 						_Lrotate(_Fixnodeparent);

	mov	rcx, QWORD PTR [rbx+16]
	mov	rax, QWORD PTR [rcx]
	mov	QWORD PTR [rbx+16], rax
	mov	rax, QWORD PTR [rcx]
	cmp	BYTE PTR [rax+41], 0
	jne	SHORT $LN220@erase@2
	mov	QWORD PTR [rax+8], rbx
$LN220@erase@2:
	mov	rax, QWORD PTR [rbx+8]
	mov	QWORD PTR [rcx+8], rax
	mov	rax, QWORD PTR [rbp+48]
	cmp	rbx, QWORD PTR [rax+8]
	jne	SHORT $LN219@erase@2
	mov	QWORD PTR [rax+8], rcx
	jmp	SHORT $LN216@erase@2
$LN219@erase@2:
	mov	rax, QWORD PTR [rbx+8]
	cmp	rbx, QWORD PTR [rax]
	jne	SHORT $LN217@erase@2
	mov	QWORD PTR [rax], rcx
	jmp	SHORT $LN216@erase@2
$LN217@erase@2:
	mov	QWORD PTR [rax+16], rcx
$LN216@erase@2:
	mov	QWORD PTR [rcx], rbx
	mov	QWORD PTR [rbx+8], rcx

; 857  : 						_Pnode = _Right(_Fixnodeparent);

	mov	rcx, QWORD PTR [rbx+16]
$LN14@erase@2:

; 858  : 						}
; 859  : 
; 860  : 					if (_Isnil(_Pnode))

	cmp	BYTE PTR [rcx+41], 0
	je	SHORT $LN13@erase@2

; 861  : 						_Fixnode = _Fixnodeparent;	// shouldn't happen

	mov	rdi, rbx

; 862  : 					else if (_Color(_Left(_Pnode)) == _Black

	jmp	SHORT $LN17@erase@2
$LN13@erase@2:

; 863  : 						&& _Color(_Right(_Pnode)) == _Black)

	mov	rax, QWORD PTR [rcx]
	cmp	BYTE PTR [rax+40], 1
	jne	SHORT $LN11@erase@2
	mov	rax, QWORD PTR [rcx+16]
	cmp	BYTE PTR [rax+40], 1
	jne	SHORT $LN11@erase@2

; 864  : 						{	// redden right subtree with black children
; 865  : 						_Color(_Pnode) = _Red;

	mov	BYTE PTR [rcx+40], 0

; 866  : 						_Fixnode = _Fixnodeparent;

	mov	rdi, rbx

; 883  : 						}
; 884  : 					}
; 885  : 				else

	jmp	SHORT $LN17@erase@2
$LN15@erase@2:

; 886  : 					{	// fixup right subtree
; 887  : 					_Pnode = _Left(_Fixnodeparent);
; 888  : 					if (_Color(_Pnode) == _Red)

	cmp	BYTE PTR [rcx+40], 0
	jne	SHORT $LN7@erase@2

; 889  : 						{	// rotate red up from left subtree
; 890  : 						_Color(_Pnode) = _Black;

	mov	BYTE PTR [rcx+40], 1

; 891  : 						_Color(_Fixnodeparent) = _Red;

	mov	BYTE PTR [rbx+40], 0

; 892  : 						_Rrotate(_Fixnodeparent);

	mov	rdx, rbx
	mov	rcx, rbp
	call	?_Rrotate@?$_Tree@V?$_Tmap_traits@_KPEAVThreadInfo@@U?$less@_K@std@@V?$allocator@U?$pair@$$CB_KPEAVThreadInfo@@@std@@@3@$0A@@std@@@std@@IEAAXPEAU_Node@?$_Tree_nod@V?$_Tmap_traits@_KPEAVThreadInfo@@U?$less@_K@std@@V?$allocator@U?$pair@$$CB_KPEAVThreadInfo@@@std@@@3@$0A@@std@@@2@@Z ; std::_Tree<std::_Tmap_traits<unsigned __int64,ThreadInfo * __ptr64,std::less<unsigned __int64>,std::allocator<std::pair<unsigned __int64 const ,ThreadInfo * __ptr64> >,0> >::_Rrotate

; 893  : 						_Pnode = _Left(_Fixnodeparent);

	mov	rcx, QWORD PTR [rbx]
$LN7@erase@2:

; 894  : 						}
; 895  : 					if (_Isnil(_Pnode))

	cmp	BYTE PTR [rcx+41], 0
	je	SHORT $LN6@erase@2

; 896  : 						_Fixnode = _Fixnodeparent;	// shouldn't happen

	mov	rdi, rbx

; 897  : 					else if (_Color(_Right(_Pnode)) == _Black

	jmp	SHORT $LN17@erase@2
$LN6@erase@2:

; 898  : 						&& _Color(_Left(_Pnode)) == _Black)

	mov	rax, QWORD PTR [rcx+16]
	cmp	BYTE PTR [rax+40], 1
	jne	SHORT $LN4@erase@2
	mov	rax, QWORD PTR [rcx]
	cmp	BYTE PTR [rax+40], 1
	jne	SHORT $LN4@erase@2

; 899  : 						{	// redden left subtree with black children
; 900  : 						_Color(_Pnode) = _Red;

	mov	BYTE PTR [rcx+40], 0

; 901  : 						_Fixnode = _Fixnodeparent;

	mov	rdi, rbx
$LN17@erase@2:

; 846  : 			{	// erasing black link, must recolor/rebalance tree
; 847  : 			for (; _Fixnode != _Root() && _Color(_Fixnode) == _Black;
; 848  : 				_Fixnodeparent = _Parent(_Fixnode))

	mov	rbx, QWORD PTR [rbx+8]
	mov	rax, QWORD PTR [rbp+48]
	cmp	rdi, QWORD PTR [rax+8]
	je	$LN16@erase@2
	jmp	$LL18@erase@2
$LN11@erase@2:

; 867  : 						}
; 868  : 					else
; 869  : 						{	// must rearrange right subtree
; 870  : 						if (_Color(_Right(_Pnode)) == _Black)

	mov	rax, QWORD PTR [rcx+16]
	cmp	BYTE PTR [rax+40], 1
	jne	SHORT $LN9@erase@2

; 871  : 							{	// rotate red up from left sub-subtree
; 872  : 							_Color(_Left(_Pnode)) = _Black;

	mov	rax, QWORD PTR [rcx]
	mov	BYTE PTR [rax+40], 1

; 873  : 							_Color(_Pnode) = _Red;

	mov	BYTE PTR [rcx+40], 0

; 874  : 							_Rrotate(_Pnode);

	mov	rdx, rcx
	mov	rcx, rbp
	call	?_Rrotate@?$_Tree@V?$_Tmap_traits@_KPEAVThreadInfo@@U?$less@_K@std@@V?$allocator@U?$pair@$$CB_KPEAVThreadInfo@@@std@@@3@$0A@@std@@@std@@IEAAXPEAU_Node@?$_Tree_nod@V?$_Tmap_traits@_KPEAVThreadInfo@@U?$less@_K@std@@V?$allocator@U?$pair@$$CB_KPEAVThreadInfo@@@std@@@3@$0A@@std@@@2@@Z ; std::_Tree<std::_Tmap_traits<unsigned __int64,ThreadInfo * __ptr64,std::less<unsigned __int64>,std::allocator<std::pair<unsigned __int64 const ,ThreadInfo * __ptr64> >,0> >::_Rrotate

; 875  : 							_Pnode = _Right(_Fixnodeparent);

	mov	rcx, QWORD PTR [rbx+16]
$LN9@erase@2:

; 876  : 							}
; 877  : 
; 878  : 						_Color(_Pnode) = _Color(_Fixnodeparent);

	movzx	eax, BYTE PTR [rbx+40]
	mov	BYTE PTR [rcx+40], al

; 879  : 						_Color(_Fixnodeparent) = _Black;

	mov	BYTE PTR [rbx+40], 1

; 880  : 						_Color(_Right(_Pnode)) = _Black;

	mov	rax, QWORD PTR [rcx+16]
	mov	BYTE PTR [rax+40], 1

; 881  : 						_Lrotate(_Fixnodeparent);

	mov	rdx, rbx
	mov	rcx, rbp
	call	?_Lrotate@?$_Tree@V?$_Tmap_traits@_KPEAVThreadInfo@@U?$less@_K@std@@V?$allocator@U?$pair@$$CB_KPEAVThreadInfo@@@std@@@3@$0A@@std@@@std@@IEAAXPEAU_Node@?$_Tree_nod@V?$_Tmap_traits@_KPEAVThreadInfo@@U?$less@_K@std@@V?$allocator@U?$pair@$$CB_KPEAVThreadInfo@@@std@@@3@$0A@@std@@@2@@Z ; std::_Tree<std::_Tmap_traits<unsigned __int64,ThreadInfo * __ptr64,std::less<unsigned __int64>,std::allocator<std::pair<unsigned __int64 const ,ThreadInfo * __ptr64> >,0> >::_Lrotate

; 882  : 						break;	// tree now recolored/rebalanced

	jmp	SHORT $LN16@erase@2
$LN4@erase@2:

; 902  : 						}
; 903  : 					else
; 904  : 						{	// must rearrange left subtree
; 905  : 						if (_Color(_Left(_Pnode)) == _Black)

	mov	rax, QWORD PTR [rcx]
	cmp	BYTE PTR [rax+40], 1
	jne	SHORT $LN2@erase@2

; 906  : 							{	// rotate red up from right sub-subtree
; 907  : 							_Color(_Right(_Pnode)) = _Black;

	mov	rax, QWORD PTR [rcx+16]
	mov	BYTE PTR [rax+40], 1

; 908  : 							_Color(_Pnode) = _Red;

	mov	BYTE PTR [rcx+40], 0

; 909  : 							_Lrotate(_Pnode);

	mov	rdx, rcx
	mov	rcx, rbp
	call	?_Lrotate@?$_Tree@V?$_Tmap_traits@_KPEAVThreadInfo@@U?$less@_K@std@@V?$allocator@U?$pair@$$CB_KPEAVThreadInfo@@@std@@@3@$0A@@std@@@std@@IEAAXPEAU_Node@?$_Tree_nod@V?$_Tmap_traits@_KPEAVThreadInfo@@U?$less@_K@std@@V?$allocator@U?$pair@$$CB_KPEAVThreadInfo@@@std@@@3@$0A@@std@@@2@@Z ; std::_Tree<std::_Tmap_traits<unsigned __int64,ThreadInfo * __ptr64,std::less<unsigned __int64>,std::allocator<std::pair<unsigned __int64 const ,ThreadInfo * __ptr64> >,0> >::_Lrotate

; 910  : 							_Pnode = _Left(_Fixnodeparent);

	mov	rcx, QWORD PTR [rbx]
$LN2@erase@2:

; 911  : 							}
; 912  : 
; 913  : 						_Color(_Pnode) = _Color(_Fixnodeparent);

	movzx	eax, BYTE PTR [rbx+40]
	mov	BYTE PTR [rcx+40], al

; 914  : 						_Color(_Fixnodeparent) = _Black;

	mov	BYTE PTR [rbx+40], 1

; 915  : 						_Color(_Left(_Pnode)) = _Black;

	mov	rax, QWORD PTR [rcx]
	mov	BYTE PTR [rax+40], 1

; 916  : 						_Rrotate(_Fixnodeparent);

	mov	rdx, rbx
	mov	rcx, rbp
	call	?_Rrotate@?$_Tree@V?$_Tmap_traits@_KPEAVThreadInfo@@U?$less@_K@std@@V?$allocator@U?$pair@$$CB_KPEAVThreadInfo@@@std@@@3@$0A@@std@@@std@@IEAAXPEAU_Node@?$_Tree_nod@V?$_Tmap_traits@_KPEAVThreadInfo@@U?$less@_K@std@@V?$allocator@U?$pair@$$CB_KPEAVThreadInfo@@@std@@@3@$0A@@std@@@2@@Z ; std::_Tree<std::_Tmap_traits<unsigned __int64,ThreadInfo * __ptr64,std::less<unsigned __int64>,std::allocator<std::pair<unsigned __int64 const ,ThreadInfo * __ptr64> >,0> >::_Rrotate
$LN16@erase@2:

; 917  : 						break;	// tree now recolored/rebalanced
; 918  : 						}
; 919  : 					}
; 920  : 
; 921  : 			_Color(_Fixnode) = _Black;	// ensure stopping node is black

	mov	BYTE PTR [rdi+40], 1
$LN19@erase@2:

; 922  : 			}
; 923  : 
; 924  : 		this->_Alnod.destroy(_Erasednode);	// destroy, free erased node
; 925  : 		this->_Alnod.deallocate(_Erasednode, 1);

	mov	rcx, rsi
	call	??3@YAXPEAX@Z				; operator delete

; 926  : 
; 927  : 		if (0 < _Mysize)

	mov	rax, QWORD PTR [rbp+56]
	test	rax, rax
	je	SHORT $LN1@erase@2

; 928  : 			--_Mysize;

	dec	rax
	mov	QWORD PTR [rbp+56], rax
$LN1@erase@2:

; 929  : 
; 930  : 		return (_Make_iter(_Where));	// return successor iterator

	lea	rcx, QWORD PTR $T165811[rsp]
	mov	rax, QWORD PTR [r12]
	mov	QWORD PTR [rcx], rax
	mov	rax, QWORD PTR [r12+8]
	mov	QWORD PTR [rcx+8], rax
	mov	rax, QWORD PTR $T165811[rsp+8]
	mov	QWORD PTR $T166409[rsp+8], rax
	mov	rax, QWORD PTR [rbp]
	mov	QWORD PTR $T166409[rsp], rax
	lea	rcx, QWORD PTR $T166409[rsp]
	mov	rax, QWORD PTR [rcx]
	mov	QWORD PTR [r13], rax
	mov	rax, QWORD PTR [rcx+8]
	mov	QWORD PTR [r13+8], rax
	mov	rax, r13

; 931  : 		}

	lea	r11, QWORD PTR [rsp+160]
	mov	rbx, QWORD PTR [r11+32]
	mov	rbp, QWORD PTR [r11+40]
	mov	rsi, QWORD PTR [r11+48]
	mov	rsp, r11
	pop	r13
	pop	r12
	pop	rdi
	ret	0
$LN375@erase@2:
?erase@?$_Tree@V?$_Tmap_traits@_KPEAVThreadInfo@@U?$less@_K@std@@V?$allocator@U?$pair@$$CB_KPEAVThreadInfo@@@std@@@3@$0A@@std@@@std@@QEAA?AViterator@12@Vconst_iterator@12@@Z ENDP ; std::_Tree<std::_Tmap_traits<unsigned __int64,ThreadInfo * __ptr64,std::less<unsigned __int64>,std::allocator<std::pair<unsigned __int64 const ,ThreadInfo * __ptr64> >,0> >::erase
; Function compile flags: /Ogtpy
_TEXT	ENDS
;	COMDAT text$x
text$x	SEGMENT
$T166409 = 32
$T165811 = 32
$T166452 = 48
$T165805 = 56
$T165806 = 120
this$ = 192
__$ReturnUdt$ = 200
_Where$ = 208
?dtor$0@?0??erase@?$_Tree@V?$_Tmap_traits@_KPEAVThreadInfo@@U?$less@_K@std@@V?$allocator@U?$pair@$$CB_KPEAVThreadInfo@@@std@@@3@$0A@@std@@@std@@QEAA?AViterator@12@Vconst_iterator@12@@Z@4HA PROC ; `std::_Tree<std::_Tmap_traits<unsigned __int64,ThreadInfo * __ptr64,std::less<unsigned __int64>,std::allocator<std::pair<unsigned __int64 const ,ThreadInfo * __ptr64> >,0> >::erase'::`1'::dtor$0
	push	rbp
	sub	rsp, 32					; 00000020H
	mov	rbp, rdx
	lea	rcx, QWORD PTR $T165806[rbp]
	call	QWORD PTR __imp_??1?$basic_string@DU?$char_traits@D@std@@V?$allocator@D@2@@std@@QEAA@XZ
	add	rsp, 32					; 00000020H
	pop	rbp
	ret	0
?dtor$0@?0??erase@?$_Tree@V?$_Tmap_traits@_KPEAVThreadInfo@@U?$less@_K@std@@V?$allocator@U?$pair@$$CB_KPEAVThreadInfo@@@std@@@3@$0A@@std@@@std@@QEAA?AViterator@12@Vconst_iterator@12@@Z@4HA ENDP ; `std::_Tree<std::_Tmap_traits<unsigned __int64,ThreadInfo * __ptr64,std::less<unsigned __int64>,std::allocator<std::pair<unsigned __int64 const ,ThreadInfo * __ptr64> >,0> >::erase'::`1'::dtor$0
; Function compile flags: /Ogtpy
$T166409 = 32
$T165811 = 32
$T166452 = 48
$T165805 = 56
$T165806 = 120
this$ = 192
__$ReturnUdt$ = 200
_Where$ = 208
?dtor$2@?0??erase@?$_Tree@V?$_Tmap_traits@_KPEAVThreadInfo@@U?$less@_K@std@@V?$allocator@U?$pair@$$CB_KPEAVThreadInfo@@@std@@@3@$0A@@std@@@std@@QEAA?AViterator@12@Vconst_iterator@12@@Z@4HA PROC ; `std::_Tree<std::_Tmap_traits<unsigned __int64,ThreadInfo * __ptr64,std::less<unsigned __int64>,std::allocator<std::pair<unsigned __int64 const ,ThreadInfo * __ptr64> >,0> >::erase'::`1'::dtor$2
	push	rbp
	sub	rsp, 32					; 00000020H
	mov	rbp, rdx
	lea	rcx, QWORD PTR $T165805[rbp]
	call	QWORD PTR __imp_??1exception@std@@UEAA@XZ
	add	rsp, 32					; 00000020H
	pop	rbp
	ret	0
?dtor$2@?0??erase@?$_Tree@V?$_Tmap_traits@_KPEAVThreadInfo@@U?$less@_K@std@@V?$allocator@U?$pair@$$CB_KPEAVThreadInfo@@@std@@@3@$0A@@std@@@std@@QEAA?AViterator@12@Vconst_iterator@12@@Z@4HA ENDP ; `std::_Tree<std::_Tmap_traits<unsigned __int64,ThreadInfo * __ptr64,std::less<unsigned __int64>,std::allocator<std::pair<unsigned __int64 const ,ThreadInfo * __ptr64> >,0> >::erase'::`1'::dtor$2
text$x	ENDS
PUBLIC	$T166482
;	COMDAT pdata
; File c:\program files\microsoft visual studio 9.0\vc\include\xutility
pdata	SEGMENT
$pdata$?erase@?$_Tree@V?$_Tmap_traits@_KHU?$less@_K@std@@V?$allocator@U?$pair@$$CB_KH@std@@@2@$0A@@std@@@std@@QEAA?AViterator@12@Vconst_iterator@12@@Z DD imagerel $LN376
	DD	imagerel $LN376+1012
	DD	imagerel $unwind$?erase@?$_Tree@V?$_Tmap_traits@_KHU?$less@_K@std@@V?$allocator@U?$pair@$$CB_KH@std@@@2@$0A@@std@@@std@@QEAA?AViterator@12@Vconst_iterator@12@@Z
pdata	ENDS
;	COMDAT pdata
pdata	SEGMENT
$pdata$?dtor$0@?0??erase@?$_Tree@V?$_Tmap_traits@_KHU?$less@_K@std@@V?$allocator@U?$pair@$$CB_KH@std@@@2@$0A@@std@@@std@@QEAA?AViterator@12@Vconst_iterator@12@@Z@4HA DD imagerel ?dtor$0@?0??erase@?$_Tree@V?$_Tmap_traits@_KHU?$less@_K@std@@V?$allocator@U?$pair@$$CB_KH@std@@@2@$0A@@std@@@std@@QEAA?AViterator@12@Vconst_iterator@12@@Z@4HA
	DD	imagerel ?dtor$0@?0??erase@?$_Tree@V?$_Tmap_traits@_KHU?$less@_K@std@@V?$allocator@U?$pair@$$CB_KH@std@@@2@$0A@@std@@@std@@QEAA?AViterator@12@Vconst_iterator@12@@Z@4HA+25
	DD	imagerel $unwind$?dtor$0@?0??erase@?$_Tree@V?$_Tmap_traits@_KHU?$less@_K@std@@V?$allocator@U?$pair@$$CB_KH@std@@@2@$0A@@std@@@std@@QEAA?AViterator@12@Vconst_iterator@12@@Z@4HA
pdata	ENDS
;	COMDAT pdata
pdata	SEGMENT
$pdata$?dtor$2@?0??erase@?$_Tree@V?$_Tmap_traits@_KHU?$less@_K@std@@V?$allocator@U?$pair@$$CB_KH@std@@@2@$0A@@std@@@std@@QEAA?AViterator@12@Vconst_iterator@12@@Z@4HA DD imagerel ?dtor$2@?0??erase@?$_Tree@V?$_Tmap_traits@_KHU?$less@_K@std@@V?$allocator@U?$pair@$$CB_KH@std@@@2@$0A@@std@@@std@@QEAA?AViterator@12@Vconst_iterator@12@@Z@4HA
	DD	imagerel ?dtor$2@?0??erase@?$_Tree@V?$_Tmap_traits@_KHU?$less@_K@std@@V?$allocator@U?$pair@$$CB_KH@std@@@2@$0A@@std@@@std@@QEAA?AViterator@12@Vconst_iterator@12@@Z@4HA+25
	DD	imagerel $unwind$?dtor$2@?0??erase@?$_Tree@V?$_Tmap_traits@_KHU?$less@_K@std@@V?$allocator@U?$pair@$$CB_KH@std@@@2@$0A@@std@@@std@@QEAA?AViterator@12@Vconst_iterator@12@@Z@4HA
pdata	ENDS
;	COMDAT xdata
xdata	SEGMENT
$ip2state$?erase@?$_Tree@V?$_Tmap_traits@_KHU?$less@_K@std@@V?$allocator@U?$pair@$$CB_KH@std@@@2@$0A@@std@@@std@@QEAA?AViterator@12@Vconst_iterator@12@@Z DD imagerel ?erase@?$_Tree@V?$_Tmap_traits@_KHU?$less@_K@std@@V?$allocator@U?$pair@$$CB_KH@std@@@2@$0A@@std@@@std@@QEAA?AViterator@12@Vconst_iterator@12@@Z
	DD	0ffffffffH
	DD	imagerel ?erase@?$_Tree@V?$_Tmap_traits@_KHU?$less@_K@std@@V?$allocator@U?$pair@$$CB_KH@std@@@2@$0A@@std@@@std@@QEAA?AViterator@12@Vconst_iterator@12@@Z+73
	DD	00H
	DD	imagerel ?erase@?$_Tree@V?$_Tmap_traits@_KHU?$less@_K@std@@V?$allocator@U?$pair@$$CB_KH@std@@@2@$0A@@std@@@std@@QEAA?AViterator@12@Vconst_iterator@12@@Z+85
	DD	01H
	DD	imagerel ?erase@?$_Tree@V?$_Tmap_traits@_KHU?$less@_K@std@@V?$allocator@U?$pair@$$CB_KH@std@@@2@$0A@@std@@@std@@QEAA?AViterator@12@Vconst_iterator@12@@Z+114
	DD	00H
	DD	imagerel ?erase@?$_Tree@V?$_Tmap_traits@_KHU?$less@_K@std@@V?$allocator@U?$pair@$$CB_KH@std@@@2@$0A@@std@@@std@@QEAA?AViterator@12@Vconst_iterator@12@@Z+144
	DD	0ffffffffH
xdata	ENDS
;	COMDAT xdata
xdata	SEGMENT
$unwind$?dtor$2@?0??erase@?$_Tree@V?$_Tmap_traits@_KHU?$less@_K@std@@V?$allocator@U?$pair@$$CB_KH@std@@@2@$0A@@std@@@std@@QEAA?AViterator@12@Vconst_iterator@12@@Z@4HA DD 020601H
	DD	050023206H
xdata	ENDS
;	COMDAT xdata
xdata	SEGMENT
$unwind$?dtor$0@?0??erase@?$_Tree@V?$_Tmap_traits@_KHU?$less@_K@std@@V?$allocator@U?$pair@$$CB_KH@std@@@2@$0A@@std@@@std@@QEAA?AViterator@12@Vconst_iterator@12@@Z@4HA DD 020601H
	DD	050023206H
xdata	ENDS
;	COMDAT xdata
xdata	SEGMENT
$unwind$?erase@?$_Tree@V?$_Tmap_traits@_KHU?$less@_K@std@@V?$allocator@U?$pair@$$CB_KH@std@@@2@$0A@@std@@@std@@QEAA?AViterator@12@Vconst_iterator@12@@Z DD 0b2411H
	DD	01a6424H
	DD	0195420H
	DD	018341cH
	DD	014010fH
	DD	0c006d008H
	DD	07004H
	DD	imagerel __CxxFrameHandler3
	DD	imagerel $cppxdata$?erase@?$_Tree@V?$_Tmap_traits@_KHU?$less@_K@std@@V?$allocator@U?$pair@$$CB_KH@std@@@2@$0A@@std@@@std@@QEAA?AViterator@12@Vconst_iterator@12@@Z
xdata	ENDS
;	COMDAT CONST
CONST	SEGMENT
$cppxdata$?erase@?$_Tree@V?$_Tmap_traits@_KHU?$less@_K@std@@V?$allocator@U?$pair@$$CB_KH@std@@@2@$0A@@std@@@std@@QEAA?AViterator@12@Vconst_iterator@12@@Z DD 019930522H
	DD	02H
	DD	imagerel $stateUnwindMap$?erase@?$_Tree@V?$_Tmap_traits@_KHU?$less@_K@std@@V?$allocator@U?$pair@$$CB_KH@std@@@2@$0A@@std@@@std@@QEAA?AViterator@12@Vconst_iterator@12@@Z
	DD	00H
	DD	00H
	DD	05H
	DD	imagerel $ip2state$?erase@?$_Tree@V?$_Tmap_traits@_KHU?$less@_K@std@@V?$allocator@U?$pair@$$CB_KH@std@@@2@$0A@@std@@@std@@QEAA?AViterator@12@Vconst_iterator@12@@Z
	DD	030H
	DD	00H
	DD	01H
CONST	ENDS
;	COMDAT xdata
xdata	SEGMENT
$stateUnwindMap$?erase@?$_Tree@V?$_Tmap_traits@_KHU?$less@_K@std@@V?$allocator@U?$pair@$$CB_KH@std@@@2@$0A@@std@@@std@@QEAA?AViterator@12@Vconst_iterator@12@@Z DD 0ffffffffH
	DD	imagerel ?dtor$0@?0??erase@?$_Tree@V?$_Tmap_traits@_KHU?$less@_K@std@@V?$allocator@U?$pair@$$CB_KH@std@@@2@$0A@@std@@@std@@QEAA?AViterator@12@Vconst_iterator@12@@Z@4HA
	DD	00H
	DD	imagerel ?dtor$2@?0??erase@?$_Tree@V?$_Tmap_traits@_KHU?$less@_K@std@@V?$allocator@U?$pair@$$CB_KH@std@@@2@$0A@@std@@@std@@QEAA?AViterator@12@Vconst_iterator@12@@Z@4HA
; Function compile flags: /Ogtpy
; File c:\program files\microsoft visual studio 9.0\vc\include\xtree
xdata	ENDS
;	COMDAT ?erase@?$_Tree@V?$_Tmap_traits@_KHU?$less@_K@std@@V?$allocator@U?$pair@$$CB_KH@std@@@2@$0A@@std@@@std@@QEAA?AViterator@12@Vconst_iterator@12@@Z
_TEXT	SEGMENT
$T167080 = 32
$T166482 = 32
$T167123 = 48
$T166476 = 56
$T166477 = 120
this$ = 192
__$ReturnUdt$ = 200
_Where$ = 208
?erase@?$_Tree@V?$_Tmap_traits@_KHU?$less@_K@std@@V?$allocator@U?$pair@$$CB_KH@std@@@2@$0A@@std@@@std@@QEAA?AViterator@12@Vconst_iterator@12@@Z PROC ; std::_Tree<std::_Tmap_traits<unsigned __int64,int,std::less<unsigned __int64>,std::allocator<std::pair<unsigned __int64 const ,int> >,0> >::erase, COMDAT

; 764  : 		{	// erase element at _Where

$LN376:
	mov	rax, rsp
	push	rdi
	push	r12
	push	r13
	sub	rsp, 160				; 000000a0H
	mov	QWORD PTR $T167123[rsp], -2
	mov	QWORD PTR [rax+8], rbx
	mov	QWORD PTR [rax+16], rbp
	mov	QWORD PTR [rax+24], rsi
	mov	r12, r8
	mov	r13, rdx
	mov	rbp, rcx

; 765  : 
; 766  :  #if _HAS_ITERATOR_DEBUGGING
; 767  : 		if (_Where._Mycont != this || _Isnil(_Where._Mynode()))
; 768  : 			_DEBUG_ERROR("map/set erase iterator outside range");
; 769  : 		_Nodeptr _Erasednode = _Where._Mynode();	// node to erase
; 770  : 		++_Where;	// save successor iterator for return
; 771  : 		_Orphan_ptr(*this, _Erasednode);
; 772  : 
; 773  :  #else /* _HAS_ITERATOR_DEBUGGING */
; 774  : 		if (_Isnil(_Where._Mynode()))

	mov	rsi, QWORD PTR [r8+8]
	cmp	BYTE PTR [rsi+41], 0
	je	SHORT $LN40@erase@3

; 775  : 			_THROW(out_of_range, "invalid map/set<T> iterator");

	lea	rdx, OFFSET FLAT:??_C@_0BM@PAPJHAGI@invalid?5map?1set?$DMT?$DO?5iterator?$AA@
	lea	rcx, QWORD PTR [rax-64]
	call	QWORD PTR __imp_??0?$basic_string@DU?$char_traits@D@std@@V?$allocator@D@2@@std@@QEAA@PEBD@Z
	npad	1
	lea	rcx, QWORD PTR $T166476[rsp]
	call	QWORD PTR __imp_??0exception@std@@QEAA@XZ
	npad	1
	lea	rax, OFFSET FLAT:??_7logic_error@std@@6B@
	mov	QWORD PTR $T166476[rsp], rax
	lea	rdx, QWORD PTR $T166477[rsp]
	lea	rcx, QWORD PTR $T166476[rsp+24]
	call	QWORD PTR __imp_??0?$basic_string@DU?$char_traits@D@std@@V?$allocator@D@2@@std@@QEAA@AEBV01@@Z
	npad	1
	lea	rax, OFFSET FLAT:??_7out_of_range@std@@6B@
	mov	QWORD PTR $T166476[rsp], rax
	lea	rdx, OFFSET FLAT:_TI3?AVout_of_range@std@@
	lea	rcx, QWORD PTR $T166476[rsp]
	call	_CxxThrowException
	npad	1
$LN40@erase@3:

; 776  : 		_Nodeptr _Erasednode = _Where._Mynode();	// node to erase
; 777  : 		++_Where;	// save successor iterator for return

	mov	rcx, r8
	call	?_Inc@const_iterator@?$_Tree@V?$_Tmap_traits@_KHU?$less@_K@std@@V?$allocator@U?$pair@$$CB_KH@std@@@2@$0A@@std@@@std@@QEAAXXZ ; std::_Tree<std::_Tmap_traits<unsigned __int64,int,std::less<unsigned __int64>,std::allocator<std::pair<unsigned __int64 const ,int> >,0> >::const_iterator::_Inc

; 778  :  #endif /* _HAS_ITERATOR_DEBUGGING */
; 779  : 
; 780  : 		_Nodeptr _Fixnode;	// the node to recolor as needed
; 781  : 		_Nodeptr _Fixnodeparent;	// parent of _Fixnode (which may be nil)
; 782  : 		_Nodeptr _Pnode = _Erasednode;
; 783  : 
; 784  : 		if (_Isnil(_Left(_Pnode)))

	mov	r11, QWORD PTR [rsi]
	cmp	BYTE PTR [r11+41], 0
	je	SHORT $LN39@erase@3

; 785  : 			_Fixnode = _Right(_Pnode);	// must stitch up right subtree

	mov	rdi, QWORD PTR [rsi+16]
	jmp	SHORT $LN373@erase@3
$LN39@erase@3:

; 786  : 		else if (_Isnil(_Right(_Pnode)))

	mov	rax, QWORD PTR [rsi+16]
	cmp	BYTE PTR [rax+41], 0
	je	SHORT $LN37@erase@3

; 787  : 			_Fixnode = _Left(_Pnode);	// must stitch up left subtree

	mov	rdi, r11

; 788  : 		else

	jmp	SHORT $LN373@erase@3
$LN37@erase@3:

; 789  : 			{	// two subtrees, must lift successor node to replace erased
; 790  : 			_Pnode = _Where._Mynode();	// _Pnode is successor node

	mov	rcx, QWORD PTR [r12+8]

; 791  : 			_Fixnode = _Right(_Pnode);	// _Fixnode is its only subtree

	mov	rdi, QWORD PTR [rcx+16]

; 792  : 			}
; 793  : 
; 794  : 		if (_Pnode == _Erasednode)

	cmp	rcx, rsi
	jne	$LN35@erase@3
$LN373@erase@3:

; 795  : 			{	// at most one subtree, relink it
; 796  : 			_Fixnodeparent = _Parent(_Erasednode);

	mov	rbx, QWORD PTR [rsi+8]

; 797  : 			if (!_Isnil(_Fixnode))

	cmp	BYTE PTR [rdi+41], 0
	jne	SHORT $LN34@erase@3

; 798  : 				_Parent(_Fixnode) = _Fixnodeparent;	// link up

	mov	QWORD PTR [rdi+8], rbx
$LN34@erase@3:

; 799  : 
; 800  : 			if (_Root() == _Erasednode)

	mov	rax, QWORD PTR [rbp+48]
	cmp	QWORD PTR [rax+8], rsi
	jne	SHORT $LN33@erase@3

; 801  : 				_Root() = _Fixnode;	// link down from root

	mov	QWORD PTR [rax+8], rdi
	jmp	SHORT $LN30@erase@3
$LN33@erase@3:

; 802  : 			else if (_Left(_Fixnodeparent) == _Erasednode)

	cmp	QWORD PTR [rbx], rsi
	jne	SHORT $LN31@erase@3

; 803  : 				_Left(_Fixnodeparent) = _Fixnode;	// link down to left

	mov	QWORD PTR [rbx], rdi

; 804  : 			else

	jmp	SHORT $LN30@erase@3
$LN31@erase@3:

; 805  : 				_Right(_Fixnodeparent) = _Fixnode;	// link down to right

	mov	QWORD PTR [rbx+16], rdi
$LN30@erase@3:

; 806  : 
; 807  : 			if (_Lmost() == _Erasednode)

	mov	rdx, QWORD PTR [rbp+48]
	cmp	QWORD PTR [rdx], rsi
	jne	SHORT $LN29@erase@3

; 808  : 				_Lmost() = _Isnil(_Fixnode)
; 809  : 					? _Fixnodeparent	// smallest is parent of erased node
; 810  : 					: _Min(_Fixnode);	// smallest in relinked subtree

	cmp	BYTE PTR [rdi+41], 0
	je	SHORT $LN43@erase@3
	mov	rcx, rbx
	jmp	SHORT $LN44@erase@3
$LN43@erase@3:
	mov	rcx, rdi
	mov	rax, QWORD PTR [rdi]
	cmp	BYTE PTR [rax+41], 0
	jne	SHORT $LN44@erase@3
	npad	11
$LL106@erase@3:
	mov	rcx, rax
	mov	rax, QWORD PTR [rax]
	cmp	BYTE PTR [rax+41], 0
	je	SHORT $LL106@erase@3
$LN44@erase@3:
	mov	QWORD PTR [rdx], rcx
$LN29@erase@3:

; 811  : 
; 812  : 			if (_Rmost() == _Erasednode)

	mov	rdx, QWORD PTR [rbp+48]
	cmp	QWORD PTR [rdx+16], rsi
	jne	$LN193@erase@3

; 813  : 				_Rmost() = _Isnil(_Fixnode)
; 814  : 					? _Fixnodeparent	// largest is parent of erased node
; 815  : 					: _Max(_Fixnode);	// largest in relinked subtree

	cmp	BYTE PTR [rdi+41], 0
	je	SHORT $LN45@erase@3
	mov	rcx, rbx
	jmp	SHORT $LN46@erase@3
$LN45@erase@3:
	mov	rcx, rdi
	mov	rax, QWORD PTR [rdi+16]
	cmp	BYTE PTR [rax+41], 0
	jne	SHORT $LN46@erase@3
	npad	11
$LL126@erase@3:
	mov	rcx, rax
	mov	rax, QWORD PTR [rax+16]
	cmp	BYTE PTR [rax+41], 0
	je	SHORT $LL126@erase@3
$LN46@erase@3:
	mov	QWORD PTR [rdx+16], rcx

; 816  : 			}
; 817  : 		else

	jmp	SHORT $LN193@erase@3
$LN35@erase@3:

; 818  : 			{	// erased has two subtrees, _Pnode is successor to erased
; 819  : 			_Parent(_Left(_Erasednode)) = _Pnode;	// link left up

	mov	QWORD PTR [r11+8], rcx

; 820  : 			_Left(_Pnode) = _Left(_Erasednode);	// link successor down

	mov	rax, QWORD PTR [rsi]
	mov	QWORD PTR [rcx], rax

; 821  : 
; 822  : 			if (_Pnode == _Right(_Erasednode))

	cmp	rcx, QWORD PTR [rsi+16]
	jne	SHORT $LN26@erase@3

; 823  : 				_Fixnodeparent = _Pnode;	// successor is next to erased

	mov	rbx, rcx

; 824  : 			else

	jmp	SHORT $LN25@erase@3
$LN26@erase@3:

; 825  : 				{	// successor further down, link in place of erased
; 826  : 				_Fixnodeparent = _Parent(_Pnode);	// parent is successor's

	mov	rbx, QWORD PTR [rcx+8]

; 827  : 				if (!_Isnil(_Fixnode))

	cmp	BYTE PTR [rdi+41], 0
	jne	SHORT $LN24@erase@3

; 828  : 					_Parent(_Fixnode) = _Fixnodeparent;	// link fix up

	mov	QWORD PTR [rdi+8], rbx
$LN24@erase@3:

; 829  : 				_Left(_Fixnodeparent) = _Fixnode;	// link fix down

	mov	QWORD PTR [rbx], rdi

; 830  : 				_Right(_Pnode) = _Right(_Erasednode);	// link successor down

	mov	rax, QWORD PTR [rsi+16]
	mov	QWORD PTR [rcx+16], rax

; 831  : 				_Parent(_Right(_Erasednode)) = _Pnode;	// link right up

	mov	rax, QWORD PTR [rsi+16]
	mov	QWORD PTR [rax+8], rcx
$LN25@erase@3:

; 832  : 				}
; 833  : 
; 834  : 			if (_Root() == _Erasednode)

	mov	rax, QWORD PTR [rbp+48]
	cmp	QWORD PTR [rax+8], rsi
	jne	SHORT $LN23@erase@3

; 835  : 				_Root() = _Pnode;	// link down from root

	mov	QWORD PTR [rax+8], rcx
	jmp	SHORT $LN20@erase@3
$LN23@erase@3:

; 836  : 			else if (_Left(_Parent(_Erasednode)) == _Erasednode)

	mov	rax, QWORD PTR [rsi+8]
	cmp	QWORD PTR [rax], rsi
	jne	SHORT $LN21@erase@3

; 837  : 				_Left(_Parent(_Erasednode)) = _Pnode;	// link down to left

	mov	QWORD PTR [rax], rcx

; 838  : 			else

	jmp	SHORT $LN20@erase@3
$LN21@erase@3:

; 839  : 				_Right(_Parent(_Erasednode)) = _Pnode;	// link down to right

	mov	QWORD PTR [rax+16], rcx
$LN20@erase@3:

; 840  : 
; 841  : 			_Parent(_Pnode) = _Parent(_Erasednode);	// link successor up

	mov	rax, QWORD PTR [rsi+8]
	mov	QWORD PTR [rcx+8], rax

; 842  : 			_STD swap(_Color(_Pnode), _Color(_Erasednode));	// recolor it

	lea	rdx, QWORD PTR [rsi+40]
	lea	r8, QWORD PTR [rcx+40]
	cmp	r8, rdx
	je	SHORT $LN193@erase@3
	movzx	ecx, BYTE PTR [r8]
	movzx	eax, BYTE PTR [rdx]
	mov	BYTE PTR [r8], al
	mov	BYTE PTR [rdx], cl
$LN193@erase@3:

; 843  : 			}
; 844  : 
; 845  : 		if (_Color(_Erasednode) == _Black)

	cmp	BYTE PTR [rsi+40], 1
	jne	$LN19@erase@3

; 846  : 			{	// erasing black link, must recolor/rebalance tree
; 847  : 			for (; _Fixnode != _Root() && _Color(_Fixnode) == _Black;
; 848  : 				_Fixnodeparent = _Parent(_Fixnode))

	mov	rax, QWORD PTR [rbp+48]
	cmp	rdi, QWORD PTR [rax+8]
	je	$LN16@erase@3
$LL18@erase@3:
	cmp	BYTE PTR [rdi+40], 1
	jne	$LN16@erase@3

; 849  : 				if (_Fixnode == _Left(_Fixnodeparent))

	mov	rcx, QWORD PTR [rbx]
	cmp	rdi, rcx
	jne	$LN15@erase@3

; 850  : 					{	// fixup left subtree
; 851  : 					_Pnode = _Right(_Fixnodeparent);

	mov	rcx, QWORD PTR [rbx+16]

; 852  : 					if (_Color(_Pnode) == _Red)

	cmp	BYTE PTR [rcx+40], 0
	jne	SHORT $LN14@erase@3

; 853  : 						{	// rotate red up from right subtree
; 854  : 						_Color(_Pnode) = _Black;

	mov	BYTE PTR [rcx+40], 1

; 855  : 						_Color(_Fixnodeparent) = _Red;

	mov	BYTE PTR [rbx+40], 0

; 856  : 						_Lrotate(_Fixnodeparent);

	mov	rcx, QWORD PTR [rbx+16]
	mov	rax, QWORD PTR [rcx]
	mov	QWORD PTR [rbx+16], rax
	mov	rax, QWORD PTR [rcx]
	cmp	BYTE PTR [rax+41], 0
	jne	SHORT $LN220@erase@3
	mov	QWORD PTR [rax+8], rbx
$LN220@erase@3:
	mov	rax, QWORD PTR [rbx+8]
	mov	QWORD PTR [rcx+8], rax
	mov	rax, QWORD PTR [rbp+48]
	cmp	rbx, QWORD PTR [rax+8]
	jne	SHORT $LN219@erase@3
	mov	QWORD PTR [rax+8], rcx
	jmp	SHORT $LN216@erase@3
$LN219@erase@3:
	mov	rax, QWORD PTR [rbx+8]
	cmp	rbx, QWORD PTR [rax]
	jne	SHORT $LN217@erase@3
	mov	QWORD PTR [rax], rcx
	jmp	SHORT $LN216@erase@3
$LN217@erase@3:
	mov	QWORD PTR [rax+16], rcx
$LN216@erase@3:
	mov	QWORD PTR [rcx], rbx
	mov	QWORD PTR [rbx+8], rcx

; 857  : 						_Pnode = _Right(_Fixnodeparent);

	mov	rcx, QWORD PTR [rbx+16]
$LN14@erase@3:

; 858  : 						}
; 859  : 
; 860  : 					if (_Isnil(_Pnode))

	cmp	BYTE PTR [rcx+41], 0
	je	SHORT $LN13@erase@3

; 861  : 						_Fixnode = _Fixnodeparent;	// shouldn't happen

	mov	rdi, rbx

; 862  : 					else if (_Color(_Left(_Pnode)) == _Black

	jmp	SHORT $LN17@erase@3
$LN13@erase@3:

; 863  : 						&& _Color(_Right(_Pnode)) == _Black)

	mov	rax, QWORD PTR [rcx]
	cmp	BYTE PTR [rax+40], 1
	jne	SHORT $LN11@erase@3
	mov	rax, QWORD PTR [rcx+16]
	cmp	BYTE PTR [rax+40], 1
	jne	SHORT $LN11@erase@3

; 864  : 						{	// redden right subtree with black children
; 865  : 						_Color(_Pnode) = _Red;

	mov	BYTE PTR [rcx+40], 0

; 866  : 						_Fixnode = _Fixnodeparent;

	mov	rdi, rbx

; 883  : 						}
; 884  : 					}
; 885  : 				else

	jmp	SHORT $LN17@erase@3
$LN15@erase@3:

; 886  : 					{	// fixup right subtree
; 887  : 					_Pnode = _Left(_Fixnodeparent);
; 888  : 					if (_Color(_Pnode) == _Red)

	cmp	BYTE PTR [rcx+40], 0
	jne	SHORT $LN7@erase@3

; 889  : 						{	// rotate red up from left subtree
; 890  : 						_Color(_Pnode) = _Black;

	mov	BYTE PTR [rcx+40], 1

; 891  : 						_Color(_Fixnodeparent) = _Red;

	mov	BYTE PTR [rbx+40], 0

; 892  : 						_Rrotate(_Fixnodeparent);

	mov	rdx, rbx
	mov	rcx, rbp
	call	?_Rrotate@?$_Tree@V?$_Tmap_traits@_KHU?$less@_K@std@@V?$allocator@U?$pair@$$CB_KH@std@@@2@$0A@@std@@@std@@IEAAXPEAU_Node@?$_Tree_nod@V?$_Tmap_traits@_KHU?$less@_K@std@@V?$allocator@U?$pair@$$CB_KH@std@@@2@$0A@@std@@@2@@Z ; std::_Tree<std::_Tmap_traits<unsigned __int64,int,std::less<unsigned __int64>,std::allocator<std::pair<unsigned __int64 const ,int> >,0> >::_Rrotate

; 893  : 						_Pnode = _Left(_Fixnodeparent);

	mov	rcx, QWORD PTR [rbx]
$LN7@erase@3:

; 894  : 						}
; 895  : 					if (_Isnil(_Pnode))

	cmp	BYTE PTR [rcx+41], 0
	je	SHORT $LN6@erase@3

; 896  : 						_Fixnode = _Fixnodeparent;	// shouldn't happen

	mov	rdi, rbx

; 897  : 					else if (_Color(_Right(_Pnode)) == _Black

	jmp	SHORT $LN17@erase@3
$LN6@erase@3:

; 898  : 						&& _Color(_Left(_Pnode)) == _Black)

	mov	rax, QWORD PTR [rcx+16]
	cmp	BYTE PTR [rax+40], 1
	jne	SHORT $LN4@erase@3
	mov	rax, QWORD PTR [rcx]
	cmp	BYTE PTR [rax+40], 1
	jne	SHORT $LN4@erase@3

; 899  : 						{	// redden left subtree with black children
; 900  : 						_Color(_Pnode) = _Red;

	mov	BYTE PTR [rcx+40], 0

; 901  : 						_Fixnode = _Fixnodeparent;

	mov	rdi, rbx
$LN17@erase@3:

; 846  : 			{	// erasing black link, must recolor/rebalance tree
; 847  : 			for (; _Fixnode != _Root() && _Color(_Fixnode) == _Black;
; 848  : 				_Fixnodeparent = _Parent(_Fixnode))

	mov	rbx, QWORD PTR [rbx+8]
	mov	rax, QWORD PTR [rbp+48]
	cmp	rdi, QWORD PTR [rax+8]
	je	$LN16@erase@3
	jmp	$LL18@erase@3
$LN11@erase@3:

; 867  : 						}
; 868  : 					else
; 869  : 						{	// must rearrange right subtree
; 870  : 						if (_Color(_Right(_Pnode)) == _Black)

	mov	rax, QWORD PTR [rcx+16]
	cmp	BYTE PTR [rax+40], 1
	jne	SHORT $LN9@erase@3

; 871  : 							{	// rotate red up from left sub-subtree
; 872  : 							_Color(_Left(_Pnode)) = _Black;

	mov	rax, QWORD PTR [rcx]
	mov	BYTE PTR [rax+40], 1

; 873  : 							_Color(_Pnode) = _Red;

	mov	BYTE PTR [rcx+40], 0

; 874  : 							_Rrotate(_Pnode);

	mov	rdx, rcx
	mov	rcx, rbp
	call	?_Rrotate@?$_Tree@V?$_Tmap_traits@_KHU?$less@_K@std@@V?$allocator@U?$pair@$$CB_KH@std@@@2@$0A@@std@@@std@@IEAAXPEAU_Node@?$_Tree_nod@V?$_Tmap_traits@_KHU?$less@_K@std@@V?$allocator@U?$pair@$$CB_KH@std@@@2@$0A@@std@@@2@@Z ; std::_Tree<std::_Tmap_traits<unsigned __int64,int,std::less<unsigned __int64>,std::allocator<std::pair<unsigned __int64 const ,int> >,0> >::_Rrotate

; 875  : 							_Pnode = _Right(_Fixnodeparent);

	mov	rcx, QWORD PTR [rbx+16]
$LN9@erase@3:

; 876  : 							}
; 877  : 
; 878  : 						_Color(_Pnode) = _Color(_Fixnodeparent);

	movzx	eax, BYTE PTR [rbx+40]
	mov	BYTE PTR [rcx+40], al

; 879  : 						_Color(_Fixnodeparent) = _Black;

	mov	BYTE PTR [rbx+40], 1

; 880  : 						_Color(_Right(_Pnode)) = _Black;

	mov	rax, QWORD PTR [rcx+16]
	mov	BYTE PTR [rax+40], 1

; 881  : 						_Lrotate(_Fixnodeparent);

	mov	rdx, rbx
	mov	rcx, rbp
	call	?_Lrotate@?$_Tree@V?$_Tmap_traits@_KHU?$less@_K@std@@V?$allocator@U?$pair@$$CB_KH@std@@@2@$0A@@std@@@std@@IEAAXPEAU_Node@?$_Tree_nod@V?$_Tmap_traits@_KHU?$less@_K@std@@V?$allocator@U?$pair@$$CB_KH@std@@@2@$0A@@std@@@2@@Z ; std::_Tree<std::_Tmap_traits<unsigned __int64,int,std::less<unsigned __int64>,std::allocator<std::pair<unsigned __int64 const ,int> >,0> >::_Lrotate

; 882  : 						break;	// tree now recolored/rebalanced

	jmp	SHORT $LN16@erase@3
$LN4@erase@3:

; 902  : 						}
; 903  : 					else
; 904  : 						{	// must rearrange left subtree
; 905  : 						if (_Color(_Left(_Pnode)) == _Black)

	mov	rax, QWORD PTR [rcx]
	cmp	BYTE PTR [rax+40], 1
	jne	SHORT $LN2@erase@3

; 906  : 							{	// rotate red up from right sub-subtree
; 907  : 							_Color(_Right(_Pnode)) = _Black;

	mov	rax, QWORD PTR [rcx+16]
	mov	BYTE PTR [rax+40], 1

; 908  : 							_Color(_Pnode) = _Red;

	mov	BYTE PTR [rcx+40], 0

; 909  : 							_Lrotate(_Pnode);

	mov	rdx, rcx
	mov	rcx, rbp
	call	?_Lrotate@?$_Tree@V?$_Tmap_traits@_KHU?$less@_K@std@@V?$allocator@U?$pair@$$CB_KH@std@@@2@$0A@@std@@@std@@IEAAXPEAU_Node@?$_Tree_nod@V?$_Tmap_traits@_KHU?$less@_K@std@@V?$allocator@U?$pair@$$CB_KH@std@@@2@$0A@@std@@@2@@Z ; std::_Tree<std::_Tmap_traits<unsigned __int64,int,std::less<unsigned __int64>,std::allocator<std::pair<unsigned __int64 const ,int> >,0> >::_Lrotate

; 910  : 							_Pnode = _Left(_Fixnodeparent);

	mov	rcx, QWORD PTR [rbx]
$LN2@erase@3:

; 911  : 							}
; 912  : 
; 913  : 						_Color(_Pnode) = _Color(_Fixnodeparent);

	movzx	eax, BYTE PTR [rbx+40]
	mov	BYTE PTR [rcx+40], al

; 914  : 						_Color(_Fixnodeparent) = _Black;

	mov	BYTE PTR [rbx+40], 1

; 915  : 						_Color(_Left(_Pnode)) = _Black;

	mov	rax, QWORD PTR [rcx]
	mov	BYTE PTR [rax+40], 1

; 916  : 						_Rrotate(_Fixnodeparent);

	mov	rdx, rbx
	mov	rcx, rbp
	call	?_Rrotate@?$_Tree@V?$_Tmap_traits@_KHU?$less@_K@std@@V?$allocator@U?$pair@$$CB_KH@std@@@2@$0A@@std@@@std@@IEAAXPEAU_Node@?$_Tree_nod@V?$_Tmap_traits@_KHU?$less@_K@std@@V?$allocator@U?$pair@$$CB_KH@std@@@2@$0A@@std@@@2@@Z ; std::_Tree<std::_Tmap_traits<unsigned __int64,int,std::less<unsigned __int64>,std::allocator<std::pair<unsigned __int64 const ,int> >,0> >::_Rrotate
$LN16@erase@3:

; 917  : 						break;	// tree now recolored/rebalanced
; 918  : 						}
; 919  : 					}
; 920  : 
; 921  : 			_Color(_Fixnode) = _Black;	// ensure stopping node is black

	mov	BYTE PTR [rdi+40], 1
$LN19@erase@3:

; 922  : 			}
; 923  : 
; 924  : 		this->_Alnod.destroy(_Erasednode);	// destroy, free erased node
; 925  : 		this->_Alnod.deallocate(_Erasednode, 1);

	mov	rcx, rsi
	call	??3@YAXPEAX@Z				; operator delete

; 926  : 
; 927  : 		if (0 < _Mysize)

	mov	rax, QWORD PTR [rbp+56]
	test	rax, rax
	je	SHORT $LN1@erase@3

; 928  : 			--_Mysize;

	dec	rax
	mov	QWORD PTR [rbp+56], rax
$LN1@erase@3:

; 929  : 
; 930  : 		return (_Make_iter(_Where));	// return successor iterator

	lea	rcx, QWORD PTR $T166482[rsp]
	mov	rax, QWORD PTR [r12]
	mov	QWORD PTR [rcx], rax
	mov	rax, QWORD PTR [r12+8]
	mov	QWORD PTR [rcx+8], rax
	mov	rax, QWORD PTR $T166482[rsp+8]
	mov	QWORD PTR $T167080[rsp+8], rax
	mov	rax, QWORD PTR [rbp]
	mov	QWORD PTR $T167080[rsp], rax
	lea	rcx, QWORD PTR $T167080[rsp]
	mov	rax, QWORD PTR [rcx]
	mov	QWORD PTR [r13], rax
	mov	rax, QWORD PTR [rcx+8]
	mov	QWORD PTR [r13+8], rax
	mov	rax, r13

; 931  : 		}

	lea	r11, QWORD PTR [rsp+160]
	mov	rbx, QWORD PTR [r11+32]
	mov	rbp, QWORD PTR [r11+40]
	mov	rsi, QWORD PTR [r11+48]
	mov	rsp, r11
	pop	r13
	pop	r12
	pop	rdi
	ret	0
$LN375@erase@3:
?erase@?$_Tree@V?$_Tmap_traits@_KHU?$less@_K@std@@V?$allocator@U?$pair@$$CB_KH@std@@@2@$0A@@std@@@std@@QEAA?AViterator@12@Vconst_iterator@12@@Z ENDP ; std::_Tree<std::_Tmap_traits<unsigned __int64,int,std::less<unsigned __int64>,std::allocator<std::pair<unsigned __int64 const ,int> >,0> >::erase
; Function compile flags: /Ogtpy
_TEXT	ENDS
;	COMDAT text$x
text$x	SEGMENT
$T167080 = 32
$T166482 = 32
$T167123 = 48
$T166476 = 56
$T166477 = 120
this$ = 192
__$ReturnUdt$ = 200
_Where$ = 208
?dtor$0@?0??erase@?$_Tree@V?$_Tmap_traits@_KHU?$less@_K@std@@V?$allocator@U?$pair@$$CB_KH@std@@@2@$0A@@std@@@std@@QEAA?AViterator@12@Vconst_iterator@12@@Z@4HA PROC ; `std::_Tree<std::_Tmap_traits<unsigned __int64,int,std::less<unsigned __int64>,std::allocator<std::pair<unsigned __int64 const ,int> >,0> >::erase'::`1'::dtor$0
	push	rbp
	sub	rsp, 32					; 00000020H
	mov	rbp, rdx
	lea	rcx, QWORD PTR $T166477[rbp]
	call	QWORD PTR __imp_??1?$basic_string@DU?$char_traits@D@std@@V?$allocator@D@2@@std@@QEAA@XZ
	add	rsp, 32					; 00000020H
	pop	rbp
	ret	0
?dtor$0@?0??erase@?$_Tree@V?$_Tmap_traits@_KHU?$less@_K@std@@V?$allocator@U?$pair@$$CB_KH@std@@@2@$0A@@std@@@std@@QEAA?AViterator@12@Vconst_iterator@12@@Z@4HA ENDP ; `std::_Tree<std::_Tmap_traits<unsigned __int64,int,std::less<unsigned __int64>,std::allocator<std::pair<unsigned __int64 const ,int> >,0> >::erase'::`1'::dtor$0
; Function compile flags: /Ogtpy
$T167080 = 32
$T166482 = 32
$T167123 = 48
$T166476 = 56
$T166477 = 120
this$ = 192
__$ReturnUdt$ = 200
_Where$ = 208
?dtor$2@?0??erase@?$_Tree@V?$_Tmap_traits@_KHU?$less@_K@std@@V?$allocator@U?$pair@$$CB_KH@std@@@2@$0A@@std@@@std@@QEAA?AViterator@12@Vconst_iterator@12@@Z@4HA PROC ; `std::_Tree<std::_Tmap_traits<unsigned __int64,int,std::less<unsigned __int64>,std::allocator<std::pair<unsigned __int64 const ,int> >,0> >::erase'::`1'::dtor$2
	push	rbp
	sub	rsp, 32					; 00000020H
	mov	rbp, rdx
	lea	rcx, QWORD PTR $T166476[rbp]
	call	QWORD PTR __imp_??1exception@std@@UEAA@XZ
	add	rsp, 32					; 00000020H
	pop	rbp
	ret	0
?dtor$2@?0??erase@?$_Tree@V?$_Tmap_traits@_KHU?$less@_K@std@@V?$allocator@U?$pair@$$CB_KH@std@@@2@$0A@@std@@@std@@QEAA?AViterator@12@Vconst_iterator@12@@Z@4HA ENDP ; `std::_Tree<std::_Tmap_traits<unsigned __int64,int,std::less<unsigned __int64>,std::allocator<std::pair<unsigned __int64 const ,int> >,0> >::erase'::`1'::dtor$2
text$x	ENDS
PUBLIC	$T167152
PUBLIC	$T167151
;	COMDAT pdata
; File c:\program files\microsoft visual studio 9.0\vc\include\xutility
pdata	SEGMENT
$pdata$?erase@?$_Tree@V?$_Tmap_traits@KPEAVThreadInfo@@U?$less@K@std@@V?$allocator@U?$pair@$$CBKPEAVThreadInfo@@@std@@@3@$0A@@std@@@std@@QEAA?AViterator@12@Vconst_iterator@12@0@Z DD imagerel $LN177
	DD	imagerel $LN177+420
	DD	imagerel $unwind$?erase@?$_Tree@V?$_Tmap_traits@KPEAVThreadInfo@@U?$less@K@std@@V?$allocator@U?$pair@$$CBKPEAVThreadInfo@@@std@@@3@$0A@@std@@@std@@QEAA?AViterator@12@Vconst_iterator@12@0@Z
pdata	ENDS
;	COMDAT xdata
xdata	SEGMENT
$unwind$?erase@?$_Tree@V?$_Tmap_traits@KPEAVThreadInfo@@U?$less@K@std@@V?$allocator@U?$pair@$$CBKPEAVThreadInfo@@@std@@@3@$0A@@std@@@std@@QEAA?AViterator@12@Vconst_iterator@12@0@Z DD 0a1a01H
	DD	0f741aH
	DD	0e641aH
	DD	0d541aH
	DD	0c341aH
	DD	0c016921aH
; Function compile flags: /Ogtpy
; File c:\program files\microsoft visual studio 9.0\vc\include\xtree
xdata	ENDS
;	COMDAT ?erase@?$_Tree@V?$_Tmap_traits@KPEAVThreadInfo@@U?$less@K@std@@V?$allocator@U?$pair@$$CBKPEAVThreadInfo@@@std@@@3@$0A@@std@@@std@@QEAA?AViterator@12@Vconst_iterator@12@0@Z
_TEXT	SEGMENT
$T167683 = 32
$T167149 = 32
$T167152 = 48
$T167151 = 48
$T167150 = 64
this$ = 96
__$ReturnUdt$ = 104
_First$ = 112
_Last$ = 120
?erase@?$_Tree@V?$_Tmap_traits@KPEAVThreadInfo@@U?$less@K@std@@V?$allocator@U?$pair@$$CBKPEAVThreadInfo@@@std@@@3@$0A@@std@@@std@@QEAA?AViterator@12@Vconst_iterator@12@0@Z PROC ; std::_Tree<std::_Tmap_traits<unsigned long,ThreadInfo * __ptr64,std::less<unsigned long>,std::allocator<std::pair<unsigned long const ,ThreadInfo * __ptr64> >,0> >::erase, COMDAT

; 934  : 		{	// erase [_First, _Last)

$LN177:
	mov	QWORD PTR [rsp+8], rbx
	mov	QWORD PTR [rsp+16], rbp
	mov	QWORD PTR [rsp+24], rsi
	mov	QWORD PTR [rsp+32], rdi
	push	r12
	sub	rsp, 80					; 00000050H

; 935  : 		if (_First == begin() && _Last == end())

	mov	rax, QWORD PTR [rcx+48]
	mov	rsi, r9
	mov	rbx, r8
	mov	rdi, QWORD PTR [rax]
	mov	rax, QWORD PTR [r8]
	mov	r12, rdx
	mov	rbp, rcx
	test	rax, rax
	je	SHORT $LN32@erase@4
	cmp	rax, QWORD PTR [rcx]
	je	SHORT $LN31@erase@4
$LN32@erase@4:
	call	QWORD PTR __imp__invalid_parameter_noinfo
$LN31@erase@4:
	cmp	QWORD PTR [rbx+8], rdi
	jne	SHORT $LL2@erase@4
	mov	rax, QWORD PTR [rsi]
	mov	rdi, QWORD PTR [rbp+48]
	test	rax, rax
	je	SHORT $LN61@erase@4
	cmp	rax, QWORD PTR [rbp]
	je	SHORT $LN60@erase@4
$LN61@erase@4:
	call	QWORD PTR __imp__invalid_parameter_noinfo
$LN60@erase@4:
	cmp	QWORD PTR [rsi+8], rdi
	jne	SHORT $LL2@erase@4

; 936  : 			{	// erase all
; 937  : 			clear();

	mov	rcx, rbp
	call	?clear@?$_Tree@V?$_Tmap_traits@KPEAVThreadInfo@@U?$less@K@std@@V?$allocator@U?$pair@$$CBKPEAVThreadInfo@@@std@@@3@$0A@@std@@@std@@QEAAXXZ ; std::_Tree<std::_Tmap_traits<unsigned long,ThreadInfo * __ptr64,std::less<unsigned long>,std::allocator<std::pair<unsigned long const ,ThreadInfo * __ptr64> >,0> >::clear

; 938  : 			return (begin());

	mov	r11, QWORD PTR [rbp+48]
	mov	rax, QWORD PTR [r11]
	mov	QWORD PTR [r12+8], rax
	mov	rax, QWORD PTR [rbp]
	mov	QWORD PTR [r12], rax
	jmp	$LN176@erase@4
$LL2@erase@4:

; 939  : 			}
; 940  : 		else
; 941  : 			{	// partial erase, one at a time
; 942  : 			while (_First != _Last)

	mov	rax, QWORD PTR [rbx]
	test	rax, rax
	je	SHORT $LN96@erase@4
	cmp	rax, QWORD PTR [rsi]
	je	SHORT $LN95@erase@4
$LN96@erase@4:
	call	QWORD PTR __imp__invalid_parameter_noinfo
$LN95@erase@4:
	mov	rax, QWORD PTR [rsi+8]
	cmp	QWORD PTR [rbx+8], rax

; 943  : 				erase(_First++);

	mov	rax, QWORD PTR [rbx]
	je	$LN1@erase@4
	cmp	QWORD PTR [rbx], 0
	lea	rcx, QWORD PTR $T167149[rsp]
	mov	QWORD PTR [rcx], rax
	mov	rax, QWORD PTR [rbx+8]
	mov	QWORD PTR [rcx+8], rax
	jne	SHORT $LN116@erase@4
	call	QWORD PTR __imp__invalid_parameter_noinfo
$LN116@erase@4:
	mov	rax, QWORD PTR [rbx+8]
	cmp	BYTE PTR [rax+41], 0
	je	SHORT $LN113@erase@4
	call	QWORD PTR __imp__invalid_parameter_noinfo
	jmp	SHORT $LN110@erase@4
$LN113@erase@4:
	mov	rcx, QWORD PTR [rax+16]
	cmp	BYTE PTR [rcx+41], 0
	jne	SHORT $LN166@erase@4
	mov	rax, QWORD PTR [rcx]
	cmp	BYTE PTR [rax+41], 0
	jne	SHORT $LN172@erase@4
	npad	6
$LL131@erase@4:
	mov	rcx, rax
	mov	rax, QWORD PTR [rax]
	cmp	BYTE PTR [rax+41], 0
	je	SHORT $LL131@erase@4
	jmp	SHORT $LN172@erase@4
$LN166@erase@4:
	mov	rcx, QWORD PTR [rax+8]
	cmp	BYTE PTR [rcx+41], 0
	jne	SHORT $LN172@erase@4
	npad	8
$LL109@erase@4:
	mov	rax, QWORD PTR [rcx+16]
	cmp	QWORD PTR [rbx+8], rax
	jne	SHORT $LN172@erase@4
	mov	QWORD PTR [rbx+8], rcx
	mov	rcx, QWORD PTR [rcx+8]
	cmp	BYTE PTR [rcx+41], 0
	je	SHORT $LL109@erase@4
$LN172@erase@4:
	mov	QWORD PTR [rbx+8], rcx
$LN110@erase@4:
	movaps	xmm0, XMMWORD PTR $T167149[rsp]
	lea	r8, QWORD PTR $T167151[rsp]
	lea	rdx, QWORD PTR $T167150[rsp]
	mov	rcx, rbp
	movdqa	XMMWORD PTR $T167151[rsp], xmm0
	call	?erase@?$_Tree@V?$_Tmap_traits@KPEAVThreadInfo@@U?$less@K@std@@V?$allocator@U?$pair@$$CBKPEAVThreadInfo@@@std@@@3@$0A@@std@@@std@@QEAA?AViterator@12@Vconst_iterator@12@@Z ; std::_Tree<std::_Tmap_traits<unsigned long,ThreadInfo * __ptr64,std::less<unsigned long>,std::allocator<std::pair<unsigned long const ,ThreadInfo * __ptr64> >,0> >::erase
	jmp	$LL2@erase@4
$LN1@erase@4:

; 944  : 			return (_Make_iter(_First));

	lea	rcx, QWORD PTR $T167152[rsp]
	mov	QWORD PTR [rcx], rax
	mov	rax, QWORD PTR [rbx+8]
	mov	QWORD PTR [rcx+8], rax
	mov	rax, QWORD PTR $T167152[rsp+8]
	lea	rcx, QWORD PTR $T167683[rsp]
	mov	QWORD PTR $T167683[rsp+8], rax
	mov	rax, QWORD PTR [rbp]
	mov	QWORD PTR $T167683[rsp], rax
	mov	rax, QWORD PTR [rcx]
	mov	QWORD PTR [r12], rax
	mov	rax, QWORD PTR [rcx+8]
	mov	QWORD PTR [r12+8], rax
$LN176@erase@4:

; 945  : 			}
; 946  : 		}

	mov	rbx, QWORD PTR [rsp+96]
	mov	rbp, QWORD PTR [rsp+104]
	mov	rsi, QWORD PTR [rsp+112]
	mov	rdi, QWORD PTR [rsp+120]
	mov	rax, r12
	add	rsp, 80					; 00000050H
	pop	r12
	ret	0
?erase@?$_Tree@V?$_Tmap_traits@KPEAVThreadInfo@@U?$less@K@std@@V?$allocator@U?$pair@$$CBKPEAVThreadInfo@@@std@@@3@$0A@@std@@@std@@QEAA?AViterator@12@Vconst_iterator@12@0@Z ENDP ; std::_Tree<std::_Tmap_traits<unsigned long,ThreadInfo * __ptr64,std::less<unsigned long>,std::allocator<std::pair<unsigned long const ,ThreadInfo * __ptr64> >,0> >::erase
_TEXT	ENDS
PUBLIC	$T167736
PUBLIC	$T167735
;	COMDAT pdata
; File c:\program files\microsoft visual studio 9.0\vc\include\xutility
pdata	SEGMENT
$pdata$?erase@?$_Tree@V?$_Tmap_traits@_KPEAVThreadInfo@@U?$less@_K@std@@V?$allocator@U?$pair@$$CB_KPEAVThreadInfo@@@std@@@3@$0A@@std@@@std@@QEAA?AViterator@12@Vconst_iterator@12@0@Z DD imagerel $LN177
	DD	imagerel $LN177+420
	DD	imagerel $unwind$?erase@?$_Tree@V?$_Tmap_traits@_KPEAVThreadInfo@@U?$less@_K@std@@V?$allocator@U?$pair@$$CB_KPEAVThreadInfo@@@std@@@3@$0A@@std@@@std@@QEAA?AViterator@12@Vconst_iterator@12@0@Z
pdata	ENDS
;	COMDAT xdata
xdata	SEGMENT
$unwind$?erase@?$_Tree@V?$_Tmap_traits@_KPEAVThreadInfo@@U?$less@_K@std@@V?$allocator@U?$pair@$$CB_KPEAVThreadInfo@@@std@@@3@$0A@@std@@@std@@QEAA?AViterator@12@Vconst_iterator@12@0@Z DD 0a1a01H
	DD	0f741aH
	DD	0e641aH
	DD	0d541aH
	DD	0c341aH
	DD	0c016921aH
; Function compile flags: /Ogtpy
; File c:\program files\microsoft visual studio 9.0\vc\include\xtree
xdata	ENDS
;	COMDAT ?erase@?$_Tree@V?$_Tmap_traits@_KPEAVThreadInfo@@U?$less@_K@std@@V?$allocator@U?$pair@$$CB_KPEAVThreadInfo@@@std@@@3@$0A@@std@@@std@@QEAA?AViterator@12@Vconst_iterator@12@0@Z
_TEXT	SEGMENT
$T168267 = 32
$T167733 = 32
$T167736 = 48
$T167735 = 48
$T167734 = 64
this$ = 96
__$ReturnUdt$ = 104
_First$ = 112
_Last$ = 120
?erase@?$_Tree@V?$_Tmap_traits@_KPEAVThreadInfo@@U?$less@_K@std@@V?$allocator@U?$pair@$$CB_KPEAVThreadInfo@@@std@@@3@$0A@@std@@@std@@QEAA?AViterator@12@Vconst_iterator@12@0@Z PROC ; std::_Tree<std::_Tmap_traits<unsigned __int64,ThreadInfo * __ptr64,std::less<unsigned __int64>,std::allocator<std::pair<unsigned __int64 const ,ThreadInfo * __ptr64> >,0> >::erase, COMDAT

; 934  : 		{	// erase [_First, _Last)

$LN177:
	mov	QWORD PTR [rsp+8], rbx
	mov	QWORD PTR [rsp+16], rbp
	mov	QWORD PTR [rsp+24], rsi
	mov	QWORD PTR [rsp+32], rdi
	push	r12
	sub	rsp, 80					; 00000050H

; 935  : 		if (_First == begin() && _Last == end())

	mov	rax, QWORD PTR [rcx+48]
	mov	rsi, r9
	mov	rbx, r8
	mov	rdi, QWORD PTR [rax]
	mov	rax, QWORD PTR [r8]
	mov	r12, rdx
	mov	rbp, rcx
	test	rax, rax
	je	SHORT $LN32@erase@5
	cmp	rax, QWORD PTR [rcx]
	je	SHORT $LN31@erase@5
$LN32@erase@5:
	call	QWORD PTR __imp__invalid_parameter_noinfo
$LN31@erase@5:
	cmp	QWORD PTR [rbx+8], rdi
	jne	SHORT $LL2@erase@5
	mov	rax, QWORD PTR [rsi]
	mov	rdi, QWORD PTR [rbp+48]
	test	rax, rax
	je	SHORT $LN61@erase@5
	cmp	rax, QWORD PTR [rbp]
	je	SHORT $LN60@erase@5
$LN61@erase@5:
	call	QWORD PTR __imp__invalid_parameter_noinfo
$LN60@erase@5:
	cmp	QWORD PTR [rsi+8], rdi
	jne	SHORT $LL2@erase@5

; 936  : 			{	// erase all
; 937  : 			clear();

	mov	rcx, rbp
	call	?clear@?$_Tree@V?$_Tmap_traits@_KPEAVThreadInfo@@U?$less@_K@std@@V?$allocator@U?$pair@$$CB_KPEAVThreadInfo@@@std@@@3@$0A@@std@@@std@@QEAAXXZ ; std::_Tree<std::_Tmap_traits<unsigned __int64,ThreadInfo * __ptr64,std::less<unsigned __int64>,std::allocator<std::pair<unsigned __int64 const ,ThreadInfo * __ptr64> >,0> >::clear

; 938  : 			return (begin());

	mov	r11, QWORD PTR [rbp+48]
	mov	rax, QWORD PTR [r11]
	mov	QWORD PTR [r12+8], rax
	mov	rax, QWORD PTR [rbp]
	mov	QWORD PTR [r12], rax
	jmp	$LN176@erase@5
$LL2@erase@5:

; 939  : 			}
; 940  : 		else
; 941  : 			{	// partial erase, one at a time
; 942  : 			while (_First != _Last)

	mov	rax, QWORD PTR [rbx]
	test	rax, rax
	je	SHORT $LN96@erase@5
	cmp	rax, QWORD PTR [rsi]
	je	SHORT $LN95@erase@5
$LN96@erase@5:
	call	QWORD PTR __imp__invalid_parameter_noinfo
$LN95@erase@5:
	mov	rax, QWORD PTR [rsi+8]
	cmp	QWORD PTR [rbx+8], rax

; 943  : 				erase(_First++);

	mov	rax, QWORD PTR [rbx]
	je	$LN1@erase@5
	cmp	QWORD PTR [rbx], 0
	lea	rcx, QWORD PTR $T167733[rsp]
	mov	QWORD PTR [rcx], rax
	mov	rax, QWORD PTR [rbx+8]
	mov	QWORD PTR [rcx+8], rax
	jne	SHORT $LN116@erase@5
	call	QWORD PTR __imp__invalid_parameter_noinfo
$LN116@erase@5:
	mov	rax, QWORD PTR [rbx+8]
	cmp	BYTE PTR [rax+41], 0
	je	SHORT $LN113@erase@5
	call	QWORD PTR __imp__invalid_parameter_noinfo
	jmp	SHORT $LN110@erase@5
$LN113@erase@5:
	mov	rcx, QWORD PTR [rax+16]
	cmp	BYTE PTR [rcx+41], 0
	jne	SHORT $LN166@erase@5
	mov	rax, QWORD PTR [rcx]
	cmp	BYTE PTR [rax+41], 0
	jne	SHORT $LN172@erase@5
	npad	6
$LL131@erase@5:
	mov	rcx, rax
	mov	rax, QWORD PTR [rax]
	cmp	BYTE PTR [rax+41], 0
	je	SHORT $LL131@erase@5
	jmp	SHORT $LN172@erase@5
$LN166@erase@5:
	mov	rcx, QWORD PTR [rax+8]
	cmp	BYTE PTR [rcx+41], 0
	jne	SHORT $LN172@erase@5
	npad	8
$LL109@erase@5:
	mov	rax, QWORD PTR [rcx+16]
	cmp	QWORD PTR [rbx+8], rax
	jne	SHORT $LN172@erase@5
	mov	QWORD PTR [rbx+8], rcx
	mov	rcx, QWORD PTR [rcx+8]
	cmp	BYTE PTR [rcx+41], 0
	je	SHORT $LL109@erase@5
$LN172@erase@5:
	mov	QWORD PTR [rbx+8], rcx
$LN110@erase@5:
	movaps	xmm0, XMMWORD PTR $T167733[rsp]
	lea	r8, QWORD PTR $T167735[rsp]
	lea	rdx, QWORD PTR $T167734[rsp]
	mov	rcx, rbp
	movdqa	XMMWORD PTR $T167735[rsp], xmm0
	call	?erase@?$_Tree@V?$_Tmap_traits@_KPEAVThreadInfo@@U?$less@_K@std@@V?$allocator@U?$pair@$$CB_KPEAVThreadInfo@@@std@@@3@$0A@@std@@@std@@QEAA?AViterator@12@Vconst_iterator@12@@Z ; std::_Tree<std::_Tmap_traits<unsigned __int64,ThreadInfo * __ptr64,std::less<unsigned __int64>,std::allocator<std::pair<unsigned __int64 const ,ThreadInfo * __ptr64> >,0> >::erase
	jmp	$LL2@erase@5
$LN1@erase@5:

; 944  : 			return (_Make_iter(_First));

	lea	rcx, QWORD PTR $T167736[rsp]
	mov	QWORD PTR [rcx], rax
	mov	rax, QWORD PTR [rbx+8]
	mov	QWORD PTR [rcx+8], rax
	mov	rax, QWORD PTR $T167736[rsp+8]
	lea	rcx, QWORD PTR $T168267[rsp]
	mov	QWORD PTR $T168267[rsp+8], rax
	mov	rax, QWORD PTR [rbp]
	mov	QWORD PTR $T168267[rsp], rax
	mov	rax, QWORD PTR [rcx]
	mov	QWORD PTR [r12], rax
	mov	rax, QWORD PTR [rcx+8]
	mov	QWORD PTR [r12+8], rax
$LN176@erase@5:

; 945  : 			}
; 946  : 		}

	mov	rbx, QWORD PTR [rsp+96]
	mov	rbp, QWORD PTR [rsp+104]
	mov	rsi, QWORD PTR [rsp+112]
	mov	rdi, QWORD PTR [rsp+120]
	mov	rax, r12
	add	rsp, 80					; 00000050H
	pop	r12
	ret	0
?erase@?$_Tree@V?$_Tmap_traits@_KPEAVThreadInfo@@U?$less@_K@std@@V?$allocator@U?$pair@$$CB_KPEAVThreadInfo@@@std@@@3@$0A@@std@@@std@@QEAA?AViterator@12@Vconst_iterator@12@0@Z ENDP ; std::_Tree<std::_Tmap_traits<unsigned __int64,ThreadInfo * __ptr64,std::less<unsigned __int64>,std::allocator<std::pair<unsigned __int64 const ,ThreadInfo * __ptr64> >,0> >::erase
_TEXT	ENDS
PUBLIC	$T168320
PUBLIC	$T168319
;	COMDAT pdata
; File c:\program files\microsoft visual studio 9.0\vc\include\xutility
pdata	SEGMENT
$pdata$?erase@?$_Tree@V?$_Tmap_traits@_KHU?$less@_K@std@@V?$allocator@U?$pair@$$CB_KH@std@@@2@$0A@@std@@@std@@QEAA?AViterator@12@Vconst_iterator@12@0@Z DD imagerel $LN177
	DD	imagerel $LN177+420
	DD	imagerel $unwind$?erase@?$_Tree@V?$_Tmap_traits@_KHU?$less@_K@std@@V?$allocator@U?$pair@$$CB_KH@std@@@2@$0A@@std@@@std@@QEAA?AViterator@12@Vconst_iterator@12@0@Z
pdata	ENDS
;	COMDAT xdata
xdata	SEGMENT
$unwind$?erase@?$_Tree@V?$_Tmap_traits@_KHU?$less@_K@std@@V?$allocator@U?$pair@$$CB_KH@std@@@2@$0A@@std@@@std@@QEAA?AViterator@12@Vconst_iterator@12@0@Z DD 0a1a01H
	DD	0f741aH
	DD	0e641aH
	DD	0d541aH
	DD	0c341aH
	DD	0c016921aH
; Function compile flags: /Ogtpy
; File c:\program files\microsoft visual studio 9.0\vc\include\xtree
xdata	ENDS
;	COMDAT ?erase@?$_Tree@V?$_Tmap_traits@_KHU?$less@_K@std@@V?$allocator@U?$pair@$$CB_KH@std@@@2@$0A@@std@@@std@@QEAA?AViterator@12@Vconst_iterator@12@0@Z
_TEXT	SEGMENT
$T168852 = 32
$T168317 = 32
$T168320 = 48
$T168319 = 48
$T168318 = 64
this$ = 96
__$ReturnUdt$ = 104
_First$ = 112
_Last$ = 120
?erase@?$_Tree@V?$_Tmap_traits@_KHU?$less@_K@std@@V?$allocator@U?$pair@$$CB_KH@std@@@2@$0A@@std@@@std@@QEAA?AViterator@12@Vconst_iterator@12@0@Z PROC ; std::_Tree<std::_Tmap_traits<unsigned __int64,int,std::less<unsigned __int64>,std::allocator<std::pair<unsigned __int64 const ,int> >,0> >::erase, COMDAT

; 934  : 		{	// erase [_First, _Last)

$LN177:
	mov	QWORD PTR [rsp+8], rbx
	mov	QWORD PTR [rsp+16], rbp
	mov	QWORD PTR [rsp+24], rsi
	mov	QWORD PTR [rsp+32], rdi
	push	r12
	sub	rsp, 80					; 00000050H

; 935  : 		if (_First == begin() && _Last == end())

	mov	rax, QWORD PTR [rcx+48]
	mov	rsi, r9
	mov	rbx, r8
	mov	rdi, QWORD PTR [rax]
	mov	rax, QWORD PTR [r8]
	mov	r12, rdx
	mov	rbp, rcx
	test	rax, rax
	je	SHORT $LN32@erase@6
	cmp	rax, QWORD PTR [rcx]
	je	SHORT $LN31@erase@6
$LN32@erase@6:
	call	QWORD PTR __imp__invalid_parameter_noinfo
$LN31@erase@6:
	cmp	QWORD PTR [rbx+8], rdi
	jne	SHORT $LL2@erase@6
	mov	rax, QWORD PTR [rsi]
	mov	rdi, QWORD PTR [rbp+48]
	test	rax, rax
	je	SHORT $LN61@erase@6
	cmp	rax, QWORD PTR [rbp]
	je	SHORT $LN60@erase@6
$LN61@erase@6:
	call	QWORD PTR __imp__invalid_parameter_noinfo
$LN60@erase@6:
	cmp	QWORD PTR [rsi+8], rdi
	jne	SHORT $LL2@erase@6

; 936  : 			{	// erase all
; 937  : 			clear();

	mov	rcx, rbp
	call	?clear@?$_Tree@V?$_Tmap_traits@_KHU?$less@_K@std@@V?$allocator@U?$pair@$$CB_KH@std@@@2@$0A@@std@@@std@@QEAAXXZ ; std::_Tree<std::_Tmap_traits<unsigned __int64,int,std::less<unsigned __int64>,std::allocator<std::pair<unsigned __int64 const ,int> >,0> >::clear

; 938  : 			return (begin());

	mov	r11, QWORD PTR [rbp+48]
	mov	rax, QWORD PTR [r11]
	mov	QWORD PTR [r12+8], rax
	mov	rax, QWORD PTR [rbp]
	mov	QWORD PTR [r12], rax
	jmp	$LN176@erase@6
$LL2@erase@6:

; 939  : 			}
; 940  : 		else
; 941  : 			{	// partial erase, one at a time
; 942  : 			while (_First != _Last)

	mov	rax, QWORD PTR [rbx]
	test	rax, rax
	je	SHORT $LN96@erase@6
	cmp	rax, QWORD PTR [rsi]
	je	SHORT $LN95@erase@6
$LN96@erase@6:
	call	QWORD PTR __imp__invalid_parameter_noinfo
$LN95@erase@6:
	mov	rax, QWORD PTR [rsi+8]
	cmp	QWORD PTR [rbx+8], rax

; 943  : 				erase(_First++);

	mov	rax, QWORD PTR [rbx]
	je	$LN1@erase@6
	cmp	QWORD PTR [rbx], 0
	lea	rcx, QWORD PTR $T168317[rsp]
	mov	QWORD PTR [rcx], rax
	mov	rax, QWORD PTR [rbx+8]
	mov	QWORD PTR [rcx+8], rax
	jne	SHORT $LN116@erase@6
	call	QWORD PTR __imp__invalid_parameter_noinfo
$LN116@erase@6:
	mov	rax, QWORD PTR [rbx+8]
	cmp	BYTE PTR [rax+41], 0
	je	SHORT $LN113@erase@6
	call	QWORD PTR __imp__invalid_parameter_noinfo
	jmp	SHORT $LN110@erase@6
$LN113@erase@6:
	mov	rcx, QWORD PTR [rax+16]
	cmp	BYTE PTR [rcx+41], 0
	jne	SHORT $LN166@erase@6
	mov	rax, QWORD PTR [rcx]
	cmp	BYTE PTR [rax+41], 0
	jne	SHORT $LN172@erase@6
	npad	6
$LL131@erase@6:
	mov	rcx, rax
	mov	rax, QWORD PTR [rax]
	cmp	BYTE PTR [rax+41], 0
	je	SHORT $LL131@erase@6
	jmp	SHORT $LN172@erase@6
$LN166@erase@6:
	mov	rcx, QWORD PTR [rax+8]
	cmp	BYTE PTR [rcx+41], 0
	jne	SHORT $LN172@erase@6
	npad	8
$LL109@erase@6:
	mov	rax, QWORD PTR [rcx+16]
	cmp	QWORD PTR [rbx+8], rax
	jne	SHORT $LN172@erase@6
	mov	QWORD PTR [rbx+8], rcx
	mov	rcx, QWORD PTR [rcx+8]
	cmp	BYTE PTR [rcx+41], 0
	je	SHORT $LL109@erase@6
$LN172@erase@6:
	mov	QWORD PTR [rbx+8], rcx
$LN110@erase@6:
	movaps	xmm0, XMMWORD PTR $T168317[rsp]
	lea	r8, QWORD PTR $T168319[rsp]
	lea	rdx, QWORD PTR $T168318[rsp]
	mov	rcx, rbp
	movdqa	XMMWORD PTR $T168319[rsp], xmm0
	call	?erase@?$_Tree@V?$_Tmap_traits@_KHU?$less@_K@std@@V?$allocator@U?$pair@$$CB_KH@std@@@2@$0A@@std@@@std@@QEAA?AViterator@12@Vconst_iterator@12@@Z ; std::_Tree<std::_Tmap_traits<unsigned __int64,int,std::less<unsigned __int64>,std::allocator<std::pair<unsigned __int64 const ,int> >,0> >::erase
	jmp	$LL2@erase@6
$LN1@erase@6:

; 944  : 			return (_Make_iter(_First));

	lea	rcx, QWORD PTR $T168320[rsp]
	mov	QWORD PTR [rcx], rax
	mov	rax, QWORD PTR [rbx+8]
	mov	QWORD PTR [rcx+8], rax
	mov	rax, QWORD PTR $T168320[rsp+8]
	lea	rcx, QWORD PTR $T168852[rsp]
	mov	QWORD PTR $T168852[rsp+8], rax
	mov	rax, QWORD PTR [rbp]
	mov	QWORD PTR $T168852[rsp], rax
	mov	rax, QWORD PTR [rcx]
	mov	QWORD PTR [r12], rax
	mov	rax, QWORD PTR [rcx+8]
	mov	QWORD PTR [r12+8], rax
$LN176@erase@6:

; 945  : 			}
; 946  : 		}

	mov	rbx, QWORD PTR [rsp+96]
	mov	rbp, QWORD PTR [rsp+104]
	mov	rsi, QWORD PTR [rsp+112]
	mov	rdi, QWORD PTR [rsp+120]
	mov	rax, r12
	add	rsp, 80					; 00000050H
	pop	r12
	ret	0
?erase@?$_Tree@V?$_Tmap_traits@_KHU?$less@_K@std@@V?$allocator@U?$pair@$$CB_KH@std@@@2@$0A@@std@@@std@@QEAA?AViterator@12@Vconst_iterator@12@0@Z ENDP ; std::_Tree<std::_Tmap_traits<unsigned __int64,int,std::less<unsigned __int64>,std::allocator<std::pair<unsigned __int64 const ,int> >,0> >::erase
_TEXT	ENDS
PUBLIC	$T168904
PUBLIC	$T168905
;	COMDAT pdata
; File c:\program files\microsoft visual studio 9.0\vc\include\xmemory
pdata	SEGMENT
$pdata$?_Tidy@?$_Tree@V?$_Tmap_traits@KPEAVThreadInfo@@U?$less@K@std@@V?$allocator@U?$pair@$$CBKPEAVThreadInfo@@@std@@@3@$0A@@std@@@std@@IEAAXXZ DD imagerel $LN51
	DD	imagerel $LN51+102
	DD	imagerel $unwind$?_Tidy@?$_Tree@V?$_Tmap_traits@KPEAVThreadInfo@@U?$less@K@std@@V?$allocator@U?$pair@$$CBKPEAVThreadInfo@@@std@@@3@$0A@@std@@@std@@IEAAXXZ
pdata	ENDS
;	COMDAT xdata
xdata	SEGMENT
$unwind$?_Tidy@?$_Tree@V?$_Tmap_traits@KPEAVThreadInfo@@U?$less@K@std@@V?$allocator@U?$pair@$$CBKPEAVThreadInfo@@@std@@@3@$0A@@std@@@std@@IEAAXXZ DD 020801H
	DD	030049208H
; Function compile flags: /Ogtpy
; File c:\program files\microsoft visual studio 9.0\vc\include\xtree
xdata	ENDS
;	COMDAT ?_Tidy@?$_Tree@V?$_Tmap_traits@KPEAVThreadInfo@@U?$less@K@std@@V?$allocator@U?$pair@$$CBKPEAVThreadInfo@@@std@@@3@$0A@@std@@@std@@IEAAXXZ
_TEXT	SEGMENT
$T168905 = 32
$T168900 = 32
$T168904 = 48
$T168902 = 48
this$ = 96
?_Tidy@?$_Tree@V?$_Tmap_traits@KPEAVThreadInfo@@U?$less@K@std@@V?$allocator@U?$pair@$$CBKPEAVThreadInfo@@@std@@@3@$0A@@std@@@std@@IEAAXXZ PROC ; std::_Tree<std::_Tmap_traits<unsigned long,ThreadInfo * __ptr64,std::less<unsigned long>,std::allocator<std::pair<unsigned long const ,ThreadInfo * __ptr64> >,0> >::_Tidy, COMDAT

; 1420 : 		{	// free all storage

$LN51:
	mov	r11, rsp
	push	rbx
	sub	rsp, 80					; 00000050H

; 1421 : 		erase(begin(), end());

	mov	rdx, QWORD PTR [rcx]
	mov	rax, QWORD PTR [rcx+48]
	lea	r9, QWORD PTR [r11-56]
	mov	QWORD PTR [r11-48], rax
	mov	rax, QWORD PTR [rax]
	mov	QWORD PTR [r11-56], rdx
	movaps	xmm0, XMMWORD PTR $T168900[rsp]
	movdqa	XMMWORD PTR $T168905[rsp], xmm0
	mov	QWORD PTR [r11-40], rdx
	mov	QWORD PTR [r11-32], rax
	lea	r8, QWORD PTR [r11-40]
	movaps	xmm1, XMMWORD PTR $T168902[rsp]
	movdqa	XMMWORD PTR $T168904[rsp], xmm1
	lea	rdx, QWORD PTR [r11-24]
	mov	rbx, rcx
	call	?erase@?$_Tree@V?$_Tmap_traits@KPEAVThreadInfo@@U?$less@K@std@@V?$allocator@U?$pair@$$CBKPEAVThreadInfo@@@std@@@3@$0A@@std@@@std@@QEAA?AViterator@12@Vconst_iterator@12@0@Z ; std::_Tree<std::_Tmap_traits<unsigned long,ThreadInfo * __ptr64,std::less<unsigned long>,std::allocator<std::pair<unsigned long const ,ThreadInfo * __ptr64> >,0> >::erase

; 1422 : 		this->_Alptr.destroy(&_Left(_Myhead));
; 1423 : 		this->_Alptr.destroy(&_Parent(_Myhead));
; 1424 : 		this->_Alptr.destroy(&_Right(_Myhead));
; 1425 : 		this->_Alnod.deallocate(_Myhead, 1);

	mov	rcx, QWORD PTR [rbx+48]
	call	??3@YAXPEAX@Z				; operator delete

; 1426 : 		_Myhead = 0, _Mysize = 0;

	xor	r11d, r11d
	mov	QWORD PTR [rbx+48], r11
	mov	QWORD PTR [rbx+56], r11

; 1427 : 		}

	add	rsp, 80					; 00000050H
	pop	rbx
	ret	0
?_Tidy@?$_Tree@V?$_Tmap_traits@KPEAVThreadInfo@@U?$less@K@std@@V?$allocator@U?$pair@$$CBKPEAVThreadInfo@@@std@@@3@$0A@@std@@@std@@IEAAXXZ ENDP ; std::_Tree<std::_Tmap_traits<unsigned long,ThreadInfo * __ptr64,std::less<unsigned long>,std::allocator<std::pair<unsigned long const ,ThreadInfo * __ptr64> >,0> >::_Tidy
_TEXT	ENDS
PUBLIC	$T169089
PUBLIC	$T169090
;	COMDAT pdata
; File c:\program files\microsoft visual studio 9.0\vc\include\xmemory
pdata	SEGMENT
$pdata$?_Tidy@?$_Tree@V?$_Tmap_traits@_KPEAVThreadInfo@@U?$less@_K@std@@V?$allocator@U?$pair@$$CB_KPEAVThreadInfo@@@std@@@3@$0A@@std@@@std@@IEAAXXZ DD imagerel $LN51
	DD	imagerel $LN51+102
	DD	imagerel $unwind$?_Tidy@?$_Tree@V?$_Tmap_traits@_KPEAVThreadInfo@@U?$less@_K@std@@V?$allocator@U?$pair@$$CB_KPEAVThreadInfo@@@std@@@3@$0A@@std@@@std@@IEAAXXZ
pdata	ENDS
;	COMDAT xdata
xdata	SEGMENT
$unwind$?_Tidy@?$_Tree@V?$_Tmap_traits@_KPEAVThreadInfo@@U?$less@_K@std@@V?$allocator@U?$pair@$$CB_KPEAVThreadInfo@@@std@@@3@$0A@@std@@@std@@IEAAXXZ DD 020801H
	DD	030049208H
; Function compile flags: /Ogtpy
; File c:\program files\microsoft visual studio 9.0\vc\include\xtree
xdata	ENDS
;	COMDAT ?_Tidy@?$_Tree@V?$_Tmap_traits@_KPEAVThreadInfo@@U?$less@_K@std@@V?$allocator@U?$pair@$$CB_KPEAVThreadInfo@@@std@@@3@$0A@@std@@@std@@IEAAXXZ
_TEXT	SEGMENT
$T169090 = 32
$T169085 = 32
$T169089 = 48
$T169087 = 48
this$ = 96
?_Tidy@?$_Tree@V?$_Tmap_traits@_KPEAVThreadInfo@@U?$less@_K@std@@V?$allocator@U?$pair@$$CB_KPEAVThreadInfo@@@std@@@3@$0A@@std@@@std@@IEAAXXZ PROC ; std::_Tree<std::_Tmap_traits<unsigned __int64,ThreadInfo * __ptr64,std::less<unsigned __int64>,std::allocator<std::pair<unsigned __int64 const ,ThreadInfo * __ptr64> >,0> >::_Tidy, COMDAT

; 1420 : 		{	// free all storage

$LN51:
	mov	r11, rsp
	push	rbx
	sub	rsp, 80					; 00000050H

; 1421 : 		erase(begin(), end());

	mov	rdx, QWORD PTR [rcx]
	mov	rax, QWORD PTR [rcx+48]
	lea	r9, QWORD PTR [r11-56]
	mov	QWORD PTR [r11-48], rax
	mov	rax, QWORD PTR [rax]
	mov	QWORD PTR [r11-56], rdx
	movaps	xmm0, XMMWORD PTR $T169085[rsp]
	movdqa	XMMWORD PTR $T169090[rsp], xmm0
	mov	QWORD PTR [r11-40], rdx
	mov	QWORD PTR [r11-32], rax
	lea	r8, QWORD PTR [r11-40]
	movaps	xmm1, XMMWORD PTR $T169087[rsp]
	movdqa	XMMWORD PTR $T169089[rsp], xmm1
	lea	rdx, QWORD PTR [r11-24]
	mov	rbx, rcx
	call	?erase@?$_Tree@V?$_Tmap_traits@_KPEAVThreadInfo@@U?$less@_K@std@@V?$allocator@U?$pair@$$CB_KPEAVThreadInfo@@@std@@@3@$0A@@std@@@std@@QEAA?AViterator@12@Vconst_iterator@12@0@Z ; std::_Tree<std::_Tmap_traits<unsigned __int64,ThreadInfo * __ptr64,std::less<unsigned __int64>,std::allocator<std::pair<unsigned __int64 const ,ThreadInfo * __ptr64> >,0> >::erase

; 1422 : 		this->_Alptr.destroy(&_Left(_Myhead));
; 1423 : 		this->_Alptr.destroy(&_Parent(_Myhead));
; 1424 : 		this->_Alptr.destroy(&_Right(_Myhead));
; 1425 : 		this->_Alnod.deallocate(_Myhead, 1);

	mov	rcx, QWORD PTR [rbx+48]
	call	??3@YAXPEAX@Z				; operator delete

; 1426 : 		_Myhead = 0, _Mysize = 0;

	xor	r11d, r11d
	mov	QWORD PTR [rbx+48], r11
	mov	QWORD PTR [rbx+56], r11

; 1427 : 		}

	add	rsp, 80					; 00000050H
	pop	rbx
	ret	0
?_Tidy@?$_Tree@V?$_Tmap_traits@_KPEAVThreadInfo@@U?$less@_K@std@@V?$allocator@U?$pair@$$CB_KPEAVThreadInfo@@@std@@@3@$0A@@std@@@std@@IEAAXXZ ENDP ; std::_Tree<std::_Tmap_traits<unsigned __int64,ThreadInfo * __ptr64,std::less<unsigned __int64>,std::allocator<std::pair<unsigned __int64 const ,ThreadInfo * __ptr64> >,0> >::_Tidy
_TEXT	ENDS
PUBLIC	$T169274
PUBLIC	$T169275
;	COMDAT pdata
; File c:\program files\microsoft visual studio 9.0\vc\include\xmemory
pdata	SEGMENT
$pdata$?_Tidy@?$_Tree@V?$_Tmap_traits@_KHU?$less@_K@std@@V?$allocator@U?$pair@$$CB_KH@std@@@2@$0A@@std@@@std@@IEAAXXZ DD imagerel $LN51
	DD	imagerel $LN51+102
	DD	imagerel $unwind$?_Tidy@?$_Tree@V?$_Tmap_traits@_KHU?$less@_K@std@@V?$allocator@U?$pair@$$CB_KH@std@@@2@$0A@@std@@@std@@IEAAXXZ
pdata	ENDS
;	COMDAT xdata
xdata	SEGMENT
$unwind$?_Tidy@?$_Tree@V?$_Tmap_traits@_KHU?$less@_K@std@@V?$allocator@U?$pair@$$CB_KH@std@@@2@$0A@@std@@@std@@IEAAXXZ DD 020801H
	DD	030049208H
; Function compile flags: /Ogtpy
; File c:\program files\microsoft visual studio 9.0\vc\include\xtree
xdata	ENDS
;	COMDAT ?_Tidy@?$_Tree@V?$_Tmap_traits@_KHU?$less@_K@std@@V?$allocator@U?$pair@$$CB_KH@std@@@2@$0A@@std@@@std@@IEAAXXZ
_TEXT	SEGMENT
$T169275 = 32
$T169270 = 32
$T169274 = 48
$T169272 = 48
this$ = 96
?_Tidy@?$_Tree@V?$_Tmap_traits@_KHU?$less@_K@std@@V?$allocator@U?$pair@$$CB_KH@std@@@2@$0A@@std@@@std@@IEAAXXZ PROC ; std::_Tree<std::_Tmap_traits<unsigned __int64,int,std::less<unsigned __int64>,std::allocator<std::pair<unsigned __int64 const ,int> >,0> >::_Tidy, COMDAT

; 1420 : 		{	// free all storage

$LN51:
	mov	r11, rsp
	push	rbx
	sub	rsp, 80					; 00000050H

; 1421 : 		erase(begin(), end());

	mov	rdx, QWORD PTR [rcx]
	mov	rax, QWORD PTR [rcx+48]
	lea	r9, QWORD PTR [r11-56]
	mov	QWORD PTR [r11-48], rax
	mov	rax, QWORD PTR [rax]
	mov	QWORD PTR [r11-56], rdx
	movaps	xmm0, XMMWORD PTR $T169270[rsp]
	movdqa	XMMWORD PTR $T169275[rsp], xmm0
	mov	QWORD PTR [r11-40], rdx
	mov	QWORD PTR [r11-32], rax
	lea	r8, QWORD PTR [r11-40]
	movaps	xmm1, XMMWORD PTR $T169272[rsp]
	movdqa	XMMWORD PTR $T169274[rsp], xmm1
	lea	rdx, QWORD PTR [r11-24]
	mov	rbx, rcx
	call	?erase@?$_Tree@V?$_Tmap_traits@_KHU?$less@_K@std@@V?$allocator@U?$pair@$$CB_KH@std@@@2@$0A@@std@@@std@@QEAA?AViterator@12@Vconst_iterator@12@0@Z ; std::_Tree<std::_Tmap_traits<unsigned __int64,int,std::less<unsigned __int64>,std::allocator<std::pair<unsigned __int64 const ,int> >,0> >::erase

; 1422 : 		this->_Alptr.destroy(&_Left(_Myhead));
; 1423 : 		this->_Alptr.destroy(&_Parent(_Myhead));
; 1424 : 		this->_Alptr.destroy(&_Right(_Myhead));
; 1425 : 		this->_Alnod.deallocate(_Myhead, 1);

	mov	rcx, QWORD PTR [rbx+48]
	call	??3@YAXPEAX@Z				; operator delete

; 1426 : 		_Myhead = 0, _Mysize = 0;

	xor	r11d, r11d
	mov	QWORD PTR [rbx+48], r11
	mov	QWORD PTR [rbx+56], r11

; 1427 : 		}

	add	rsp, 80					; 00000050H
	pop	rbx
	ret	0
?_Tidy@?$_Tree@V?$_Tmap_traits@_KHU?$less@_K@std@@V?$allocator@U?$pair@$$CB_KH@std@@@2@$0A@@std@@@std@@IEAAXXZ ENDP ; std::_Tree<std::_Tmap_traits<unsigned __int64,int,std::less<unsigned __int64>,std::allocator<std::pair<unsigned __int64 const ,int> >,0> >::_Tidy
_TEXT	ENDS
PUBLIC	$T169640
PUBLIC	$T169641
;	COMDAT pdata
; File c:\program files\microsoft visual studio 9.0\vc\include\xutility
pdata	SEGMENT
$pdata$??1?$_Tree@V?$_Tmap_traits@KPEAVThreadInfo@@U?$less@K@std@@V?$allocator@U?$pair@$$CBKPEAVThreadInfo@@@std@@@3@$0A@@std@@@std@@QEAA@XZ DD imagerel $LN68
	DD	imagerel $LN68+122
	DD	imagerel $unwind$??1?$_Tree@V?$_Tmap_traits@KPEAVThreadInfo@@U?$less@K@std@@V?$allocator@U?$pair@$$CBKPEAVThreadInfo@@@std@@@3@$0A@@std@@@std@@QEAA@XZ
pdata	ENDS
;	COMDAT pdata
pdata	SEGMENT
$pdata$?dtor$0@?0???1?$_Tree@V?$_Tmap_traits@KPEAVThreadInfo@@U?$less@K@std@@V?$allocator@U?$pair@$$CBKPEAVThreadInfo@@@std@@@3@$0A@@std@@@std@@QEAA@XZ@4HA DD imagerel ?dtor$0@?0???1?$_Tree@V?$_Tmap_traits@KPEAVThreadInfo@@U?$less@K@std@@V?$allocator@U?$pair@$$CBKPEAVThreadInfo@@@std@@@3@$0A@@std@@@std@@QEAA@XZ@4HA
	DD	imagerel ?dtor$0@?0???1?$_Tree@V?$_Tmap_traits@KPEAVThreadInfo@@U?$less@K@std@@V?$allocator@U?$pair@$$CBKPEAVThreadInfo@@@std@@@3@$0A@@std@@@std@@QEAA@XZ@4HA+24
	DD	imagerel $unwind$?dtor$0@?0???1?$_Tree@V?$_Tmap_traits@KPEAVThreadInfo@@U?$less@K@std@@V?$allocator@U?$pair@$$CBKPEAVThreadInfo@@@std@@@3@$0A@@std@@@std@@QEAA@XZ@4HA
pdata	ENDS
;	COMDAT xdata
xdata	SEGMENT
$ip2state$??1?$_Tree@V?$_Tmap_traits@KPEAVThreadInfo@@U?$less@K@std@@V?$allocator@U?$pair@$$CBKPEAVThreadInfo@@@std@@@3@$0A@@std@@@std@@QEAA@XZ DD imagerel ??1?$_Tree@V?$_Tmap_traits@KPEAVThreadInfo@@U?$less@K@std@@V?$allocator@U?$pair@$$CBKPEAVThreadInfo@@@std@@@3@$0A@@std@@@std@@QEAA@XZ
	DD	0ffffffffH
	DD	imagerel ??1?$_Tree@V?$_Tmap_traits@KPEAVThreadInfo@@U?$less@K@std@@V?$allocator@U?$pair@$$CBKPEAVThreadInfo@@@std@@@3@$0A@@std@@@std@@QEAA@XZ+24
	DD	00H
	DD	imagerel ??1?$_Tree@V?$_Tmap_traits@KPEAVThreadInfo@@U?$less@K@std@@V?$allocator@U?$pair@$$CBKPEAVThreadInfo@@@std@@@3@$0A@@std@@@std@@QEAA@XZ+109
	DD	0ffffffffH
xdata	ENDS
;	COMDAT xdata
xdata	SEGMENT
$unwind$?dtor$0@?0???1?$_Tree@V?$_Tmap_traits@KPEAVThreadInfo@@U?$less@K@std@@V?$allocator@U?$pair@$$CBKPEAVThreadInfo@@@std@@@3@$0A@@std@@@std@@QEAA@XZ@4HA DD 020601H
	DD	050023206H
xdata	ENDS
;	COMDAT xdata
xdata	SEGMENT
$unwind$??1?$_Tree@V?$_Tmap_traits@KPEAVThreadInfo@@U?$less@K@std@@V?$allocator@U?$pair@$$CBKPEAVThreadInfo@@@std@@@3@$0A@@std@@@std@@QEAA@XZ DD 021511H
	DD	03008b20cH
	DD	imagerel __CxxFrameHandler3
	DD	imagerel $cppxdata$??1?$_Tree@V?$_Tmap_traits@KPEAVThreadInfo@@U?$less@K@std@@V?$allocator@U?$pair@$$CBKPEAVThreadInfo@@@std@@@3@$0A@@std@@@std@@QEAA@XZ
xdata	ENDS
;	COMDAT CONST
CONST	SEGMENT
$cppxdata$??1?$_Tree@V?$_Tmap_traits@KPEAVThreadInfo@@U?$less@K@std@@V?$allocator@U?$pair@$$CBKPEAVThreadInfo@@@std@@@3@$0A@@std@@@std@@QEAA@XZ DD 019930522H
	DD	01H
	DD	imagerel $stateUnwindMap$??1?$_Tree@V?$_Tmap_traits@KPEAVThreadInfo@@U?$less@K@std@@V?$allocator@U?$pair@$$CBKPEAVThreadInfo@@@std@@@3@$0A@@std@@@std@@QEAA@XZ
	DD	00H
	DD	00H
	DD	03H
	DD	imagerel $ip2state$??1?$_Tree@V?$_Tmap_traits@KPEAVThreadInfo@@U?$less@K@std@@V?$allocator@U?$pair@$$CBKPEAVThreadInfo@@@std@@@3@$0A@@std@@@std@@QEAA@XZ
	DD	020H
	DD	00H
	DD	01H
CONST	ENDS
;	COMDAT xdata
xdata	SEGMENT
$stateUnwindMap$??1?$_Tree@V?$_Tmap_traits@KPEAVThreadInfo@@U?$less@K@std@@V?$allocator@U?$pair@$$CBKPEAVThreadInfo@@@std@@@3@$0A@@std@@@std@@QEAA@XZ DD 0ffffffffH
	DD	imagerel ?dtor$0@?0???1?$_Tree@V?$_Tmap_traits@KPEAVThreadInfo@@U?$less@K@std@@V?$allocator@U?$pair@$$CBKPEAVThreadInfo@@@std@@@3@$0A@@std@@@std@@QEAA@XZ@4HA
; Function compile flags: /Ogtpy
; File c:\program files\microsoft visual studio 9.0\vc\include\xtree
xdata	ENDS
;	COMDAT ??1?$_Tree@V?$_Tmap_traits@KPEAVThreadInfo@@U?$less@K@std@@V?$allocator@U?$pair@$$CBKPEAVThreadInfo@@@std@@@3@$0A@@std@@@std@@QEAA@XZ
_TEXT	SEGMENT
$T169756 = 32
$T169641 = 48
$T169636 = 48
$T169640 = 64
$T169638 = 64
this$ = 112
??1?$_Tree@V?$_Tmap_traits@KPEAVThreadInfo@@U?$less@K@std@@V?$allocator@U?$pair@$$CBKPEAVThreadInfo@@@std@@@3@$0A@@std@@@std@@QEAA@XZ PROC ; std::_Tree<std::_Tmap_traits<unsigned long,ThreadInfo * __ptr64,std::less<unsigned long>,std::allocator<std::pair<unsigned long const ,ThreadInfo * __ptr64> >,0> >::~_Tree<std::_Tmap_traits<unsigned long,ThreadInfo * __ptr64,std::less<unsigned long>,std::allocator<std::pair<unsigned long const ,ThreadInfo * __ptr64> >,0> >, COMDAT

; 539  : 		{	// destroy tree

$LN68:
	mov	r11, rsp
	mov	QWORD PTR [r11+8], rcx
	push	rbx
	sub	rsp, 96					; 00000060H
	mov	QWORD PTR $T169756[rsp], -2
	mov	rbx, rcx

; 540  : 		_Tidy();

	mov	rax, QWORD PTR [rcx+48]
	mov	QWORD PTR [r11-48], rax
	mov	rdx, QWORD PTR [rcx]
	mov	QWORD PTR [r11-56], rdx
	mov	rax, QWORD PTR [rax]
	mov	QWORD PTR [r11-32], rax
	mov	QWORD PTR [r11-40], rdx
	movaps	xmm0, XMMWORD PTR $T169636[rsp]
	movdqa	XMMWORD PTR $T169641[rsp], xmm0
	movaps	xmm1, XMMWORD PTR $T169638[rsp]
	movdqa	XMMWORD PTR $T169640[rsp], xmm1
	lea	r9, QWORD PTR [r11-56]
	lea	r8, QWORD PTR [r11-40]
	lea	rdx, QWORD PTR [r11-24]
	call	?erase@?$_Tree@V?$_Tmap_traits@KPEAVThreadInfo@@U?$less@K@std@@V?$allocator@U?$pair@$$CBKPEAVThreadInfo@@@std@@@3@$0A@@std@@@std@@QEAA?AViterator@12@Vconst_iterator@12@0@Z ; std::_Tree<std::_Tmap_traits<unsigned long,ThreadInfo * __ptr64,std::less<unsigned long>,std::allocator<std::pair<unsigned long const ,ThreadInfo * __ptr64> >,0> >::erase
	mov	rcx, QWORD PTR [rbx+48]
	call	??3@YAXPEAX@Z				; operator delete
	xor	r11d, r11d
	mov	QWORD PTR [rbx+48], r11
	mov	QWORD PTR [rbx+56], r11

; 541  : 		}

	mov	rcx, QWORD PTR [rbx]
	add	rsp, 96					; 00000060H
	pop	rbx
	jmp	??3@YAXPEAX@Z				; operator delete
??1?$_Tree@V?$_Tmap_traits@KPEAVThreadInfo@@U?$less@K@std@@V?$allocator@U?$pair@$$CBKPEAVThreadInfo@@@std@@@3@$0A@@std@@@std@@QEAA@XZ ENDP ; std::_Tree<std::_Tmap_traits<unsigned long,ThreadInfo * __ptr64,std::less<unsigned long>,std::allocator<std::pair<unsigned long const ,ThreadInfo * __ptr64> >,0> >::~_Tree<std::_Tmap_traits<unsigned long,ThreadInfo * __ptr64,std::less<unsigned long>,std::allocator<std::pair<unsigned long const ,ThreadInfo * __ptr64> >,0> >
; Function compile flags: /Ogtpy
_TEXT	ENDS
;	COMDAT text$x
text$x	SEGMENT
$T169756 = 32
$T169641 = 48
$T169636 = 48
$T169640 = 64
$T169638 = 64
this$ = 112
?dtor$0@?0???1?$_Tree@V?$_Tmap_traits@KPEAVThreadInfo@@U?$less@K@std@@V?$allocator@U?$pair@$$CBKPEAVThreadInfo@@@std@@@3@$0A@@std@@@std@@QEAA@XZ@4HA PROC ; `std::_Tree<std::_Tmap_traits<unsigned long,ThreadInfo * __ptr64,std::less<unsigned long>,std::allocator<std::pair<unsigned long const ,ThreadInfo * __ptr64> >,0> >::~_Tree<std::_Tmap_traits<unsigned long,ThreadInfo * __ptr64,std::less<unsigned long>,std::allocator<std::pair<unsigned long const ,ThreadInfo * __ptr64> >,0> >'::`1'::dtor$0
	push	rbp
	sub	rsp, 32					; 00000020H
	mov	rbp, rdx
	mov	rcx, QWORD PTR this$[rbp]
	call	??1?$_Tree_val@V?$_Tmap_traits@KPEAVThreadInfo@@U?$less@K@std@@V?$allocator@U?$pair@$$CBKPEAVThreadInfo@@@std@@@3@$0A@@std@@@std@@QEAA@XZ
	add	rsp, 32					; 00000020H
	pop	rbp
	ret	0
?dtor$0@?0???1?$_Tree@V?$_Tmap_traits@KPEAVThreadInfo@@U?$less@K@std@@V?$allocator@U?$pair@$$CBKPEAVThreadInfo@@@std@@@3@$0A@@std@@@std@@QEAA@XZ@4HA ENDP ; `std::_Tree<std::_Tmap_traits<unsigned long,ThreadInfo * __ptr64,std::less<unsigned long>,std::allocator<std::pair<unsigned long const ,ThreadInfo * __ptr64> >,0> >::~_Tree<std::_Tmap_traits<unsigned long,ThreadInfo * __ptr64,std::less<unsigned long>,std::allocator<std::pair<unsigned long const ,ThreadInfo * __ptr64> >,0> >'::`1'::dtor$0
text$x	ENDS
PUBLIC	$T169963
PUBLIC	$T169964
;	COMDAT pdata
; File c:\program files\microsoft visual studio 9.0\vc\include\xutility
pdata	SEGMENT
$pdata$??1?$_Tree@V?$_Tmap_traits@_KPEAVThreadInfo@@U?$less@_K@std@@V?$allocator@U?$pair@$$CB_KPEAVThreadInfo@@@std@@@3@$0A@@std@@@std@@QEAA@XZ DD imagerel $LN68
	DD	imagerel $LN68+122
	DD	imagerel $unwind$??1?$_Tree@V?$_Tmap_traits@_KPEAVThreadInfo@@U?$less@_K@std@@V?$allocator@U?$pair@$$CB_KPEAVThreadInfo@@@std@@@3@$0A@@std@@@std@@QEAA@XZ
pdata	ENDS
;	COMDAT pdata
pdata	SEGMENT
$pdata$?dtor$0@?0???1?$_Tree@V?$_Tmap_traits@_KPEAVThreadInfo@@U?$less@_K@std@@V?$allocator@U?$pair@$$CB_KPEAVThreadInfo@@@std@@@3@$0A@@std@@@std@@QEAA@XZ@4HA DD imagerel ?dtor$0@?0???1?$_Tree@V?$_Tmap_traits@_KPEAVThreadInfo@@U?$less@_K@std@@V?$allocator@U?$pair@$$CB_KPEAVThreadInfo@@@std@@@3@$0A@@std@@@std@@QEAA@XZ@4HA
	DD	imagerel ?dtor$0@?0???1?$_Tree@V?$_Tmap_traits@_KPEAVThreadInfo@@U?$less@_K@std@@V?$allocator@U?$pair@$$CB_KPEAVThreadInfo@@@std@@@3@$0A@@std@@@std@@QEAA@XZ@4HA+24
	DD	imagerel $unwind$?dtor$0@?0???1?$_Tree@V?$_Tmap_traits@_KPEAVThreadInfo@@U?$less@_K@std@@V?$allocator@U?$pair@$$CB_KPEAVThreadInfo@@@std@@@3@$0A@@std@@@std@@QEAA@XZ@4HA
pdata	ENDS
;	COMDAT xdata
xdata	SEGMENT
$ip2state$??1?$_Tree@V?$_Tmap_traits@_KPEAVThreadInfo@@U?$less@_K@std@@V?$allocator@U?$pair@$$CB_KPEAVThreadInfo@@@std@@@3@$0A@@std@@@std@@QEAA@XZ DD imagerel ??1?$_Tree@V?$_Tmap_traits@_KPEAVThreadInfo@@U?$less@_K@std@@V?$allocator@U?$pair@$$CB_KPEAVThreadInfo@@@std@@@3@$0A@@std@@@std@@QEAA@XZ
	DD	0ffffffffH
	DD	imagerel ??1?$_Tree@V?$_Tmap_traits@_KPEAVThreadInfo@@U?$less@_K@std@@V?$allocator@U?$pair@$$CB_KPEAVThreadInfo@@@std@@@3@$0A@@std@@@std@@QEAA@XZ+24
	DD	00H
	DD	imagerel ??1?$_Tree@V?$_Tmap_traits@_KPEAVThreadInfo@@U?$less@_K@std@@V?$allocator@U?$pair@$$CB_KPEAVThreadInfo@@@std@@@3@$0A@@std@@@std@@QEAA@XZ+109
	DD	0ffffffffH
xdata	ENDS
;	COMDAT xdata
xdata	SEGMENT
$unwind$?dtor$0@?0???1?$_Tree@V?$_Tmap_traits@_KPEAVThreadInfo@@U?$less@_K@std@@V?$allocator@U?$pair@$$CB_KPEAVThreadInfo@@@std@@@3@$0A@@std@@@std@@QEAA@XZ@4HA DD 020601H
	DD	050023206H
xdata	ENDS
;	COMDAT xdata
xdata	SEGMENT
$unwind$??1?$_Tree@V?$_Tmap_traits@_KPEAVThreadInfo@@U?$less@_K@std@@V?$allocator@U?$pair@$$CB_KPEAVThreadInfo@@@std@@@3@$0A@@std@@@std@@QEAA@XZ DD 021511H
	DD	03008b20cH
	DD	imagerel __CxxFrameHandler3
	DD	imagerel $cppxdata$??1?$_Tree@V?$_Tmap_traits@_KPEAVThreadInfo@@U?$less@_K@std@@V?$allocator@U?$pair@$$CB_KPEAVThreadInfo@@@std@@@3@$0A@@std@@@std@@QEAA@XZ
xdata	ENDS
;	COMDAT CONST
CONST	SEGMENT
$cppxdata$??1?$_Tree@V?$_Tmap_traits@_KPEAVThreadInfo@@U?$less@_K@std@@V?$allocator@U?$pair@$$CB_KPEAVThreadInfo@@@std@@@3@$0A@@std@@@std@@QEAA@XZ DD 019930522H
	DD	01H
	DD	imagerel $stateUnwindMap$??1?$_Tree@V?$_Tmap_traits@_KPEAVThreadInfo@@U?$less@_K@std@@V?$allocator@U?$pair@$$CB_KPEAVThreadInfo@@@std@@@3@$0A@@std@@@std@@QEAA@XZ
	DD	00H
	DD	00H
	DD	03H
	DD	imagerel $ip2state$??1?$_Tree@V?$_Tmap_traits@_KPEAVThreadInfo@@U?$less@_K@std@@V?$allocator@U?$pair@$$CB_KPEAVThreadInfo@@@std@@@3@$0A@@std@@@std@@QEAA@XZ
	DD	020H
	DD	00H
	DD	01H
CONST	ENDS
;	COMDAT xdata
xdata	SEGMENT
$stateUnwindMap$??1?$_Tree@V?$_Tmap_traits@_KPEAVThreadInfo@@U?$less@_K@std@@V?$allocator@U?$pair@$$CB_KPEAVThreadInfo@@@std@@@3@$0A@@std@@@std@@QEAA@XZ DD 0ffffffffH
	DD	imagerel ?dtor$0@?0???1?$_Tree@V?$_Tmap_traits@_KPEAVThreadInfo@@U?$less@_K@std@@V?$allocator@U?$pair@$$CB_KPEAVThreadInfo@@@std@@@3@$0A@@std@@@std@@QEAA@XZ@4HA
; Function compile flags: /Ogtpy
; File c:\program files\microsoft visual studio 9.0\vc\include\xtree
xdata	ENDS
;	COMDAT ??1?$_Tree@V?$_Tmap_traits@_KPEAVThreadInfo@@U?$less@_K@std@@V?$allocator@U?$pair@$$CB_KPEAVThreadInfo@@@std@@@3@$0A@@std@@@std@@QEAA@XZ
_TEXT	SEGMENT
$T170079 = 32
$T169964 = 48
$T169959 = 48
$T169963 = 64
$T169961 = 64
this$ = 112
??1?$_Tree@V?$_Tmap_traits@_KPEAVThreadInfo@@U?$less@_K@std@@V?$allocator@U?$pair@$$CB_KPEAVThreadInfo@@@std@@@3@$0A@@std@@@std@@QEAA@XZ PROC ; std::_Tree<std::_Tmap_traits<unsigned __int64,ThreadInfo * __ptr64,std::less<unsigned __int64>,std::allocator<std::pair<unsigned __int64 const ,ThreadInfo * __ptr64> >,0> >::~_Tree<std::_Tmap_traits<unsigned __int64,ThreadInfo * __ptr64,std::less<unsigned __int64>,std::allocator<std::pair<unsigned __int64 const ,ThreadInfo * __ptr64> >,0> >, COMDAT

; 539  : 		{	// destroy tree

$LN68:
	mov	r11, rsp
	mov	QWORD PTR [r11+8], rcx
	push	rbx
	sub	rsp, 96					; 00000060H
	mov	QWORD PTR $T170079[rsp], -2
	mov	rbx, rcx

; 540  : 		_Tidy();

	mov	rax, QWORD PTR [rcx+48]
	mov	QWORD PTR [r11-48], rax
	mov	rdx, QWORD PTR [rcx]
	mov	QWORD PTR [r11-56], rdx
	mov	rax, QWORD PTR [rax]
	mov	QWORD PTR [r11-32], rax
	mov	QWORD PTR [r11-40], rdx
	movaps	xmm0, XMMWORD PTR $T169959[rsp]
	movdqa	XMMWORD PTR $T169964[rsp], xmm0
	movaps	xmm1, XMMWORD PTR $T169961[rsp]
	movdqa	XMMWORD PTR $T169963[rsp], xmm1
	lea	r9, QWORD PTR [r11-56]
	lea	r8, QWORD PTR [r11-40]
	lea	rdx, QWORD PTR [r11-24]
	call	?erase@?$_Tree@V?$_Tmap_traits@_KPEAVThreadInfo@@U?$less@_K@std@@V?$allocator@U?$pair@$$CB_KPEAVThreadInfo@@@std@@@3@$0A@@std@@@std@@QEAA?AViterator@12@Vconst_iterator@12@0@Z ; std::_Tree<std::_Tmap_traits<unsigned __int64,ThreadInfo * __ptr64,std::less<unsigned __int64>,std::allocator<std::pair<unsigned __int64 const ,ThreadInfo * __ptr64> >,0> >::erase
	mov	rcx, QWORD PTR [rbx+48]
	call	??3@YAXPEAX@Z				; operator delete
	xor	r11d, r11d
	mov	QWORD PTR [rbx+48], r11
	mov	QWORD PTR [rbx+56], r11

; 541  : 		}

	mov	rcx, QWORD PTR [rbx]
	add	rsp, 96					; 00000060H
	pop	rbx
	jmp	??3@YAXPEAX@Z				; operator delete
??1?$_Tree@V?$_Tmap_traits@_KPEAVThreadInfo@@U?$less@_K@std@@V?$allocator@U?$pair@$$CB_KPEAVThreadInfo@@@std@@@3@$0A@@std@@@std@@QEAA@XZ ENDP ; std::_Tree<std::_Tmap_traits<unsigned __int64,ThreadInfo * __ptr64,std::less<unsigned __int64>,std::allocator<std::pair<unsigned __int64 const ,ThreadInfo * __ptr64> >,0> >::~_Tree<std::_Tmap_traits<unsigned __int64,ThreadInfo * __ptr64,std::less<unsigned __int64>,std::allocator<std::pair<unsigned __int64 const ,ThreadInfo * __ptr64> >,0> >
; Function compile flags: /Ogtpy
_TEXT	ENDS
;	COMDAT text$x
text$x	SEGMENT
$T170079 = 32
$T169964 = 48
$T169959 = 48
$T169963 = 64
$T169961 = 64
this$ = 112
?dtor$0@?0???1?$_Tree@V?$_Tmap_traits@_KPEAVThreadInfo@@U?$less@_K@std@@V?$allocator@U?$pair@$$CB_KPEAVThreadInfo@@@std@@@3@$0A@@std@@@std@@QEAA@XZ@4HA PROC ; `std::_Tree<std::_Tmap_traits<unsigned __int64,ThreadInfo * __ptr64,std::less<unsigned __int64>,std::allocator<std::pair<unsigned __int64 const ,ThreadInfo * __ptr64> >,0> >::~_Tree<std::_Tmap_traits<unsigned __int64,ThreadInfo * __ptr64,std::less<unsigned __int64>,std::allocator<std::pair<unsigned __int64 const ,ThreadInfo * __ptr64> >,0> >'::`1'::dtor$0
	push	rbp
	sub	rsp, 32					; 00000020H
	mov	rbp, rdx
	mov	rcx, QWORD PTR this$[rbp]
	call	??1?$_Tree_val@V?$_Tmap_traits@_KPEAVThreadInfo@@U?$less@_K@std@@V?$allocator@U?$pair@$$CB_KPEAVThreadInfo@@@std@@@3@$0A@@std@@@std@@QEAA@XZ
	add	rsp, 32					; 00000020H
	pop	rbp
	ret	0
?dtor$0@?0???1?$_Tree@V?$_Tmap_traits@_KPEAVThreadInfo@@U?$less@_K@std@@V?$allocator@U?$pair@$$CB_KPEAVThreadInfo@@@std@@@3@$0A@@std@@@std@@QEAA@XZ@4HA ENDP ; `std::_Tree<std::_Tmap_traits<unsigned __int64,ThreadInfo * __ptr64,std::less<unsigned __int64>,std::allocator<std::pair<unsigned __int64 const ,ThreadInfo * __ptr64> >,0> >::~_Tree<std::_Tmap_traits<unsigned __int64,ThreadInfo * __ptr64,std::less<unsigned __int64>,std::allocator<std::pair<unsigned __int64 const ,ThreadInfo * __ptr64> >,0> >'::`1'::dtor$0
text$x	ENDS
PUBLIC	$T170286
PUBLIC	$T170287
;	COMDAT pdata
; File c:\program files\microsoft visual studio 9.0\vc\include\xutility
pdata	SEGMENT
$pdata$??1?$_Tree@V?$_Tmap_traits@_KHU?$less@_K@std@@V?$allocator@U?$pair@$$CB_KH@std@@@2@$0A@@std@@@std@@QEAA@XZ DD imagerel $LN68
	DD	imagerel $LN68+122
	DD	imagerel $unwind$??1?$_Tree@V?$_Tmap_traits@_KHU?$less@_K@std@@V?$allocator@U?$pair@$$CB_KH@std@@@2@$0A@@std@@@std@@QEAA@XZ
pdata	ENDS
;	COMDAT pdata
pdata	SEGMENT
$pdata$?dtor$0@?0???1?$_Tree@V?$_Tmap_traits@_KHU?$less@_K@std@@V?$allocator@U?$pair@$$CB_KH@std@@@2@$0A@@std@@@std@@QEAA@XZ@4HA DD imagerel ?dtor$0@?0???1?$_Tree@V?$_Tmap_traits@_KHU?$less@_K@std@@V?$allocator@U?$pair@$$CB_KH@std@@@2@$0A@@std@@@std@@QEAA@XZ@4HA
	DD	imagerel ?dtor$0@?0???1?$_Tree@V?$_Tmap_traits@_KHU?$less@_K@std@@V?$allocator@U?$pair@$$CB_KH@std@@@2@$0A@@std@@@std@@QEAA@XZ@4HA+24
	DD	imagerel $unwind$?dtor$0@?0???1?$_Tree@V?$_Tmap_traits@_KHU?$less@_K@std@@V?$allocator@U?$pair@$$CB_KH@std@@@2@$0A@@std@@@std@@QEAA@XZ@4HA
pdata	ENDS
;	COMDAT xdata
xdata	SEGMENT
$ip2state$??1?$_Tree@V?$_Tmap_traits@_KHU?$less@_K@std@@V?$allocator@U?$pair@$$CB_KH@std@@@2@$0A@@std@@@std@@QEAA@XZ DD imagerel ??1?$_Tree@V?$_Tmap_traits@_KHU?$less@_K@std@@V?$allocator@U?$pair@$$CB_KH@std@@@2@$0A@@std@@@std@@QEAA@XZ
	DD	0ffffffffH
	DD	imagerel ??1?$_Tree@V?$_Tmap_traits@_KHU?$less@_K@std@@V?$allocator@U?$pair@$$CB_KH@std@@@2@$0A@@std@@@std@@QEAA@XZ+24
	DD	00H
	DD	imagerel ??1?$_Tree@V?$_Tmap_traits@_KHU?$less@_K@std@@V?$allocator@U?$pair@$$CB_KH@std@@@2@$0A@@std@@@std@@QEAA@XZ+109
	DD	0ffffffffH
xdata	ENDS
;	COMDAT xdata
xdata	SEGMENT
$unwind$?dtor$0@?0???1?$_Tree@V?$_Tmap_traits@_KHU?$less@_K@std@@V?$allocator@U?$pair@$$CB_KH@std@@@2@$0A@@std@@@std@@QEAA@XZ@4HA DD 020601H
	DD	050023206H
xdata	ENDS
;	COMDAT xdata
xdata	SEGMENT
$unwind$??1?$_Tree@V?$_Tmap_traits@_KHU?$less@_K@std@@V?$allocator@U?$pair@$$CB_KH@std@@@2@$0A@@std@@@std@@QEAA@XZ DD 021511H
	DD	03008b20cH
	DD	imagerel __CxxFrameHandler3
	DD	imagerel $cppxdata$??1?$_Tree@V?$_Tmap_traits@_KHU?$less@_K@std@@V?$allocator@U?$pair@$$CB_KH@std@@@2@$0A@@std@@@std@@QEAA@XZ
xdata	ENDS
;	COMDAT CONST
CONST	SEGMENT
$cppxdata$??1?$_Tree@V?$_Tmap_traits@_KHU?$less@_K@std@@V?$allocator@U?$pair@$$CB_KH@std@@@2@$0A@@std@@@std@@QEAA@XZ DD 019930522H
	DD	01H
	DD	imagerel $stateUnwindMap$??1?$_Tree@V?$_Tmap_traits@_KHU?$less@_K@std@@V?$allocator@U?$pair@$$CB_KH@std@@@2@$0A@@std@@@std@@QEAA@XZ
	DD	00H
	DD	00H
	DD	03H
	DD	imagerel $ip2state$??1?$_Tree@V?$_Tmap_traits@_KHU?$less@_K@std@@V?$allocator@U?$pair@$$CB_KH@std@@@2@$0A@@std@@@std@@QEAA@XZ
	DD	020H
	DD	00H
	DD	01H
CONST	ENDS
;	COMDAT xdata
xdata	SEGMENT
$stateUnwindMap$??1?$_Tree@V?$_Tmap_traits@_KHU?$less@_K@std@@V?$allocator@U?$pair@$$CB_KH@std@@@2@$0A@@std@@@std@@QEAA@XZ DD 0ffffffffH
	DD	imagerel ?dtor$0@?0???1?$_Tree@V?$_Tmap_traits@_KHU?$less@_K@std@@V?$allocator@U?$pair@$$CB_KH@std@@@2@$0A@@std@@@std@@QEAA@XZ@4HA
; Function compile flags: /Ogtpy
; File c:\program files\microsoft visual studio 9.0\vc\include\xtree
xdata	ENDS
;	COMDAT ??1?$_Tree@V?$_Tmap_traits@_KHU?$less@_K@std@@V?$allocator@U?$pair@$$CB_KH@std@@@2@$0A@@std@@@std@@QEAA@XZ
_TEXT	SEGMENT
$T170402 = 32
$T170287 = 48
$T170282 = 48
$T170286 = 64
$T170284 = 64
this$ = 112
??1?$_Tree@V?$_Tmap_traits@_KHU?$less@_K@std@@V?$allocator@U?$pair@$$CB_KH@std@@@2@$0A@@std@@@std@@QEAA@XZ PROC ; std::_Tree<std::_Tmap_traits<unsigned __int64,int,std::less<unsigned __int64>,std::allocator<std::pair<unsigned __int64 const ,int> >,0> >::~_Tree<std::_Tmap_traits<unsigned __int64,int,std::less<unsigned __int64>,std::allocator<std::pair<unsigned __int64 const ,int> >,0> >, COMDAT

; 539  : 		{	// destroy tree

$LN68:
	mov	r11, rsp
	mov	QWORD PTR [r11+8], rcx
	push	rbx
	sub	rsp, 96					; 00000060H
	mov	QWORD PTR $T170402[rsp], -2
	mov	rbx, rcx

; 540  : 		_Tidy();

	mov	rax, QWORD PTR [rcx+48]
	mov	QWORD PTR [r11-48], rax
	mov	rdx, QWORD PTR [rcx]
	mov	QWORD PTR [r11-56], rdx
	mov	rax, QWORD PTR [rax]
	mov	QWORD PTR [r11-32], rax
	mov	QWORD PTR [r11-40], rdx
	movaps	xmm0, XMMWORD PTR $T170282[rsp]
	movdqa	XMMWORD PTR $T170287[rsp], xmm0
	movaps	xmm1, XMMWORD PTR $T170284[rsp]
	movdqa	XMMWORD PTR $T170286[rsp], xmm1
	lea	r9, QWORD PTR [r11-56]
	lea	r8, QWORD PTR [r11-40]
	lea	rdx, QWORD PTR [r11-24]
	call	?erase@?$_Tree@V?$_Tmap_traits@_KHU?$less@_K@std@@V?$allocator@U?$pair@$$CB_KH@std@@@2@$0A@@std@@@std@@QEAA?AViterator@12@Vconst_iterator@12@0@Z ; std::_Tree<std::_Tmap_traits<unsigned __int64,int,std::less<unsigned __int64>,std::allocator<std::pair<unsigned __int64 const ,int> >,0> >::erase
	mov	rcx, QWORD PTR [rbx+48]
	call	??3@YAXPEAX@Z				; operator delete
	xor	r11d, r11d
	mov	QWORD PTR [rbx+48], r11
	mov	QWORD PTR [rbx+56], r11

; 541  : 		}

	mov	rcx, QWORD PTR [rbx]
	add	rsp, 96					; 00000060H
	pop	rbx
	jmp	??3@YAXPEAX@Z				; operator delete
??1?$_Tree@V?$_Tmap_traits@_KHU?$less@_K@std@@V?$allocator@U?$pair@$$CB_KH@std@@@2@$0A@@std@@@std@@QEAA@XZ ENDP ; std::_Tree<std::_Tmap_traits<unsigned __int64,int,std::less<unsigned __int64>,std::allocator<std::pair<unsigned __int64 const ,int> >,0> >::~_Tree<std::_Tmap_traits<unsigned __int64,int,std::less<unsigned __int64>,std::allocator<std::pair<unsigned __int64 const ,int> >,0> >
; Function compile flags: /Ogtpy
_TEXT	ENDS
;	COMDAT text$x
text$x	SEGMENT
$T170402 = 32
$T170287 = 48
$T170282 = 48
$T170286 = 64
$T170284 = 64
this$ = 112
?dtor$0@?0???1?$_Tree@V?$_Tmap_traits@_KHU?$less@_K@std@@V?$allocator@U?$pair@$$CB_KH@std@@@2@$0A@@std@@@std@@QEAA@XZ@4HA PROC ; `std::_Tree<std::_Tmap_traits<unsigned __int64,int,std::less<unsigned __int64>,std::allocator<std::pair<unsigned __int64 const ,int> >,0> >::~_Tree<std::_Tmap_traits<unsigned __int64,int,std::less<unsigned __int64>,std::allocator<std::pair<unsigned __int64 const ,int> >,0> >'::`1'::dtor$0
	push	rbp
	sub	rsp, 32					; 00000020H
	mov	rbp, rdx
	mov	rcx, QWORD PTR this$[rbp]
	call	??1?$_Tree_val@V?$_Tmap_traits@_KHU?$less@_K@std@@V?$allocator@U?$pair@$$CB_KH@std@@@2@$0A@@std@@@std@@QEAA@XZ
	add	rsp, 32					; 00000020H
	pop	rbp
	ret	0
?dtor$0@?0???1?$_Tree@V?$_Tmap_traits@_KHU?$less@_K@std@@V?$allocator@U?$pair@$$CB_KH@std@@@2@$0A@@std@@@std@@QEAA@XZ@4HA ENDP ; `std::_Tree<std::_Tmap_traits<unsigned __int64,int,std::less<unsigned __int64>,std::allocator<std::pair<unsigned __int64 const ,int> >,0> >::~_Tree<std::_Tmap_traits<unsigned __int64,int,std::less<unsigned __int64>,std::allocator<std::pair<unsigned __int64 const ,int> >,0> >'::`1'::dtor$0
text$x	ENDS
PUBLIC	??0ThreadLocalData@@QEAA@XZ			; ThreadLocalData::ThreadLocalData
;	COMDAT pdata
; File c:\local\sharpdevelop_3.2.0.5777_source\src\addins\misc\profiler\hook\allocator.cpp
pdata	SEGMENT
$pdata$??0ThreadLocalData@@QEAA@XZ DD imagerel $LN9
	DD	imagerel $LN9+86
	DD	imagerel $unwind$??0ThreadLocalData@@QEAA@XZ
pdata	ENDS
;	COMDAT xdata
xdata	SEGMENT
$unwind$??0ThreadLocalData@@QEAA@XZ DD 020601H
	DD	030023206H
; Function compile flags: /Ogtpy
; File c:\local\sharpdevelop_3.2.0.5777_source\src\addins\misc\profiler\hook\main.cpp
xdata	ENDS
;	COMDAT ??0ThreadLocalData@@QEAA@XZ
_TEXT	SEGMENT
this$ = 48
??0ThreadLocalData@@QEAA@XZ PROC			; ThreadLocalData::ThreadLocalData, COMDAT

; 37   : {

$LN9:
	push	rbx
	sub	rsp, 32					; 00000020H
	mov	rbx, rcx
	mov	edx, 1536				; 00000600H
	lock xadd QWORD PTR ?stackAllocator@@3UfastAllocator@@A+8, rdx
	mov	rax, QWORD PTR ?stackAllocator@@3UfastAllocator@@A+16
	xor	r8d, r8d
	sub	rax, rdx
	cmp	rax, 1536				; 00000600H
	cmovg	r8, rdx
	mov	QWORD PTR [rcx+24], r8
	lea	rax, QWORD PTR [r8+1536]
	mov	QWORD PTR [rcx+40], rax
	lea	rax, QWORD PTR [r8-24]
	mov	QWORD PTR [rcx+32], rax

; 38   : 	this->threadID = GetCurrentThreadId();

	call	QWORD PTR __imp_GetCurrentThreadId
	mov	DWORD PTR [rbx], eax

; 39   : }

	mov	rax, rbx
	add	rsp, 32					; 00000020H
	pop	rbx
	ret	0
??0ThreadLocalData@@QEAA@XZ ENDP			; ThreadLocalData::ThreadLocalData
; Function compile flags: /Ogtpy
_TEXT	ENDS
;	COMDAT ??1?$map@KPEAVThreadInfo@@U?$less@K@std@@V?$allocator@U?$pair@$$CBKPEAVThreadInfo@@@std@@@3@@std@@QEAA@XZ
_TEXT	SEGMENT
this$ = 8
??1?$map@KPEAVThreadInfo@@U?$less@K@std@@V?$allocator@U?$pair@$$CBKPEAVThreadInfo@@@std@@@3@@std@@QEAA@XZ PROC ; std::map<unsigned long,ThreadInfo * __ptr64,std::less<unsigned long>,std::allocator<std::pair<unsigned long const ,ThreadInfo * __ptr64> > >::~map<unsigned long,ThreadInfo * __ptr64,std::less<unsigned long>,std::allocator<std::pair<unsigned long const ,ThreadInfo * __ptr64> > >, COMDAT
	jmp	??1?$_Tree@V?$_Tmap_traits@KPEAVThreadInfo@@U?$less@K@std@@V?$allocator@U?$pair@$$CBKPEAVThreadInfo@@@std@@@3@$0A@@std@@@std@@QEAA@XZ ; std::_Tree<std::_Tmap_traits<unsigned long,ThreadInfo * __ptr64,std::less<unsigned long>,std::allocator<std::pair<unsigned long const ,ThreadInfo * __ptr64> >,0> >::~_Tree<std::_Tmap_traits<unsigned long,ThreadInfo * __ptr64,std::less<unsigned long>,std::allocator<std::pair<unsigned long const ,ThreadInfo * __ptr64> >,0> >
??1?$map@KPEAVThreadInfo@@U?$less@K@std@@V?$allocator@U?$pair@$$CBKPEAVThreadInfo@@@std@@@3@@std@@QEAA@XZ ENDP ; std::map<unsigned long,ThreadInfo * __ptr64,std::less<unsigned long>,std::allocator<std::pair<unsigned long const ,ThreadInfo * __ptr64> > >::~map<unsigned long,ThreadInfo * __ptr64,std::less<unsigned long>,std::allocator<std::pair<unsigned long const ,ThreadInfo * __ptr64> > >
; Function compile flags: /Ogtpy
_TEXT	ENDS
;	COMDAT ??1?$map@_KPEAVThreadInfo@@U?$less@_K@std@@V?$allocator@U?$pair@$$CB_KPEAVThreadInfo@@@std@@@3@@std@@QEAA@XZ
_TEXT	SEGMENT
this$ = 8
??1?$map@_KPEAVThreadInfo@@U?$less@_K@std@@V?$allocator@U?$pair@$$CB_KPEAVThreadInfo@@@std@@@3@@std@@QEAA@XZ PROC ; std::map<unsigned __int64,ThreadInfo * __ptr64,std::less<unsigned __int64>,std::allocator<std::pair<unsigned __int64 const ,ThreadInfo * __ptr64> > >::~map<unsigned __int64,ThreadInfo * __ptr64,std::less<unsigned __int64>,std::allocator<std::pair<unsigned __int64 const ,ThreadInfo * __ptr64> > >, COMDAT
	jmp	??1?$_Tree@V?$_Tmap_traits@_KPEAVThreadInfo@@U?$less@_K@std@@V?$allocator@U?$pair@$$CB_KPEAVThreadInfo@@@std@@@3@$0A@@std@@@std@@QEAA@XZ ; std::_Tree<std::_Tmap_traits<unsigned __int64,ThreadInfo * __ptr64,std::less<unsigned __int64>,std::allocator<std::pair<unsigned __int64 const ,ThreadInfo * __ptr64> >,0> >::~_Tree<std::_Tmap_traits<unsigned __int64,ThreadInfo * __ptr64,std::less<unsigned __int64>,std::allocator<std::pair<unsigned __int64 const ,ThreadInfo * __ptr64> >,0> >
??1?$map@_KPEAVThreadInfo@@U?$less@_K@std@@V?$allocator@U?$pair@$$CB_KPEAVThreadInfo@@@std@@@3@@std@@QEAA@XZ ENDP ; std::map<unsigned __int64,ThreadInfo * __ptr64,std::less<unsigned __int64>,std::allocator<std::pair<unsigned __int64 const ,ThreadInfo * __ptr64> > >::~map<unsigned __int64,ThreadInfo * __ptr64,std::less<unsigned __int64>,std::allocator<std::pair<unsigned __int64 const ,ThreadInfo * __ptr64> > >
; Function compile flags: /Ogtpy
_TEXT	ENDS
;	COMDAT ??1?$map@_KHU?$less@_K@std@@V?$allocator@U?$pair@$$CB_KH@std@@@2@@std@@QEAA@XZ
_TEXT	SEGMENT
this$ = 8
??1?$map@_KHU?$less@_K@std@@V?$allocator@U?$pair@$$CB_KH@std@@@2@@std@@QEAA@XZ PROC ; std::map<unsigned __int64,int,std::less<unsigned __int64>,std::allocator<std::pair<unsigned __int64 const ,int> > >::~map<unsigned __int64,int,std::less<unsigned __int64>,std::allocator<std::pair<unsigned __int64 const ,int> > >, COMDAT
	jmp	??1?$_Tree@V?$_Tmap_traits@_KHU?$less@_K@std@@V?$allocator@U?$pair@$$CB_KH@std@@@2@$0A@@std@@@std@@QEAA@XZ ; std::_Tree<std::_Tmap_traits<unsigned __int64,int,std::less<unsigned __int64>,std::allocator<std::pair<unsigned __int64 const ,int> >,0> >::~_Tree<std::_Tmap_traits<unsigned __int64,int,std::less<unsigned __int64>,std::allocator<std::pair<unsigned __int64 const ,int> >,0> >
??1?$map@_KHU?$less@_K@std@@V?$allocator@U?$pair@$$CB_KH@std@@@2@@std@@QEAA@XZ ENDP ; std::map<unsigned __int64,int,std::less<unsigned __int64>,std::allocator<std::pair<unsigned __int64 const ,int> > >::~map<unsigned __int64,int,std::less<unsigned __int64>,std::allocator<std::pair<unsigned __int64 const ,int> > >
_TEXT	ENDS
;	COMDAT pdata
pdata	SEGMENT
$pdata$??1CProfiler@@QEAA@XZ DD imagerel $LN27
	DD	imagerel $LN27+129
	DD	imagerel $unwind$??1CProfiler@@QEAA@XZ
pdata	ENDS
;	COMDAT pdata
pdata	SEGMENT
$pdata$?dtor$0@?0???1CProfiler@@QEAA@XZ@4HA DD imagerel ?dtor$0@?0???1CProfiler@@QEAA@XZ@4HA
	DD	imagerel ?dtor$0@?0???1CProfiler@@QEAA@XZ@4HA+28
	DD	imagerel $unwind$?dtor$0@?0???1CProfiler@@QEAA@XZ@4HA
pdata	ENDS
;	COMDAT pdata
pdata	SEGMENT
$pdata$?dtor$1@?0???1CProfiler@@QEAA@XZ@4HA DD imagerel ?dtor$1@?0???1CProfiler@@QEAA@XZ@4HA
	DD	imagerel ?dtor$1@?0???1CProfiler@@QEAA@XZ@4HA+28
	DD	imagerel $unwind$?dtor$1@?0???1CProfiler@@QEAA@XZ@4HA
pdata	ENDS
;	COMDAT pdata
pdata	SEGMENT
$pdata$?dtor$2@?0???1CProfiler@@QEAA@XZ@4HA DD imagerel ?dtor$2@?0???1CProfiler@@QEAA@XZ@4HA
	DD	imagerel ?dtor$2@?0???1CProfiler@@QEAA@XZ@4HA+28
	DD	imagerel $unwind$?dtor$2@?0???1CProfiler@@QEAA@XZ@4HA
pdata	ENDS
;	COMDAT pdata
pdata	SEGMENT
$pdata$?dtor$3@?0???1CProfiler@@QEAA@XZ@4HA DD imagerel ?dtor$3@?0???1CProfiler@@QEAA@XZ@4HA
	DD	imagerel ?dtor$3@?0???1CProfiler@@QEAA@XZ@4HA+31
	DD	imagerel $unwind$?dtor$3@?0???1CProfiler@@QEAA@XZ@4HA
pdata	ENDS
;	COMDAT pdata
pdata	SEGMENT
$pdata$?dtor$4@?0???1CProfiler@@QEAA@XZ@4HA DD imagerel ?dtor$4@?0???1CProfiler@@QEAA@XZ@4HA
	DD	imagerel ?dtor$4@?0???1CProfiler@@QEAA@XZ@4HA+31
	DD	imagerel $unwind$?dtor$4@?0???1CProfiler@@QEAA@XZ@4HA
pdata	ENDS
;	COMDAT pdata
pdata	SEGMENT
$pdata$?dtor$5@?0???1CProfiler@@QEAA@XZ@4HA DD imagerel ?dtor$5@?0???1CProfiler@@QEAA@XZ@4HA
	DD	imagerel ?dtor$5@?0???1CProfiler@@QEAA@XZ@4HA+31
	DD	imagerel $unwind$?dtor$5@?0???1CProfiler@@QEAA@XZ@4HA
pdata	ENDS
;	COMDAT xdata
xdata	SEGMENT
$ip2state$??1CProfiler@@QEAA@XZ DD imagerel ??1CProfiler@@QEAA@XZ
	DD	0ffffffffH
	DD	imagerel ??1CProfiler@@QEAA@XZ+30
	DD	05H
	DD	imagerel ??1CProfiler@@QEAA@XZ+43
	DD	04H
	DD	imagerel ??1CProfiler@@QEAA@XZ+56
	DD	03H
	DD	imagerel ??1CProfiler@@QEAA@XZ+69
	DD	02H
	DD	imagerel ??1CProfiler@@QEAA@XZ+83
	DD	01H
	DD	imagerel ??1CProfiler@@QEAA@XZ+97
	DD	00H
	DD	imagerel ??1CProfiler@@QEAA@XZ+111
	DD	0ffffffffH
xdata	ENDS
;	COMDAT xdata
xdata	SEGMENT
$unwind$?dtor$5@?0???1CProfiler@@QEAA@XZ@4HA DD 020601H
	DD	050023206H
xdata	ENDS
;	COMDAT xdata
xdata	SEGMENT
$unwind$?dtor$4@?0???1CProfiler@@QEAA@XZ@4HA DD 020601H
	DD	050023206H
xdata	ENDS
;	COMDAT xdata
xdata	SEGMENT
$unwind$?dtor$3@?0???1CProfiler@@QEAA@XZ@4HA DD 020601H
	DD	050023206H
xdata	ENDS
;	COMDAT xdata
xdata	SEGMENT
$unwind$?dtor$2@?0???1CProfiler@@QEAA@XZ@4HA DD 020601H
	DD	050023206H
xdata	ENDS
;	COMDAT xdata
xdata	SEGMENT
$unwind$?dtor$1@?0???1CProfiler@@QEAA@XZ@4HA DD 020601H
	DD	050023206H
xdata	ENDS
;	COMDAT xdata
xdata	SEGMENT
$unwind$?dtor$0@?0???1CProfiler@@QEAA@XZ@4HA DD 020601H
	DD	050023206H
xdata	ENDS
;	COMDAT xdata
xdata	SEGMENT
$unwind$??1CProfiler@@QEAA@XZ DD 011211H
	DD	06209H
	DD	imagerel __CxxFrameHandler3
	DD	imagerel $cppxdata$??1CProfiler@@QEAA@XZ
xdata	ENDS
;	COMDAT CONST
CONST	SEGMENT
$cppxdata$??1CProfiler@@QEAA@XZ DD 019930522H
	DD	06H
	DD	imagerel $stateUnwindMap$??1CProfiler@@QEAA@XZ
	DD	00H
	DD	00H
	DD	08H
	DD	imagerel $ip2state$??1CProfiler@@QEAA@XZ
	DD	020H
	DD	00H
	DD	01H
CONST	ENDS
;	COMDAT xdata
xdata	SEGMENT
$stateUnwindMap$??1CProfiler@@QEAA@XZ DD 0ffffffffH
	DD	imagerel ?dtor$0@?0???1CProfiler@@QEAA@XZ@4HA
	DD	00H
	DD	imagerel ?dtor$1@?0???1CProfiler@@QEAA@XZ@4HA
	DD	01H
	DD	imagerel ?dtor$2@?0???1CProfiler@@QEAA@XZ@4HA
	DD	02H
	DD	imagerel ?dtor$3@?0???1CProfiler@@QEAA@XZ@4HA
	DD	03H
	DD	imagerel ?dtor$4@?0???1CProfiler@@QEAA@XZ@4HA
	DD	04H
	DD	imagerel ?dtor$5@?0???1CProfiler@@QEAA@XZ@4HA
; Function compile flags: /Ogtpy
xdata	ENDS
;	COMDAT ??1CProfiler@@QEAA@XZ
_TEXT	SEGMENT
$T170530 = 32
this$ = 64
??1CProfiler@@QEAA@XZ PROC				; CProfiler::~CProfiler, COMDAT
$LN27:
	mov	QWORD PTR [rsp+8], rcx
	sub	rsp, 56					; 00000038H
	mov	QWORD PTR $T170530[rsp], -2
	lea	rax, OFFSET FLAT:?profiler@@3VCProfiler@@A ; profiler
	mov	QWORD PTR this$[rsp], rax
	lea	rcx, OFFSET FLAT:?profiler@@3VCProfiler@@A+344
	call	??1?$_Tree@V?$_Tmap_traits@KPEAVThreadInfo@@U?$less@K@std@@V?$allocator@U?$pair@$$CBKPEAVThreadInfo@@@std@@@3@$0A@@std@@@std@@QEAA@XZ ; std::_Tree<std::_Tmap_traits<unsigned long,ThreadInfo * __ptr64,std::less<unsigned long>,std::allocator<std::pair<unsigned long const ,ThreadInfo * __ptr64> >,0> >::~_Tree<std::_Tmap_traits<unsigned long,ThreadInfo * __ptr64,std::less<unsigned long>,std::allocator<std::pair<unsigned long const ,ThreadInfo * __ptr64> >,0> >
	npad	1
	lea	rcx, OFFSET FLAT:?profiler@@3VCProfiler@@A+280
	call	??1?$_Tree@V?$_Tmap_traits@_KPEAVThreadInfo@@U?$less@_K@std@@V?$allocator@U?$pair@$$CB_KPEAVThreadInfo@@@std@@@3@$0A@@std@@@std@@QEAA@XZ ; std::_Tree<std::_Tmap_traits<unsigned __int64,ThreadInfo * __ptr64,std::less<unsigned __int64>,std::allocator<std::pair<unsigned __int64 const ,ThreadInfo * __ptr64> >,0> >::~_Tree<std::_Tmap_traits<unsigned __int64,ThreadInfo * __ptr64,std::less<unsigned __int64>,std::allocator<std::pair<unsigned __int64 const ,ThreadInfo * __ptr64> >,0> >
	npad	1
	lea	rcx, OFFSET FLAT:?profiler@@3VCProfiler@@A+216
	call	??1?$_Tree@V?$_Tmap_traits@_KHU?$less@_K@std@@V?$allocator@U?$pair@$$CB_KH@std@@@2@$0A@@std@@@std@@QEAA@XZ ; std::_Tree<std::_Tmap_traits<unsigned __int64,int,std::less<unsigned __int64>,std::allocator<std::pair<unsigned __int64 const ,int> >,0> >::~_Tree<std::_Tmap_traits<unsigned __int64,int,std::less<unsigned __int64>,std::allocator<std::pair<unsigned __int64 const ,int> >,0> >
	npad	1
	lea	rcx, OFFSET FLAT:?profiler@@3VCProfiler@@A+160
	call	QWORD PTR __imp_DeleteCriticalSection
	npad	1
	lea	rcx, OFFSET FLAT:?profiler@@3VCProfiler@@A+120
	call	QWORD PTR __imp_DeleteCriticalSection
	npad	1
	lea	rcx, OFFSET FLAT:?profiler@@3VCProfiler@@A+80
	call	QWORD PTR __imp_DeleteCriticalSection
	npad	1
	lea	rcx, OFFSET FLAT:?profiler@@3VCProfiler@@A+40
	add	rsp, 56					; 00000038H
	rex_jmp	QWORD PTR __imp_DeleteCriticalSection
??1CProfiler@@QEAA@XZ ENDP				; CProfiler::~CProfiler
; Function compile flags: /Ogtpy
_TEXT	ENDS
;	COMDAT text$x
text$x	SEGMENT
$T170530 = 32
this$ = 64
?dtor$0@?0???1CProfiler@@QEAA@XZ@4HA PROC		; `CProfiler::~CProfiler'::`1'::dtor$0
	push	rbp
	sub	rsp, 32					; 00000020H
	mov	rbp, rdx
	mov	rcx, QWORD PTR this$[rbp]
	add	rcx, 40					; 00000028H
	call	??1CriticalSection@@QEAA@XZ		; CriticalSection::~CriticalSection
	add	rsp, 32					; 00000020H
	pop	rbp
	ret	0
?dtor$0@?0???1CProfiler@@QEAA@XZ@4HA ENDP		; `CProfiler::~CProfiler'::`1'::dtor$0
; Function compile flags: /Ogtpy
$T170530 = 32
this$ = 64
?dtor$1@?0???1CProfiler@@QEAA@XZ@4HA PROC		; `CProfiler::~CProfiler'::`1'::dtor$1
	push	rbp
	sub	rsp, 32					; 00000020H
	mov	rbp, rdx
	mov	rcx, QWORD PTR this$[rbp]
	add	rcx, 80					; 00000050H
	call	??1CriticalSection@@QEAA@XZ		; CriticalSection::~CriticalSection
	add	rsp, 32					; 00000020H
	pop	rbp
	ret	0
?dtor$1@?0???1CProfiler@@QEAA@XZ@4HA ENDP		; `CProfiler::~CProfiler'::`1'::dtor$1
; Function compile flags: /Ogtpy
$T170530 = 32
this$ = 64
?dtor$2@?0???1CProfiler@@QEAA@XZ@4HA PROC		; `CProfiler::~CProfiler'::`1'::dtor$2
	push	rbp
	sub	rsp, 32					; 00000020H
	mov	rbp, rdx
	mov	rcx, QWORD PTR this$[rbp]
	add	rcx, 120				; 00000078H
	call	??1CriticalSection@@QEAA@XZ		; CriticalSection::~CriticalSection
	add	rsp, 32					; 00000020H
	pop	rbp
	ret	0
?dtor$2@?0???1CProfiler@@QEAA@XZ@4HA ENDP		; `CProfiler::~CProfiler'::`1'::dtor$2
; Function compile flags: /Ogtpy
$T170530 = 32
this$ = 64
?dtor$3@?0???1CProfiler@@QEAA@XZ@4HA PROC		; `CProfiler::~CProfiler'::`1'::dtor$3
	push	rbp
	sub	rsp, 32					; 00000020H
	mov	rbp, rdx
	mov	rcx, QWORD PTR this$[rbp]
	add	rcx, 160				; 000000a0H
	call	??1CriticalSection@@QEAA@XZ		; CriticalSection::~CriticalSection
	add	rsp, 32					; 00000020H
	pop	rbp
	ret	0
?dtor$3@?0???1CProfiler@@QEAA@XZ@4HA ENDP		; `CProfiler::~CProfiler'::`1'::dtor$3
; Function compile flags: /Ogtpy
$T170530 = 32
this$ = 64
?dtor$4@?0???1CProfiler@@QEAA@XZ@4HA PROC		; `CProfiler::~CProfiler'::`1'::dtor$4
	push	rbp
	sub	rsp, 32					; 00000020H
	mov	rbp, rdx
	mov	rcx, QWORD PTR this$[rbp]
	add	rcx, 216				; 000000d8H
	call	??1?$map@_KHU?$less@_K@std@@V?$allocator@U?$pair@$$CB_KH@std@@@2@@std@@QEAA@XZ
	add	rsp, 32					; 00000020H
	pop	rbp
	ret	0
?dtor$4@?0???1CProfiler@@QEAA@XZ@4HA ENDP		; `CProfiler::~CProfiler'::`1'::dtor$4
; Function compile flags: /Ogtpy
$T170530 = 32
this$ = 64
?dtor$5@?0???1CProfiler@@QEAA@XZ@4HA PROC		; `CProfiler::~CProfiler'::`1'::dtor$5
	push	rbp
	sub	rsp, 32					; 00000020H
	mov	rbp, rdx
	mov	rcx, QWORD PTR this$[rbp]
	add	rcx, 280				; 00000118H
	call	??1?$map@_KPEAVThreadInfo@@U?$less@_K@std@@V?$allocator@U?$pair@$$CB_KPEAVThreadInfo@@@std@@@3@@std@@QEAA@XZ
	add	rsp, 32					; 00000020H
	pop	rbp
	ret	0
?dtor$5@?0???1CProfiler@@QEAA@XZ@4HA ENDP		; `CProfiler::~CProfiler'::`1'::dtor$5
text$x	ENDS
;	COMDAT pdata
pdata	SEGMENT
$pdata$??_Gout_of_range@std@@UEAAPEAXI@Z DD imagerel $LN9
	DD	imagerel $LN9+72
	DD	imagerel $unwind$??_Gout_of_range@std@@UEAAPEAXI@Z
pdata	ENDS
;	COMDAT xdata
xdata	SEGMENT
$unwind$??_Gout_of_range@std@@UEAAPEAXI@Z DD 040a01H
	DD	06340aH
	DD	07006320aH
; Function compile flags: /Ogtpy
xdata	ENDS
;	COMDAT ??_Gout_of_range@std@@UEAAPEAXI@Z
_TEXT	SEGMENT
this$ = 48
__flags$ = 56
??_Gout_of_range@std@@UEAAPEAXI@Z PROC			; std::out_of_range::`scalar deleting destructor', COMDAT
$LN9:
	mov	QWORD PTR [rsp+8], rbx
	push	rdi
	sub	rsp, 32					; 00000020H
	lea	rax, OFFSET FLAT:??_7logic_error@std@@6B@
	mov	rdi, rcx
	add	rcx, 24
	mov	QWORD PTR [rcx-24], rax
	mov	ebx, edx
	call	QWORD PTR __imp_??1?$basic_string@DU?$char_traits@D@std@@V?$allocator@D@2@@std@@QEAA@XZ
	mov	rcx, rdi
	call	QWORD PTR __imp_??1exception@std@@UEAA@XZ
	test	bl, 1
	je	SHORT $LN8@scalar@4
	mov	rcx, rdi
	call	??3@YAXPEAX@Z				; operator delete
$LN8@scalar@4:
	mov	rax, rdi
	mov	rbx, QWORD PTR [rsp+48]
	add	rsp, 32					; 00000020H
	pop	rdi
	ret	0
??_Gout_of_range@std@@UEAAPEAXI@Z ENDP			; std::out_of_range::`scalar deleting destructor'
; Function compile flags: /Ogtpy
;	COMDAT ??__Emallocator@@YAXXZ
text$yc	SEGMENT
??__Emallocator@@YAXXZ PROC				; `dynamic initializer for 'mallocator'', COMDAT

; 13   : freeListAllocator<FunctionInfoAllocationSize> mallocator;

	lea	rcx, OFFSET FLAT:?mallocator@@3U?$freeListAllocator@UFunctionInfoAllocationSize@@@@A ; mallocator
	jmp	??0?$freeListAllocator@UFunctionInfoAllocationSize@@@@QEAA@XZ ; freeListAllocator<FunctionInfoAllocationSize>::freeListAllocator<FunctionInfoAllocationSize>
??__Emallocator@@YAXXZ ENDP				; `dynamic initializer for 'mallocator''
; Function compile flags: /Ogtpy
text$yc	ENDS
;	COMDAT ??__EstackAllocator@@YAXXZ
text$yc	SEGMENT
??__EstackAllocator@@YAXXZ PROC				; `dynamic initializer for 'stackAllocator'', COMDAT

; 14   : fastAllocator stackAllocator;

	xor	eax, eax
	mov	QWORD PTR ?stackAllocator@@3UfastAllocator@@A+8, rax
	mov	QWORD PTR ?stackAllocator@@3UfastAllocator@@A+16, rax
	ret	0
??__EstackAllocator@@YAXXZ ENDP				; `dynamic initializer for 'stackAllocator''
text$yc	ENDS
;	COMDAT pdata
pdata	SEGMENT
$pdata$??__Eprofiler@@YAXXZ DD imagerel ??__Eprofiler@@YAXXZ
	DD	imagerel ??__Eprofiler@@YAXXZ+32
	DD	imagerel $unwind$??__Eprofiler@@YAXXZ
pdata	ENDS
;	COMDAT xdata
xdata	SEGMENT
$unwind$??__Eprofiler@@YAXXZ DD 010401H
	DD	04204H
; Function compile flags: /Ogtpy
xdata	ENDS
;	COMDAT ??__Eprofiler@@YAXXZ
text$yc	SEGMENT
??__Eprofiler@@YAXXZ PROC				; `dynamic initializer for 'profiler'', COMDAT

; 15   : CProfiler profiler;

	sub	rsp, 40					; 00000028H
	lea	rcx, OFFSET FLAT:?profiler@@3VCProfiler@@A ; profiler
	call	??0CProfiler@@QEAA@XZ			; CProfiler::CProfiler
	lea	rcx, OFFSET FLAT:??__Fprofiler@@YAXXZ	; `dynamic atexit destructor for 'profiler''
	add	rsp, 40					; 00000028H
	jmp	atexit
??__Eprofiler@@YAXXZ ENDP				; `dynamic initializer for 'profiler''
; Function compile flags: /Ogtpy
text$yc	ENDS
;	COMDAT ??__Fprofiler@@YAXXZ
text$yd	SEGMENT
??__Fprofiler@@YAXXZ PROC				; `dynamic atexit destructor for 'profiler'', COMDAT
	lea	rcx, OFFSET FLAT:?profiler@@3VCProfiler@@A ; profiler
	jmp	??1CProfiler@@QEAA@XZ
??__Fprofiler@@YAXXZ ENDP				; `dynamic atexit destructor for 'profiler''
text$yd	ENDS
PUBLIC	?profiler@@3VCProfiler@@A			; profiler
PUBLIC	?stackAllocator@@3UfastAllocator@@A		; stackAllocator
PUBLIC	?mallocator@@3U?$freeListAllocator@UFunctionInfoAllocationSize@@@@A ; mallocator
?profiler@@3VCProfiler@@A DB 0198H DUP (?)		; profiler
?stackAllocator@@3UfastAllocator@@A DB 018H DUP (?)	; stackAllocator
?mallocator@@3U?$freeListAllocator@UFunctionInfoAllocationSize@@@@A DB 0118H DUP (?) ; mallocator
CRT$XCU	SEGMENT
mallocator$initializer$ DQ FLAT:??__Emallocator@@YAXXZ
stackAllocator$initializer$ DQ FLAT:??__EstackAllocator@@YAXXZ
profiler$initializer$ DQ FLAT:??__Eprofiler@@YAXXZ
CRT$XCU	ENDS
END
