; Listing generated by Microsoft (R) Optimizing Compiler Version 15.00.30729.01 

include listing.inc

INCLUDELIB OLDNAMES

PUBLIC	??0?$LightweightStack@UStackEntry@@@@QEAA@XZ	; LightweightStack<StackEntry>::LightweightStack<StackEntry>
PUBLIC	??1CriticalSection@@QEAA@XZ			; CriticalSection::~CriticalSection
PUBLIC	??1?$_Container_base_aux_alloc_real@V?$allocator@U?$pair@$$CB_KH@std@@@std@@@std@@IEAA@XZ ; std::_Container_base_aux_alloc_real<std::allocator<std::pair<unsigned __int64 const ,int> > >::~_Container_base_aux_alloc_real<std::allocator<std::pair<unsigned __int64 const ,int> > >
PUBLIC	??1?$_Tmap_traits@_KHU?$less@_K@std@@V?$allocator@U?$pair@$$CB_KH@std@@@2@$0A@@std@@QEAA@XZ ; std::_Tmap_traits<unsigned __int64,int,std::less<unsigned __int64>,std::allocator<std::pair<unsigned __int64 const ,int> >,0>::~_Tmap_traits<unsigned __int64,int,std::less<unsigned __int64>,std::allocator<std::pair<unsigned __int64 const ,int> >,0>
PUBLIC	??1?$_Tree_nod@V?$_Tmap_traits@_KHU?$less@_K@std@@V?$allocator@U?$pair@$$CB_KH@std@@@2@$0A@@std@@@std@@QEAA@XZ ; std::_Tree_nod<std::_Tmap_traits<unsigned __int64,int,std::less<unsigned __int64>,std::allocator<std::pair<unsigned __int64 const ,int> >,0> >::~_Tree_nod<std::_Tmap_traits<unsigned __int64,int,std::less<unsigned __int64>,std::allocator<std::pair<unsigned __int64 const ,int> >,0> >
PUBLIC	??1?$_Tree_ptr@V?$_Tmap_traits@_KHU?$less@_K@std@@V?$allocator@U?$pair@$$CB_KH@std@@@2@$0A@@std@@@std@@QEAA@XZ ; std::_Tree_ptr<std::_Tmap_traits<unsigned __int64,int,std::less<unsigned __int64>,std::allocator<std::pair<unsigned __int64 const ,int> >,0> >::~_Tree_ptr<std::_Tmap_traits<unsigned __int64,int,std::less<unsigned __int64>,std::allocator<std::pair<unsigned __int64 const ,int> >,0> >
PUBLIC	??1?$_Tree_val@V?$_Tmap_traits@_KHU?$less@_K@std@@V?$allocator@U?$pair@$$CB_KH@std@@@2@$0A@@std@@@std@@QEAA@XZ ; std::_Tree_val<std::_Tmap_traits<unsigned __int64,int,std::less<unsigned __int64>,std::allocator<std::pair<unsigned __int64 const ,int> >,0> >::~_Tree_val<std::_Tmap_traits<unsigned __int64,int,std::less<unsigned __int64>,std::allocator<std::pair<unsigned __int64 const ,int> >,0> >
PUBLIC	??$_Destroy@PEAU_Node@?$_Tree_nod@V?$_Tmap_traits@_KHU?$less@_K@std@@V?$allocator@U?$pair@$$CB_KH@std@@@2@$0A@@std@@@std@@@std@@YAXPEAPEAU_Node@?$_Tree_nod@V?$_Tmap_traits@_KHU?$less@_K@std@@V?$allocator@U?$pair@$$CB_KH@std@@@2@$0A@@std@@@0@@Z ; std::_Destroy<std::_Tree_nod<std::_Tmap_traits<unsigned __int64,int,std::less<unsigned __int64>,std::allocator<std::pair<unsigned __int64 const ,int> >,0> >::_Node * __ptr64>
PUBLIC	?destroy@?$allocator@PEAU_Node@?$_Tree_nod@V?$_Tmap_traits@_KHU?$less@_K@std@@V?$allocator@U?$pair@$$CB_KH@std@@@2@$0A@@std@@@std@@@std@@QEAAXPEAPEAU_Node@?$_Tree_nod@V?$_Tmap_traits@_KHU?$less@_K@std@@V?$allocator@U?$pair@$$CB_KH@std@@@2@$0A@@std@@@2@@Z ; std::allocator<std::_Tree_nod<std::_Tmap_traits<unsigned __int64,int,std::less<unsigned __int64>,std::allocator<std::pair<unsigned __int64 const ,int> >,0> >::_Node * __ptr64>::destroy
PUBLIC	?begin@?$_Tree@V?$_Tmap_traits@_KHU?$less@_K@std@@V?$allocator@U?$pair@$$CB_KH@std@@@2@$0A@@std@@@std@@QEAA?AViterator@12@XZ ; std::_Tree<std::_Tmap_traits<unsigned __int64,int,std::less<unsigned __int64>,std::allocator<std::pair<unsigned __int64 const ,int> >,0> >::begin
PUBLIC	?end@?$_Tree@V?$_Tmap_traits@_KHU?$less@_K@std@@V?$allocator@U?$pair@$$CB_KH@std@@@2@$0A@@std@@@std@@QEAA?AViterator@12@XZ ; std::_Tree<std::_Tmap_traits<unsigned __int64,int,std::less<unsigned __int64>,std::allocator<std::pair<unsigned __int64 const ,int> >,0> >::end
PUBLIC	?_Color@?$_Tree@V?$_Tmap_traits@_KHU?$less@_K@std@@V?$allocator@U?$pair@$$CB_KH@std@@@2@$0A@@std@@@std@@KAAEADPEAU_Node@?$_Tree_nod@V?$_Tmap_traits@_KHU?$less@_K@std@@V?$allocator@U?$pair@$$CB_KH@std@@@2@$0A@@std@@@2@@Z ; std::_Tree<std::_Tmap_traits<unsigned __int64,int,std::less<unsigned __int64>,std::allocator<std::pair<unsigned __int64 const ,int> >,0> >::_Color
PUBLIC	??0?$_Iterator_with_base@Ubidirectional_iterator_tag@std@@U?$pair@$$CB_KH@2@_JPEBU32@AEBU32@V_Iterator_base_aux@2@@std@@QEAA@XZ ; std::_Iterator_with_base<std::bidirectional_iterator_tag,std::pair<unsigned __int64 const ,int>,__int64,std::pair<unsigned __int64 const ,int> const * __ptr64,std::pair<unsigned __int64 const ,int> const & __ptr64,std::_Iterator_base_aux>::_Iterator_with_base<std::bidirectional_iterator_tag,std::pair<unsigned __int64 const ,int>,__int64,std::pair<unsigned __int64 const ,int> const * __ptr64,std::pair<unsigned __int64 const ,int> const & __ptr64,std::_Iterator_base_aux>
PUBLIC	??0?$_Bidit@U?$pair@$$CB_KH@std@@_JPEBU12@AEBU12@@std@@QEAA@XZ ; std::_Bidit<std::pair<unsigned __int64 const ,int>,__int64,std::pair<unsigned __int64 const ,int> const * __ptr64,std::pair<unsigned __int64 const ,int> const & __ptr64>::_Bidit<std::pair<unsigned __int64 const ,int>,__int64,std::pair<unsigned __int64 const ,int> const * __ptr64,std::pair<unsigned __int64 const ,int> const & __ptr64>
PUBLIC	??0const_iterator@?$_Tree@V?$_Tmap_traits@_KHU?$less@_K@std@@V?$allocator@U?$pair@$$CB_KH@std@@@2@$0A@@std@@@std@@QEAA@PEAU_Node@?$_Tree_nod@V?$_Tmap_traits@_KHU?$less@_K@std@@V?$allocator@U?$pair@$$CB_KH@std@@@2@$0A@@std@@@2@PEBV12@@Z ; std::_Tree<std::_Tmap_traits<unsigned __int64,int,std::less<unsigned __int64>,std::allocator<std::pair<unsigned __int64 const ,int> >,0> >::const_iterator::const_iterator
PUBLIC	??0iterator@?$_Tree@V?$_Tmap_traits@_KHU?$less@_K@std@@V?$allocator@U?$pair@$$CB_KH@std@@@2@$0A@@std@@@std@@QEAA@PEAU_Node@?$_Tree_nod@V?$_Tmap_traits@_KHU?$less@_K@std@@V?$allocator@U?$pair@$$CB_KH@std@@@2@$0A@@std@@@2@PEBV12@@Z ; std::_Tree<std::_Tmap_traits<unsigned __int64,int,std::less<unsigned __int64>,std::allocator<std::pair<unsigned __int64 const ,int> >,0> >::iterator::iterator
PUBLIC	?_Make_iter@?$_Tree@V?$_Tmap_traits@_KHU?$less@_K@std@@V?$allocator@U?$pair@$$CB_KH@std@@@2@$0A@@std@@@std@@QEBA?AViterator@12@Vconst_iterator@12@@Z ; std::_Tree<std::_Tmap_traits<unsigned __int64,int,std::less<unsigned __int64>,std::allocator<std::pair<unsigned __int64 const ,int> >,0> >::_Make_iter
PUBLIC	?_Lrotate@?$_Tree@V?$_Tmap_traits@_KHU?$less@_K@std@@V?$allocator@U?$pair@$$CB_KH@std@@@2@$0A@@std@@@std@@IEAAXPEAU_Node@?$_Tree_nod@V?$_Tmap_traits@_KHU?$less@_K@std@@V?$allocator@U?$pair@$$CB_KH@std@@@2@$0A@@std@@@2@@Z ; std::_Tree<std::_Tmap_traits<unsigned __int64,int,std::less<unsigned __int64>,std::allocator<std::pair<unsigned __int64 const ,int> >,0> >::_Lrotate
PUBLIC	?_Max@?$_Tree@V?$_Tmap_traits@_KHU?$less@_K@std@@V?$allocator@U?$pair@$$CB_KH@std@@@2@$0A@@std@@@std@@KAPEAU_Node@?$_Tree_nod@V?$_Tmap_traits@_KHU?$less@_K@std@@V?$allocator@U?$pair@$$CB_KH@std@@@2@$0A@@std@@@2@PEAU342@@Z ; std::_Tree<std::_Tmap_traits<unsigned __int64,int,std::less<unsigned __int64>,std::allocator<std::pair<unsigned __int64 const ,int> >,0> >::_Max
PUBLIC	?_Rrotate@?$_Tree@V?$_Tmap_traits@_KHU?$less@_K@std@@V?$allocator@U?$pair@$$CB_KH@std@@@2@$0A@@std@@@std@@IEAAXPEAU_Node@?$_Tree_nod@V?$_Tmap_traits@_KHU?$less@_K@std@@V?$allocator@U?$pair@$$CB_KH@std@@@2@$0A@@std@@@2@@Z ; std::_Tree<std::_Tmap_traits<unsigned __int64,int,std::less<unsigned __int64>,std::allocator<std::pair<unsigned __int64 const ,int> >,0> >::_Rrotate
PUBLIC	?_Mynode@const_iterator@?$_Tree@V?$_Tmap_traits@_KHU?$less@_K@std@@V?$allocator@U?$pair@$$CB_KH@std@@@2@$0A@@std@@@std@@QEBAPEAU_Node@?$_Tree_nod@V?$_Tmap_traits@_KHU?$less@_K@std@@V?$allocator@U?$pair@$$CB_KH@std@@@2@$0A@@std@@@3@XZ ; std::_Tree<std::_Tmap_traits<unsigned __int64,int,std::less<unsigned __int64>,std::allocator<std::pair<unsigned __int64 const ,int> >,0> >::const_iterator::_Mynode
PUBLIC	?erase@?$_Tree@V?$_Tmap_traits@_KHU?$less@_K@std@@V?$allocator@U?$pair@$$CB_KH@std@@@2@$0A@@std@@@std@@QEAA?AViterator@12@Vconst_iterator@12@@Z ; std::_Tree<std::_Tmap_traits<unsigned __int64,int,std::less<unsigned __int64>,std::allocator<std::pair<unsigned __int64 const ,int> >,0> >::erase
PUBLIC	?deallocate@?$allocator@U_Node@?$_Tree_nod@V?$_Tmap_traits@_KHU?$less@_K@std@@V?$allocator@U?$pair@$$CB_KH@std@@@2@$0A@@std@@@std@@@std@@QEAAXPEAU_Node@?$_Tree_nod@V?$_Tmap_traits@_KHU?$less@_K@std@@V?$allocator@U?$pair@$$CB_KH@std@@@2@$0A@@std@@@2@_K@Z ; std::allocator<std::_Tree_nod<std::_Tmap_traits<unsigned __int64,int,std::less<unsigned __int64>,std::allocator<std::pair<unsigned __int64 const ,int> >,0> >::_Node>::deallocate
PUBLIC	??$_Destroy@U_Node@?$_Tree_nod@V?$_Tmap_traits@_KHU?$less@_K@std@@V?$allocator@U?$pair@$$CB_KH@std@@@2@$0A@@std@@@std@@@std@@YAXPEAU_Node@?$_Tree_nod@V?$_Tmap_traits@_KHU?$less@_K@std@@V?$allocator@U?$pair@$$CB_KH@std@@@2@$0A@@std@@@0@@Z ; std::_Destroy<std::_Tree_nod<std::_Tmap_traits<unsigned __int64,int,std::less<unsigned __int64>,std::allocator<std::pair<unsigned __int64 const ,int> >,0> >::_Node>
PUBLIC	?destroy@?$allocator@U_Node@?$_Tree_nod@V?$_Tmap_traits@_KHU?$less@_K@std@@V?$allocator@U?$pair@$$CB_KH@std@@@2@$0A@@std@@@std@@@std@@QEAAXPEAU_Node@?$_Tree_nod@V?$_Tmap_traits@_KHU?$less@_K@std@@V?$allocator@U?$pair@$$CB_KH@std@@@2@$0A@@std@@@2@@Z ; std::allocator<std::_Tree_nod<std::_Tmap_traits<unsigned __int64,int,std::less<unsigned __int64>,std::allocator<std::pair<unsigned __int64 const ,int> >,0> >::_Node>::destroy
PUBLIC	?_Erase@?$_Tree@V?$_Tmap_traits@_KHU?$less@_K@std@@V?$allocator@U?$pair@$$CB_KH@std@@@2@$0A@@std@@@std@@IEAAXPEAU_Node@?$_Tree_nod@V?$_Tmap_traits@_KHU?$less@_K@std@@V?$allocator@U?$pair@$$CB_KH@std@@@2@$0A@@std@@@2@@Z ; std::_Tree<std::_Tmap_traits<unsigned __int64,int,std::less<unsigned __int64>,std::allocator<std::pair<unsigned __int64 const ,int> >,0> >::_Erase
PUBLIC	?_Lmost@?$_Tree@V?$_Tmap_traits@_KHU?$less@_K@std@@V?$allocator@U?$pair@$$CB_KH@std@@@2@$0A@@std@@@std@@IEBAAEAPEAU_Node@?$_Tree_nod@V?$_Tmap_traits@_KHU?$less@_K@std@@V?$allocator@U?$pair@$$CB_KH@std@@@2@$0A@@std@@@2@XZ ; std::_Tree<std::_Tmap_traits<unsigned __int64,int,std::less<unsigned __int64>,std::allocator<std::pair<unsigned __int64 const ,int> >,0> >::_Lmost
PUBLIC	?_Rmost@?$_Tree@V?$_Tmap_traits@_KHU?$less@_K@std@@V?$allocator@U?$pair@$$CB_KH@std@@@2@$0A@@std@@@std@@IEBAAEAPEAU_Node@?$_Tree_nod@V?$_Tmap_traits@_KHU?$less@_K@std@@V?$allocator@U?$pair@$$CB_KH@std@@@2@$0A@@std@@@2@XZ ; std::_Tree<std::_Tmap_traits<unsigned __int64,int,std::less<unsigned __int64>,std::allocator<std::pair<unsigned __int64 const ,int> >,0> >::_Rmost
PUBLIC	?_Root@?$_Tree@V?$_Tmap_traits@_KHU?$less@_K@std@@V?$allocator@U?$pair@$$CB_KH@std@@@2@$0A@@std@@@std@@IEBAAEAPEAU_Node@?$_Tree_nod@V?$_Tmap_traits@_KHU?$less@_K@std@@V?$allocator@U?$pair@$$CB_KH@std@@@2@$0A@@std@@@2@XZ ; std::_Tree<std::_Tmap_traits<unsigned __int64,int,std::less<unsigned __int64>,std::allocator<std::pair<unsigned __int64 const ,int> >,0> >::_Root
PUBLIC	?clear@?$_Tree@V?$_Tmap_traits@_KHU?$less@_K@std@@V?$allocator@U?$pair@$$CB_KH@std@@@2@$0A@@std@@@std@@QEAAXXZ ; std::_Tree<std::_Tmap_traits<unsigned __int64,int,std::less<unsigned __int64>,std::allocator<std::pair<unsigned __int64 const ,int> >,0> >::clear
PUBLIC	?_Parent@?$_Tree@V?$_Tmap_traits@_KHU?$less@_K@std@@V?$allocator@U?$pair@$$CB_KH@std@@@2@$0A@@std@@@std@@KAAEAPEAU_Node@?$_Tree_nod@V?$_Tmap_traits@_KHU?$less@_K@std@@V?$allocator@U?$pair@$$CB_KH@std@@@2@$0A@@std@@@2@PEAU342@@Z ; std::_Tree<std::_Tmap_traits<unsigned __int64,int,std::less<unsigned __int64>,std::allocator<std::pair<unsigned __int64 const ,int> >,0> >::_Parent
PUBLIC	?_Right@?$_Tree@V?$_Tmap_traits@_KHU?$less@_K@std@@V?$allocator@U?$pair@$$CB_KH@std@@@2@$0A@@std@@@std@@KAAEAPEAU_Node@?$_Tree_nod@V?$_Tmap_traits@_KHU?$less@_K@std@@V?$allocator@U?$pair@$$CB_KH@std@@@2@$0A@@std@@@2@PEAU342@@Z ; std::_Tree<std::_Tmap_traits<unsigned __int64,int,std::less<unsigned __int64>,std::allocator<std::pair<unsigned __int64 const ,int> >,0> >::_Right
PUBLIC	?_Isnil@?$_Tree@V?$_Tmap_traits@_KHU?$less@_K@std@@V?$allocator@U?$pair@$$CB_KH@std@@@2@$0A@@std@@@std@@KAAEADPEAU_Node@?$_Tree_nod@V?$_Tmap_traits@_KHU?$less@_K@std@@V?$allocator@U?$pair@$$CB_KH@std@@@2@$0A@@std@@@2@@Z ; std::_Tree<std::_Tmap_traits<unsigned __int64,int,std::less<unsigned __int64>,std::allocator<std::pair<unsigned __int64 const ,int> >,0> >::_Isnil
PUBLIC	?_Left@?$_Tree@V?$_Tmap_traits@_KHU?$less@_K@std@@V?$allocator@U?$pair@$$CB_KH@std@@@2@$0A@@std@@@std@@KAAEAPEAU_Node@?$_Tree_nod@V?$_Tmap_traits@_KHU?$less@_K@std@@V?$allocator@U?$pair@$$CB_KH@std@@@2@$0A@@std@@@2@PEAU342@@Z ; std::_Tree<std::_Tmap_traits<unsigned __int64,int,std::less<unsigned __int64>,std::allocator<std::pair<unsigned __int64 const ,int> >,0> >::_Left
PUBLIC	?_Min@?$_Tree@V?$_Tmap_traits@_KHU?$less@_K@std@@V?$allocator@U?$pair@$$CB_KH@std@@@2@$0A@@std@@@std@@KAPEAU_Node@?$_Tree_nod@V?$_Tmap_traits@_KHU?$less@_K@std@@V?$allocator@U?$pair@$$CB_KH@std@@@2@$0A@@std@@@2@PEAU342@@Z ; std::_Tree<std::_Tmap_traits<unsigned __int64,int,std::less<unsigned __int64>,std::allocator<std::pair<unsigned __int64 const ,int> >,0> >::_Min
PUBLIC	?_Inc@const_iterator@?$_Tree@V?$_Tmap_traits@_KHU?$less@_K@std@@V?$allocator@U?$pair@$$CB_KH@std@@@2@$0A@@std@@@std@@QEAAXXZ ; std::_Tree<std::_Tmap_traits<unsigned __int64,int,std::less<unsigned __int64>,std::allocator<std::pair<unsigned __int64 const ,int> >,0> >::const_iterator::_Inc
PUBLIC	??Econst_iterator@?$_Tree@V?$_Tmap_traits@_KHU?$less@_K@std@@V?$allocator@U?$pair@$$CB_KH@std@@@2@$0A@@std@@@std@@QEAAAEAV012@XZ ; std::_Tree<std::_Tmap_traits<unsigned __int64,int,std::less<unsigned __int64>,std::allocator<std::pair<unsigned __int64 const ,int> >,0> >::const_iterator::operator++
PUBLIC	??Econst_iterator@?$_Tree@V?$_Tmap_traits@_KHU?$less@_K@std@@V?$allocator@U?$pair@$$CB_KH@std@@@2@$0A@@std@@@std@@QEAA?AV012@H@Z ; std::_Tree<std::_Tmap_traits<unsigned __int64,int,std::less<unsigned __int64>,std::allocator<std::pair<unsigned __int64 const ,int> >,0> >::const_iterator::operator++
PUBLIC	??8const_iterator@?$_Tree@V?$_Tmap_traits@_KHU?$less@_K@std@@V?$allocator@U?$pair@$$CB_KH@std@@@2@$0A@@std@@@std@@QEBA_NAEBV012@@Z ; std::_Tree<std::_Tmap_traits<unsigned __int64,int,std::less<unsigned __int64>,std::allocator<std::pair<unsigned __int64 const ,int> >,0> >::const_iterator::operator==
PUBLIC	??9const_iterator@?$_Tree@V?$_Tmap_traits@_KHU?$less@_K@std@@V?$allocator@U?$pair@$$CB_KH@std@@@2@$0A@@std@@@std@@QEBA_NAEBV012@@Z ; std::_Tree<std::_Tmap_traits<unsigned __int64,int,std::less<unsigned __int64>,std::allocator<std::pair<unsigned __int64 const ,int> >,0> >::const_iterator::operator!=
PUBLIC	?erase@?$_Tree@V?$_Tmap_traits@_KHU?$less@_K@std@@V?$allocator@U?$pair@$$CB_KH@std@@@2@$0A@@std@@@std@@QEAA?AViterator@12@Vconst_iterator@12@0@Z ; std::_Tree<std::_Tmap_traits<unsigned __int64,int,std::less<unsigned __int64>,std::allocator<std::pair<unsigned __int64 const ,int> >,0> >::erase
PUBLIC	?_Tidy@?$_Tree@V?$_Tmap_traits@_KHU?$less@_K@std@@V?$allocator@U?$pair@$$CB_KH@std@@@2@$0A@@std@@@std@@IEAAXXZ ; std::_Tree<std::_Tmap_traits<unsigned __int64,int,std::less<unsigned __int64>,std::allocator<std::pair<unsigned __int64 const ,int> >,0> >::_Tidy
PUBLIC	??1?$_Tree@V?$_Tmap_traits@_KHU?$less@_K@std@@V?$allocator@U?$pair@$$CB_KH@std@@@2@$0A@@std@@@std@@QEAA@XZ ; std::_Tree<std::_Tmap_traits<unsigned __int64,int,std::less<unsigned __int64>,std::allocator<std::pair<unsigned __int64 const ,int> >,0> >::~_Tree<std::_Tmap_traits<unsigned __int64,int,std::less<unsigned __int64>,std::allocator<std::pair<unsigned __int64 const ,int> >,0> >
PUBLIC	??1?$map@_KHU?$less@_K@std@@V?$allocator@U?$pair@$$CB_KH@std@@@2@@std@@QEAA@XZ ; std::map<unsigned __int64,int,std::less<unsigned __int64>,std::allocator<std::pair<unsigned __int64 const ,int> > >::~map<unsigned __int64,int,std::less<unsigned __int64>,std::allocator<std::pair<unsigned __int64 const ,int> > >
PUBLIC	??1?$_Container_base_aux_alloc_real@V?$allocator@U?$pair@$$CB_KPEAVThreadInfo@@@std@@@std@@@std@@IEAA@XZ ; std::_Container_base_aux_alloc_real<std::allocator<std::pair<unsigned __int64 const ,ThreadInfo * __ptr64> > >::~_Container_base_aux_alloc_real<std::allocator<std::pair<unsigned __int64 const ,ThreadInfo * __ptr64> > >
PUBLIC	??1?$_Tmap_traits@_KPEAVThreadInfo@@U?$less@_K@std@@V?$allocator@U?$pair@$$CB_KPEAVThreadInfo@@@std@@@3@$0A@@std@@QEAA@XZ ; std::_Tmap_traits<unsigned __int64,ThreadInfo * __ptr64,std::less<unsigned __int64>,std::allocator<std::pair<unsigned __int64 const ,ThreadInfo * __ptr64> >,0>::~_Tmap_traits<unsigned __int64,ThreadInfo * __ptr64,std::less<unsigned __int64>,std::allocator<std::pair<unsigned __int64 const ,ThreadInfo * __ptr64> >,0>
PUBLIC	??1?$_Tree_nod@V?$_Tmap_traits@_KPEAVThreadInfo@@U?$less@_K@std@@V?$allocator@U?$pair@$$CB_KPEAVThreadInfo@@@std@@@3@$0A@@std@@@std@@QEAA@XZ ; std::_Tree_nod<std::_Tmap_traits<unsigned __int64,ThreadInfo * __ptr64,std::less<unsigned __int64>,std::allocator<std::pair<unsigned __int64 const ,ThreadInfo * __ptr64> >,0> >::~_Tree_nod<std::_Tmap_traits<unsigned __int64,ThreadInfo * __ptr64,std::less<unsigned __int64>,std::allocator<std::pair<unsigned __int64 const ,ThreadInfo * __ptr64> >,0> >
PUBLIC	??1?$_Tree_ptr@V?$_Tmap_traits@_KPEAVThreadInfo@@U?$less@_K@std@@V?$allocator@U?$pair@$$CB_KPEAVThreadInfo@@@std@@@3@$0A@@std@@@std@@QEAA@XZ ; std::_Tree_ptr<std::_Tmap_traits<unsigned __int64,ThreadInfo * __ptr64,std::less<unsigned __int64>,std::allocator<std::pair<unsigned __int64 const ,ThreadInfo * __ptr64> >,0> >::~_Tree_ptr<std::_Tmap_traits<unsigned __int64,ThreadInfo * __ptr64,std::less<unsigned __int64>,std::allocator<std::pair<unsigned __int64 const ,ThreadInfo * __ptr64> >,0> >
PUBLIC	??1?$_Tree_val@V?$_Tmap_traits@_KPEAVThreadInfo@@U?$less@_K@std@@V?$allocator@U?$pair@$$CB_KPEAVThreadInfo@@@std@@@3@$0A@@std@@@std@@QEAA@XZ ; std::_Tree_val<std::_Tmap_traits<unsigned __int64,ThreadInfo * __ptr64,std::less<unsigned __int64>,std::allocator<std::pair<unsigned __int64 const ,ThreadInfo * __ptr64> >,0> >::~_Tree_val<std::_Tmap_traits<unsigned __int64,ThreadInfo * __ptr64,std::less<unsigned __int64>,std::allocator<std::pair<unsigned __int64 const ,ThreadInfo * __ptr64> >,0> >
PUBLIC	??$_Destroy@PEAU_Node@?$_Tree_nod@V?$_Tmap_traits@_KPEAVThreadInfo@@U?$less@_K@std@@V?$allocator@U?$pair@$$CB_KPEAVThreadInfo@@@std@@@3@$0A@@std@@@std@@@std@@YAXPEAPEAU_Node@?$_Tree_nod@V?$_Tmap_traits@_KPEAVThreadInfo@@U?$less@_K@std@@V?$allocator@U?$pair@$$CB_KPEAVThreadInfo@@@std@@@3@$0A@@std@@@0@@Z ; std::_Destroy<std::_Tree_nod<std::_Tmap_traits<unsigned __int64,ThreadInfo * __ptr64,std::less<unsigned __int64>,std::allocator<std::pair<unsigned __int64 const ,ThreadInfo * __ptr64> >,0> >::_Node * __ptr64>
PUBLIC	?destroy@?$allocator@PEAU_Node@?$_Tree_nod@V?$_Tmap_traits@_KPEAVThreadInfo@@U?$less@_K@std@@V?$allocator@U?$pair@$$CB_KPEAVThreadInfo@@@std@@@3@$0A@@std@@@std@@@std@@QEAAXPEAPEAU_Node@?$_Tree_nod@V?$_Tmap_traits@_KPEAVThreadInfo@@U?$less@_K@std@@V?$allocator@U?$pair@$$CB_KPEAVThreadInfo@@@std@@@3@$0A@@std@@@2@@Z ; std::allocator<std::_Tree_nod<std::_Tmap_traits<unsigned __int64,ThreadInfo * __ptr64,std::less<unsigned __int64>,std::allocator<std::pair<unsigned __int64 const ,ThreadInfo * __ptr64> >,0> >::_Node * __ptr64>::destroy
PUBLIC	?begin@?$_Tree@V?$_Tmap_traits@_KPEAVThreadInfo@@U?$less@_K@std@@V?$allocator@U?$pair@$$CB_KPEAVThreadInfo@@@std@@@3@$0A@@std@@@std@@QEAA?AViterator@12@XZ ; std::_Tree<std::_Tmap_traits<unsigned __int64,ThreadInfo * __ptr64,std::less<unsigned __int64>,std::allocator<std::pair<unsigned __int64 const ,ThreadInfo * __ptr64> >,0> >::begin
PUBLIC	?end@?$_Tree@V?$_Tmap_traits@_KPEAVThreadInfo@@U?$less@_K@std@@V?$allocator@U?$pair@$$CB_KPEAVThreadInfo@@@std@@@3@$0A@@std@@@std@@QEAA?AViterator@12@XZ ; std::_Tree<std::_Tmap_traits<unsigned __int64,ThreadInfo * __ptr64,std::less<unsigned __int64>,std::allocator<std::pair<unsigned __int64 const ,ThreadInfo * __ptr64> >,0> >::end
PUBLIC	?_Color@?$_Tree@V?$_Tmap_traits@_KPEAVThreadInfo@@U?$less@_K@std@@V?$allocator@U?$pair@$$CB_KPEAVThreadInfo@@@std@@@3@$0A@@std@@@std@@KAAEADPEAU_Node@?$_Tree_nod@V?$_Tmap_traits@_KPEAVThreadInfo@@U?$less@_K@std@@V?$allocator@U?$pair@$$CB_KPEAVThreadInfo@@@std@@@3@$0A@@std@@@2@@Z ; std::_Tree<std::_Tmap_traits<unsigned __int64,ThreadInfo * __ptr64,std::less<unsigned __int64>,std::allocator<std::pair<unsigned __int64 const ,ThreadInfo * __ptr64> >,0> >::_Color
PUBLIC	??0?$_Iterator_with_base@Ubidirectional_iterator_tag@std@@U?$pair@$$CB_KPEAVThreadInfo@@@2@_JPEBU32@AEBU32@V_Iterator_base_aux@2@@std@@QEAA@XZ ; std::_Iterator_with_base<std::bidirectional_iterator_tag,std::pair<unsigned __int64 const ,ThreadInfo * __ptr64>,__int64,std::pair<unsigned __int64 const ,ThreadInfo * __ptr64> const * __ptr64,std::pair<unsigned __int64 const ,ThreadInfo * __ptr64> const & __ptr64,std::_Iterator_base_aux>::_Iterator_with_base<std::bidirectional_iterator_tag,std::pair<unsigned __int64 const ,ThreadInfo * __ptr64>,__int64,std::pair<unsigned __int64 const ,ThreadInfo * __ptr64> const * __ptr64,std::pair<unsigned __int64 const ,ThreadInfo * __ptr64> const & __ptr64,std::_Iterator_base_aux>
PUBLIC	??0?$_Bidit@U?$pair@$$CB_KPEAVThreadInfo@@@std@@_JPEBU12@AEBU12@@std@@QEAA@XZ ; std::_Bidit<std::pair<unsigned __int64 const ,ThreadInfo * __ptr64>,__int64,std::pair<unsigned __int64 const ,ThreadInfo * __ptr64> const * __ptr64,std::pair<unsigned __int64 const ,ThreadInfo * __ptr64> const & __ptr64>::_Bidit<std::pair<unsigned __int64 const ,ThreadInfo * __ptr64>,__int64,std::pair<unsigned __int64 const ,ThreadInfo * __ptr64> const * __ptr64,std::pair<unsigned __int64 const ,ThreadInfo * __ptr64> const & __ptr64>
PUBLIC	??0const_iterator@?$_Tree@V?$_Tmap_traits@_KPEAVThreadInfo@@U?$less@_K@std@@V?$allocator@U?$pair@$$CB_KPEAVThreadInfo@@@std@@@3@$0A@@std@@@std@@QEAA@PEAU_Node@?$_Tree_nod@V?$_Tmap_traits@_KPEAVThreadInfo@@U?$less@_K@std@@V?$allocator@U?$pair@$$CB_KPEAVThreadInfo@@@std@@@3@$0A@@std@@@2@PEBV12@@Z ; std::_Tree<std::_Tmap_traits<unsigned __int64,ThreadInfo * __ptr64,std::less<unsigned __int64>,std::allocator<std::pair<unsigned __int64 const ,ThreadInfo * __ptr64> >,0> >::const_iterator::const_iterator
PUBLIC	??0iterator@?$_Tree@V?$_Tmap_traits@_KPEAVThreadInfo@@U?$less@_K@std@@V?$allocator@U?$pair@$$CB_KPEAVThreadInfo@@@std@@@3@$0A@@std@@@std@@QEAA@PEAU_Node@?$_Tree_nod@V?$_Tmap_traits@_KPEAVThreadInfo@@U?$less@_K@std@@V?$allocator@U?$pair@$$CB_KPEAVThreadInfo@@@std@@@3@$0A@@std@@@2@PEBV12@@Z ; std::_Tree<std::_Tmap_traits<unsigned __int64,ThreadInfo * __ptr64,std::less<unsigned __int64>,std::allocator<std::pair<unsigned __int64 const ,ThreadInfo * __ptr64> >,0> >::iterator::iterator
PUBLIC	?_Make_iter@?$_Tree@V?$_Tmap_traits@_KPEAVThreadInfo@@U?$less@_K@std@@V?$allocator@U?$pair@$$CB_KPEAVThreadInfo@@@std@@@3@$0A@@std@@@std@@QEBA?AViterator@12@Vconst_iterator@12@@Z ; std::_Tree<std::_Tmap_traits<unsigned __int64,ThreadInfo * __ptr64,std::less<unsigned __int64>,std::allocator<std::pair<unsigned __int64 const ,ThreadInfo * __ptr64> >,0> >::_Make_iter
PUBLIC	?_Lrotate@?$_Tree@V?$_Tmap_traits@_KPEAVThreadInfo@@U?$less@_K@std@@V?$allocator@U?$pair@$$CB_KPEAVThreadInfo@@@std@@@3@$0A@@std@@@std@@IEAAXPEAU_Node@?$_Tree_nod@V?$_Tmap_traits@_KPEAVThreadInfo@@U?$less@_K@std@@V?$allocator@U?$pair@$$CB_KPEAVThreadInfo@@@std@@@3@$0A@@std@@@2@@Z ; std::_Tree<std::_Tmap_traits<unsigned __int64,ThreadInfo * __ptr64,std::less<unsigned __int64>,std::allocator<std::pair<unsigned __int64 const ,ThreadInfo * __ptr64> >,0> >::_Lrotate
PUBLIC	?_Max@?$_Tree@V?$_Tmap_traits@_KPEAVThreadInfo@@U?$less@_K@std@@V?$allocator@U?$pair@$$CB_KPEAVThreadInfo@@@std@@@3@$0A@@std@@@std@@KAPEAU_Node@?$_Tree_nod@V?$_Tmap_traits@_KPEAVThreadInfo@@U?$less@_K@std@@V?$allocator@U?$pair@$$CB_KPEAVThreadInfo@@@std@@@3@$0A@@std@@@2@PEAU342@@Z ; std::_Tree<std::_Tmap_traits<unsigned __int64,ThreadInfo * __ptr64,std::less<unsigned __int64>,std::allocator<std::pair<unsigned __int64 const ,ThreadInfo * __ptr64> >,0> >::_Max
PUBLIC	?_Rrotate@?$_Tree@V?$_Tmap_traits@_KPEAVThreadInfo@@U?$less@_K@std@@V?$allocator@U?$pair@$$CB_KPEAVThreadInfo@@@std@@@3@$0A@@std@@@std@@IEAAXPEAU_Node@?$_Tree_nod@V?$_Tmap_traits@_KPEAVThreadInfo@@U?$less@_K@std@@V?$allocator@U?$pair@$$CB_KPEAVThreadInfo@@@std@@@3@$0A@@std@@@2@@Z ; std::_Tree<std::_Tmap_traits<unsigned __int64,ThreadInfo * __ptr64,std::less<unsigned __int64>,std::allocator<std::pair<unsigned __int64 const ,ThreadInfo * __ptr64> >,0> >::_Rrotate
PUBLIC	?_Mynode@const_iterator@?$_Tree@V?$_Tmap_traits@_KPEAVThreadInfo@@U?$less@_K@std@@V?$allocator@U?$pair@$$CB_KPEAVThreadInfo@@@std@@@3@$0A@@std@@@std@@QEBAPEAU_Node@?$_Tree_nod@V?$_Tmap_traits@_KPEAVThreadInfo@@U?$less@_K@std@@V?$allocator@U?$pair@$$CB_KPEAVThreadInfo@@@std@@@3@$0A@@std@@@3@XZ ; std::_Tree<std::_Tmap_traits<unsigned __int64,ThreadInfo * __ptr64,std::less<unsigned __int64>,std::allocator<std::pair<unsigned __int64 const ,ThreadInfo * __ptr64> >,0> >::const_iterator::_Mynode
PUBLIC	?erase@?$_Tree@V?$_Tmap_traits@_KPEAVThreadInfo@@U?$less@_K@std@@V?$allocator@U?$pair@$$CB_KPEAVThreadInfo@@@std@@@3@$0A@@std@@@std@@QEAA?AViterator@12@Vconst_iterator@12@@Z ; std::_Tree<std::_Tmap_traits<unsigned __int64,ThreadInfo * __ptr64,std::less<unsigned __int64>,std::allocator<std::pair<unsigned __int64 const ,ThreadInfo * __ptr64> >,0> >::erase
PUBLIC	?deallocate@?$allocator@U_Node@?$_Tree_nod@V?$_Tmap_traits@_KPEAVThreadInfo@@U?$less@_K@std@@V?$allocator@U?$pair@$$CB_KPEAVThreadInfo@@@std@@@3@$0A@@std@@@std@@@std@@QEAAXPEAU_Node@?$_Tree_nod@V?$_Tmap_traits@_KPEAVThreadInfo@@U?$less@_K@std@@V?$allocator@U?$pair@$$CB_KPEAVThreadInfo@@@std@@@3@$0A@@std@@@2@_K@Z ; std::allocator<std::_Tree_nod<std::_Tmap_traits<unsigned __int64,ThreadInfo * __ptr64,std::less<unsigned __int64>,std::allocator<std::pair<unsigned __int64 const ,ThreadInfo * __ptr64> >,0> >::_Node>::deallocate
PUBLIC	??$_Destroy@U_Node@?$_Tree_nod@V?$_Tmap_traits@_KPEAVThreadInfo@@U?$less@_K@std@@V?$allocator@U?$pair@$$CB_KPEAVThreadInfo@@@std@@@3@$0A@@std@@@std@@@std@@YAXPEAU_Node@?$_Tree_nod@V?$_Tmap_traits@_KPEAVThreadInfo@@U?$less@_K@std@@V?$allocator@U?$pair@$$CB_KPEAVThreadInfo@@@std@@@3@$0A@@std@@@0@@Z ; std::_Destroy<std::_Tree_nod<std::_Tmap_traits<unsigned __int64,ThreadInfo * __ptr64,std::less<unsigned __int64>,std::allocator<std::pair<unsigned __int64 const ,ThreadInfo * __ptr64> >,0> >::_Node>
PUBLIC	?destroy@?$allocator@U_Node@?$_Tree_nod@V?$_Tmap_traits@_KPEAVThreadInfo@@U?$less@_K@std@@V?$allocator@U?$pair@$$CB_KPEAVThreadInfo@@@std@@@3@$0A@@std@@@std@@@std@@QEAAXPEAU_Node@?$_Tree_nod@V?$_Tmap_traits@_KPEAVThreadInfo@@U?$less@_K@std@@V?$allocator@U?$pair@$$CB_KPEAVThreadInfo@@@std@@@3@$0A@@std@@@2@@Z ; std::allocator<std::_Tree_nod<std::_Tmap_traits<unsigned __int64,ThreadInfo * __ptr64,std::less<unsigned __int64>,std::allocator<std::pair<unsigned __int64 const ,ThreadInfo * __ptr64> >,0> >::_Node>::destroy
PUBLIC	?_Erase@?$_Tree@V?$_Tmap_traits@_KPEAVThreadInfo@@U?$less@_K@std@@V?$allocator@U?$pair@$$CB_KPEAVThreadInfo@@@std@@@3@$0A@@std@@@std@@IEAAXPEAU_Node@?$_Tree_nod@V?$_Tmap_traits@_KPEAVThreadInfo@@U?$less@_K@std@@V?$allocator@U?$pair@$$CB_KPEAVThreadInfo@@@std@@@3@$0A@@std@@@2@@Z ; std::_Tree<std::_Tmap_traits<unsigned __int64,ThreadInfo * __ptr64,std::less<unsigned __int64>,std::allocator<std::pair<unsigned __int64 const ,ThreadInfo * __ptr64> >,0> >::_Erase
PUBLIC	?_Lmost@?$_Tree@V?$_Tmap_traits@_KPEAVThreadInfo@@U?$less@_K@std@@V?$allocator@U?$pair@$$CB_KPEAVThreadInfo@@@std@@@3@$0A@@std@@@std@@IEBAAEAPEAU_Node@?$_Tree_nod@V?$_Tmap_traits@_KPEAVThreadInfo@@U?$less@_K@std@@V?$allocator@U?$pair@$$CB_KPEAVThreadInfo@@@std@@@3@$0A@@std@@@2@XZ ; std::_Tree<std::_Tmap_traits<unsigned __int64,ThreadInfo * __ptr64,std::less<unsigned __int64>,std::allocator<std::pair<unsigned __int64 const ,ThreadInfo * __ptr64> >,0> >::_Lmost
PUBLIC	?_Rmost@?$_Tree@V?$_Tmap_traits@_KPEAVThreadInfo@@U?$less@_K@std@@V?$allocator@U?$pair@$$CB_KPEAVThreadInfo@@@std@@@3@$0A@@std@@@std@@IEBAAEAPEAU_Node@?$_Tree_nod@V?$_Tmap_traits@_KPEAVThreadInfo@@U?$less@_K@std@@V?$allocator@U?$pair@$$CB_KPEAVThreadInfo@@@std@@@3@$0A@@std@@@2@XZ ; std::_Tree<std::_Tmap_traits<unsigned __int64,ThreadInfo * __ptr64,std::less<unsigned __int64>,std::allocator<std::pair<unsigned __int64 const ,ThreadInfo * __ptr64> >,0> >::_Rmost
PUBLIC	?_Root@?$_Tree@V?$_Tmap_traits@_KPEAVThreadInfo@@U?$less@_K@std@@V?$allocator@U?$pair@$$CB_KPEAVThreadInfo@@@std@@@3@$0A@@std@@@std@@IEBAAEAPEAU_Node@?$_Tree_nod@V?$_Tmap_traits@_KPEAVThreadInfo@@U?$less@_K@std@@V?$allocator@U?$pair@$$CB_KPEAVThreadInfo@@@std@@@3@$0A@@std@@@2@XZ ; std::_Tree<std::_Tmap_traits<unsigned __int64,ThreadInfo * __ptr64,std::less<unsigned __int64>,std::allocator<std::pair<unsigned __int64 const ,ThreadInfo * __ptr64> >,0> >::_Root
PUBLIC	?clear@?$_Tree@V?$_Tmap_traits@_KPEAVThreadInfo@@U?$less@_K@std@@V?$allocator@U?$pair@$$CB_KPEAVThreadInfo@@@std@@@3@$0A@@std@@@std@@QEAAXXZ ; std::_Tree<std::_Tmap_traits<unsigned __int64,ThreadInfo * __ptr64,std::less<unsigned __int64>,std::allocator<std::pair<unsigned __int64 const ,ThreadInfo * __ptr64> >,0> >::clear
PUBLIC	?_Parent@?$_Tree@V?$_Tmap_traits@_KPEAVThreadInfo@@U?$less@_K@std@@V?$allocator@U?$pair@$$CB_KPEAVThreadInfo@@@std@@@3@$0A@@std@@@std@@KAAEAPEAU_Node@?$_Tree_nod@V?$_Tmap_traits@_KPEAVThreadInfo@@U?$less@_K@std@@V?$allocator@U?$pair@$$CB_KPEAVThreadInfo@@@std@@@3@$0A@@std@@@2@PEAU342@@Z ; std::_Tree<std::_Tmap_traits<unsigned __int64,ThreadInfo * __ptr64,std::less<unsigned __int64>,std::allocator<std::pair<unsigned __int64 const ,ThreadInfo * __ptr64> >,0> >::_Parent
PUBLIC	?_Right@?$_Tree@V?$_Tmap_traits@_KPEAVThreadInfo@@U?$less@_K@std@@V?$allocator@U?$pair@$$CB_KPEAVThreadInfo@@@std@@@3@$0A@@std@@@std@@KAAEAPEAU_Node@?$_Tree_nod@V?$_Tmap_traits@_KPEAVThreadInfo@@U?$less@_K@std@@V?$allocator@U?$pair@$$CB_KPEAVThreadInfo@@@std@@@3@$0A@@std@@@2@PEAU342@@Z ; std::_Tree<std::_Tmap_traits<unsigned __int64,ThreadInfo * __ptr64,std::less<unsigned __int64>,std::allocator<std::pair<unsigned __int64 const ,ThreadInfo * __ptr64> >,0> >::_Right
PUBLIC	?_Isnil@?$_Tree@V?$_Tmap_traits@_KPEAVThreadInfo@@U?$less@_K@std@@V?$allocator@U?$pair@$$CB_KPEAVThreadInfo@@@std@@@3@$0A@@std@@@std@@KAAEADPEAU_Node@?$_Tree_nod@V?$_Tmap_traits@_KPEAVThreadInfo@@U?$less@_K@std@@V?$allocator@U?$pair@$$CB_KPEAVThreadInfo@@@std@@@3@$0A@@std@@@2@@Z ; std::_Tree<std::_Tmap_traits<unsigned __int64,ThreadInfo * __ptr64,std::less<unsigned __int64>,std::allocator<std::pair<unsigned __int64 const ,ThreadInfo * __ptr64> >,0> >::_Isnil
PUBLIC	?_Left@?$_Tree@V?$_Tmap_traits@_KPEAVThreadInfo@@U?$less@_K@std@@V?$allocator@U?$pair@$$CB_KPEAVThreadInfo@@@std@@@3@$0A@@std@@@std@@KAAEAPEAU_Node@?$_Tree_nod@V?$_Tmap_traits@_KPEAVThreadInfo@@U?$less@_K@std@@V?$allocator@U?$pair@$$CB_KPEAVThreadInfo@@@std@@@3@$0A@@std@@@2@PEAU342@@Z ; std::_Tree<std::_Tmap_traits<unsigned __int64,ThreadInfo * __ptr64,std::less<unsigned __int64>,std::allocator<std::pair<unsigned __int64 const ,ThreadInfo * __ptr64> >,0> >::_Left
PUBLIC	?_Min@?$_Tree@V?$_Tmap_traits@_KPEAVThreadInfo@@U?$less@_K@std@@V?$allocator@U?$pair@$$CB_KPEAVThreadInfo@@@std@@@3@$0A@@std@@@std@@KAPEAU_Node@?$_Tree_nod@V?$_Tmap_traits@_KPEAVThreadInfo@@U?$less@_K@std@@V?$allocator@U?$pair@$$CB_KPEAVThreadInfo@@@std@@@3@$0A@@std@@@2@PEAU342@@Z ; std::_Tree<std::_Tmap_traits<unsigned __int64,ThreadInfo * __ptr64,std::less<unsigned __int64>,std::allocator<std::pair<unsigned __int64 const ,ThreadInfo * __ptr64> >,0> >::_Min
PUBLIC	?_Inc@const_iterator@?$_Tree@V?$_Tmap_traits@_KPEAVThreadInfo@@U?$less@_K@std@@V?$allocator@U?$pair@$$CB_KPEAVThreadInfo@@@std@@@3@$0A@@std@@@std@@QEAAXXZ ; std::_Tree<std::_Tmap_traits<unsigned __int64,ThreadInfo * __ptr64,std::less<unsigned __int64>,std::allocator<std::pair<unsigned __int64 const ,ThreadInfo * __ptr64> >,0> >::const_iterator::_Inc
PUBLIC	??Econst_iterator@?$_Tree@V?$_Tmap_traits@_KPEAVThreadInfo@@U?$less@_K@std@@V?$allocator@U?$pair@$$CB_KPEAVThreadInfo@@@std@@@3@$0A@@std@@@std@@QEAAAEAV012@XZ ; std::_Tree<std::_Tmap_traits<unsigned __int64,ThreadInfo * __ptr64,std::less<unsigned __int64>,std::allocator<std::pair<unsigned __int64 const ,ThreadInfo * __ptr64> >,0> >::const_iterator::operator++
PUBLIC	??Econst_iterator@?$_Tree@V?$_Tmap_traits@_KPEAVThreadInfo@@U?$less@_K@std@@V?$allocator@U?$pair@$$CB_KPEAVThreadInfo@@@std@@@3@$0A@@std@@@std@@QEAA?AV012@H@Z ; std::_Tree<std::_Tmap_traits<unsigned __int64,ThreadInfo * __ptr64,std::less<unsigned __int64>,std::allocator<std::pair<unsigned __int64 const ,ThreadInfo * __ptr64> >,0> >::const_iterator::operator++
PUBLIC	??8const_iterator@?$_Tree@V?$_Tmap_traits@_KPEAVThreadInfo@@U?$less@_K@std@@V?$allocator@U?$pair@$$CB_KPEAVThreadInfo@@@std@@@3@$0A@@std@@@std@@QEBA_NAEBV012@@Z ; std::_Tree<std::_Tmap_traits<unsigned __int64,ThreadInfo * __ptr64,std::less<unsigned __int64>,std::allocator<std::pair<unsigned __int64 const ,ThreadInfo * __ptr64> >,0> >::const_iterator::operator==
PUBLIC	??9const_iterator@?$_Tree@V?$_Tmap_traits@_KPEAVThreadInfo@@U?$less@_K@std@@V?$allocator@U?$pair@$$CB_KPEAVThreadInfo@@@std@@@3@$0A@@std@@@std@@QEBA_NAEBV012@@Z ; std::_Tree<std::_Tmap_traits<unsigned __int64,ThreadInfo * __ptr64,std::less<unsigned __int64>,std::allocator<std::pair<unsigned __int64 const ,ThreadInfo * __ptr64> >,0> >::const_iterator::operator!=
PUBLIC	?erase@?$_Tree@V?$_Tmap_traits@_KPEAVThreadInfo@@U?$less@_K@std@@V?$allocator@U?$pair@$$CB_KPEAVThreadInfo@@@std@@@3@$0A@@std@@@std@@QEAA?AViterator@12@Vconst_iterator@12@0@Z ; std::_Tree<std::_Tmap_traits<unsigned __int64,ThreadInfo * __ptr64,std::less<unsigned __int64>,std::allocator<std::pair<unsigned __int64 const ,ThreadInfo * __ptr64> >,0> >::erase
PUBLIC	?_Tidy@?$_Tree@V?$_Tmap_traits@_KPEAVThreadInfo@@U?$less@_K@std@@V?$allocator@U?$pair@$$CB_KPEAVThreadInfo@@@std@@@3@$0A@@std@@@std@@IEAAXXZ ; std::_Tree<std::_Tmap_traits<unsigned __int64,ThreadInfo * __ptr64,std::less<unsigned __int64>,std::allocator<std::pair<unsigned __int64 const ,ThreadInfo * __ptr64> >,0> >::_Tidy
PUBLIC	??1?$_Tree@V?$_Tmap_traits@_KPEAVThreadInfo@@U?$less@_K@std@@V?$allocator@U?$pair@$$CB_KPEAVThreadInfo@@@std@@@3@$0A@@std@@@std@@QEAA@XZ ; std::_Tree<std::_Tmap_traits<unsigned __int64,ThreadInfo * __ptr64,std::less<unsigned __int64>,std::allocator<std::pair<unsigned __int64 const ,ThreadInfo * __ptr64> >,0> >::~_Tree<std::_Tmap_traits<unsigned __int64,ThreadInfo * __ptr64,std::less<unsigned __int64>,std::allocator<std::pair<unsigned __int64 const ,ThreadInfo * __ptr64> >,0> >
PUBLIC	??1?$map@_KPEAVThreadInfo@@U?$less@_K@std@@V?$allocator@U?$pair@$$CB_KPEAVThreadInfo@@@std@@@3@@std@@QEAA@XZ ; std::map<unsigned __int64,ThreadInfo * __ptr64,std::less<unsigned __int64>,std::allocator<std::pair<unsigned __int64 const ,ThreadInfo * __ptr64> > >::~map<unsigned __int64,ThreadInfo * __ptr64,std::less<unsigned __int64>,std::allocator<std::pair<unsigned __int64 const ,ThreadInfo * __ptr64> > >
PUBLIC	??1_Container_base_aux@std@@QEAA@XZ		; std::_Container_base_aux::~_Container_base_aux
PUBLIC	?deallocate@?$allocator@V_Aux_cont@std@@@std@@QEAAXPEAV_Aux_cont@2@_K@Z ; std::allocator<std::_Aux_cont>::deallocate
PUBLIC	??1?$_Container_base_aux_alloc_real@V?$allocator@U?$pair@$$CBKPEAVThreadInfo@@@std@@@std@@@std@@IEAA@XZ ; std::_Container_base_aux_alloc_real<std::allocator<std::pair<unsigned long const ,ThreadInfo * __ptr64> > >::~_Container_base_aux_alloc_real<std::allocator<std::pair<unsigned long const ,ThreadInfo * __ptr64> > >
PUBLIC	??1?$_Tmap_traits@KPEAVThreadInfo@@U?$less@K@std@@V?$allocator@U?$pair@$$CBKPEAVThreadInfo@@@std@@@3@$0A@@std@@QEAA@XZ ; std::_Tmap_traits<unsigned long,ThreadInfo * __ptr64,std::less<unsigned long>,std::allocator<std::pair<unsigned long const ,ThreadInfo * __ptr64> >,0>::~_Tmap_traits<unsigned long,ThreadInfo * __ptr64,std::less<unsigned long>,std::allocator<std::pair<unsigned long const ,ThreadInfo * __ptr64> >,0>
PUBLIC	??1?$_Tree_nod@V?$_Tmap_traits@KPEAVThreadInfo@@U?$less@K@std@@V?$allocator@U?$pair@$$CBKPEAVThreadInfo@@@std@@@3@$0A@@std@@@std@@QEAA@XZ ; std::_Tree_nod<std::_Tmap_traits<unsigned long,ThreadInfo * __ptr64,std::less<unsigned long>,std::allocator<std::pair<unsigned long const ,ThreadInfo * __ptr64> >,0> >::~_Tree_nod<std::_Tmap_traits<unsigned long,ThreadInfo * __ptr64,std::less<unsigned long>,std::allocator<std::pair<unsigned long const ,ThreadInfo * __ptr64> >,0> >
PUBLIC	??1?$_Tree_ptr@V?$_Tmap_traits@KPEAVThreadInfo@@U?$less@K@std@@V?$allocator@U?$pair@$$CBKPEAVThreadInfo@@@std@@@3@$0A@@std@@@std@@QEAA@XZ ; std::_Tree_ptr<std::_Tmap_traits<unsigned long,ThreadInfo * __ptr64,std::less<unsigned long>,std::allocator<std::pair<unsigned long const ,ThreadInfo * __ptr64> >,0> >::~_Tree_ptr<std::_Tmap_traits<unsigned long,ThreadInfo * __ptr64,std::less<unsigned long>,std::allocator<std::pair<unsigned long const ,ThreadInfo * __ptr64> >,0> >
PUBLIC	??1?$_Tree_val@V?$_Tmap_traits@KPEAVThreadInfo@@U?$less@K@std@@V?$allocator@U?$pair@$$CBKPEAVThreadInfo@@@std@@@3@$0A@@std@@@std@@QEAA@XZ ; std::_Tree_val<std::_Tmap_traits<unsigned long,ThreadInfo * __ptr64,std::less<unsigned long>,std::allocator<std::pair<unsigned long const ,ThreadInfo * __ptr64> >,0> >::~_Tree_val<std::_Tmap_traits<unsigned long,ThreadInfo * __ptr64,std::less<unsigned long>,std::allocator<std::pair<unsigned long const ,ThreadInfo * __ptr64> >,0> >
PUBLIC	??$_Destroy@PEAU_Node@?$_Tree_nod@V?$_Tmap_traits@KPEAVThreadInfo@@U?$less@K@std@@V?$allocator@U?$pair@$$CBKPEAVThreadInfo@@@std@@@3@$0A@@std@@@std@@@std@@YAXPEAPEAU_Node@?$_Tree_nod@V?$_Tmap_traits@KPEAVThreadInfo@@U?$less@K@std@@V?$allocator@U?$pair@$$CBKPEAVThreadInfo@@@std@@@3@$0A@@std@@@0@@Z ; std::_Destroy<std::_Tree_nod<std::_Tmap_traits<unsigned long,ThreadInfo * __ptr64,std::less<unsigned long>,std::allocator<std::pair<unsigned long const ,ThreadInfo * __ptr64> >,0> >::_Node * __ptr64>
PUBLIC	?destroy@?$allocator@PEAU_Node@?$_Tree_nod@V?$_Tmap_traits@KPEAVThreadInfo@@U?$less@K@std@@V?$allocator@U?$pair@$$CBKPEAVThreadInfo@@@std@@@3@$0A@@std@@@std@@@std@@QEAAXPEAPEAU_Node@?$_Tree_nod@V?$_Tmap_traits@KPEAVThreadInfo@@U?$less@K@std@@V?$allocator@U?$pair@$$CBKPEAVThreadInfo@@@std@@@3@$0A@@std@@@2@@Z ; std::allocator<std::_Tree_nod<std::_Tmap_traits<unsigned long,ThreadInfo * __ptr64,std::less<unsigned long>,std::allocator<std::pair<unsigned long const ,ThreadInfo * __ptr64> >,0> >::_Node * __ptr64>::destroy
PUBLIC	?begin@?$_Tree@V?$_Tmap_traits@KPEAVThreadInfo@@U?$less@K@std@@V?$allocator@U?$pair@$$CBKPEAVThreadInfo@@@std@@@3@$0A@@std@@@std@@QEAA?AViterator@12@XZ ; std::_Tree<std::_Tmap_traits<unsigned long,ThreadInfo * __ptr64,std::less<unsigned long>,std::allocator<std::pair<unsigned long const ,ThreadInfo * __ptr64> >,0> >::begin
PUBLIC	?end@?$_Tree@V?$_Tmap_traits@KPEAVThreadInfo@@U?$less@K@std@@V?$allocator@U?$pair@$$CBKPEAVThreadInfo@@@std@@@3@$0A@@std@@@std@@QEAA?AViterator@12@XZ ; std::_Tree<std::_Tmap_traits<unsigned long,ThreadInfo * __ptr64,std::less<unsigned long>,std::allocator<std::pair<unsigned long const ,ThreadInfo * __ptr64> >,0> >::end
PUBLIC	??0logic_error@std@@QEAA@AEBV?$basic_string@DU?$char_traits@D@std@@V?$allocator@D@2@@1@@Z ; std::logic_error::logic_error
PUBLIC	??0out_of_range@std@@QEAA@AEBV?$basic_string@DU?$char_traits@D@std@@V?$allocator@D@2@@1@@Z ; std::out_of_range::out_of_range
PUBLIC	??1out_of_range@std@@UEAA@XZ			; std::out_of_range::~out_of_range
PUBLIC	??_Gout_of_range@std@@UEAAPEAXI@Z		; std::out_of_range::`scalar deleting destructor'
PUBLIC	??0out_of_range@std@@QEAA@AEBV01@@Z		; std::out_of_range::out_of_range
PUBLIC	?what@logic_error@std@@UEBAPEBDXZ		; std::logic_error::what
PUBLIC	??1logic_error@std@@UEAA@XZ			; std::logic_error::~logic_error
PUBLIC	??_Glogic_error@std@@UEAAPEAXI@Z		; std::logic_error::`scalar deleting destructor'
PUBLIC	??0logic_error@std@@QEAA@AEBV01@@Z		; std::logic_error::logic_error
PUBLIC	?_Color@?$_Tree@V?$_Tmap_traits@KPEAVThreadInfo@@U?$less@K@std@@V?$allocator@U?$pair@$$CBKPEAVThreadInfo@@@std@@@3@$0A@@std@@@std@@KAAEADPEAU_Node@?$_Tree_nod@V?$_Tmap_traits@KPEAVThreadInfo@@U?$less@K@std@@V?$allocator@U?$pair@$$CBKPEAVThreadInfo@@@std@@@3@$0A@@std@@@2@@Z ; std::_Tree<std::_Tmap_traits<unsigned long,ThreadInfo * __ptr64,std::less<unsigned long>,std::allocator<std::pair<unsigned long const ,ThreadInfo * __ptr64> >,0> >::_Color
PUBLIC	?_Set_container@_Iterator_base_aux@std@@QEAAXQEBV_Container_base_aux@2@@Z ; std::_Iterator_base_aux::_Set_container
PUBLIC	??0_Iterator_base_aux@std@@QEAA@XZ		; std::_Iterator_base_aux::_Iterator_base_aux
PUBLIC	??0?$_Iterator_with_base@Ubidirectional_iterator_tag@std@@U?$pair@$$CBKPEAVThreadInfo@@@2@_JPEBU32@AEBU32@V_Iterator_base_aux@2@@std@@QEAA@XZ ; std::_Iterator_with_base<std::bidirectional_iterator_tag,std::pair<unsigned long const ,ThreadInfo * __ptr64>,__int64,std::pair<unsigned long const ,ThreadInfo * __ptr64> const * __ptr64,std::pair<unsigned long const ,ThreadInfo * __ptr64> const & __ptr64,std::_Iterator_base_aux>::_Iterator_with_base<std::bidirectional_iterator_tag,std::pair<unsigned long const ,ThreadInfo * __ptr64>,__int64,std::pair<unsigned long const ,ThreadInfo * __ptr64> const * __ptr64,std::pair<unsigned long const ,ThreadInfo * __ptr64> const & __ptr64,std::_Iterator_base_aux>
PUBLIC	??0?$_Bidit@U?$pair@$$CBKPEAVThreadInfo@@@std@@_JPEBU12@AEBU12@@std@@QEAA@XZ ; std::_Bidit<std::pair<unsigned long const ,ThreadInfo * __ptr64>,__int64,std::pair<unsigned long const ,ThreadInfo * __ptr64> const * __ptr64,std::pair<unsigned long const ,ThreadInfo * __ptr64> const & __ptr64>::_Bidit<std::pair<unsigned long const ,ThreadInfo * __ptr64>,__int64,std::pair<unsigned long const ,ThreadInfo * __ptr64> const * __ptr64,std::pair<unsigned long const ,ThreadInfo * __ptr64> const & __ptr64>
PUBLIC	??0const_iterator@?$_Tree@V?$_Tmap_traits@KPEAVThreadInfo@@U?$less@K@std@@V?$allocator@U?$pair@$$CBKPEAVThreadInfo@@@std@@@3@$0A@@std@@@std@@QEAA@PEAU_Node@?$_Tree_nod@V?$_Tmap_traits@KPEAVThreadInfo@@U?$less@K@std@@V?$allocator@U?$pair@$$CBKPEAVThreadInfo@@@std@@@3@$0A@@std@@@2@PEBV12@@Z ; std::_Tree<std::_Tmap_traits<unsigned long,ThreadInfo * __ptr64,std::less<unsigned long>,std::allocator<std::pair<unsigned long const ,ThreadInfo * __ptr64> >,0> >::const_iterator::const_iterator
PUBLIC	??0iterator@?$_Tree@V?$_Tmap_traits@KPEAVThreadInfo@@U?$less@K@std@@V?$allocator@U?$pair@$$CBKPEAVThreadInfo@@@std@@@3@$0A@@std@@@std@@QEAA@PEAU_Node@?$_Tree_nod@V?$_Tmap_traits@KPEAVThreadInfo@@U?$less@K@std@@V?$allocator@U?$pair@$$CBKPEAVThreadInfo@@@std@@@3@$0A@@std@@@2@PEBV12@@Z ; std::_Tree<std::_Tmap_traits<unsigned long,ThreadInfo * __ptr64,std::less<unsigned long>,std::allocator<std::pair<unsigned long const ,ThreadInfo * __ptr64> >,0> >::iterator::iterator
PUBLIC	?_Make_iter@?$_Tree@V?$_Tmap_traits@KPEAVThreadInfo@@U?$less@K@std@@V?$allocator@U?$pair@$$CBKPEAVThreadInfo@@@std@@@3@$0A@@std@@@std@@QEBA?AViterator@12@Vconst_iterator@12@@Z ; std::_Tree<std::_Tmap_traits<unsigned long,ThreadInfo * __ptr64,std::less<unsigned long>,std::allocator<std::pair<unsigned long const ,ThreadInfo * __ptr64> >,0> >::_Make_iter
PUBLIC	?_Lrotate@?$_Tree@V?$_Tmap_traits@KPEAVThreadInfo@@U?$less@K@std@@V?$allocator@U?$pair@$$CBKPEAVThreadInfo@@@std@@@3@$0A@@std@@@std@@IEAAXPEAU_Node@?$_Tree_nod@V?$_Tmap_traits@KPEAVThreadInfo@@U?$less@K@std@@V?$allocator@U?$pair@$$CBKPEAVThreadInfo@@@std@@@3@$0A@@std@@@2@@Z ; std::_Tree<std::_Tmap_traits<unsigned long,ThreadInfo * __ptr64,std::less<unsigned long>,std::allocator<std::pair<unsigned long const ,ThreadInfo * __ptr64> >,0> >::_Lrotate
PUBLIC	?_Max@?$_Tree@V?$_Tmap_traits@KPEAVThreadInfo@@U?$less@K@std@@V?$allocator@U?$pair@$$CBKPEAVThreadInfo@@@std@@@3@$0A@@std@@@std@@KAPEAU_Node@?$_Tree_nod@V?$_Tmap_traits@KPEAVThreadInfo@@U?$less@K@std@@V?$allocator@U?$pair@$$CBKPEAVThreadInfo@@@std@@@3@$0A@@std@@@2@PEAU342@@Z ; std::_Tree<std::_Tmap_traits<unsigned long,ThreadInfo * __ptr64,std::less<unsigned long>,std::allocator<std::pair<unsigned long const ,ThreadInfo * __ptr64> >,0> >::_Max
PUBLIC	?_Rrotate@?$_Tree@V?$_Tmap_traits@KPEAVThreadInfo@@U?$less@K@std@@V?$allocator@U?$pair@$$CBKPEAVThreadInfo@@@std@@@3@$0A@@std@@@std@@IEAAXPEAU_Node@?$_Tree_nod@V?$_Tmap_traits@KPEAVThreadInfo@@U?$less@K@std@@V?$allocator@U?$pair@$$CBKPEAVThreadInfo@@@std@@@3@$0A@@std@@@2@@Z ; std::_Tree<std::_Tmap_traits<unsigned long,ThreadInfo * __ptr64,std::less<unsigned long>,std::allocator<std::pair<unsigned long const ,ThreadInfo * __ptr64> >,0> >::_Rrotate
PUBLIC	?_Mynode@const_iterator@?$_Tree@V?$_Tmap_traits@KPEAVThreadInfo@@U?$less@K@std@@V?$allocator@U?$pair@$$CBKPEAVThreadInfo@@@std@@@3@$0A@@std@@@std@@QEBAPEAU_Node@?$_Tree_nod@V?$_Tmap_traits@KPEAVThreadInfo@@U?$less@K@std@@V?$allocator@U?$pair@$$CBKPEAVThreadInfo@@@std@@@3@$0A@@std@@@3@XZ ; std::_Tree<std::_Tmap_traits<unsigned long,ThreadInfo * __ptr64,std::less<unsigned long>,std::allocator<std::pair<unsigned long const ,ThreadInfo * __ptr64> >,0> >::const_iterator::_Mynode
PUBLIC	??$swap@D@std@@YAXAEAD0@Z			; std::swap<char>
PUBLIC	?erase@?$_Tree@V?$_Tmap_traits@KPEAVThreadInfo@@U?$less@K@std@@V?$allocator@U?$pair@$$CBKPEAVThreadInfo@@@std@@@3@$0A@@std@@@std@@QEAA?AViterator@12@Vconst_iterator@12@@Z ; std::_Tree<std::_Tmap_traits<unsigned long,ThreadInfo * __ptr64,std::less<unsigned long>,std::allocator<std::pair<unsigned long const ,ThreadInfo * __ptr64> >,0> >::erase
PUBLIC	?deallocate@?$allocator@U_Node@?$_Tree_nod@V?$_Tmap_traits@KPEAVThreadInfo@@U?$less@K@std@@V?$allocator@U?$pair@$$CBKPEAVThreadInfo@@@std@@@3@$0A@@std@@@std@@@std@@QEAAXPEAU_Node@?$_Tree_nod@V?$_Tmap_traits@KPEAVThreadInfo@@U?$less@K@std@@V?$allocator@U?$pair@$$CBKPEAVThreadInfo@@@std@@@3@$0A@@std@@@2@_K@Z ; std::allocator<std::_Tree_nod<std::_Tmap_traits<unsigned long,ThreadInfo * __ptr64,std::less<unsigned long>,std::allocator<std::pair<unsigned long const ,ThreadInfo * __ptr64> >,0> >::_Node>::deallocate
PUBLIC	??$_Destroy@U_Node@?$_Tree_nod@V?$_Tmap_traits@KPEAVThreadInfo@@U?$less@K@std@@V?$allocator@U?$pair@$$CBKPEAVThreadInfo@@@std@@@3@$0A@@std@@@std@@@std@@YAXPEAU_Node@?$_Tree_nod@V?$_Tmap_traits@KPEAVThreadInfo@@U?$less@K@std@@V?$allocator@U?$pair@$$CBKPEAVThreadInfo@@@std@@@3@$0A@@std@@@0@@Z ; std::_Destroy<std::_Tree_nod<std::_Tmap_traits<unsigned long,ThreadInfo * __ptr64,std::less<unsigned long>,std::allocator<std::pair<unsigned long const ,ThreadInfo * __ptr64> >,0> >::_Node>
PUBLIC	?destroy@?$allocator@U_Node@?$_Tree_nod@V?$_Tmap_traits@KPEAVThreadInfo@@U?$less@K@std@@V?$allocator@U?$pair@$$CBKPEAVThreadInfo@@@std@@@3@$0A@@std@@@std@@@std@@QEAAXPEAU_Node@?$_Tree_nod@V?$_Tmap_traits@KPEAVThreadInfo@@U?$less@K@std@@V?$allocator@U?$pair@$$CBKPEAVThreadInfo@@@std@@@3@$0A@@std@@@2@@Z ; std::allocator<std::_Tree_nod<std::_Tmap_traits<unsigned long,ThreadInfo * __ptr64,std::less<unsigned long>,std::allocator<std::pair<unsigned long const ,ThreadInfo * __ptr64> >,0> >::_Node>::destroy
PUBLIC	?_Erase@?$_Tree@V?$_Tmap_traits@KPEAVThreadInfo@@U?$less@K@std@@V?$allocator@U?$pair@$$CBKPEAVThreadInfo@@@std@@@3@$0A@@std@@@std@@IEAAXPEAU_Node@?$_Tree_nod@V?$_Tmap_traits@KPEAVThreadInfo@@U?$less@K@std@@V?$allocator@U?$pair@$$CBKPEAVThreadInfo@@@std@@@3@$0A@@std@@@2@@Z ; std::_Tree<std::_Tmap_traits<unsigned long,ThreadInfo * __ptr64,std::less<unsigned long>,std::allocator<std::pair<unsigned long const ,ThreadInfo * __ptr64> >,0> >::_Erase
PUBLIC	?_Lmost@?$_Tree@V?$_Tmap_traits@KPEAVThreadInfo@@U?$less@K@std@@V?$allocator@U?$pair@$$CBKPEAVThreadInfo@@@std@@@3@$0A@@std@@@std@@IEBAAEAPEAU_Node@?$_Tree_nod@V?$_Tmap_traits@KPEAVThreadInfo@@U?$less@K@std@@V?$allocator@U?$pair@$$CBKPEAVThreadInfo@@@std@@@3@$0A@@std@@@2@XZ ; std::_Tree<std::_Tmap_traits<unsigned long,ThreadInfo * __ptr64,std::less<unsigned long>,std::allocator<std::pair<unsigned long const ,ThreadInfo * __ptr64> >,0> >::_Lmost
PUBLIC	?_Rmost@?$_Tree@V?$_Tmap_traits@KPEAVThreadInfo@@U?$less@K@std@@V?$allocator@U?$pair@$$CBKPEAVThreadInfo@@@std@@@3@$0A@@std@@@std@@IEBAAEAPEAU_Node@?$_Tree_nod@V?$_Tmap_traits@KPEAVThreadInfo@@U?$less@K@std@@V?$allocator@U?$pair@$$CBKPEAVThreadInfo@@@std@@@3@$0A@@std@@@2@XZ ; std::_Tree<std::_Tmap_traits<unsigned long,ThreadInfo * __ptr64,std::less<unsigned long>,std::allocator<std::pair<unsigned long const ,ThreadInfo * __ptr64> >,0> >::_Rmost
PUBLIC	?_Root@?$_Tree@V?$_Tmap_traits@KPEAVThreadInfo@@U?$less@K@std@@V?$allocator@U?$pair@$$CBKPEAVThreadInfo@@@std@@@3@$0A@@std@@@std@@IEBAAEAPEAU_Node@?$_Tree_nod@V?$_Tmap_traits@KPEAVThreadInfo@@U?$less@K@std@@V?$allocator@U?$pair@$$CBKPEAVThreadInfo@@@std@@@3@$0A@@std@@@2@XZ ; std::_Tree<std::_Tmap_traits<unsigned long,ThreadInfo * __ptr64,std::less<unsigned long>,std::allocator<std::pair<unsigned long const ,ThreadInfo * __ptr64> >,0> >::_Root
PUBLIC	?clear@?$_Tree@V?$_Tmap_traits@KPEAVThreadInfo@@U?$less@K@std@@V?$allocator@U?$pair@$$CBKPEAVThreadInfo@@@std@@@3@$0A@@std@@@std@@QEAAXXZ ; std::_Tree<std::_Tmap_traits<unsigned long,ThreadInfo * __ptr64,std::less<unsigned long>,std::allocator<std::pair<unsigned long const ,ThreadInfo * __ptr64> >,0> >::clear
PUBLIC	?_Parent@?$_Tree@V?$_Tmap_traits@KPEAVThreadInfo@@U?$less@K@std@@V?$allocator@U?$pair@$$CBKPEAVThreadInfo@@@std@@@3@$0A@@std@@@std@@KAAEAPEAU_Node@?$_Tree_nod@V?$_Tmap_traits@KPEAVThreadInfo@@U?$less@K@std@@V?$allocator@U?$pair@$$CBKPEAVThreadInfo@@@std@@@3@$0A@@std@@@2@PEAU342@@Z ; std::_Tree<std::_Tmap_traits<unsigned long,ThreadInfo * __ptr64,std::less<unsigned long>,std::allocator<std::pair<unsigned long const ,ThreadInfo * __ptr64> >,0> >::_Parent
PUBLIC	?_Right@?$_Tree@V?$_Tmap_traits@KPEAVThreadInfo@@U?$less@K@std@@V?$allocator@U?$pair@$$CBKPEAVThreadInfo@@@std@@@3@$0A@@std@@@std@@KAAEAPEAU_Node@?$_Tree_nod@V?$_Tmap_traits@KPEAVThreadInfo@@U?$less@K@std@@V?$allocator@U?$pair@$$CBKPEAVThreadInfo@@@std@@@3@$0A@@std@@@2@PEAU342@@Z ; std::_Tree<std::_Tmap_traits<unsigned long,ThreadInfo * __ptr64,std::less<unsigned long>,std::allocator<std::pair<unsigned long const ,ThreadInfo * __ptr64> >,0> >::_Right
PUBLIC	?_Isnil@?$_Tree@V?$_Tmap_traits@KPEAVThreadInfo@@U?$less@K@std@@V?$allocator@U?$pair@$$CBKPEAVThreadInfo@@@std@@@3@$0A@@std@@@std@@KAAEADPEAU_Node@?$_Tree_nod@V?$_Tmap_traits@KPEAVThreadInfo@@U?$less@K@std@@V?$allocator@U?$pair@$$CBKPEAVThreadInfo@@@std@@@3@$0A@@std@@@2@@Z ; std::_Tree<std::_Tmap_traits<unsigned long,ThreadInfo * __ptr64,std::less<unsigned long>,std::allocator<std::pair<unsigned long const ,ThreadInfo * __ptr64> >,0> >::_Isnil
PUBLIC	?_Left@?$_Tree@V?$_Tmap_traits@KPEAVThreadInfo@@U?$less@K@std@@V?$allocator@U?$pair@$$CBKPEAVThreadInfo@@@std@@@3@$0A@@std@@@std@@KAAEAPEAU_Node@?$_Tree_nod@V?$_Tmap_traits@KPEAVThreadInfo@@U?$less@K@std@@V?$allocator@U?$pair@$$CBKPEAVThreadInfo@@@std@@@3@$0A@@std@@@2@PEAU342@@Z ; std::_Tree<std::_Tmap_traits<unsigned long,ThreadInfo * __ptr64,std::less<unsigned long>,std::allocator<std::pair<unsigned long const ,ThreadInfo * __ptr64> >,0> >::_Left
PUBLIC	?_Min@?$_Tree@V?$_Tmap_traits@KPEAVThreadInfo@@U?$less@K@std@@V?$allocator@U?$pair@$$CBKPEAVThreadInfo@@@std@@@3@$0A@@std@@@std@@KAPEAU_Node@?$_Tree_nod@V?$_Tmap_traits@KPEAVThreadInfo@@U?$less@K@std@@V?$allocator@U?$pair@$$CBKPEAVThreadInfo@@@std@@@3@$0A@@std@@@2@PEAU342@@Z ; std::_Tree<std::_Tmap_traits<unsigned long,ThreadInfo * __ptr64,std::less<unsigned long>,std::allocator<std::pair<unsigned long const ,ThreadInfo * __ptr64> >,0> >::_Min
PUBLIC	?_Inc@const_iterator@?$_Tree@V?$_Tmap_traits@KPEAVThreadInfo@@U?$less@K@std@@V?$allocator@U?$pair@$$CBKPEAVThreadInfo@@@std@@@3@$0A@@std@@@std@@QEAAXXZ ; std::_Tree<std::_Tmap_traits<unsigned long,ThreadInfo * __ptr64,std::less<unsigned long>,std::allocator<std::pair<unsigned long const ,ThreadInfo * __ptr64> >,0> >::const_iterator::_Inc
PUBLIC	??Econst_iterator@?$_Tree@V?$_Tmap_traits@KPEAVThreadInfo@@U?$less@K@std@@V?$allocator@U?$pair@$$CBKPEAVThreadInfo@@@std@@@3@$0A@@std@@@std@@QEAAAEAV012@XZ ; std::_Tree<std::_Tmap_traits<unsigned long,ThreadInfo * __ptr64,std::less<unsigned long>,std::allocator<std::pair<unsigned long const ,ThreadInfo * __ptr64> >,0> >::const_iterator::operator++
PUBLIC	??Econst_iterator@?$_Tree@V?$_Tmap_traits@KPEAVThreadInfo@@U?$less@K@std@@V?$allocator@U?$pair@$$CBKPEAVThreadInfo@@@std@@@3@$0A@@std@@@std@@QEAA?AV012@H@Z ; std::_Tree<std::_Tmap_traits<unsigned long,ThreadInfo * __ptr64,std::less<unsigned long>,std::allocator<std::pair<unsigned long const ,ThreadInfo * __ptr64> >,0> >::const_iterator::operator++
PUBLIC	?_Same_container@_Iterator_base_aux@std@@QEBA_NAEBV12@@Z ; std::_Iterator_base_aux::_Same_container
PUBLIC	?_Has_container@_Iterator_base_aux@std@@QEBA_NXZ ; std::_Iterator_base_aux::_Has_container
PUBLIC	??8const_iterator@?$_Tree@V?$_Tmap_traits@KPEAVThreadInfo@@U?$less@K@std@@V?$allocator@U?$pair@$$CBKPEAVThreadInfo@@@std@@@3@$0A@@std@@@std@@QEBA_NAEBV012@@Z ; std::_Tree<std::_Tmap_traits<unsigned long,ThreadInfo * __ptr64,std::less<unsigned long>,std::allocator<std::pair<unsigned long const ,ThreadInfo * __ptr64> >,0> >::const_iterator::operator==
PUBLIC	??9const_iterator@?$_Tree@V?$_Tmap_traits@KPEAVThreadInfo@@U?$less@K@std@@V?$allocator@U?$pair@$$CBKPEAVThreadInfo@@@std@@@3@$0A@@std@@@std@@QEBA_NAEBV012@@Z ; std::_Tree<std::_Tmap_traits<unsigned long,ThreadInfo * __ptr64,std::less<unsigned long>,std::allocator<std::pair<unsigned long const ,ThreadInfo * __ptr64> >,0> >::const_iterator::operator!=
PUBLIC	?erase@?$_Tree@V?$_Tmap_traits@KPEAVThreadInfo@@U?$less@K@std@@V?$allocator@U?$pair@$$CBKPEAVThreadInfo@@@std@@@3@$0A@@std@@@std@@QEAA?AViterator@12@Vconst_iterator@12@0@Z ; std::_Tree<std::_Tmap_traits<unsigned long,ThreadInfo * __ptr64,std::less<unsigned long>,std::allocator<std::pair<unsigned long const ,ThreadInfo * __ptr64> >,0> >::erase
PUBLIC	?_Tidy@?$_Tree@V?$_Tmap_traits@KPEAVThreadInfo@@U?$less@K@std@@V?$allocator@U?$pair@$$CBKPEAVThreadInfo@@@std@@@3@$0A@@std@@@std@@IEAAXXZ ; std::_Tree<std::_Tmap_traits<unsigned long,ThreadInfo * __ptr64,std::less<unsigned long>,std::allocator<std::pair<unsigned long const ,ThreadInfo * __ptr64> >,0> >::_Tidy
PUBLIC	??1?$_Tree@V?$_Tmap_traits@KPEAVThreadInfo@@U?$less@K@std@@V?$allocator@U?$pair@$$CBKPEAVThreadInfo@@@std@@@3@$0A@@std@@@std@@QEAA@XZ ; std::_Tree<std::_Tmap_traits<unsigned long,ThreadInfo * __ptr64,std::less<unsigned long>,std::allocator<std::pair<unsigned long const ,ThreadInfo * __ptr64> >,0> >::~_Tree<std::_Tmap_traits<unsigned long,ThreadInfo * __ptr64,std::less<unsigned long>,std::allocator<std::pair<unsigned long const ,ThreadInfo * __ptr64> >,0> >
PUBLIC	??1?$map@KPEAVThreadInfo@@U?$less@K@std@@V?$allocator@U?$pair@$$CBKPEAVThreadInfo@@@std@@@3@@std@@QEAA@XZ ; std::map<unsigned long,ThreadInfo * __ptr64,std::less<unsigned long>,std::allocator<std::pair<unsigned long const ,ThreadInfo * __ptr64> > >::~map<unsigned long,ThreadInfo * __ptr64,std::less<unsigned long>,std::allocator<std::pair<unsigned long const ,ThreadInfo * __ptr64> > >
PUBLIC	??1CProfiler@@QEAA@XZ				; CProfiler::~CProfiler
PUBLIC	?sharedMemoryHeader@@3PEAUSharedMemoryHeader@@EA ; sharedMemoryHeader
PUBLIC	??_R0?AVexception@std@@@8			; std::exception `RTTI Type Descriptor'
PUBLIC	_CT??_R0?AVexception@std@@@8??0exception@std@@QEAA@AEBV01@@Z24
PUBLIC	??_R0?AVout_of_range@std@@@8			; std::out_of_range `RTTI Type Descriptor'
PUBLIC	??_R0?AVlogic_error@std@@@8			; std::logic_error `RTTI Type Descriptor'
PUBLIC	_CT??_R0?AVout_of_range@std@@@8??0out_of_range@std@@QEAA@AEBV01@@Z64
PUBLIC	_CT??_R0?AVlogic_error@std@@@8??0logic_error@std@@QEAA@AEBV01@@Z64
PUBLIC	_CTA3?AVout_of_range@std@@
PUBLIC	_TI3?AVout_of_range@std@@
PUBLIC	??_C@_0BM@PAPJHAGI@invalid?5map?1set?$DMT?$DO?5iterator?$AA@ ; `string'
PUBLIC	??_7logic_error@std@@6B@			; std::logic_error::`vftable'
PUBLIC	??_7out_of_range@std@@6B@			; std::out_of_range::`vftable'
EXTRN	??0exception@std@@QEAA@AEBV01@@Z:PROC		; std::exception::exception
EXTRN	__imp_GetCurrentThreadId:PROC
EXTRN	atexit:PROC
EXTRN	__imp_DeleteCriticalSection:PROC
EXTRN	__imp_??0exception@std@@QEAA@XZ:PROC
EXTRN	??_Eout_of_range@std@@UEAAPEAXI@Z:PROC		; std::out_of_range::`vector deleting destructor'
EXTRN	__imp_??0exception@std@@QEAA@AEBV01@@Z:PROC
EXTRN	__imp_??0?$basic_string@DU?$char_traits@D@std@@V?$allocator@D@2@@std@@QEAA@AEBV01@@Z:PROC
EXTRN	__imp_??1exception@std@@UEAA@XZ:PROC
EXTRN	??_Elogic_error@std@@UEAAPEAXI@Z:PROC		; std::logic_error::`vector deleting destructor'
EXTRN	__imp__invalid_parameter_noinfo:PROC
?sharedMemoryHeader@@3PEAUSharedMemoryHeader@@EA DQ 01H DUP (?) ; sharedMemoryHeader
;	COMDAT ??_7out_of_range@std@@6B@
CONST	SEGMENT
??_7out_of_range@std@@6B@ DQ FLAT:??_Eout_of_range@std@@UEAAPEAXI@Z ; std::out_of_range::`vftable'
	DQ	FLAT:?what@logic_error@std@@UEBAPEBDXZ
CONST	ENDS
;	COMDAT ??_7logic_error@std@@6B@
CONST	SEGMENT
??_7logic_error@std@@6B@ DQ FLAT:??_Elogic_error@std@@UEAAPEAXI@Z ; std::logic_error::`vftable'
	DQ	FLAT:?what@logic_error@std@@UEBAPEBDXZ
CONST	ENDS
;	COMDAT ??_C@_0BM@PAPJHAGI@invalid?5map?1set?$DMT?$DO?5iterator?$AA@
CONST	SEGMENT
??_C@_0BM@PAPJHAGI@invalid?5map?1set?$DMT?$DO?5iterator?$AA@ DB 'invalid '
	DB	'map/set<T> iterator', 00H			; `string'
CONST	ENDS
;	COMDAT _TI3?AVout_of_range@std@@
xdata$x	SEGMENT
_TI3?AVout_of_range@std@@ DD 00H
	DD	imagerel ??1out_of_range@std@@UEAA@XZ
	DD	00H
	DD	imagerel _CTA3?AVout_of_range@std@@
xdata$x	ENDS
;	COMDAT _CTA3?AVout_of_range@std@@
xdata$x	SEGMENT
_CTA3?AVout_of_range@std@@ DD 03H
	DD	imagerel _CT??_R0?AVout_of_range@std@@@8??0out_of_range@std@@QEAA@AEBV01@@Z64
	DD	imagerel _CT??_R0?AVlogic_error@std@@@8??0logic_error@std@@QEAA@AEBV01@@Z64
	DD	imagerel _CT??_R0?AVexception@std@@@8??0exception@std@@QEAA@AEBV01@@Z24
xdata$x	ENDS
;	COMDAT _CT??_R0?AVlogic_error@std@@@8??0logic_error@std@@QEAA@AEBV01@@Z64
xdata$x	SEGMENT
_CT??_R0?AVlogic_error@std@@@8??0logic_error@std@@QEAA@AEBV01@@Z64 DD 00H
	DD	imagerel ??_R0?AVlogic_error@std@@@8
	DD	00H
	DD	0ffffffffH
	ORG $+4
	DD	040H
	DD	imagerel ??0logic_error@std@@QEAA@AEBV01@@Z
xdata$x	ENDS
;	COMDAT _CT??_R0?AVout_of_range@std@@@8??0out_of_range@std@@QEAA@AEBV01@@Z64
xdata$x	SEGMENT
_CT??_R0?AVout_of_range@std@@@8??0out_of_range@std@@QEAA@AEBV01@@Z64 DD 00H
	DD	imagerel ??_R0?AVout_of_range@std@@@8
	DD	00H
	DD	0ffffffffH
	ORG $+4
	DD	040H
	DD	imagerel ??0out_of_range@std@@QEAA@AEBV01@@Z
xdata$x	ENDS
;	COMDAT ??_R0?AVlogic_error@std@@@8
_DATA	SEGMENT
??_R0?AVlogic_error@std@@@8 DQ FLAT:??_7type_info@@6B@	; std::logic_error `RTTI Type Descriptor'
	DQ	0000000000000000H
	DB	'.?AVlogic_error@std@@', 00H
_DATA	ENDS
;	COMDAT ??_R0?AVout_of_range@std@@@8
_DATA	SEGMENT
??_R0?AVout_of_range@std@@@8 DQ FLAT:??_7type_info@@6B@	; std::out_of_range `RTTI Type Descriptor'
	DQ	0000000000000000H
	DB	'.?AVout_of_range@std@@', 00H
_DATA	ENDS
;	COMDAT _CT??_R0?AVexception@std@@@8??0exception@std@@QEAA@AEBV01@@Z24
xdata$x	SEGMENT
_CT??_R0?AVexception@std@@@8??0exception@std@@QEAA@AEBV01@@Z24 DD 00H
	DD	imagerel ??_R0?AVexception@std@@@8
	DD	00H
	DD	0ffffffffH
	ORG $+4
	DD	018H
	DD	imagerel __imp_??0exception@std@@QEAA@AEBV01@@Z
xdata$x	ENDS
;	COMDAT ??_R0?AVexception@std@@@8
_DATA	SEGMENT
??_R0?AVexception@std@@@8 DQ FLAT:??_7type_info@@6B@	; std::exception `RTTI Type Descriptor'
	DQ	0000000000000000H
	DB	'.?AVexception@std@@', 00H
_bad_alloc_Message DQ FLAT:??_C@_0P@GHFPNOJB@bad?5allocation?$AA@
; Function compile flags: /Ogtpy
; File c:\program files\microsoft visual studio 9.0\vc\include\xmemory
;	COMDAT ??$_Destroy@U_Node@?$_Tree_nod@V?$_Tmap_traits@KPEAVThreadInfo@@U?$less@K@std@@V?$allocator@U?$pair@$$CBKPEAVThreadInfo@@@std@@@3@$0A@@std@@@std@@@std@@YAXPEAU_Node@?$_Tree_nod@V?$_Tmap_traits@KPEAVThreadInfo@@U?$less@K@std@@V?$allocator@U?$pair@$$CBKPEAVThreadInfo@@@std@@@3@$0A@@std@@@0@@Z
_TEXT	SEGMENT
_Ptr$ = 8
??$_Destroy@U_Node@?$_Tree_nod@V?$_Tmap_traits@KPEAVThreadInfo@@U?$less@K@std@@V?$allocator@U?$pair@$$CBKPEAVThreadInfo@@@std@@@3@$0A@@std@@@std@@@std@@YAXPEAU_Node@?$_Tree_nod@V?$_Tmap_traits@KPEAVThreadInfo@@U?$less@K@std@@V?$allocator@U?$pair@$$CBKPEAVThreadInfo@@@std@@@3@$0A@@std@@@0@@Z PROC ; std::_Destroy<std::_Tree_nod<std::_Tmap_traits<unsigned long,ThreadInfo * __ptr64,std::less<unsigned long>,std::allocator<std::pair<unsigned long const ,ThreadInfo * __ptr64> >,0> >::_Node>, COMDAT

; 59   : 	_DESTRUCTOR(_Ty, _Ptr);
; 60   : 	}

	ret	0
??$_Destroy@U_Node@?$_Tree_nod@V?$_Tmap_traits@KPEAVThreadInfo@@U?$less@K@std@@V?$allocator@U?$pair@$$CBKPEAVThreadInfo@@@std@@@3@$0A@@std@@@std@@@std@@YAXPEAU_Node@?$_Tree_nod@V?$_Tmap_traits@KPEAVThreadInfo@@U?$less@K@std@@V?$allocator@U?$pair@$$CBKPEAVThreadInfo@@@std@@@3@$0A@@std@@@0@@Z ENDP ; std::_Destroy<std::_Tree_nod<std::_Tmap_traits<unsigned long,ThreadInfo * __ptr64,std::less<unsigned long>,std::allocator<std::pair<unsigned long const ,ThreadInfo * __ptr64> >,0> >::_Node>
; Function compile flags: /Ogtpy
_TEXT	ENDS
;	COMDAT ??$_Destroy@U_Node@?$_Tree_nod@V?$_Tmap_traits@_KPEAVThreadInfo@@U?$less@_K@std@@V?$allocator@U?$pair@$$CB_KPEAVThreadInfo@@@std@@@3@$0A@@std@@@std@@@std@@YAXPEAU_Node@?$_Tree_nod@V?$_Tmap_traits@_KPEAVThreadInfo@@U?$less@_K@std@@V?$allocator@U?$pair@$$CB_KPEAVThreadInfo@@@std@@@3@$0A@@std@@@0@@Z
_TEXT	SEGMENT
_Ptr$ = 8
??$_Destroy@U_Node@?$_Tree_nod@V?$_Tmap_traits@_KPEAVThreadInfo@@U?$less@_K@std@@V?$allocator@U?$pair@$$CB_KPEAVThreadInfo@@@std@@@3@$0A@@std@@@std@@@std@@YAXPEAU_Node@?$_Tree_nod@V?$_Tmap_traits@_KPEAVThreadInfo@@U?$less@_K@std@@V?$allocator@U?$pair@$$CB_KPEAVThreadInfo@@@std@@@3@$0A@@std@@@0@@Z PROC ; std::_Destroy<std::_Tree_nod<std::_Tmap_traits<unsigned __int64,ThreadInfo * __ptr64,std::less<unsigned __int64>,std::allocator<std::pair<unsigned __int64 const ,ThreadInfo * __ptr64> >,0> >::_Node>, COMDAT

; 59   : 	_DESTRUCTOR(_Ty, _Ptr);
; 60   : 	}

	ret	0
??$_Destroy@U_Node@?$_Tree_nod@V?$_Tmap_traits@_KPEAVThreadInfo@@U?$less@_K@std@@V?$allocator@U?$pair@$$CB_KPEAVThreadInfo@@@std@@@3@$0A@@std@@@std@@@std@@YAXPEAU_Node@?$_Tree_nod@V?$_Tmap_traits@_KPEAVThreadInfo@@U?$less@_K@std@@V?$allocator@U?$pair@$$CB_KPEAVThreadInfo@@@std@@@3@$0A@@std@@@0@@Z ENDP ; std::_Destroy<std::_Tree_nod<std::_Tmap_traits<unsigned __int64,ThreadInfo * __ptr64,std::less<unsigned __int64>,std::allocator<std::pair<unsigned __int64 const ,ThreadInfo * __ptr64> >,0> >::_Node>
; Function compile flags: /Ogtpy
_TEXT	ENDS
;	COMDAT ??$_Destroy@U_Node@?$_Tree_nod@V?$_Tmap_traits@_KHU?$less@_K@std@@V?$allocator@U?$pair@$$CB_KH@std@@@2@$0A@@std@@@std@@@std@@YAXPEAU_Node@?$_Tree_nod@V?$_Tmap_traits@_KHU?$less@_K@std@@V?$allocator@U?$pair@$$CB_KH@std@@@2@$0A@@std@@@0@@Z
_TEXT	SEGMENT
_Ptr$ = 8
??$_Destroy@U_Node@?$_Tree_nod@V?$_Tmap_traits@_KHU?$less@_K@std@@V?$allocator@U?$pair@$$CB_KH@std@@@2@$0A@@std@@@std@@@std@@YAXPEAU_Node@?$_Tree_nod@V?$_Tmap_traits@_KHU?$less@_K@std@@V?$allocator@U?$pair@$$CB_KH@std@@@2@$0A@@std@@@0@@Z PROC ; std::_Destroy<std::_Tree_nod<std::_Tmap_traits<unsigned __int64,int,std::less<unsigned __int64>,std::allocator<std::pair<unsigned __int64 const ,int> >,0> >::_Node>, COMDAT

; 59   : 	_DESTRUCTOR(_Ty, _Ptr);
; 60   : 	}

	ret	0
??$_Destroy@U_Node@?$_Tree_nod@V?$_Tmap_traits@_KHU?$less@_K@std@@V?$allocator@U?$pair@$$CB_KH@std@@@2@$0A@@std@@@std@@@std@@YAXPEAU_Node@?$_Tree_nod@V?$_Tmap_traits@_KHU?$less@_K@std@@V?$allocator@U?$pair@$$CB_KH@std@@@2@$0A@@std@@@0@@Z ENDP ; std::_Destroy<std::_Tree_nod<std::_Tmap_traits<unsigned __int64,int,std::less<unsigned __int64>,std::allocator<std::pair<unsigned __int64 const ,int> >,0> >::_Node>
; Function compile flags: /Ogtpy
; File c:\program files\microsoft visual studio 9.0\vc\include\utility
_TEXT	ENDS
;	COMDAT ??$swap@D@std@@YAXAEAD0@Z
_TEXT	SEGMENT
_Left$ = 8
_Right$ = 16
??$swap@D@std@@YAXAEAD0@Z PROC				; std::swap<char>, COMDAT

; 18   : 	if (&_Left != &_Right)

	cmp	rcx, rdx
	je	SHORT $LN1@swap

; 19   : 		{	// different, worth swapping
; 20   : 		_Ty _Tmp = _Left;
; 21   : 
; 22   : 		_Left = _Right;

	movzx	eax, BYTE PTR [rdx]
	movzx	r8d, BYTE PTR [rcx]
	mov	BYTE PTR [rcx], al

; 23   : 		_Right = _Tmp;

	mov	BYTE PTR [rdx], r8b
$LN1@swap:

; 24   : 		}
; 25   : 	}

	fatret	0
??$swap@D@std@@YAXAEAD0@Z ENDP				; std::swap<char>
; Function compile flags: /Ogtpy
; File c:\program files\microsoft visual studio 9.0\vc\include\xmemory
_TEXT	ENDS
;	COMDAT ??$_Destroy@PEAU_Node@?$_Tree_nod@V?$_Tmap_traits@KPEAVThreadInfo@@U?$less@K@std@@V?$allocator@U?$pair@$$CBKPEAVThreadInfo@@@std@@@3@$0A@@std@@@std@@@std@@YAXPEAPEAU_Node@?$_Tree_nod@V?$_Tmap_traits@KPEAVThreadInfo@@U?$less@K@std@@V?$allocator@U?$pair@$$CBKPEAVThreadInfo@@@std@@@3@$0A@@std@@@0@@Z
_TEXT	SEGMENT
_Ptr$ = 8
??$_Destroy@PEAU_Node@?$_Tree_nod@V?$_Tmap_traits@KPEAVThreadInfo@@U?$less@K@std@@V?$allocator@U?$pair@$$CBKPEAVThreadInfo@@@std@@@3@$0A@@std@@@std@@@std@@YAXPEAPEAU_Node@?$_Tree_nod@V?$_Tmap_traits@KPEAVThreadInfo@@U?$less@K@std@@V?$allocator@U?$pair@$$CBKPEAVThreadInfo@@@std@@@3@$0A@@std@@@0@@Z PROC ; std::_Destroy<std::_Tree_nod<std::_Tmap_traits<unsigned long,ThreadInfo * __ptr64,std::less<unsigned long>,std::allocator<std::pair<unsigned long const ,ThreadInfo * __ptr64> >,0> >::_Node * __ptr64>, COMDAT

; 59   : 	_DESTRUCTOR(_Ty, _Ptr);
; 60   : 	}

	ret	0
??$_Destroy@PEAU_Node@?$_Tree_nod@V?$_Tmap_traits@KPEAVThreadInfo@@U?$less@K@std@@V?$allocator@U?$pair@$$CBKPEAVThreadInfo@@@std@@@3@$0A@@std@@@std@@@std@@YAXPEAPEAU_Node@?$_Tree_nod@V?$_Tmap_traits@KPEAVThreadInfo@@U?$less@K@std@@V?$allocator@U?$pair@$$CBKPEAVThreadInfo@@@std@@@3@$0A@@std@@@0@@Z ENDP ; std::_Destroy<std::_Tree_nod<std::_Tmap_traits<unsigned long,ThreadInfo * __ptr64,std::less<unsigned long>,std::allocator<std::pair<unsigned long const ,ThreadInfo * __ptr64> >,0> >::_Node * __ptr64>
; Function compile flags: /Ogtpy
_TEXT	ENDS
;	COMDAT ??$_Destroy@PEAU_Node@?$_Tree_nod@V?$_Tmap_traits@_KPEAVThreadInfo@@U?$less@_K@std@@V?$allocator@U?$pair@$$CB_KPEAVThreadInfo@@@std@@@3@$0A@@std@@@std@@@std@@YAXPEAPEAU_Node@?$_Tree_nod@V?$_Tmap_traits@_KPEAVThreadInfo@@U?$less@_K@std@@V?$allocator@U?$pair@$$CB_KPEAVThreadInfo@@@std@@@3@$0A@@std@@@0@@Z
_TEXT	SEGMENT
_Ptr$ = 8
??$_Destroy@PEAU_Node@?$_Tree_nod@V?$_Tmap_traits@_KPEAVThreadInfo@@U?$less@_K@std@@V?$allocator@U?$pair@$$CB_KPEAVThreadInfo@@@std@@@3@$0A@@std@@@std@@@std@@YAXPEAPEAU_Node@?$_Tree_nod@V?$_Tmap_traits@_KPEAVThreadInfo@@U?$less@_K@std@@V?$allocator@U?$pair@$$CB_KPEAVThreadInfo@@@std@@@3@$0A@@std@@@0@@Z PROC ; std::_Destroy<std::_Tree_nod<std::_Tmap_traits<unsigned __int64,ThreadInfo * __ptr64,std::less<unsigned __int64>,std::allocator<std::pair<unsigned __int64 const ,ThreadInfo * __ptr64> >,0> >::_Node * __ptr64>, COMDAT

; 59   : 	_DESTRUCTOR(_Ty, _Ptr);
; 60   : 	}

	ret	0
??$_Destroy@PEAU_Node@?$_Tree_nod@V?$_Tmap_traits@_KPEAVThreadInfo@@U?$less@_K@std@@V?$allocator@U?$pair@$$CB_KPEAVThreadInfo@@@std@@@3@$0A@@std@@@std@@@std@@YAXPEAPEAU_Node@?$_Tree_nod@V?$_Tmap_traits@_KPEAVThreadInfo@@U?$less@_K@std@@V?$allocator@U?$pair@$$CB_KPEAVThreadInfo@@@std@@@3@$0A@@std@@@0@@Z ENDP ; std::_Destroy<std::_Tree_nod<std::_Tmap_traits<unsigned __int64,ThreadInfo * __ptr64,std::less<unsigned __int64>,std::allocator<std::pair<unsigned __int64 const ,ThreadInfo * __ptr64> >,0> >::_Node * __ptr64>
; Function compile flags: /Ogtpy
_TEXT	ENDS
;	COMDAT ??$_Destroy@PEAU_Node@?$_Tree_nod@V?$_Tmap_traits@_KHU?$less@_K@std@@V?$allocator@U?$pair@$$CB_KH@std@@@2@$0A@@std@@@std@@@std@@YAXPEAPEAU_Node@?$_Tree_nod@V?$_Tmap_traits@_KHU?$less@_K@std@@V?$allocator@U?$pair@$$CB_KH@std@@@2@$0A@@std@@@0@@Z
_TEXT	SEGMENT
_Ptr$ = 8
??$_Destroy@PEAU_Node@?$_Tree_nod@V?$_Tmap_traits@_KHU?$less@_K@std@@V?$allocator@U?$pair@$$CB_KH@std@@@2@$0A@@std@@@std@@@std@@YAXPEAPEAU_Node@?$_Tree_nod@V?$_Tmap_traits@_KHU?$less@_K@std@@V?$allocator@U?$pair@$$CB_KH@std@@@2@$0A@@std@@@0@@Z PROC ; std::_Destroy<std::_Tree_nod<std::_Tmap_traits<unsigned __int64,int,std::less<unsigned __int64>,std::allocator<std::pair<unsigned __int64 const ,int> >,0> >::_Node * __ptr64>, COMDAT

; 59   : 	_DESTRUCTOR(_Ty, _Ptr);
; 60   : 	}

	ret	0
??$_Destroy@PEAU_Node@?$_Tree_nod@V?$_Tmap_traits@_KHU?$less@_K@std@@V?$allocator@U?$pair@$$CB_KH@std@@@2@$0A@@std@@@std@@@std@@YAXPEAPEAU_Node@?$_Tree_nod@V?$_Tmap_traits@_KHU?$less@_K@std@@V?$allocator@U?$pair@$$CB_KH@std@@@2@$0A@@std@@@0@@Z ENDP ; std::_Destroy<std::_Tree_nod<std::_Tmap_traits<unsigned __int64,int,std::less<unsigned __int64>,std::allocator<std::pair<unsigned __int64 const ,int> >,0> >::_Node * __ptr64>
; Function compile flags: /Ogtpy
; File c:\program files\microsoft visual studio 9.0\vc\include\xtree
_TEXT	ENDS
;	COMDAT ?_Mynode@const_iterator@?$_Tree@V?$_Tmap_traits@KPEAVThreadInfo@@U?$less@K@std@@V?$allocator@U?$pair@$$CBKPEAVThreadInfo@@@std@@@3@$0A@@std@@@std@@QEBAPEAU_Node@?$_Tree_nod@V?$_Tmap_traits@KPEAVThreadInfo@@U?$less@K@std@@V?$allocator@U?$pair@$$CBKPEAVThreadInfo@@@std@@@3@$0A@@std@@@3@XZ
_TEXT	SEGMENT
this$ = 8
?_Mynode@const_iterator@?$_Tree@V?$_Tmap_traits@KPEAVThreadInfo@@U?$less@K@std@@V?$allocator@U?$pair@$$CBKPEAVThreadInfo@@@std@@@3@$0A@@std@@@std@@QEBAPEAU_Node@?$_Tree_nod@V?$_Tmap_traits@KPEAVThreadInfo@@U?$less@K@std@@V?$allocator@U?$pair@$$CBKPEAVThreadInfo@@@std@@@3@$0A@@std@@@3@XZ PROC ; std::_Tree<std::_Tmap_traits<unsigned long,ThreadInfo * __ptr64,std::less<unsigned long>,std::allocator<std::pair<unsigned long const ,ThreadInfo * __ptr64> >,0> >::const_iterator::_Mynode, COMDAT

; 410  : 			return (_Ptr);

	mov	rax, QWORD PTR [rcx+8]

; 411  : 			}

	ret	0
?_Mynode@const_iterator@?$_Tree@V?$_Tmap_traits@KPEAVThreadInfo@@U?$less@K@std@@V?$allocator@U?$pair@$$CBKPEAVThreadInfo@@@std@@@3@$0A@@std@@@std@@QEBAPEAU_Node@?$_Tree_nod@V?$_Tmap_traits@KPEAVThreadInfo@@U?$less@K@std@@V?$allocator@U?$pair@$$CBKPEAVThreadInfo@@@std@@@3@$0A@@std@@@3@XZ ENDP ; std::_Tree<std::_Tmap_traits<unsigned long,ThreadInfo * __ptr64,std::less<unsigned long>,std::allocator<std::pair<unsigned long const ,ThreadInfo * __ptr64> >,0> >::const_iterator::_Mynode
; Function compile flags: /Ogtpy
_TEXT	ENDS
;	COMDAT ?_Mynode@const_iterator@?$_Tree@V?$_Tmap_traits@_KPEAVThreadInfo@@U?$less@_K@std@@V?$allocator@U?$pair@$$CB_KPEAVThreadInfo@@@std@@@3@$0A@@std@@@std@@QEBAPEAU_Node@?$_Tree_nod@V?$_Tmap_traits@_KPEAVThreadInfo@@U?$less@_K@std@@V?$allocator@U?$pair@$$CB_KPEAVThreadInfo@@@std@@@3@$0A@@std@@@3@XZ
_TEXT	SEGMENT
this$ = 8
?_Mynode@const_iterator@?$_Tree@V?$_Tmap_traits@_KPEAVThreadInfo@@U?$less@_K@std@@V?$allocator@U?$pair@$$CB_KPEAVThreadInfo@@@std@@@3@$0A@@std@@@std@@QEBAPEAU_Node@?$_Tree_nod@V?$_Tmap_traits@_KPEAVThreadInfo@@U?$less@_K@std@@V?$allocator@U?$pair@$$CB_KPEAVThreadInfo@@@std@@@3@$0A@@std@@@3@XZ PROC ; std::_Tree<std::_Tmap_traits<unsigned __int64,ThreadInfo * __ptr64,std::less<unsigned __int64>,std::allocator<std::pair<unsigned __int64 const ,ThreadInfo * __ptr64> >,0> >::const_iterator::_Mynode, COMDAT

; 410  : 			return (_Ptr);

	mov	rax, QWORD PTR [rcx+8]

; 411  : 			}

	ret	0
?_Mynode@const_iterator@?$_Tree@V?$_Tmap_traits@_KPEAVThreadInfo@@U?$less@_K@std@@V?$allocator@U?$pair@$$CB_KPEAVThreadInfo@@@std@@@3@$0A@@std@@@std@@QEBAPEAU_Node@?$_Tree_nod@V?$_Tmap_traits@_KPEAVThreadInfo@@U?$less@_K@std@@V?$allocator@U?$pair@$$CB_KPEAVThreadInfo@@@std@@@3@$0A@@std@@@3@XZ ENDP ; std::_Tree<std::_Tmap_traits<unsigned __int64,ThreadInfo * __ptr64,std::less<unsigned __int64>,std::allocator<std::pair<unsigned __int64 const ,ThreadInfo * __ptr64> >,0> >::const_iterator::_Mynode
; Function compile flags: /Ogtpy
_TEXT	ENDS
;	COMDAT ?_Mynode@const_iterator@?$_Tree@V?$_Tmap_traits@_KHU?$less@_K@std@@V?$allocator@U?$pair@$$CB_KH@std@@@2@$0A@@std@@@std@@QEBAPEAU_Node@?$_Tree_nod@V?$_Tmap_traits@_KHU?$less@_K@std@@V?$allocator@U?$pair@$$CB_KH@std@@@2@$0A@@std@@@3@XZ
_TEXT	SEGMENT
this$ = 8
?_Mynode@const_iterator@?$_Tree@V?$_Tmap_traits@_KHU?$less@_K@std@@V?$allocator@U?$pair@$$CB_KH@std@@@2@$0A@@std@@@std@@QEBAPEAU_Node@?$_Tree_nod@V?$_Tmap_traits@_KHU?$less@_K@std@@V?$allocator@U?$pair@$$CB_KH@std@@@2@$0A@@std@@@3@XZ PROC ; std::_Tree<std::_Tmap_traits<unsigned __int64,int,std::less<unsigned __int64>,std::allocator<std::pair<unsigned __int64 const ,int> >,0> >::const_iterator::_Mynode, COMDAT

; 410  : 			return (_Ptr);

	mov	rax, QWORD PTR [rcx+8]

; 411  : 			}

	ret	0
?_Mynode@const_iterator@?$_Tree@V?$_Tmap_traits@_KHU?$less@_K@std@@V?$allocator@U?$pair@$$CB_KH@std@@@2@$0A@@std@@@std@@QEBAPEAU_Node@?$_Tree_nod@V?$_Tmap_traits@_KHU?$less@_K@std@@V?$allocator@U?$pair@$$CB_KH@std@@@2@$0A@@std@@@3@XZ ENDP ; std::_Tree<std::_Tmap_traits<unsigned __int64,int,std::less<unsigned __int64>,std::allocator<std::pair<unsigned __int64 const ,int> >,0> >::const_iterator::_Mynode
; Function compile flags: /Ogtpy
; File c:\program files\microsoft visual studio 9.0\vc\include\xmemory
_TEXT	ENDS
;	COMDAT ?destroy@?$allocator@U_Node@?$_Tree_nod@V?$_Tmap_traits@KPEAVThreadInfo@@U?$less@K@std@@V?$allocator@U?$pair@$$CBKPEAVThreadInfo@@@std@@@3@$0A@@std@@@std@@@std@@QEAAXPEAU_Node@?$_Tree_nod@V?$_Tmap_traits@KPEAVThreadInfo@@U?$less@K@std@@V?$allocator@U?$pair@$$CBKPEAVThreadInfo@@@std@@@3@$0A@@std@@@2@@Z
_TEXT	SEGMENT
this$ = 8
_Ptr$ = 16
?destroy@?$allocator@U_Node@?$_Tree_nod@V?$_Tmap_traits@KPEAVThreadInfo@@U?$less@K@std@@V?$allocator@U?$pair@$$CBKPEAVThreadInfo@@@std@@@3@$0A@@std@@@std@@@std@@QEAAXPEAU_Node@?$_Tree_nod@V?$_Tmap_traits@KPEAVThreadInfo@@U?$less@K@std@@V?$allocator@U?$pair@$$CBKPEAVThreadInfo@@@std@@@3@$0A@@std@@@2@@Z PROC ; std::allocator<std::_Tree_nod<std::_Tmap_traits<unsigned long,ThreadInfo * __ptr64,std::less<unsigned long>,std::allocator<std::pair<unsigned long const ,ThreadInfo * __ptr64> >,0> >::_Node>::destroy, COMDAT

; 160  : 		_Destroy(_Ptr);
; 161  : 		}

	ret	0
?destroy@?$allocator@U_Node@?$_Tree_nod@V?$_Tmap_traits@KPEAVThreadInfo@@U?$less@K@std@@V?$allocator@U?$pair@$$CBKPEAVThreadInfo@@@std@@@3@$0A@@std@@@std@@@std@@QEAAXPEAU_Node@?$_Tree_nod@V?$_Tmap_traits@KPEAVThreadInfo@@U?$less@K@std@@V?$allocator@U?$pair@$$CBKPEAVThreadInfo@@@std@@@3@$0A@@std@@@2@@Z ENDP ; std::allocator<std::_Tree_nod<std::_Tmap_traits<unsigned long,ThreadInfo * __ptr64,std::less<unsigned long>,std::allocator<std::pair<unsigned long const ,ThreadInfo * __ptr64> >,0> >::_Node>::destroy
; Function compile flags: /Ogtpy
; File c:\program files\microsoft visual studio 9.0\vc\include\xtree
_TEXT	ENDS
;	COMDAT ?_Isnil@?$_Tree@V?$_Tmap_traits@KPEAVThreadInfo@@U?$less@K@std@@V?$allocator@U?$pair@$$CBKPEAVThreadInfo@@@std@@@3@$0A@@std@@@std@@KAAEADPEAU_Node@?$_Tree_nod@V?$_Tmap_traits@KPEAVThreadInfo@@U?$less@K@std@@V?$allocator@U?$pair@$$CBKPEAVThreadInfo@@@std@@@3@$0A@@std@@@2@@Z
_TEXT	SEGMENT
_Pnode$ = 8
?_Isnil@?$_Tree@V?$_Tmap_traits@KPEAVThreadInfo@@U?$less@K@std@@V?$allocator@U?$pair@$$CBKPEAVThreadInfo@@@std@@@3@$0A@@std@@@std@@KAAEADPEAU_Node@?$_Tree_nod@V?$_Tmap_traits@KPEAVThreadInfo@@U?$less@K@std@@V?$allocator@U?$pair@$$CBKPEAVThreadInfo@@@std@@@3@$0A@@std@@@2@@Z PROC ; std::_Tree<std::_Tmap_traits<unsigned long,ThreadInfo * __ptr64,std::less<unsigned long>,std::allocator<std::pair<unsigned long const ,ThreadInfo * __ptr64> >,0> >::_Isnil, COMDAT

; 157  : 		return ((_Charref)(*_Pnode)._Isnil);

	lea	rax, QWORD PTR [rcx+41]

; 158  : 		}

	ret	0
?_Isnil@?$_Tree@V?$_Tmap_traits@KPEAVThreadInfo@@U?$less@K@std@@V?$allocator@U?$pair@$$CBKPEAVThreadInfo@@@std@@@3@$0A@@std@@@std@@KAAEADPEAU_Node@?$_Tree_nod@V?$_Tmap_traits@KPEAVThreadInfo@@U?$less@K@std@@V?$allocator@U?$pair@$$CBKPEAVThreadInfo@@@std@@@3@$0A@@std@@@2@@Z ENDP ; std::_Tree<std::_Tmap_traits<unsigned long,ThreadInfo * __ptr64,std::less<unsigned long>,std::allocator<std::pair<unsigned long const ,ThreadInfo * __ptr64> >,0> >::_Isnil
; Function compile flags: /Ogtpy
_TEXT	ENDS
;	COMDAT ?_Color@?$_Tree@V?$_Tmap_traits@KPEAVThreadInfo@@U?$less@K@std@@V?$allocator@U?$pair@$$CBKPEAVThreadInfo@@@std@@@3@$0A@@std@@@std@@KAAEADPEAU_Node@?$_Tree_nod@V?$_Tmap_traits@KPEAVThreadInfo@@U?$less@K@std@@V?$allocator@U?$pair@$$CBKPEAVThreadInfo@@@std@@@3@$0A@@std@@@2@@Z
_TEXT	SEGMENT
_Pnode$ = 8
?_Color@?$_Tree@V?$_Tmap_traits@KPEAVThreadInfo@@U?$less@K@std@@V?$allocator@U?$pair@$$CBKPEAVThreadInfo@@@std@@@3@$0A@@std@@@std@@KAAEADPEAU_Node@?$_Tree_nod@V?$_Tmap_traits@KPEAVThreadInfo@@U?$less@K@std@@V?$allocator@U?$pair@$$CBKPEAVThreadInfo@@@std@@@3@$0A@@std@@@2@@Z PROC ; std::_Tree<std::_Tmap_traits<unsigned long,ThreadInfo * __ptr64,std::less<unsigned long>,std::allocator<std::pair<unsigned long const ,ThreadInfo * __ptr64> >,0> >::_Color, COMDAT

; 152  : 		return ((_Charref)(*_Pnode)._Color);

	lea	rax, QWORD PTR [rcx+40]

; 153  : 		}

	ret	0
?_Color@?$_Tree@V?$_Tmap_traits@KPEAVThreadInfo@@U?$less@K@std@@V?$allocator@U?$pair@$$CBKPEAVThreadInfo@@@std@@@3@$0A@@std@@@std@@KAAEADPEAU_Node@?$_Tree_nod@V?$_Tmap_traits@KPEAVThreadInfo@@U?$less@K@std@@V?$allocator@U?$pair@$$CBKPEAVThreadInfo@@@std@@@3@$0A@@std@@@2@@Z ENDP ; std::_Tree<std::_Tmap_traits<unsigned long,ThreadInfo * __ptr64,std::less<unsigned long>,std::allocator<std::pair<unsigned long const ,ThreadInfo * __ptr64> >,0> >::_Color
; Function compile flags: /Ogtpy
; File c:\program files\microsoft visual studio 9.0\vc\include\xmemory
_TEXT	ENDS
;	COMDAT ?destroy@?$allocator@U_Node@?$_Tree_nod@V?$_Tmap_traits@_KPEAVThreadInfo@@U?$less@_K@std@@V?$allocator@U?$pair@$$CB_KPEAVThreadInfo@@@std@@@3@$0A@@std@@@std@@@std@@QEAAXPEAU_Node@?$_Tree_nod@V?$_Tmap_traits@_KPEAVThreadInfo@@U?$less@_K@std@@V?$allocator@U?$pair@$$CB_KPEAVThreadInfo@@@std@@@3@$0A@@std@@@2@@Z
_TEXT	SEGMENT
this$ = 8
_Ptr$ = 16
?destroy@?$allocator@U_Node@?$_Tree_nod@V?$_Tmap_traits@_KPEAVThreadInfo@@U?$less@_K@std@@V?$allocator@U?$pair@$$CB_KPEAVThreadInfo@@@std@@@3@$0A@@std@@@std@@@std@@QEAAXPEAU_Node@?$_Tree_nod@V?$_Tmap_traits@_KPEAVThreadInfo@@U?$less@_K@std@@V?$allocator@U?$pair@$$CB_KPEAVThreadInfo@@@std@@@3@$0A@@std@@@2@@Z PROC ; std::allocator<std::_Tree_nod<std::_Tmap_traits<unsigned __int64,ThreadInfo * __ptr64,std::less<unsigned __int64>,std::allocator<std::pair<unsigned __int64 const ,ThreadInfo * __ptr64> >,0> >::_Node>::destroy, COMDAT

; 160  : 		_Destroy(_Ptr);
; 161  : 		}

	ret	0
?destroy@?$allocator@U_Node@?$_Tree_nod@V?$_Tmap_traits@_KPEAVThreadInfo@@U?$less@_K@std@@V?$allocator@U?$pair@$$CB_KPEAVThreadInfo@@@std@@@3@$0A@@std@@@std@@@std@@QEAAXPEAU_Node@?$_Tree_nod@V?$_Tmap_traits@_KPEAVThreadInfo@@U?$less@_K@std@@V?$allocator@U?$pair@$$CB_KPEAVThreadInfo@@@std@@@3@$0A@@std@@@2@@Z ENDP ; std::allocator<std::_Tree_nod<std::_Tmap_traits<unsigned __int64,ThreadInfo * __ptr64,std::less<unsigned __int64>,std::allocator<std::pair<unsigned __int64 const ,ThreadInfo * __ptr64> >,0> >::_Node>::destroy
; Function compile flags: /Ogtpy
; File c:\program files\microsoft visual studio 9.0\vc\include\xtree
_TEXT	ENDS
;	COMDAT ?_Isnil@?$_Tree@V?$_Tmap_traits@_KPEAVThreadInfo@@U?$less@_K@std@@V?$allocator@U?$pair@$$CB_KPEAVThreadInfo@@@std@@@3@$0A@@std@@@std@@KAAEADPEAU_Node@?$_Tree_nod@V?$_Tmap_traits@_KPEAVThreadInfo@@U?$less@_K@std@@V?$allocator@U?$pair@$$CB_KPEAVThreadInfo@@@std@@@3@$0A@@std@@@2@@Z
_TEXT	SEGMENT
_Pnode$ = 8
?_Isnil@?$_Tree@V?$_Tmap_traits@_KPEAVThreadInfo@@U?$less@_K@std@@V?$allocator@U?$pair@$$CB_KPEAVThreadInfo@@@std@@@3@$0A@@std@@@std@@KAAEADPEAU_Node@?$_Tree_nod@V?$_Tmap_traits@_KPEAVThreadInfo@@U?$less@_K@std@@V?$allocator@U?$pair@$$CB_KPEAVThreadInfo@@@std@@@3@$0A@@std@@@2@@Z PROC ; std::_Tree<std::_Tmap_traits<unsigned __int64,ThreadInfo * __ptr64,std::less<unsigned __int64>,std::allocator<std::pair<unsigned __int64 const ,ThreadInfo * __ptr64> >,0> >::_Isnil, COMDAT

; 157  : 		return ((_Charref)(*_Pnode)._Isnil);

	lea	rax, QWORD PTR [rcx+41]

; 158  : 		}

	ret	0
?_Isnil@?$_Tree@V?$_Tmap_traits@_KPEAVThreadInfo@@U?$less@_K@std@@V?$allocator@U?$pair@$$CB_KPEAVThreadInfo@@@std@@@3@$0A@@std@@@std@@KAAEADPEAU_Node@?$_Tree_nod@V?$_Tmap_traits@_KPEAVThreadInfo@@U?$less@_K@std@@V?$allocator@U?$pair@$$CB_KPEAVThreadInfo@@@std@@@3@$0A@@std@@@2@@Z ENDP ; std::_Tree<std::_Tmap_traits<unsigned __int64,ThreadInfo * __ptr64,std::less<unsigned __int64>,std::allocator<std::pair<unsigned __int64 const ,ThreadInfo * __ptr64> >,0> >::_Isnil
; Function compile flags: /Ogtpy
_TEXT	ENDS
;	COMDAT ?_Color@?$_Tree@V?$_Tmap_traits@_KPEAVThreadInfo@@U?$less@_K@std@@V?$allocator@U?$pair@$$CB_KPEAVThreadInfo@@@std@@@3@$0A@@std@@@std@@KAAEADPEAU_Node@?$_Tree_nod@V?$_Tmap_traits@_KPEAVThreadInfo@@U?$less@_K@std@@V?$allocator@U?$pair@$$CB_KPEAVThreadInfo@@@std@@@3@$0A@@std@@@2@@Z
_TEXT	SEGMENT
_Pnode$ = 8
?_Color@?$_Tree@V?$_Tmap_traits@_KPEAVThreadInfo@@U?$less@_K@std@@V?$allocator@U?$pair@$$CB_KPEAVThreadInfo@@@std@@@3@$0A@@std@@@std@@KAAEADPEAU_Node@?$_Tree_nod@V?$_Tmap_traits@_KPEAVThreadInfo@@U?$less@_K@std@@V?$allocator@U?$pair@$$CB_KPEAVThreadInfo@@@std@@@3@$0A@@std@@@2@@Z PROC ; std::_Tree<std::_Tmap_traits<unsigned __int64,ThreadInfo * __ptr64,std::less<unsigned __int64>,std::allocator<std::pair<unsigned __int64 const ,ThreadInfo * __ptr64> >,0> >::_Color, COMDAT

; 152  : 		return ((_Charref)(*_Pnode)._Color);

	lea	rax, QWORD PTR [rcx+40]

; 153  : 		}

	ret	0
?_Color@?$_Tree@V?$_Tmap_traits@_KPEAVThreadInfo@@U?$less@_K@std@@V?$allocator@U?$pair@$$CB_KPEAVThreadInfo@@@std@@@3@$0A@@std@@@std@@KAAEADPEAU_Node@?$_Tree_nod@V?$_Tmap_traits@_KPEAVThreadInfo@@U?$less@_K@std@@V?$allocator@U?$pair@$$CB_KPEAVThreadInfo@@@std@@@3@$0A@@std@@@2@@Z ENDP ; std::_Tree<std::_Tmap_traits<unsigned __int64,ThreadInfo * __ptr64,std::less<unsigned __int64>,std::allocator<std::pair<unsigned __int64 const ,ThreadInfo * __ptr64> >,0> >::_Color
; Function compile flags: /Ogtpy
; File c:\program files\microsoft visual studio 9.0\vc\include\xmemory
_TEXT	ENDS
;	COMDAT ?destroy@?$allocator@U_Node@?$_Tree_nod@V?$_Tmap_traits@_KHU?$less@_K@std@@V?$allocator@U?$pair@$$CB_KH@std@@@2@$0A@@std@@@std@@@std@@QEAAXPEAU_Node@?$_Tree_nod@V?$_Tmap_traits@_KHU?$less@_K@std@@V?$allocator@U?$pair@$$CB_KH@std@@@2@$0A@@std@@@2@@Z
_TEXT	SEGMENT
this$ = 8
_Ptr$ = 16
?destroy@?$allocator@U_Node@?$_Tree_nod@V?$_Tmap_traits@_KHU?$less@_K@std@@V?$allocator@U?$pair@$$CB_KH@std@@@2@$0A@@std@@@std@@@std@@QEAAXPEAU_Node@?$_Tree_nod@V?$_Tmap_traits@_KHU?$less@_K@std@@V?$allocator@U?$pair@$$CB_KH@std@@@2@$0A@@std@@@2@@Z PROC ; std::allocator<std::_Tree_nod<std::_Tmap_traits<unsigned __int64,int,std::less<unsigned __int64>,std::allocator<std::pair<unsigned __int64 const ,int> >,0> >::_Node>::destroy, COMDAT

; 160  : 		_Destroy(_Ptr);
; 161  : 		}

	ret	0
?destroy@?$allocator@U_Node@?$_Tree_nod@V?$_Tmap_traits@_KHU?$less@_K@std@@V?$allocator@U?$pair@$$CB_KH@std@@@2@$0A@@std@@@std@@@std@@QEAAXPEAU_Node@?$_Tree_nod@V?$_Tmap_traits@_KHU?$less@_K@std@@V?$allocator@U?$pair@$$CB_KH@std@@@2@$0A@@std@@@2@@Z ENDP ; std::allocator<std::_Tree_nod<std::_Tmap_traits<unsigned __int64,int,std::less<unsigned __int64>,std::allocator<std::pair<unsigned __int64 const ,int> >,0> >::_Node>::destroy
; Function compile flags: /Ogtpy
; File c:\program files\microsoft visual studio 9.0\vc\include\xtree
_TEXT	ENDS
;	COMDAT ?_Isnil@?$_Tree@V?$_Tmap_traits@_KHU?$less@_K@std@@V?$allocator@U?$pair@$$CB_KH@std@@@2@$0A@@std@@@std@@KAAEADPEAU_Node@?$_Tree_nod@V?$_Tmap_traits@_KHU?$less@_K@std@@V?$allocator@U?$pair@$$CB_KH@std@@@2@$0A@@std@@@2@@Z
_TEXT	SEGMENT
_Pnode$ = 8
?_Isnil@?$_Tree@V?$_Tmap_traits@_KHU?$less@_K@std@@V?$allocator@U?$pair@$$CB_KH@std@@@2@$0A@@std@@@std@@KAAEADPEAU_Node@?$_Tree_nod@V?$_Tmap_traits@_KHU?$less@_K@std@@V?$allocator@U?$pair@$$CB_KH@std@@@2@$0A@@std@@@2@@Z PROC ; std::_Tree<std::_Tmap_traits<unsigned __int64,int,std::less<unsigned __int64>,std::allocator<std::pair<unsigned __int64 const ,int> >,0> >::_Isnil, COMDAT

; 157  : 		return ((_Charref)(*_Pnode)._Isnil);

	lea	rax, QWORD PTR [rcx+41]

; 158  : 		}

	ret	0
?_Isnil@?$_Tree@V?$_Tmap_traits@_KHU?$less@_K@std@@V?$allocator@U?$pair@$$CB_KH@std@@@2@$0A@@std@@@std@@KAAEADPEAU_Node@?$_Tree_nod@V?$_Tmap_traits@_KHU?$less@_K@std@@V?$allocator@U?$pair@$$CB_KH@std@@@2@$0A@@std@@@2@@Z ENDP ; std::_Tree<std::_Tmap_traits<unsigned __int64,int,std::less<unsigned __int64>,std::allocator<std::pair<unsigned __int64 const ,int> >,0> >::_Isnil
; Function compile flags: /Ogtpy
_TEXT	ENDS
;	COMDAT ?_Color@?$_Tree@V?$_Tmap_traits@_KHU?$less@_K@std@@V?$allocator@U?$pair@$$CB_KH@std@@@2@$0A@@std@@@std@@KAAEADPEAU_Node@?$_Tree_nod@V?$_Tmap_traits@_KHU?$less@_K@std@@V?$allocator@U?$pair@$$CB_KH@std@@@2@$0A@@std@@@2@@Z
_TEXT	SEGMENT
_Pnode$ = 8
?_Color@?$_Tree@V?$_Tmap_traits@_KHU?$less@_K@std@@V?$allocator@U?$pair@$$CB_KH@std@@@2@$0A@@std@@@std@@KAAEADPEAU_Node@?$_Tree_nod@V?$_Tmap_traits@_KHU?$less@_K@std@@V?$allocator@U?$pair@$$CB_KH@std@@@2@$0A@@std@@@2@@Z PROC ; std::_Tree<std::_Tmap_traits<unsigned __int64,int,std::less<unsigned __int64>,std::allocator<std::pair<unsigned __int64 const ,int> >,0> >::_Color, COMDAT

; 152  : 		return ((_Charref)(*_Pnode)._Color);

	lea	rax, QWORD PTR [rcx+40]

; 153  : 		}

	ret	0
?_Color@?$_Tree@V?$_Tmap_traits@_KHU?$less@_K@std@@V?$allocator@U?$pair@$$CB_KH@std@@@2@$0A@@std@@@std@@KAAEADPEAU_Node@?$_Tree_nod@V?$_Tmap_traits@_KHU?$less@_K@std@@V?$allocator@U?$pair@$$CB_KH@std@@@2@$0A@@std@@@2@@Z ENDP ; std::_Tree<std::_Tmap_traits<unsigned __int64,int,std::less<unsigned __int64>,std::allocator<std::pair<unsigned __int64 const ,int> >,0> >::_Color
; Function compile flags: /Ogtpy
; File c:\program files\microsoft visual studio 9.0\vc\include\xmemory
_TEXT	ENDS
;	COMDAT ?destroy@?$allocator@PEAU_Node@?$_Tree_nod@V?$_Tmap_traits@KPEAVThreadInfo@@U?$less@K@std@@V?$allocator@U?$pair@$$CBKPEAVThreadInfo@@@std@@@3@$0A@@std@@@std@@@std@@QEAAXPEAPEAU_Node@?$_Tree_nod@V?$_Tmap_traits@KPEAVThreadInfo@@U?$less@K@std@@V?$allocator@U?$pair@$$CBKPEAVThreadInfo@@@std@@@3@$0A@@std@@@2@@Z
_TEXT	SEGMENT
this$ = 8
_Ptr$ = 16
?destroy@?$allocator@PEAU_Node@?$_Tree_nod@V?$_Tmap_traits@KPEAVThreadInfo@@U?$less@K@std@@V?$allocator@U?$pair@$$CBKPEAVThreadInfo@@@std@@@3@$0A@@std@@@std@@@std@@QEAAXPEAPEAU_Node@?$_Tree_nod@V?$_Tmap_traits@KPEAVThreadInfo@@U?$less@K@std@@V?$allocator@U?$pair@$$CBKPEAVThreadInfo@@@std@@@3@$0A@@std@@@2@@Z PROC ; std::allocator<std::_Tree_nod<std::_Tmap_traits<unsigned long,ThreadInfo * __ptr64,std::less<unsigned long>,std::allocator<std::pair<unsigned long const ,ThreadInfo * __ptr64> >,0> >::_Node * __ptr64>::destroy, COMDAT

; 160  : 		_Destroy(_Ptr);
; 161  : 		}

	ret	0
?destroy@?$allocator@PEAU_Node@?$_Tree_nod@V?$_Tmap_traits@KPEAVThreadInfo@@U?$less@K@std@@V?$allocator@U?$pair@$$CBKPEAVThreadInfo@@@std@@@3@$0A@@std@@@std@@@std@@QEAAXPEAPEAU_Node@?$_Tree_nod@V?$_Tmap_traits@KPEAVThreadInfo@@U?$less@K@std@@V?$allocator@U?$pair@$$CBKPEAVThreadInfo@@@std@@@3@$0A@@std@@@2@@Z ENDP ; std::allocator<std::_Tree_nod<std::_Tmap_traits<unsigned long,ThreadInfo * __ptr64,std::less<unsigned long>,std::allocator<std::pair<unsigned long const ,ThreadInfo * __ptr64> >,0> >::_Node * __ptr64>::destroy
; Function compile flags: /Ogtpy
_TEXT	ENDS
;	COMDAT ?deallocate@?$allocator@U_Node@?$_Tree_nod@V?$_Tmap_traits@KPEAVThreadInfo@@U?$less@K@std@@V?$allocator@U?$pair@$$CBKPEAVThreadInfo@@@std@@@3@$0A@@std@@@std@@@std@@QEAAXPEAU_Node@?$_Tree_nod@V?$_Tmap_traits@KPEAVThreadInfo@@U?$less@K@std@@V?$allocator@U?$pair@$$CBKPEAVThreadInfo@@@std@@@3@$0A@@std@@@2@_K@Z
_TEXT	SEGMENT
this$ = 8
_Ptr$ = 16
__formal$ = 24
?deallocate@?$allocator@U_Node@?$_Tree_nod@V?$_Tmap_traits@KPEAVThreadInfo@@U?$less@K@std@@V?$allocator@U?$pair@$$CBKPEAVThreadInfo@@@std@@@3@$0A@@std@@@std@@@std@@QEAAXPEAU_Node@?$_Tree_nod@V?$_Tmap_traits@KPEAVThreadInfo@@U?$less@K@std@@V?$allocator@U?$pair@$$CBKPEAVThreadInfo@@@std@@@3@$0A@@std@@@2@_K@Z PROC ; std::allocator<std::_Tree_nod<std::_Tmap_traits<unsigned long,ThreadInfo * __ptr64,std::less<unsigned long>,std::allocator<std::pair<unsigned long const ,ThreadInfo * __ptr64> >,0> >::_Node>::deallocate, COMDAT

; 140  : 		::operator delete(_Ptr);

	mov	rcx, rdx

; 141  : 		}

	jmp	??3@YAXPEAX@Z				; operator delete
?deallocate@?$allocator@U_Node@?$_Tree_nod@V?$_Tmap_traits@KPEAVThreadInfo@@U?$less@K@std@@V?$allocator@U?$pair@$$CBKPEAVThreadInfo@@@std@@@3@$0A@@std@@@std@@@std@@QEAAXPEAU_Node@?$_Tree_nod@V?$_Tmap_traits@KPEAVThreadInfo@@U?$less@K@std@@V?$allocator@U?$pair@$$CBKPEAVThreadInfo@@@std@@@3@$0A@@std@@@2@_K@Z ENDP ; std::allocator<std::_Tree_nod<std::_Tmap_traits<unsigned long,ThreadInfo * __ptr64,std::less<unsigned long>,std::allocator<std::pair<unsigned long const ,ThreadInfo * __ptr64> >,0> >::_Node>::deallocate
; Function compile flags: /Ogtpy
; File c:\program files\microsoft visual studio 9.0\vc\include\xtree
_TEXT	ENDS
;	COMDAT ?_Right@?$_Tree@V?$_Tmap_traits@KPEAVThreadInfo@@U?$less@K@std@@V?$allocator@U?$pair@$$CBKPEAVThreadInfo@@@std@@@3@$0A@@std@@@std@@KAAEAPEAU_Node@?$_Tree_nod@V?$_Tmap_traits@KPEAVThreadInfo@@U?$less@K@std@@V?$allocator@U?$pair@$$CBKPEAVThreadInfo@@@std@@@3@$0A@@std@@@2@PEAU342@@Z
_TEXT	SEGMENT
_Pnode$ = 8
?_Right@?$_Tree@V?$_Tmap_traits@KPEAVThreadInfo@@U?$less@K@std@@V?$allocator@U?$pair@$$CBKPEAVThreadInfo@@@std@@@3@$0A@@std@@@std@@KAAEAPEAU_Node@?$_Tree_nod@V?$_Tmap_traits@KPEAVThreadInfo@@U?$less@K@std@@V?$allocator@U?$pair@$$CBKPEAVThreadInfo@@@std@@@3@$0A@@std@@@2@PEAU342@@Z PROC ; std::_Tree<std::_Tmap_traits<unsigned long,ThreadInfo * __ptr64,std::less<unsigned long>,std::allocator<std::pair<unsigned long const ,ThreadInfo * __ptr64> >,0> >::_Right, COMDAT

; 177  : 		return ((_Nodepref)(*_Pnode)._Right);

	lea	rax, QWORD PTR [rcx+16]

; 178  : 		}

	ret	0
?_Right@?$_Tree@V?$_Tmap_traits@KPEAVThreadInfo@@U?$less@K@std@@V?$allocator@U?$pair@$$CBKPEAVThreadInfo@@@std@@@3@$0A@@std@@@std@@KAAEAPEAU_Node@?$_Tree_nod@V?$_Tmap_traits@KPEAVThreadInfo@@U?$less@K@std@@V?$allocator@U?$pair@$$CBKPEAVThreadInfo@@@std@@@3@$0A@@std@@@2@PEAU342@@Z ENDP ; std::_Tree<std::_Tmap_traits<unsigned long,ThreadInfo * __ptr64,std::less<unsigned long>,std::allocator<std::pair<unsigned long const ,ThreadInfo * __ptr64> >,0> >::_Right
; Function compile flags: /Ogtpy
_TEXT	ENDS
;	COMDAT ?_Parent@?$_Tree@V?$_Tmap_traits@KPEAVThreadInfo@@U?$less@K@std@@V?$allocator@U?$pair@$$CBKPEAVThreadInfo@@@std@@@3@$0A@@std@@@std@@KAAEAPEAU_Node@?$_Tree_nod@V?$_Tmap_traits@KPEAVThreadInfo@@U?$less@K@std@@V?$allocator@U?$pair@$$CBKPEAVThreadInfo@@@std@@@3@$0A@@std@@@2@PEAU342@@Z
_TEXT	SEGMENT
_Pnode$ = 8
?_Parent@?$_Tree@V?$_Tmap_traits@KPEAVThreadInfo@@U?$less@K@std@@V?$allocator@U?$pair@$$CBKPEAVThreadInfo@@@std@@@3@$0A@@std@@@std@@KAAEAPEAU_Node@?$_Tree_nod@V?$_Tmap_traits@KPEAVThreadInfo@@U?$less@K@std@@V?$allocator@U?$pair@$$CBKPEAVThreadInfo@@@std@@@3@$0A@@std@@@2@PEAU342@@Z PROC ; std::_Tree<std::_Tmap_traits<unsigned long,ThreadInfo * __ptr64,std::less<unsigned long>,std::allocator<std::pair<unsigned long const ,ThreadInfo * __ptr64> >,0> >::_Parent, COMDAT

; 172  : 		return ((_Nodepref)(*_Pnode)._Parent);

	lea	rax, QWORD PTR [rcx+8]

; 173  : 		}

	ret	0
?_Parent@?$_Tree@V?$_Tmap_traits@KPEAVThreadInfo@@U?$less@K@std@@V?$allocator@U?$pair@$$CBKPEAVThreadInfo@@@std@@@3@$0A@@std@@@std@@KAAEAPEAU_Node@?$_Tree_nod@V?$_Tmap_traits@KPEAVThreadInfo@@U?$less@K@std@@V?$allocator@U?$pair@$$CBKPEAVThreadInfo@@@std@@@3@$0A@@std@@@2@PEAU342@@Z ENDP ; std::_Tree<std::_Tmap_traits<unsigned long,ThreadInfo * __ptr64,std::less<unsigned long>,std::allocator<std::pair<unsigned long const ,ThreadInfo * __ptr64> >,0> >::_Parent
; Function compile flags: /Ogtpy
_TEXT	ENDS
;	COMDAT ?_Left@?$_Tree@V?$_Tmap_traits@KPEAVThreadInfo@@U?$less@K@std@@V?$allocator@U?$pair@$$CBKPEAVThreadInfo@@@std@@@3@$0A@@std@@@std@@KAAEAPEAU_Node@?$_Tree_nod@V?$_Tmap_traits@KPEAVThreadInfo@@U?$less@K@std@@V?$allocator@U?$pair@$$CBKPEAVThreadInfo@@@std@@@3@$0A@@std@@@2@PEAU342@@Z
_TEXT	SEGMENT
_Pnode$ = 8
?_Left@?$_Tree@V?$_Tmap_traits@KPEAVThreadInfo@@U?$less@K@std@@V?$allocator@U?$pair@$$CBKPEAVThreadInfo@@@std@@@3@$0A@@std@@@std@@KAAEAPEAU_Node@?$_Tree_nod@V?$_Tmap_traits@KPEAVThreadInfo@@U?$less@K@std@@V?$allocator@U?$pair@$$CBKPEAVThreadInfo@@@std@@@3@$0A@@std@@@2@PEAU342@@Z PROC ; std::_Tree<std::_Tmap_traits<unsigned long,ThreadInfo * __ptr64,std::less<unsigned long>,std::allocator<std::pair<unsigned long const ,ThreadInfo * __ptr64> >,0> >::_Left, COMDAT

; 167  : 		return ((_Nodepref)(*_Pnode)._Left);

	mov	rax, rcx

; 168  : 		}

	ret	0
?_Left@?$_Tree@V?$_Tmap_traits@KPEAVThreadInfo@@U?$less@K@std@@V?$allocator@U?$pair@$$CBKPEAVThreadInfo@@@std@@@3@$0A@@std@@@std@@KAAEAPEAU_Node@?$_Tree_nod@V?$_Tmap_traits@KPEAVThreadInfo@@U?$less@K@std@@V?$allocator@U?$pair@$$CBKPEAVThreadInfo@@@std@@@3@$0A@@std@@@2@PEAU342@@Z ENDP ; std::_Tree<std::_Tmap_traits<unsigned long,ThreadInfo * __ptr64,std::less<unsigned long>,std::allocator<std::pair<unsigned long const ,ThreadInfo * __ptr64> >,0> >::_Left
; Function compile flags: /Ogtpy
; File c:\program files\microsoft visual studio 9.0\vc\include\xmemory
_TEXT	ENDS
;	COMDAT ?destroy@?$allocator@PEAU_Node@?$_Tree_nod@V?$_Tmap_traits@_KPEAVThreadInfo@@U?$less@_K@std@@V?$allocator@U?$pair@$$CB_KPEAVThreadInfo@@@std@@@3@$0A@@std@@@std@@@std@@QEAAXPEAPEAU_Node@?$_Tree_nod@V?$_Tmap_traits@_KPEAVThreadInfo@@U?$less@_K@std@@V?$allocator@U?$pair@$$CB_KPEAVThreadInfo@@@std@@@3@$0A@@std@@@2@@Z
_TEXT	SEGMENT
this$ = 8
_Ptr$ = 16
?destroy@?$allocator@PEAU_Node@?$_Tree_nod@V?$_Tmap_traits@_KPEAVThreadInfo@@U?$less@_K@std@@V?$allocator@U?$pair@$$CB_KPEAVThreadInfo@@@std@@@3@$0A@@std@@@std@@@std@@QEAAXPEAPEAU_Node@?$_Tree_nod@V?$_Tmap_traits@_KPEAVThreadInfo@@U?$less@_K@std@@V?$allocator@U?$pair@$$CB_KPEAVThreadInfo@@@std@@@3@$0A@@std@@@2@@Z PROC ; std::allocator<std::_Tree_nod<std::_Tmap_traits<unsigned __int64,ThreadInfo * __ptr64,std::less<unsigned __int64>,std::allocator<std::pair<unsigned __int64 const ,ThreadInfo * __ptr64> >,0> >::_Node * __ptr64>::destroy, COMDAT

; 160  : 		_Destroy(_Ptr);
; 161  : 		}

	ret	0
?destroy@?$allocator@PEAU_Node@?$_Tree_nod@V?$_Tmap_traits@_KPEAVThreadInfo@@U?$less@_K@std@@V?$allocator@U?$pair@$$CB_KPEAVThreadInfo@@@std@@@3@$0A@@std@@@std@@@std@@QEAAXPEAPEAU_Node@?$_Tree_nod@V?$_Tmap_traits@_KPEAVThreadInfo@@U?$less@_K@std@@V?$allocator@U?$pair@$$CB_KPEAVThreadInfo@@@std@@@3@$0A@@std@@@2@@Z ENDP ; std::allocator<std::_Tree_nod<std::_Tmap_traits<unsigned __int64,ThreadInfo * __ptr64,std::less<unsigned __int64>,std::allocator<std::pair<unsigned __int64 const ,ThreadInfo * __ptr64> >,0> >::_Node * __ptr64>::destroy
; Function compile flags: /Ogtpy
_TEXT	ENDS
;	COMDAT ?deallocate@?$allocator@U_Node@?$_Tree_nod@V?$_Tmap_traits@_KPEAVThreadInfo@@U?$less@_K@std@@V?$allocator@U?$pair@$$CB_KPEAVThreadInfo@@@std@@@3@$0A@@std@@@std@@@std@@QEAAXPEAU_Node@?$_Tree_nod@V?$_Tmap_traits@_KPEAVThreadInfo@@U?$less@_K@std@@V?$allocator@U?$pair@$$CB_KPEAVThreadInfo@@@std@@@3@$0A@@std@@@2@_K@Z
_TEXT	SEGMENT
this$ = 8
_Ptr$ = 16
__formal$ = 24
?deallocate@?$allocator@U_Node@?$_Tree_nod@V?$_Tmap_traits@_KPEAVThreadInfo@@U?$less@_K@std@@V?$allocator@U?$pair@$$CB_KPEAVThreadInfo@@@std@@@3@$0A@@std@@@std@@@std@@QEAAXPEAU_Node@?$_Tree_nod@V?$_Tmap_traits@_KPEAVThreadInfo@@U?$less@_K@std@@V?$allocator@U?$pair@$$CB_KPEAVThreadInfo@@@std@@@3@$0A@@std@@@2@_K@Z PROC ; std::allocator<std::_Tree_nod<std::_Tmap_traits<unsigned __int64,ThreadInfo * __ptr64,std::less<unsigned __int64>,std::allocator<std::pair<unsigned __int64 const ,ThreadInfo * __ptr64> >,0> >::_Node>::deallocate, COMDAT

; 140  : 		::operator delete(_Ptr);

	mov	rcx, rdx

; 141  : 		}

	jmp	??3@YAXPEAX@Z				; operator delete
?deallocate@?$allocator@U_Node@?$_Tree_nod@V?$_Tmap_traits@_KPEAVThreadInfo@@U?$less@_K@std@@V?$allocator@U?$pair@$$CB_KPEAVThreadInfo@@@std@@@3@$0A@@std@@@std@@@std@@QEAAXPEAU_Node@?$_Tree_nod@V?$_Tmap_traits@_KPEAVThreadInfo@@U?$less@_K@std@@V?$allocator@U?$pair@$$CB_KPEAVThreadInfo@@@std@@@3@$0A@@std@@@2@_K@Z ENDP ; std::allocator<std::_Tree_nod<std::_Tmap_traits<unsigned __int64,ThreadInfo * __ptr64,std::less<unsigned __int64>,std::allocator<std::pair<unsigned __int64 const ,ThreadInfo * __ptr64> >,0> >::_Node>::deallocate
; Function compile flags: /Ogtpy
; File c:\program files\microsoft visual studio 9.0\vc\include\xtree
_TEXT	ENDS
;	COMDAT ?_Right@?$_Tree@V?$_Tmap_traits@_KPEAVThreadInfo@@U?$less@_K@std@@V?$allocator@U?$pair@$$CB_KPEAVThreadInfo@@@std@@@3@$0A@@std@@@std@@KAAEAPEAU_Node@?$_Tree_nod@V?$_Tmap_traits@_KPEAVThreadInfo@@U?$less@_K@std@@V?$allocator@U?$pair@$$CB_KPEAVThreadInfo@@@std@@@3@$0A@@std@@@2@PEAU342@@Z
_TEXT	SEGMENT
_Pnode$ = 8
?_Right@?$_Tree@V?$_Tmap_traits@_KPEAVThreadInfo@@U?$less@_K@std@@V?$allocator@U?$pair@$$CB_KPEAVThreadInfo@@@std@@@3@$0A@@std@@@std@@KAAEAPEAU_Node@?$_Tree_nod@V?$_Tmap_traits@_KPEAVThreadInfo@@U?$less@_K@std@@V?$allocator@U?$pair@$$CB_KPEAVThreadInfo@@@std@@@3@$0A@@std@@@2@PEAU342@@Z PROC ; std::_Tree<std::_Tmap_traits<unsigned __int64,ThreadInfo * __ptr64,std::less<unsigned __int64>,std::allocator<std::pair<unsigned __int64 const ,ThreadInfo * __ptr64> >,0> >::_Right, COMDAT

; 177  : 		return ((_Nodepref)(*_Pnode)._Right);

	lea	rax, QWORD PTR [rcx+16]

; 178  : 		}

	ret	0
?_Right@?$_Tree@V?$_Tmap_traits@_KPEAVThreadInfo@@U?$less@_K@std@@V?$allocator@U?$pair@$$CB_KPEAVThreadInfo@@@std@@@3@$0A@@std@@@std@@KAAEAPEAU_Node@?$_Tree_nod@V?$_Tmap_traits@_KPEAVThreadInfo@@U?$less@_K@std@@V?$allocator@U?$pair@$$CB_KPEAVThreadInfo@@@std@@@3@$0A@@std@@@2@PEAU342@@Z ENDP ; std::_Tree<std::_Tmap_traits<unsigned __int64,ThreadInfo * __ptr64,std::less<unsigned __int64>,std::allocator<std::pair<unsigned __int64 const ,ThreadInfo * __ptr64> >,0> >::_Right
; Function compile flags: /Ogtpy
_TEXT	ENDS
;	COMDAT ?_Parent@?$_Tree@V?$_Tmap_traits@_KPEAVThreadInfo@@U?$less@_K@std@@V?$allocator@U?$pair@$$CB_KPEAVThreadInfo@@@std@@@3@$0A@@std@@@std@@KAAEAPEAU_Node@?$_Tree_nod@V?$_Tmap_traits@_KPEAVThreadInfo@@U?$less@_K@std@@V?$allocator@U?$pair@$$CB_KPEAVThreadInfo@@@std@@@3@$0A@@std@@@2@PEAU342@@Z
_TEXT	SEGMENT
_Pnode$ = 8
?_Parent@?$_Tree@V?$_Tmap_traits@_KPEAVThreadInfo@@U?$less@_K@std@@V?$allocator@U?$pair@$$CB_KPEAVThreadInfo@@@std@@@3@$0A@@std@@@std@@KAAEAPEAU_Node@?$_Tree_nod@V?$_Tmap_traits@_KPEAVThreadInfo@@U?$less@_K@std@@V?$allocator@U?$pair@$$CB_KPEAVThreadInfo@@@std@@@3@$0A@@std@@@2@PEAU342@@Z PROC ; std::_Tree<std::_Tmap_traits<unsigned __int64,ThreadInfo * __ptr64,std::less<unsigned __int64>,std::allocator<std::pair<unsigned __int64 const ,ThreadInfo * __ptr64> >,0> >::_Parent, COMDAT

; 172  : 		return ((_Nodepref)(*_Pnode)._Parent);

	lea	rax, QWORD PTR [rcx+8]

; 173  : 		}

	ret	0
?_Parent@?$_Tree@V?$_Tmap_traits@_KPEAVThreadInfo@@U?$less@_K@std@@V?$allocator@U?$pair@$$CB_KPEAVThreadInfo@@@std@@@3@$0A@@std@@@std@@KAAEAPEAU_Node@?$_Tree_nod@V?$_Tmap_traits@_KPEAVThreadInfo@@U?$less@_K@std@@V?$allocator@U?$pair@$$CB_KPEAVThreadInfo@@@std@@@3@$0A@@std@@@2@PEAU342@@Z ENDP ; std::_Tree<std::_Tmap_traits<unsigned __int64,ThreadInfo * __ptr64,std::less<unsigned __int64>,std::allocator<std::pair<unsigned __int64 const ,ThreadInfo * __ptr64> >,0> >::_Parent
; Function compile flags: /Ogtpy
_TEXT	ENDS
;	COMDAT ?_Left@?$_Tree@V?$_Tmap_traits@_KPEAVThreadInfo@@U?$less@_K@std@@V?$allocator@U?$pair@$$CB_KPEAVThreadInfo@@@std@@@3@$0A@@std@@@std@@KAAEAPEAU_Node@?$_Tree_nod@V?$_Tmap_traits@_KPEAVThreadInfo@@U?$less@_K@std@@V?$allocator@U?$pair@$$CB_KPEAVThreadInfo@@@std@@@3@$0A@@std@@@2@PEAU342@@Z
_TEXT	SEGMENT
_Pnode$ = 8
?_Left@?$_Tree@V?$_Tmap_traits@_KPEAVThreadInfo@@U?$less@_K@std@@V?$allocator@U?$pair@$$CB_KPEAVThreadInfo@@@std@@@3@$0A@@std@@@std@@KAAEAPEAU_Node@?$_Tree_nod@V?$_Tmap_traits@_KPEAVThreadInfo@@U?$less@_K@std@@V?$allocator@U?$pair@$$CB_KPEAVThreadInfo@@@std@@@3@$0A@@std@@@2@PEAU342@@Z PROC ; std::_Tree<std::_Tmap_traits<unsigned __int64,ThreadInfo * __ptr64,std::less<unsigned __int64>,std::allocator<std::pair<unsigned __int64 const ,ThreadInfo * __ptr64> >,0> >::_Left, COMDAT

; 167  : 		return ((_Nodepref)(*_Pnode)._Left);

	mov	rax, rcx

; 168  : 		}

	ret	0
?_Left@?$_Tree@V?$_Tmap_traits@_KPEAVThreadInfo@@U?$less@_K@std@@V?$allocator@U?$pair@$$CB_KPEAVThreadInfo@@@std@@@3@$0A@@std@@@std@@KAAEAPEAU_Node@?$_Tree_nod@V?$_Tmap_traits@_KPEAVThreadInfo@@U?$less@_K@std@@V?$allocator@U?$pair@$$CB_KPEAVThreadInfo@@@std@@@3@$0A@@std@@@2@PEAU342@@Z ENDP ; std::_Tree<std::_Tmap_traits<unsigned __int64,ThreadInfo * __ptr64,std::less<unsigned __int64>,std::allocator<std::pair<unsigned __int64 const ,ThreadInfo * __ptr64> >,0> >::_Left
; Function compile flags: /Ogtpy
; File c:\program files\microsoft visual studio 9.0\vc\include\xmemory
_TEXT	ENDS
;	COMDAT ?destroy@?$allocator@PEAU_Node@?$_Tree_nod@V?$_Tmap_traits@_KHU?$less@_K@std@@V?$allocator@U?$pair@$$CB_KH@std@@@2@$0A@@std@@@std@@@std@@QEAAXPEAPEAU_Node@?$_Tree_nod@V?$_Tmap_traits@_KHU?$less@_K@std@@V?$allocator@U?$pair@$$CB_KH@std@@@2@$0A@@std@@@2@@Z
_TEXT	SEGMENT
this$ = 8
_Ptr$ = 16
?destroy@?$allocator@PEAU_Node@?$_Tree_nod@V?$_Tmap_traits@_KHU?$less@_K@std@@V?$allocator@U?$pair@$$CB_KH@std@@@2@$0A@@std@@@std@@@std@@QEAAXPEAPEAU_Node@?$_Tree_nod@V?$_Tmap_traits@_KHU?$less@_K@std@@V?$allocator@U?$pair@$$CB_KH@std@@@2@$0A@@std@@@2@@Z PROC ; std::allocator<std::_Tree_nod<std::_Tmap_traits<unsigned __int64,int,std::less<unsigned __int64>,std::allocator<std::pair<unsigned __int64 const ,int> >,0> >::_Node * __ptr64>::destroy, COMDAT

; 160  : 		_Destroy(_Ptr);
; 161  : 		}

	ret	0
?destroy@?$allocator@PEAU_Node@?$_Tree_nod@V?$_Tmap_traits@_KHU?$less@_K@std@@V?$allocator@U?$pair@$$CB_KH@std@@@2@$0A@@std@@@std@@@std@@QEAAXPEAPEAU_Node@?$_Tree_nod@V?$_Tmap_traits@_KHU?$less@_K@std@@V?$allocator@U?$pair@$$CB_KH@std@@@2@$0A@@std@@@2@@Z ENDP ; std::allocator<std::_Tree_nod<std::_Tmap_traits<unsigned __int64,int,std::less<unsigned __int64>,std::allocator<std::pair<unsigned __int64 const ,int> >,0> >::_Node * __ptr64>::destroy
; Function compile flags: /Ogtpy
_TEXT	ENDS
;	COMDAT ?deallocate@?$allocator@U_Node@?$_Tree_nod@V?$_Tmap_traits@_KHU?$less@_K@std@@V?$allocator@U?$pair@$$CB_KH@std@@@2@$0A@@std@@@std@@@std@@QEAAXPEAU_Node@?$_Tree_nod@V?$_Tmap_traits@_KHU?$less@_K@std@@V?$allocator@U?$pair@$$CB_KH@std@@@2@$0A@@std@@@2@_K@Z
_TEXT	SEGMENT
this$ = 8
_Ptr$ = 16
__formal$ = 24
?deallocate@?$allocator@U_Node@?$_Tree_nod@V?$_Tmap_traits@_KHU?$less@_K@std@@V?$allocator@U?$pair@$$CB_KH@std@@@2@$0A@@std@@@std@@@std@@QEAAXPEAU_Node@?$_Tree_nod@V?$_Tmap_traits@_KHU?$less@_K@std@@V?$allocator@U?$pair@$$CB_KH@std@@@2@$0A@@std@@@2@_K@Z PROC ; std::allocator<std::_Tree_nod<std::_Tmap_traits<unsigned __int64,int,std::less<unsigned __int64>,std::allocator<std::pair<unsigned __int64 const ,int> >,0> >::_Node>::deallocate, COMDAT

; 140  : 		::operator delete(_Ptr);

	mov	rcx, rdx

; 141  : 		}

	jmp	??3@YAXPEAX@Z				; operator delete
?deallocate@?$allocator@U_Node@?$_Tree_nod@V?$_Tmap_traits@_KHU?$less@_K@std@@V?$allocator@U?$pair@$$CB_KH@std@@@2@$0A@@std@@@std@@@std@@QEAAXPEAU_Node@?$_Tree_nod@V?$_Tmap_traits@_KHU?$less@_K@std@@V?$allocator@U?$pair@$$CB_KH@std@@@2@$0A@@std@@@2@_K@Z ENDP ; std::allocator<std::_Tree_nod<std::_Tmap_traits<unsigned __int64,int,std::less<unsigned __int64>,std::allocator<std::pair<unsigned __int64 const ,int> >,0> >::_Node>::deallocate
; Function compile flags: /Ogtpy
; File c:\program files\microsoft visual studio 9.0\vc\include\xtree
_TEXT	ENDS
;	COMDAT ?_Right@?$_Tree@V?$_Tmap_traits@_KHU?$less@_K@std@@V?$allocator@U?$pair@$$CB_KH@std@@@2@$0A@@std@@@std@@KAAEAPEAU_Node@?$_Tree_nod@V?$_Tmap_traits@_KHU?$less@_K@std@@V?$allocator@U?$pair@$$CB_KH@std@@@2@$0A@@std@@@2@PEAU342@@Z
_TEXT	SEGMENT
_Pnode$ = 8
?_Right@?$_Tree@V?$_Tmap_traits@_KHU?$less@_K@std@@V?$allocator@U?$pair@$$CB_KH@std@@@2@$0A@@std@@@std@@KAAEAPEAU_Node@?$_Tree_nod@V?$_Tmap_traits@_KHU?$less@_K@std@@V?$allocator@U?$pair@$$CB_KH@std@@@2@$0A@@std@@@2@PEAU342@@Z PROC ; std::_Tree<std::_Tmap_traits<unsigned __int64,int,std::less<unsigned __int64>,std::allocator<std::pair<unsigned __int64 const ,int> >,0> >::_Right, COMDAT

; 177  : 		return ((_Nodepref)(*_Pnode)._Right);

	lea	rax, QWORD PTR [rcx+16]

; 178  : 		}

	ret	0
?_Right@?$_Tree@V?$_Tmap_traits@_KHU?$less@_K@std@@V?$allocator@U?$pair@$$CB_KH@std@@@2@$0A@@std@@@std@@KAAEAPEAU_Node@?$_Tree_nod@V?$_Tmap_traits@_KHU?$less@_K@std@@V?$allocator@U?$pair@$$CB_KH@std@@@2@$0A@@std@@@2@PEAU342@@Z ENDP ; std::_Tree<std::_Tmap_traits<unsigned __int64,int,std::less<unsigned __int64>,std::allocator<std::pair<unsigned __int64 const ,int> >,0> >::_Right
; Function compile flags: /Ogtpy
_TEXT	ENDS
;	COMDAT ?_Parent@?$_Tree@V?$_Tmap_traits@_KHU?$less@_K@std@@V?$allocator@U?$pair@$$CB_KH@std@@@2@$0A@@std@@@std@@KAAEAPEAU_Node@?$_Tree_nod@V?$_Tmap_traits@_KHU?$less@_K@std@@V?$allocator@U?$pair@$$CB_KH@std@@@2@$0A@@std@@@2@PEAU342@@Z
_TEXT	SEGMENT
_Pnode$ = 8
?_Parent@?$_Tree@V?$_Tmap_traits@_KHU?$less@_K@std@@V?$allocator@U?$pair@$$CB_KH@std@@@2@$0A@@std@@@std@@KAAEAPEAU_Node@?$_Tree_nod@V?$_Tmap_traits@_KHU?$less@_K@std@@V?$allocator@U?$pair@$$CB_KH@std@@@2@$0A@@std@@@2@PEAU342@@Z PROC ; std::_Tree<std::_Tmap_traits<unsigned __int64,int,std::less<unsigned __int64>,std::allocator<std::pair<unsigned __int64 const ,int> >,0> >::_Parent, COMDAT

; 172  : 		return ((_Nodepref)(*_Pnode)._Parent);

	lea	rax, QWORD PTR [rcx+8]

; 173  : 		}

	ret	0
?_Parent@?$_Tree@V?$_Tmap_traits@_KHU?$less@_K@std@@V?$allocator@U?$pair@$$CB_KH@std@@@2@$0A@@std@@@std@@KAAEAPEAU_Node@?$_Tree_nod@V?$_Tmap_traits@_KHU?$less@_K@std@@V?$allocator@U?$pair@$$CB_KH@std@@@2@$0A@@std@@@2@PEAU342@@Z ENDP ; std::_Tree<std::_Tmap_traits<unsigned __int64,int,std::less<unsigned __int64>,std::allocator<std::pair<unsigned __int64 const ,int> >,0> >::_Parent
; Function compile flags: /Ogtpy
_TEXT	ENDS
;	COMDAT ?_Left@?$_Tree@V?$_Tmap_traits@_KHU?$less@_K@std@@V?$allocator@U?$pair@$$CB_KH@std@@@2@$0A@@std@@@std@@KAAEAPEAU_Node@?$_Tree_nod@V?$_Tmap_traits@_KHU?$less@_K@std@@V?$allocator@U?$pair@$$CB_KH@std@@@2@$0A@@std@@@2@PEAU342@@Z
_TEXT	SEGMENT
_Pnode$ = 8
?_Left@?$_Tree@V?$_Tmap_traits@_KHU?$less@_K@std@@V?$allocator@U?$pair@$$CB_KH@std@@@2@$0A@@std@@@std@@KAAEAPEAU_Node@?$_Tree_nod@V?$_Tmap_traits@_KHU?$less@_K@std@@V?$allocator@U?$pair@$$CB_KH@std@@@2@$0A@@std@@@2@PEAU342@@Z PROC ; std::_Tree<std::_Tmap_traits<unsigned __int64,int,std::less<unsigned __int64>,std::allocator<std::pair<unsigned __int64 const ,int> >,0> >::_Left, COMDAT

; 167  : 		return ((_Nodepref)(*_Pnode)._Left);

	mov	rax, rcx

; 168  : 		}

	ret	0
?_Left@?$_Tree@V?$_Tmap_traits@_KHU?$less@_K@std@@V?$allocator@U?$pair@$$CB_KH@std@@@2@$0A@@std@@@std@@KAAEAPEAU_Node@?$_Tree_nod@V?$_Tmap_traits@_KHU?$less@_K@std@@V?$allocator@U?$pair@$$CB_KH@std@@@2@$0A@@std@@@2@PEAU342@@Z ENDP ; std::_Tree<std::_Tmap_traits<unsigned __int64,int,std::less<unsigned __int64>,std::allocator<std::pair<unsigned __int64 const ,int> >,0> >::_Left
; Function compile flags: /Ogtpy
; File c:\program files\microsoft visual studio 9.0\vc\include\xmemory
_TEXT	ENDS
;	COMDAT ?deallocate@?$allocator@V_Aux_cont@std@@@std@@QEAAXPEAV_Aux_cont@2@_K@Z
_TEXT	SEGMENT
this$ = 8
_Ptr$ = 16
__formal$ = 24
?deallocate@?$allocator@V_Aux_cont@std@@@std@@QEAAXPEAV_Aux_cont@2@_K@Z PROC ; std::allocator<std::_Aux_cont>::deallocate, COMDAT

; 140  : 		::operator delete(_Ptr);

	mov	rcx, rdx

; 141  : 		}

	jmp	??3@YAXPEAX@Z				; operator delete
?deallocate@?$allocator@V_Aux_cont@std@@@std@@QEAAXPEAV_Aux_cont@2@_K@Z ENDP ; std::allocator<std::_Aux_cont>::deallocate
_TEXT	ENDS
PUBLIC	rdtsc
; Function compile flags: /Ogtpy
; File c:\local\sharpdevelop_3.2.0.5777_source\src\addins\misc\profiler\hook\main.cpp
;	COMDAT rdtsc
_TEXT	SEGMENT
tsc$ = 8
rdtsc	PROC						; COMDAT

; 42   :  *tsc = __rdtsc();

	rdtsc
	shl	rdx, 32					; 00000020H
	or	rax, rdx
	mov	QWORD PTR [rcx], rax

; 43   :  return S_OK;

	xor	eax, eax

; 44   : }

	ret	0
rdtsc	ENDP
; Function compile flags: /Ogtpy
; File c:\local\sharpdevelop_3.2.0.5777_source\src\addins\misc\profiler\hook\criticalsection.h
_TEXT	ENDS
;	COMDAT ??1CriticalSection@@QEAA@XZ
_TEXT	SEGMENT
this$ = 8
??1CriticalSection@@QEAA@XZ PROC			; CriticalSection::~CriticalSection, COMDAT

; 24   : 		DeleteCriticalSection(&criticalSection);
; 25   : 	}

	rex_jmp	QWORD PTR __imp_DeleteCriticalSection
??1CriticalSection@@QEAA@XZ ENDP			; CriticalSection::~CriticalSection
_TEXT	ENDS
;	COMDAT pdata
pdata	SEGMENT
$pdata$??0logic_error@std@@QEAA@AEBV01@@Z DD imagerel $LN5
	DD	imagerel $LN5+76
	DD	imagerel $unwind$??0logic_error@std@@QEAA@AEBV01@@Z
pdata	ENDS
;	COMDAT pdata
pdata	SEGMENT
$pdata$?dtor$0@?0???0logic_error@std@@QEAA@AEBV01@@Z@4HA DD imagerel ?dtor$0@?0???0logic_error@std@@QEAA@AEBV01@@Z@4HA
	DD	imagerel ?dtor$0@?0???0logic_error@std@@QEAA@AEBV01@@Z@4HA+25
	DD	imagerel $unwind$?dtor$0@?0???0logic_error@std@@QEAA@AEBV01@@Z@4HA
pdata	ENDS
;	COMDAT xdata
xdata	SEGMENT
$ip2state$??0logic_error@std@@QEAA@AEBV01@@Z DD imagerel ??0logic_error@std@@QEAA@AEBV01@@Z
	DD	0ffffffffH
	DD	imagerel ??0logic_error@std@@QEAA@AEBV01@@Z+37
	DD	00H
	DD	imagerel ??0logic_error@std@@QEAA@AEBV01@@Z+62
	DD	0ffffffffH
xdata	ENDS
;	COMDAT xdata
xdata	SEGMENT
$unwind$?dtor$0@?0???0logic_error@std@@QEAA@AEBV01@@Z@4HA DD 020601H
	DD	050023206H
xdata	ENDS
;	COMDAT xdata
xdata	SEGMENT
$unwind$??0logic_error@std@@QEAA@AEBV01@@Z DD 041811H
	DD	093418H
	DD	07006520aH
	DD	imagerel __CxxFrameHandler3
	DD	imagerel $cppxdata$??0logic_error@std@@QEAA@AEBV01@@Z
xdata	ENDS
;	COMDAT CONST
CONST	SEGMENT
$cppxdata$??0logic_error@std@@QEAA@AEBV01@@Z DD 019930522H
	DD	01H
	DD	imagerel $stateUnwindMap$??0logic_error@std@@QEAA@AEBV01@@Z
	DD	00H
	DD	00H
	DD	03H
	DD	imagerel $ip2state$??0logic_error@std@@QEAA@AEBV01@@Z
	DD	020H
	DD	00H
	DD	01H
CONST	ENDS
;	COMDAT xdata
xdata	SEGMENT
$stateUnwindMap$??0logic_error@std@@QEAA@AEBV01@@Z DD 0ffffffffH
	DD	imagerel ?dtor$0@?0???0logic_error@std@@QEAA@AEBV01@@Z@4HA
; Function compile flags: /Ogtpy
xdata	ENDS
;	COMDAT ??0logic_error@std@@QEAA@AEBV01@@Z
_TEXT	SEGMENT
$T145310 = 32
this$ = 64
__that$ = 72
??0logic_error@std@@QEAA@AEBV01@@Z PROC			; std::logic_error::logic_error, COMDAT
$LN5:
	mov	QWORD PTR [rsp+8], rcx
	push	rdi
	sub	rsp, 48					; 00000030H
	mov	QWORD PTR $T145310[rsp], -2
	mov	QWORD PTR [rsp+72], rbx
	mov	rbx, rdx
	mov	rdi, rcx
	call	QWORD PTR __imp_??0exception@std@@QEAA@AEBV01@@Z
	npad	1
	lea	rax, OFFSET FLAT:??_7logic_error@std@@6B@
	mov	QWORD PTR [rdi], rax
	lea	rdx, QWORD PTR [rbx+24]
	lea	rcx, QWORD PTR [rdi+24]
	call	QWORD PTR __imp_??0?$basic_string@DU?$char_traits@D@std@@V?$allocator@D@2@@std@@QEAA@AEBV01@@Z
	npad	1
	mov	rax, rdi
	mov	rbx, QWORD PTR [rsp+72]
	add	rsp, 48					; 00000030H
	pop	rdi
	ret	0
??0logic_error@std@@QEAA@AEBV01@@Z ENDP			; std::logic_error::logic_error
; Function compile flags: /Ogtpy
_TEXT	ENDS
;	COMDAT text$x
text$x	SEGMENT
$T145310 = 32
this$ = 64
__that$ = 72
?dtor$0@?0???0logic_error@std@@QEAA@AEBV01@@Z@4HA PROC	; `std::logic_error::logic_error'::`1'::dtor$0
	push	rbp
	sub	rsp, 32					; 00000020H
	mov	rbp, rdx
	mov	rcx, QWORD PTR this$[rbp]
	call	QWORD PTR __imp_??1exception@std@@UEAA@XZ
	add	rsp, 32					; 00000020H
	pop	rbp
	ret	0
?dtor$0@?0???0logic_error@std@@QEAA@AEBV01@@Z@4HA ENDP	; `std::logic_error::logic_error'::`1'::dtor$0
; Function compile flags: /Ogtpy
; File c:\program files\microsoft visual studio 9.0\vc\include\stdexcept
text$x	ENDS
;	COMDAT ?what@logic_error@std@@UEBAPEBDXZ
_TEXT	SEGMENT
this$ = 8
?what@logic_error@std@@UEBAPEBDXZ PROC			; std::logic_error::what, COMDAT

; 35   : 		return (_Str.c_str());

	cmp	QWORD PTR [rcx+56], 16
	jb	SHORT $LN7@what
	mov	rax, QWORD PTR [rcx+32]

; 36   : 		}

	ret	0

; 35   : 		return (_Str.c_str());

$LN7@what:
	lea	rax, QWORD PTR [rcx+32]

; 36   : 		}

	ret	0
?what@logic_error@std@@UEBAPEBDXZ ENDP			; std::logic_error::what
_TEXT	ENDS
;	COMDAT pdata
pdata	SEGMENT
$pdata$??1logic_error@std@@UEAA@XZ DD imagerel $LN3
	DD	imagerel $LN3+45
	DD	imagerel $unwind$??1logic_error@std@@UEAA@XZ
pdata	ENDS
;	COMDAT xdata
xdata	SEGMENT
$unwind$??1logic_error@std@@UEAA@XZ DD 020601H
	DD	030023206H
; Function compile flags: /Ogtpy
xdata	ENDS
;	COMDAT ??1logic_error@std@@UEAA@XZ
_TEXT	SEGMENT
this$ = 48
??1logic_error@std@@UEAA@XZ PROC			; std::logic_error::~logic_error, COMDAT

; 30   : 		{	// destroy the object

$LN3:
	push	rbx
	sub	rsp, 32					; 00000020H
	lea	rax, OFFSET FLAT:??_7logic_error@std@@6B@
	mov	rbx, rcx

; 31   : 		}

	add	rcx, 24
	mov	QWORD PTR [rcx-24], rax
	call	QWORD PTR __imp_??1?$basic_string@DU?$char_traits@D@std@@V?$allocator@D@2@@std@@QEAA@XZ
	mov	rcx, rbx
	add	rsp, 32					; 00000020H
	pop	rbx
	rex_jmp	QWORD PTR __imp_??1exception@std@@UEAA@XZ
??1logic_error@std@@UEAA@XZ ENDP			; std::logic_error::~logic_error
_TEXT	ENDS
;	COMDAT pdata
pdata	SEGMENT
$pdata$??0logic_error@std@@QEAA@AEBV?$basic_string@DU?$char_traits@D@std@@V?$allocator@D@2@@1@@Z DD imagerel $LN5
	DD	imagerel $LN5+75
	DD	imagerel $unwind$??0logic_error@std@@QEAA@AEBV?$basic_string@DU?$char_traits@D@std@@V?$allocator@D@2@@1@@Z
pdata	ENDS
;	COMDAT pdata
pdata	SEGMENT
$pdata$?dtor$0@?0???0logic_error@std@@QEAA@AEBV?$basic_string@DU?$char_traits@D@std@@V?$allocator@D@2@@1@@Z@4HA DD imagerel ?dtor$0@?0???0logic_error@std@@QEAA@AEBV?$basic_string@DU?$char_traits@D@std@@V?$allocator@D@2@@1@@Z@4HA
	DD	imagerel ?dtor$0@?0???0logic_error@std@@QEAA@AEBV?$basic_string@DU?$char_traits@D@std@@V?$allocator@D@2@@1@@Z@4HA+25
	DD	imagerel $unwind$?dtor$0@?0???0logic_error@std@@QEAA@AEBV?$basic_string@DU?$char_traits@D@std@@V?$allocator@D@2@@1@@Z@4HA
pdata	ENDS
;	COMDAT xdata
xdata	SEGMENT
$ip2state$??0logic_error@std@@QEAA@AEBV?$basic_string@DU?$char_traits@D@std@@V?$allocator@D@2@@1@@Z DD imagerel ??0logic_error@std@@QEAA@AEBV?$basic_string@DU?$char_traits@D@std@@V?$allocator@D@2@@1@@Z
	DD	0ffffffffH
	DD	imagerel ??0logic_error@std@@QEAA@AEBV?$basic_string@DU?$char_traits@D@std@@V?$allocator@D@2@@1@@Z+37
	DD	00H
	DD	imagerel ??0logic_error@std@@QEAA@AEBV?$basic_string@DU?$char_traits@D@std@@V?$allocator@D@2@@1@@Z+61
	DD	0ffffffffH
xdata	ENDS
;	COMDAT xdata
xdata	SEGMENT
$unwind$?dtor$0@?0???0logic_error@std@@QEAA@AEBV?$basic_string@DU?$char_traits@D@std@@V?$allocator@D@2@@1@@Z@4HA DD 020601H
	DD	050023206H
xdata	ENDS
;	COMDAT xdata
xdata	SEGMENT
$unwind$??0logic_error@std@@QEAA@AEBV?$basic_string@DU?$char_traits@D@std@@V?$allocator@D@2@@1@@Z DD 041811H
	DD	093418H
	DD	07006520aH
	DD	imagerel __CxxFrameHandler3
	DD	imagerel $cppxdata$??0logic_error@std@@QEAA@AEBV?$basic_string@DU?$char_traits@D@std@@V?$allocator@D@2@@1@@Z
xdata	ENDS
;	COMDAT CONST
CONST	SEGMENT
$cppxdata$??0logic_error@std@@QEAA@AEBV?$basic_string@DU?$char_traits@D@std@@V?$allocator@D@2@@1@@Z DD 019930522H
	DD	01H
	DD	imagerel $stateUnwindMap$??0logic_error@std@@QEAA@AEBV?$basic_string@DU?$char_traits@D@std@@V?$allocator@D@2@@1@@Z
	DD	00H
	DD	00H
	DD	03H
	DD	imagerel $ip2state$??0logic_error@std@@QEAA@AEBV?$basic_string@DU?$char_traits@D@std@@V?$allocator@D@2@@1@@Z
	DD	020H
	DD	00H
	DD	01H
CONST	ENDS
;	COMDAT xdata
xdata	SEGMENT
$stateUnwindMap$??0logic_error@std@@QEAA@AEBV?$basic_string@DU?$char_traits@D@std@@V?$allocator@D@2@@1@@Z DD 0ffffffffH
	DD	imagerel ?dtor$0@?0???0logic_error@std@@QEAA@AEBV?$basic_string@DU?$char_traits@D@std@@V?$allocator@D@2@@1@@Z@4HA
; Function compile flags: /Ogtpy
xdata	ENDS
;	COMDAT ??0logic_error@std@@QEAA@AEBV?$basic_string@DU?$char_traits@D@std@@V?$allocator@D@2@@1@@Z
_TEXT	SEGMENT
$T145372 = 32
this$ = 64
_Message$ = 72
??0logic_error@std@@QEAA@AEBV?$basic_string@DU?$char_traits@D@std@@V?$allocator@D@2@@1@@Z PROC ; std::logic_error::logic_error, COMDAT

; 26   : 		{	// construct from message string

$LN5:
	mov	QWORD PTR [rsp+8], rcx
	push	rdi
	sub	rsp, 48					; 00000030H
	mov	QWORD PTR $T145372[rsp], -2
	mov	QWORD PTR [rsp+72], rbx
	mov	rbx, rdx
	mov	rdi, rcx
	call	QWORD PTR __imp_??0exception@std@@QEAA@XZ
	npad	1
	lea	rax, OFFSET FLAT:??_7logic_error@std@@6B@
	mov	QWORD PTR [rdi], rax
	lea	rcx, QWORD PTR [rdi+24]
	mov	rdx, rbx
	call	QWORD PTR __imp_??0?$basic_string@DU?$char_traits@D@std@@V?$allocator@D@2@@std@@QEAA@AEBV01@@Z
	npad	1

; 27   : 		}

	mov	rax, rdi
	mov	rbx, QWORD PTR [rsp+72]
	add	rsp, 48					; 00000030H
	pop	rdi
	ret	0
??0logic_error@std@@QEAA@AEBV?$basic_string@DU?$char_traits@D@std@@V?$allocator@D@2@@1@@Z ENDP ; std::logic_error::logic_error
; Function compile flags: /Ogtpy
_TEXT	ENDS
;	COMDAT text$x
text$x	SEGMENT
$T145372 = 32
this$ = 64
_Message$ = 72
?dtor$0@?0???0logic_error@std@@QEAA@AEBV?$basic_string@DU?$char_traits@D@std@@V?$allocator@D@2@@1@@Z@4HA PROC ; `std::logic_error::logic_error'::`1'::dtor$0
	push	rbp
	sub	rsp, 32					; 00000020H
	mov	rbp, rdx
	mov	rcx, QWORD PTR this$[rbp]
	call	QWORD PTR __imp_??1exception@std@@UEAA@XZ
	add	rsp, 32					; 00000020H
	pop	rbp
	ret	0
?dtor$0@?0???0logic_error@std@@QEAA@AEBV?$basic_string@DU?$char_traits@D@std@@V?$allocator@D@2@@1@@Z@4HA ENDP ; `std::logic_error::logic_error'::`1'::dtor$0
; Function compile flags: /Ogtpy
; File c:\program files\microsoft visual studio 9.0\vc\include\xutility
text$x	ENDS
;	COMDAT ?_Has_container@_Iterator_base_aux@std@@QEBA_NXZ
_TEXT	SEGMENT
this$ = 8
?_Has_container@_Iterator_base_aux@std@@QEBA_NXZ PROC	; std::_Iterator_base_aux::_Has_container, COMDAT

; 468  : 		return _Myaux != 0;

	xor	eax, eax
	cmp	QWORD PTR [rcx], rax
	setne	al

; 469  : 		}

	ret	0
?_Has_container@_Iterator_base_aux@std@@QEBA_NXZ ENDP	; std::_Iterator_base_aux::_Has_container
; Function compile flags: /Ogtpy
_TEXT	ENDS
;	COMDAT ?_Same_container@_Iterator_base_aux@std@@QEBA_NAEBV12@@Z
_TEXT	SEGMENT
this$ = 8
_Other$ = 16
?_Same_container@_Iterator_base_aux@std@@QEBA_NAEBV12@@Z PROC ; std::_Iterator_base_aux::_Same_container, COMDAT

; 463  : 		return _Myaux == _Other._Myaux;

	mov	rdx, QWORD PTR [rdx]
	cmp	QWORD PTR [rcx], rdx
	sete	al

; 464  : 		}

	ret	0
?_Same_container@_Iterator_base_aux@std@@QEBA_NAEBV12@@Z ENDP ; std::_Iterator_base_aux::_Same_container
; Function compile flags: /Ogtpy
_TEXT	ENDS
;	COMDAT ?_Set_container@_Iterator_base_aux@std@@QEAAXQEBV_Container_base_aux@2@@Z
_TEXT	SEGMENT
this$ = 8
_Pcont$ = 16
?_Set_container@_Iterator_base_aux@std@@QEAAXQEBV_Container_base_aux@2@@Z PROC ; std::_Iterator_base_aux::_Set_container, COMDAT

; 453  : 		_Myaux = _Pcont->_Myownedaux;

	mov	rax, QWORD PTR [rdx]
	mov	QWORD PTR [rcx], rax

; 454  : 		}

	ret	0
?_Set_container@_Iterator_base_aux@std@@QEAAXQEBV_Container_base_aux@2@@Z ENDP ; std::_Iterator_base_aux::_Set_container
; Function compile flags: /Ogtpy
_TEXT	ENDS
;	COMDAT ??0_Iterator_base_aux@std@@QEAA@XZ
_TEXT	SEGMENT
this$ = 8
??0_Iterator_base_aux@std@@QEAA@XZ PROC			; std::_Iterator_base_aux::_Iterator_base_aux, COMDAT

; 448  : 	_Iterator_base_aux()

	mov	QWORD PTR [rcx], 0
	mov	rax, rcx
	ret	0
??0_Iterator_base_aux@std@@QEAA@XZ ENDP			; std::_Iterator_base_aux::_Iterator_base_aux
; Function compile flags: /Ogtpy
_TEXT	ENDS
;	COMDAT ??1_Container_base_aux@std@@QEAA@XZ
_TEXT	SEGMENT
this$ = 8
??1_Container_base_aux@std@@QEAA@XZ PROC		; std::_Container_base_aux::~_Container_base_aux, COMDAT

; 403  : 		// Do nothing: ~_Container_base_aux_alloc_real() previously destroyed the aux object.
; 404  : 		}

	ret	0
??1_Container_base_aux@std@@QEAA@XZ ENDP		; std::_Container_base_aux::~_Container_base_aux
; Function compile flags: /Ogtpy
;	COMDAT ??0?$_Iterator_with_base@Ubidirectional_iterator_tag@std@@U?$pair@$$CBKPEAVThreadInfo@@@2@_JPEBU32@AEBU32@V_Iterator_base_aux@2@@std@@QEAA@XZ
_TEXT	SEGMENT
this$ = 8
??0?$_Iterator_with_base@Ubidirectional_iterator_tag@std@@U?$pair@$$CBKPEAVThreadInfo@@@2@_JPEBU32@AEBU32@V_Iterator_base_aux@2@@std@@QEAA@XZ PROC ; std::_Iterator_with_base<std::bidirectional_iterator_tag,std::pair<unsigned long const ,ThreadInfo * __ptr64>,__int64,std::pair<unsigned long const ,ThreadInfo * __ptr64> const * __ptr64,std::pair<unsigned long const ,ThreadInfo * __ptr64> const & __ptr64,std::_Iterator_base_aux>::_Iterator_with_base<std::bidirectional_iterator_tag,std::pair<unsigned long const ,ThreadInfo * __ptr64>,__int64,std::pair<unsigned long const ,ThreadInfo * __ptr64> const * __ptr64,std::pair<unsigned long const ,ThreadInfo * __ptr64> const & __ptr64,std::_Iterator_base_aux>, COMDAT
	mov	QWORD PTR [rcx], 0
	mov	rax, rcx
	ret	0
??0?$_Iterator_with_base@Ubidirectional_iterator_tag@std@@U?$pair@$$CBKPEAVThreadInfo@@@2@_JPEBU32@AEBU32@V_Iterator_base_aux@2@@std@@QEAA@XZ ENDP ; std::_Iterator_with_base<std::bidirectional_iterator_tag,std::pair<unsigned long const ,ThreadInfo * __ptr64>,__int64,std::pair<unsigned long const ,ThreadInfo * __ptr64> const * __ptr64,std::pair<unsigned long const ,ThreadInfo * __ptr64> const & __ptr64,std::_Iterator_base_aux>::_Iterator_with_base<std::bidirectional_iterator_tag,std::pair<unsigned long const ,ThreadInfo * __ptr64>,__int64,std::pair<unsigned long const ,ThreadInfo * __ptr64> const * __ptr64,std::pair<unsigned long const ,ThreadInfo * __ptr64> const & __ptr64,std::_Iterator_base_aux>
; Function compile flags: /Ogtpy
_TEXT	ENDS
;	COMDAT ??0?$_Iterator_with_base@Ubidirectional_iterator_tag@std@@U?$pair@$$CB_KPEAVThreadInfo@@@2@_JPEBU32@AEBU32@V_Iterator_base_aux@2@@std@@QEAA@XZ
_TEXT	SEGMENT
this$ = 8
??0?$_Iterator_with_base@Ubidirectional_iterator_tag@std@@U?$pair@$$CB_KPEAVThreadInfo@@@2@_JPEBU32@AEBU32@V_Iterator_base_aux@2@@std@@QEAA@XZ PROC ; std::_Iterator_with_base<std::bidirectional_iterator_tag,std::pair<unsigned __int64 const ,ThreadInfo * __ptr64>,__int64,std::pair<unsigned __int64 const ,ThreadInfo * __ptr64> const * __ptr64,std::pair<unsigned __int64 const ,ThreadInfo * __ptr64> const & __ptr64,std::_Iterator_base_aux>::_Iterator_with_base<std::bidirectional_iterator_tag,std::pair<unsigned __int64 const ,ThreadInfo * __ptr64>,__int64,std::pair<unsigned __int64 const ,ThreadInfo * __ptr64> const * __ptr64,std::pair<unsigned __int64 const ,ThreadInfo * __ptr64> const & __ptr64,std::_Iterator_base_aux>, COMDAT
	mov	QWORD PTR [rcx], 0
	mov	rax, rcx
	ret	0
??0?$_Iterator_with_base@Ubidirectional_iterator_tag@std@@U?$pair@$$CB_KPEAVThreadInfo@@@2@_JPEBU32@AEBU32@V_Iterator_base_aux@2@@std@@QEAA@XZ ENDP ; std::_Iterator_with_base<std::bidirectional_iterator_tag,std::pair<unsigned __int64 const ,ThreadInfo * __ptr64>,__int64,std::pair<unsigned __int64 const ,ThreadInfo * __ptr64> const * __ptr64,std::pair<unsigned __int64 const ,ThreadInfo * __ptr64> const & __ptr64,std::_Iterator_base_aux>::_Iterator_with_base<std::bidirectional_iterator_tag,std::pair<unsigned __int64 const ,ThreadInfo * __ptr64>,__int64,std::pair<unsigned __int64 const ,ThreadInfo * __ptr64> const * __ptr64,std::pair<unsigned __int64 const ,ThreadInfo * __ptr64> const & __ptr64,std::_Iterator_base_aux>
; Function compile flags: /Ogtpy
_TEXT	ENDS
;	COMDAT ??0?$_Iterator_with_base@Ubidirectional_iterator_tag@std@@U?$pair@$$CB_KH@2@_JPEBU32@AEBU32@V_Iterator_base_aux@2@@std@@QEAA@XZ
_TEXT	SEGMENT
this$ = 8
??0?$_Iterator_with_base@Ubidirectional_iterator_tag@std@@U?$pair@$$CB_KH@2@_JPEBU32@AEBU32@V_Iterator_base_aux@2@@std@@QEAA@XZ PROC ; std::_Iterator_with_base<std::bidirectional_iterator_tag,std::pair<unsigned __int64 const ,int>,__int64,std::pair<unsigned __int64 const ,int> const * __ptr64,std::pair<unsigned __int64 const ,int> const & __ptr64,std::_Iterator_base_aux>::_Iterator_with_base<std::bidirectional_iterator_tag,std::pair<unsigned __int64 const ,int>,__int64,std::pair<unsigned __int64 const ,int> const * __ptr64,std::pair<unsigned __int64 const ,int> const & __ptr64,std::_Iterator_base_aux>, COMDAT
	mov	QWORD PTR [rcx], 0
	mov	rax, rcx
	ret	0
??0?$_Iterator_with_base@Ubidirectional_iterator_tag@std@@U?$pair@$$CB_KH@2@_JPEBU32@AEBU32@V_Iterator_base_aux@2@@std@@QEAA@XZ ENDP ; std::_Iterator_with_base<std::bidirectional_iterator_tag,std::pair<unsigned __int64 const ,int>,__int64,std::pair<unsigned __int64 const ,int> const * __ptr64,std::pair<unsigned __int64 const ,int> const & __ptr64,std::_Iterator_base_aux>::_Iterator_with_base<std::bidirectional_iterator_tag,std::pair<unsigned __int64 const ,int>,__int64,std::pair<unsigned __int64 const ,int> const * __ptr64,std::pair<unsigned __int64 const ,int> const & __ptr64,std::_Iterator_base_aux>
; Function compile flags: /Ogtpy
_TEXT	ENDS
;	COMDAT ??0?$_Bidit@U?$pair@$$CBKPEAVThreadInfo@@@std@@_JPEBU12@AEBU12@@std@@QEAA@XZ
_TEXT	SEGMENT
this$ = 8
??0?$_Bidit@U?$pair@$$CBKPEAVThreadInfo@@@std@@_JPEBU12@AEBU12@@std@@QEAA@XZ PROC ; std::_Bidit<std::pair<unsigned long const ,ThreadInfo * __ptr64>,__int64,std::pair<unsigned long const ,ThreadInfo * __ptr64> const * __ptr64,std::pair<unsigned long const ,ThreadInfo * __ptr64> const & __ptr64>::_Bidit<std::pair<unsigned long const ,ThreadInfo * __ptr64>,__int64,std::pair<unsigned long const ,ThreadInfo * __ptr64> const * __ptr64,std::pair<unsigned long const ,ThreadInfo * __ptr64> const & __ptr64>, COMDAT
	mov	QWORD PTR [rcx], 0
	mov	rax, rcx
	ret	0
??0?$_Bidit@U?$pair@$$CBKPEAVThreadInfo@@@std@@_JPEBU12@AEBU12@@std@@QEAA@XZ ENDP ; std::_Bidit<std::pair<unsigned long const ,ThreadInfo * __ptr64>,__int64,std::pair<unsigned long const ,ThreadInfo * __ptr64> const * __ptr64,std::pair<unsigned long const ,ThreadInfo * __ptr64> const & __ptr64>::_Bidit<std::pair<unsigned long const ,ThreadInfo * __ptr64>,__int64,std::pair<unsigned long const ,ThreadInfo * __ptr64> const * __ptr64,std::pair<unsigned long const ,ThreadInfo * __ptr64> const & __ptr64>
; Function compile flags: /Ogtpy
_TEXT	ENDS
;	COMDAT ??0?$_Bidit@U?$pair@$$CB_KPEAVThreadInfo@@@std@@_JPEBU12@AEBU12@@std@@QEAA@XZ
_TEXT	SEGMENT
this$ = 8
??0?$_Bidit@U?$pair@$$CB_KPEAVThreadInfo@@@std@@_JPEBU12@AEBU12@@std@@QEAA@XZ PROC ; std::_Bidit<std::pair<unsigned __int64 const ,ThreadInfo * __ptr64>,__int64,std::pair<unsigned __int64 const ,ThreadInfo * __ptr64> const * __ptr64,std::pair<unsigned __int64 const ,ThreadInfo * __ptr64> const & __ptr64>::_Bidit<std::pair<unsigned __int64 const ,ThreadInfo * __ptr64>,__int64,std::pair<unsigned __int64 const ,ThreadInfo * __ptr64> const * __ptr64,std::pair<unsigned __int64 const ,ThreadInfo * __ptr64> const & __ptr64>, COMDAT
	mov	QWORD PTR [rcx], 0
	mov	rax, rcx
	ret	0
??0?$_Bidit@U?$pair@$$CB_KPEAVThreadInfo@@@std@@_JPEBU12@AEBU12@@std@@QEAA@XZ ENDP ; std::_Bidit<std::pair<unsigned __int64 const ,ThreadInfo * __ptr64>,__int64,std::pair<unsigned __int64 const ,ThreadInfo * __ptr64> const * __ptr64,std::pair<unsigned __int64 const ,ThreadInfo * __ptr64> const & __ptr64>::_Bidit<std::pair<unsigned __int64 const ,ThreadInfo * __ptr64>,__int64,std::pair<unsigned __int64 const ,ThreadInfo * __ptr64> const * __ptr64,std::pair<unsigned __int64 const ,ThreadInfo * __ptr64> const & __ptr64>
; Function compile flags: /Ogtpy
_TEXT	ENDS
;	COMDAT ??0?$_Bidit@U?$pair@$$CB_KH@std@@_JPEBU12@AEBU12@@std@@QEAA@XZ
_TEXT	SEGMENT
this$ = 8
??0?$_Bidit@U?$pair@$$CB_KH@std@@_JPEBU12@AEBU12@@std@@QEAA@XZ PROC ; std::_Bidit<std::pair<unsigned __int64 const ,int>,__int64,std::pair<unsigned __int64 const ,int> const * __ptr64,std::pair<unsigned __int64 const ,int> const & __ptr64>::_Bidit<std::pair<unsigned __int64 const ,int>,__int64,std::pair<unsigned __int64 const ,int> const * __ptr64,std::pair<unsigned __int64 const ,int> const & __ptr64>, COMDAT
	mov	QWORD PTR [rcx], 0
	mov	rax, rcx
	ret	0
??0?$_Bidit@U?$pair@$$CB_KH@std@@_JPEBU12@AEBU12@@std@@QEAA@XZ ENDP ; std::_Bidit<std::pair<unsigned __int64 const ,int>,__int64,std::pair<unsigned __int64 const ,int> const * __ptr64,std::pair<unsigned __int64 const ,int> const & __ptr64>::_Bidit<std::pair<unsigned __int64 const ,int>,__int64,std::pair<unsigned __int64 const ,int> const * __ptr64,std::pair<unsigned __int64 const ,int> const & __ptr64>
_TEXT	ENDS
;	COMDAT pdata
pdata	SEGMENT
$pdata$??0const_iterator@?$_Tree@V?$_Tmap_traits@KPEAVThreadInfo@@U?$less@K@std@@V?$allocator@U?$pair@$$CBKPEAVThreadInfo@@@std@@@3@$0A@@std@@@std@@QEAA@PEAU_Node@?$_Tree_nod@V?$_Tmap_traits@KPEAVThreadInfo@@U?$less@K@std@@V?$allocator@U?$pair@$$CBKPEAVThreadInfo@@@std@@@3@$0A@@std@@@2@PEBV12@@Z DD imagerel $LN15
	DD	imagerel $LN15+58
	DD	imagerel $unwind$??0const_iterator@?$_Tree@V?$_Tmap_traits@KPEAVThreadInfo@@U?$less@K@std@@V?$allocator@U?$pair@$$CBKPEAVThreadInfo@@@std@@@3@$0A@@std@@@std@@QEAA@PEAU_Node@?$_Tree_nod@V?$_Tmap_traits@KPEAVThreadInfo@@U?$less@K@std@@V?$allocator@U?$pair@$$CBKPEAVThreadInfo@@@std@@@3@$0A@@std@@@2@PEBV12@@Z
pdata	ENDS
;	COMDAT xdata
xdata	SEGMENT
$unwind$??0const_iterator@?$_Tree@V?$_Tmap_traits@KPEAVThreadInfo@@U?$less@K@std@@V?$allocator@U?$pair@$$CBKPEAVThreadInfo@@@std@@@3@$0A@@std@@@std@@QEAA@PEAU_Node@?$_Tree_nod@V?$_Tmap_traits@KPEAVThreadInfo@@U?$less@K@std@@V?$allocator@U?$pair@$$CBKPEAVThreadInfo@@@std@@@3@$0A@@std@@@2@PEBV12@@Z DD 040a01H
	DD	06340aH
	DD	07006320aH
; Function compile flags: /Ogtpy
; File c:\program files\microsoft visual studio 9.0\vc\include\xtree
xdata	ENDS
;	COMDAT ??0const_iterator@?$_Tree@V?$_Tmap_traits@KPEAVThreadInfo@@U?$less@K@std@@V?$allocator@U?$pair@$$CBKPEAVThreadInfo@@@std@@@3@$0A@@std@@@std@@QEAA@PEAU_Node@?$_Tree_nod@V?$_Tmap_traits@KPEAVThreadInfo@@U?$less@K@std@@V?$allocator@U?$pair@$$CBKPEAVThreadInfo@@@std@@@3@$0A@@std@@@2@PEBV12@@Z
_TEXT	SEGMENT
this$ = 48
_Pnode$ = 56
_Plist$ = 64
??0const_iterator@?$_Tree@V?$_Tmap_traits@KPEAVThreadInfo@@U?$less@K@std@@V?$allocator@U?$pair@$$CBKPEAVThreadInfo@@@std@@@3@$0A@@std@@@std@@QEAA@PEAU_Node@?$_Tree_nod@V?$_Tmap_traits@KPEAVThreadInfo@@U?$less@K@std@@V?$allocator@U?$pair@$$CBKPEAVThreadInfo@@@std@@@3@$0A@@std@@@2@PEBV12@@Z PROC ; std::_Tree<std::_Tmap_traits<unsigned long,ThreadInfo * __ptr64,std::less<unsigned long>,std::allocator<std::pair<unsigned long const ,ThreadInfo * __ptr64> >,0> >::const_iterator::const_iterator, COMDAT

; 234  : 			{	// construct with node pointer _Pnode

$LN15:
	mov	QWORD PTR [rsp+8], rbx
	push	rdi
	sub	rsp, 32					; 00000020H
	mov	rdi, r8
	mov	rbx, rcx
	mov	QWORD PTR [rcx], 0
	mov	QWORD PTR [rcx+8], rdx

; 235  : 			_SCL_SECURE_VALIDATE(_Plist != NULL);

	test	r8, r8
	jne	SHORT $LN3@const_iter
	call	QWORD PTR __imp__invalid_parameter_noinfo
$LN3@const_iter:

; 236  : 			this->_Set_container(_Plist);

	mov	rax, QWORD PTR [rdi]
	mov	QWORD PTR [rbx], rax

; 237  : 			}

	mov	rax, rbx
	mov	rbx, QWORD PTR [rsp+48]
	add	rsp, 32					; 00000020H
	pop	rdi
	ret	0
??0const_iterator@?$_Tree@V?$_Tmap_traits@KPEAVThreadInfo@@U?$less@K@std@@V?$allocator@U?$pair@$$CBKPEAVThreadInfo@@@std@@@3@$0A@@std@@@std@@QEAA@PEAU_Node@?$_Tree_nod@V?$_Tmap_traits@KPEAVThreadInfo@@U?$less@K@std@@V?$allocator@U?$pair@$$CBKPEAVThreadInfo@@@std@@@3@$0A@@std@@@2@PEBV12@@Z ENDP ; std::_Tree<std::_Tmap_traits<unsigned long,ThreadInfo * __ptr64,std::less<unsigned long>,std::allocator<std::pair<unsigned long const ,ThreadInfo * __ptr64> >,0> >::const_iterator::const_iterator
_TEXT	ENDS
;	COMDAT pdata
; File c:\program files\microsoft visual studio 9.0\vc\include\xutility
pdata	SEGMENT
$pdata$??0const_iterator@?$_Tree@V?$_Tmap_traits@_KPEAVThreadInfo@@U?$less@_K@std@@V?$allocator@U?$pair@$$CB_KPEAVThreadInfo@@@std@@@3@$0A@@std@@@std@@QEAA@PEAU_Node@?$_Tree_nod@V?$_Tmap_traits@_KPEAVThreadInfo@@U?$less@_K@std@@V?$allocator@U?$pair@$$CB_KPEAVThreadInfo@@@std@@@3@$0A@@std@@@2@PEBV12@@Z DD imagerel $LN15
	DD	imagerel $LN15+58
	DD	imagerel $unwind$??0const_iterator@?$_Tree@V?$_Tmap_traits@_KPEAVThreadInfo@@U?$less@_K@std@@V?$allocator@U?$pair@$$CB_KPEAVThreadInfo@@@std@@@3@$0A@@std@@@std@@QEAA@PEAU_Node@?$_Tree_nod@V?$_Tmap_traits@_KPEAVThreadInfo@@U?$less@_K@std@@V?$allocator@U?$pair@$$CB_KPEAVThreadInfo@@@std@@@3@$0A@@std@@@2@PEBV12@@Z
pdata	ENDS
;	COMDAT xdata
xdata	SEGMENT
$unwind$??0const_iterator@?$_Tree@V?$_Tmap_traits@_KPEAVThreadInfo@@U?$less@_K@std@@V?$allocator@U?$pair@$$CB_KPEAVThreadInfo@@@std@@@3@$0A@@std@@@std@@QEAA@PEAU_Node@?$_Tree_nod@V?$_Tmap_traits@_KPEAVThreadInfo@@U?$less@_K@std@@V?$allocator@U?$pair@$$CB_KPEAVThreadInfo@@@std@@@3@$0A@@std@@@2@PEBV12@@Z DD 040a01H
	DD	06340aH
	DD	07006320aH
; Function compile flags: /Ogtpy
; File c:\program files\microsoft visual studio 9.0\vc\include\xtree
xdata	ENDS
;	COMDAT ??0const_iterator@?$_Tree@V?$_Tmap_traits@_KPEAVThreadInfo@@U?$less@_K@std@@V?$allocator@U?$pair@$$CB_KPEAVThreadInfo@@@std@@@3@$0A@@std@@@std@@QEAA@PEAU_Node@?$_Tree_nod@V?$_Tmap_traits@_KPEAVThreadInfo@@U?$less@_K@std@@V?$allocator@U?$pair@$$CB_KPEAVThreadInfo@@@std@@@3@$0A@@std@@@2@PEBV12@@Z
_TEXT	SEGMENT
this$ = 48
_Pnode$ = 56
_Plist$ = 64
??0const_iterator@?$_Tree@V?$_Tmap_traits@_KPEAVThreadInfo@@U?$less@_K@std@@V?$allocator@U?$pair@$$CB_KPEAVThreadInfo@@@std@@@3@$0A@@std@@@std@@QEAA@PEAU_Node@?$_Tree_nod@V?$_Tmap_traits@_KPEAVThreadInfo@@U?$less@_K@std@@V?$allocator@U?$pair@$$CB_KPEAVThreadInfo@@@std@@@3@$0A@@std@@@2@PEBV12@@Z PROC ; std::_Tree<std::_Tmap_traits<unsigned __int64,ThreadInfo * __ptr64,std::less<unsigned __int64>,std::allocator<std::pair<unsigned __int64 const ,ThreadInfo * __ptr64> >,0> >::const_iterator::const_iterator, COMDAT

; 234  : 			{	// construct with node pointer _Pnode

$LN15:
	mov	QWORD PTR [rsp+8], rbx
	push	rdi
	sub	rsp, 32					; 00000020H
	mov	rdi, r8
	mov	rbx, rcx
	mov	QWORD PTR [rcx], 0
	mov	QWORD PTR [rcx+8], rdx

; 235  : 			_SCL_SECURE_VALIDATE(_Plist != NULL);

	test	r8, r8
	jne	SHORT $LN3@const_iter@2
	call	QWORD PTR __imp__invalid_parameter_noinfo
$LN3@const_iter@2:

; 236  : 			this->_Set_container(_Plist);

	mov	rax, QWORD PTR [rdi]
	mov	QWORD PTR [rbx], rax

; 237  : 			}

	mov	rax, rbx
	mov	rbx, QWORD PTR [rsp+48]
	add	rsp, 32					; 00000020H
	pop	rdi
	ret	0
??0const_iterator@?$_Tree@V?$_Tmap_traits@_KPEAVThreadInfo@@U?$less@_K@std@@V?$allocator@U?$pair@$$CB_KPEAVThreadInfo@@@std@@@3@$0A@@std@@@std@@QEAA@PEAU_Node@?$_Tree_nod@V?$_Tmap_traits@_KPEAVThreadInfo@@U?$less@_K@std@@V?$allocator@U?$pair@$$CB_KPEAVThreadInfo@@@std@@@3@$0A@@std@@@2@PEBV12@@Z ENDP ; std::_Tree<std::_Tmap_traits<unsigned __int64,ThreadInfo * __ptr64,std::less<unsigned __int64>,std::allocator<std::pair<unsigned __int64 const ,ThreadInfo * __ptr64> >,0> >::const_iterator::const_iterator
_TEXT	ENDS
;	COMDAT pdata
; File c:\program files\microsoft visual studio 9.0\vc\include\xutility
pdata	SEGMENT
$pdata$??0const_iterator@?$_Tree@V?$_Tmap_traits@_KHU?$less@_K@std@@V?$allocator@U?$pair@$$CB_KH@std@@@2@$0A@@std@@@std@@QEAA@PEAU_Node@?$_Tree_nod@V?$_Tmap_traits@_KHU?$less@_K@std@@V?$allocator@U?$pair@$$CB_KH@std@@@2@$0A@@std@@@2@PEBV12@@Z DD imagerel $LN15
	DD	imagerel $LN15+58
	DD	imagerel $unwind$??0const_iterator@?$_Tree@V?$_Tmap_traits@_KHU?$less@_K@std@@V?$allocator@U?$pair@$$CB_KH@std@@@2@$0A@@std@@@std@@QEAA@PEAU_Node@?$_Tree_nod@V?$_Tmap_traits@_KHU?$less@_K@std@@V?$allocator@U?$pair@$$CB_KH@std@@@2@$0A@@std@@@2@PEBV12@@Z
pdata	ENDS
;	COMDAT xdata
xdata	SEGMENT
$unwind$??0const_iterator@?$_Tree@V?$_Tmap_traits@_KHU?$less@_K@std@@V?$allocator@U?$pair@$$CB_KH@std@@@2@$0A@@std@@@std@@QEAA@PEAU_Node@?$_Tree_nod@V?$_Tmap_traits@_KHU?$less@_K@std@@V?$allocator@U?$pair@$$CB_KH@std@@@2@$0A@@std@@@2@PEBV12@@Z DD 040a01H
	DD	06340aH
	DD	07006320aH
; Function compile flags: /Ogtpy
; File c:\program files\microsoft visual studio 9.0\vc\include\xtree
xdata	ENDS
;	COMDAT ??0const_iterator@?$_Tree@V?$_Tmap_traits@_KHU?$less@_K@std@@V?$allocator@U?$pair@$$CB_KH@std@@@2@$0A@@std@@@std@@QEAA@PEAU_Node@?$_Tree_nod@V?$_Tmap_traits@_KHU?$less@_K@std@@V?$allocator@U?$pair@$$CB_KH@std@@@2@$0A@@std@@@2@PEBV12@@Z
_TEXT	SEGMENT
this$ = 48
_Pnode$ = 56
_Plist$ = 64
??0const_iterator@?$_Tree@V?$_Tmap_traits@_KHU?$less@_K@std@@V?$allocator@U?$pair@$$CB_KH@std@@@2@$0A@@std@@@std@@QEAA@PEAU_Node@?$_Tree_nod@V?$_Tmap_traits@_KHU?$less@_K@std@@V?$allocator@U?$pair@$$CB_KH@std@@@2@$0A@@std@@@2@PEBV12@@Z PROC ; std::_Tree<std::_Tmap_traits<unsigned __int64,int,std::less<unsigned __int64>,std::allocator<std::pair<unsigned __int64 const ,int> >,0> >::const_iterator::const_iterator, COMDAT

; 234  : 			{	// construct with node pointer _Pnode

$LN15:
	mov	QWORD PTR [rsp+8], rbx
	push	rdi
	sub	rsp, 32					; 00000020H
	mov	rdi, r8
	mov	rbx, rcx
	mov	QWORD PTR [rcx], 0
	mov	QWORD PTR [rcx+8], rdx

; 235  : 			_SCL_SECURE_VALIDATE(_Plist != NULL);

	test	r8, r8
	jne	SHORT $LN3@const_iter@3
	call	QWORD PTR __imp__invalid_parameter_noinfo
$LN3@const_iter@3:

; 236  : 			this->_Set_container(_Plist);

	mov	rax, QWORD PTR [rdi]
	mov	QWORD PTR [rbx], rax

; 237  : 			}

	mov	rax, rbx
	mov	rbx, QWORD PTR [rsp+48]
	add	rsp, 32					; 00000020H
	pop	rdi
	ret	0
??0const_iterator@?$_Tree@V?$_Tmap_traits@_KHU?$less@_K@std@@V?$allocator@U?$pair@$$CB_KH@std@@@2@$0A@@std@@@std@@QEAA@PEAU_Node@?$_Tree_nod@V?$_Tmap_traits@_KHU?$less@_K@std@@V?$allocator@U?$pair@$$CB_KH@std@@@2@$0A@@std@@@2@PEBV12@@Z ENDP ; std::_Tree<std::_Tmap_traits<unsigned __int64,int,std::less<unsigned __int64>,std::allocator<std::pair<unsigned __int64 const ,int> >,0> >::const_iterator::const_iterator
; Function compile flags: /Ogtpy
_TEXT	ENDS
;	COMDAT ?_Root@?$_Tree@V?$_Tmap_traits@KPEAVThreadInfo@@U?$less@K@std@@V?$allocator@U?$pair@$$CBKPEAVThreadInfo@@@std@@@3@$0A@@std@@@std@@IEBAAEAPEAU_Node@?$_Tree_nod@V?$_Tmap_traits@KPEAVThreadInfo@@U?$less@K@std@@V?$allocator@U?$pair@$$CBKPEAVThreadInfo@@@std@@@3@$0A@@std@@@2@XZ
_TEXT	SEGMENT
this$ = 8
?_Root@?$_Tree@V?$_Tmap_traits@KPEAVThreadInfo@@U?$less@K@std@@V?$allocator@U?$pair@$$CBKPEAVThreadInfo@@@std@@@3@$0A@@std@@@std@@IEBAAEAPEAU_Node@?$_Tree_nod@V?$_Tmap_traits@KPEAVThreadInfo@@U?$less@K@std@@V?$allocator@U?$pair@$$CBKPEAVThreadInfo@@@std@@@3@$0A@@std@@@2@XZ PROC ; std::_Tree<std::_Tmap_traits<unsigned long,ThreadInfo * __ptr64,std::less<unsigned long>,std::allocator<std::pair<unsigned long const ,ThreadInfo * __ptr64> >,0> >::_Root, COMDAT

; 1325 : 		return (_Parent(_Myhead));

	mov	rax, QWORD PTR [rcx+48]
	add	rax, 8

; 1326 : 		}

	ret	0
?_Root@?$_Tree@V?$_Tmap_traits@KPEAVThreadInfo@@U?$less@K@std@@V?$allocator@U?$pair@$$CBKPEAVThreadInfo@@@std@@@3@$0A@@std@@@std@@IEBAAEAPEAU_Node@?$_Tree_nod@V?$_Tmap_traits@KPEAVThreadInfo@@U?$less@K@std@@V?$allocator@U?$pair@$$CBKPEAVThreadInfo@@@std@@@3@$0A@@std@@@2@XZ ENDP ; std::_Tree<std::_Tmap_traits<unsigned long,ThreadInfo * __ptr64,std::less<unsigned long>,std::allocator<std::pair<unsigned long const ,ThreadInfo * __ptr64> >,0> >::_Root
; Function compile flags: /Ogtpy
_TEXT	ENDS
;	COMDAT ?_Rmost@?$_Tree@V?$_Tmap_traits@KPEAVThreadInfo@@U?$less@K@std@@V?$allocator@U?$pair@$$CBKPEAVThreadInfo@@@std@@@3@$0A@@std@@@std@@IEBAAEAPEAU_Node@?$_Tree_nod@V?$_Tmap_traits@KPEAVThreadInfo@@U?$less@K@std@@V?$allocator@U?$pair@$$CBKPEAVThreadInfo@@@std@@@3@$0A@@std@@@2@XZ
_TEXT	SEGMENT
this$ = 8
?_Rmost@?$_Tree@V?$_Tmap_traits@KPEAVThreadInfo@@U?$less@K@std@@V?$allocator@U?$pair@$$CBKPEAVThreadInfo@@@std@@@3@$0A@@std@@@std@@IEBAAEAPEAU_Node@?$_Tree_nod@V?$_Tmap_traits@KPEAVThreadInfo@@U?$less@K@std@@V?$allocator@U?$pair@$$CBKPEAVThreadInfo@@@std@@@3@$0A@@std@@@2@XZ PROC ; std::_Tree<std::_Tmap_traits<unsigned long,ThreadInfo * __ptr64,std::less<unsigned long>,std::allocator<std::pair<unsigned long const ,ThreadInfo * __ptr64> >,0> >::_Rmost, COMDAT

; 1320 : 		return (_Right(_Myhead));

	mov	rax, QWORD PTR [rcx+48]
	add	rax, 16

; 1321 : 		}

	ret	0
?_Rmost@?$_Tree@V?$_Tmap_traits@KPEAVThreadInfo@@U?$less@K@std@@V?$allocator@U?$pair@$$CBKPEAVThreadInfo@@@std@@@3@$0A@@std@@@std@@IEBAAEAPEAU_Node@?$_Tree_nod@V?$_Tmap_traits@KPEAVThreadInfo@@U?$less@K@std@@V?$allocator@U?$pair@$$CBKPEAVThreadInfo@@@std@@@3@$0A@@std@@@2@XZ ENDP ; std::_Tree<std::_Tmap_traits<unsigned long,ThreadInfo * __ptr64,std::less<unsigned long>,std::allocator<std::pair<unsigned long const ,ThreadInfo * __ptr64> >,0> >::_Rmost
; Function compile flags: /Ogtpy
_TEXT	ENDS
;	COMDAT ?_Min@?$_Tree@V?$_Tmap_traits@KPEAVThreadInfo@@U?$less@K@std@@V?$allocator@U?$pair@$$CBKPEAVThreadInfo@@@std@@@3@$0A@@std@@@std@@KAPEAU_Node@?$_Tree_nod@V?$_Tmap_traits@KPEAVThreadInfo@@U?$less@K@std@@V?$allocator@U?$pair@$$CBKPEAVThreadInfo@@@std@@@3@$0A@@std@@@2@PEAU342@@Z
_TEXT	SEGMENT
_Pnode$ = 8
?_Min@?$_Tree@V?$_Tmap_traits@KPEAVThreadInfo@@U?$less@K@std@@V?$allocator@U?$pair@$$CBKPEAVThreadInfo@@@std@@@3@$0A@@std@@@std@@KAPEAU_Node@?$_Tree_nod@V?$_Tmap_traits@KPEAVThreadInfo@@U?$less@K@std@@V?$allocator@U?$pair@$$CBKPEAVThreadInfo@@@std@@@3@$0A@@std@@@2@PEAU342@@Z PROC ; std::_Tree<std::_Tmap_traits<unsigned long,ThreadInfo * __ptr64,std::less<unsigned long>,std::allocator<std::pair<unsigned long const ,ThreadInfo * __ptr64> >,0> >::_Min, COMDAT

; 1313 : 		while (!_Isnil(_Left(_Pnode)))

	mov	rax, QWORD PTR [rcx]
	cmp	BYTE PTR [rax+41], 0
	jne	SHORT $LN13@Min
	npad	7
$LL2@Min:

; 1314 : 			_Pnode = _Left(_Pnode);

	mov	rcx, rax
	mov	rax, QWORD PTR [rax]
	cmp	BYTE PTR [rax+41], 0
	je	SHORT $LL2@Min
$LN13@Min:

; 1315 : 		return (_Pnode);

	mov	rax, rcx

; 1316 : 		}

	ret	0
?_Min@?$_Tree@V?$_Tmap_traits@KPEAVThreadInfo@@U?$less@K@std@@V?$allocator@U?$pair@$$CBKPEAVThreadInfo@@@std@@@3@$0A@@std@@@std@@KAPEAU_Node@?$_Tree_nod@V?$_Tmap_traits@KPEAVThreadInfo@@U?$less@K@std@@V?$allocator@U?$pair@$$CBKPEAVThreadInfo@@@std@@@3@$0A@@std@@@2@PEAU342@@Z ENDP ; std::_Tree<std::_Tmap_traits<unsigned long,ThreadInfo * __ptr64,std::less<unsigned long>,std::allocator<std::pair<unsigned long const ,ThreadInfo * __ptr64> >,0> >::_Min
; Function compile flags: /Ogtpy
_TEXT	ENDS
;	COMDAT ?_Max@?$_Tree@V?$_Tmap_traits@KPEAVThreadInfo@@U?$less@K@std@@V?$allocator@U?$pair@$$CBKPEAVThreadInfo@@@std@@@3@$0A@@std@@@std@@KAPEAU_Node@?$_Tree_nod@V?$_Tmap_traits@KPEAVThreadInfo@@U?$less@K@std@@V?$allocator@U?$pair@$$CBKPEAVThreadInfo@@@std@@@3@$0A@@std@@@2@PEAU342@@Z
_TEXT	SEGMENT
_Pnode$ = 8
?_Max@?$_Tree@V?$_Tmap_traits@KPEAVThreadInfo@@U?$less@K@std@@V?$allocator@U?$pair@$$CBKPEAVThreadInfo@@@std@@@3@$0A@@std@@@std@@KAPEAU_Node@?$_Tree_nod@V?$_Tmap_traits@KPEAVThreadInfo@@U?$less@K@std@@V?$allocator@U?$pair@$$CBKPEAVThreadInfo@@@std@@@3@$0A@@std@@@2@PEAU342@@Z PROC ; std::_Tree<std::_Tmap_traits<unsigned long,ThreadInfo * __ptr64,std::less<unsigned long>,std::allocator<std::pair<unsigned long const ,ThreadInfo * __ptr64> >,0> >::_Max, COMDAT

; 1306 : 		while (!_Isnil(_Right(_Pnode)))

	mov	rax, QWORD PTR [rcx+16]
	cmp	BYTE PTR [rax+41], 0
	jne	SHORT $LN13@Max
	npad	6
$LL2@Max:

; 1307 : 			_Pnode = _Right(_Pnode);

	mov	rcx, rax
	mov	rax, QWORD PTR [rax+16]
	cmp	BYTE PTR [rax+41], 0
	je	SHORT $LL2@Max
$LN13@Max:

; 1308 : 		return (_Pnode);

	mov	rax, rcx

; 1309 : 		}

	ret	0
?_Max@?$_Tree@V?$_Tmap_traits@KPEAVThreadInfo@@U?$less@K@std@@V?$allocator@U?$pair@$$CBKPEAVThreadInfo@@@std@@@3@$0A@@std@@@std@@KAPEAU_Node@?$_Tree_nod@V?$_Tmap_traits@KPEAVThreadInfo@@U?$less@K@std@@V?$allocator@U?$pair@$$CBKPEAVThreadInfo@@@std@@@3@$0A@@std@@@2@PEAU342@@Z ENDP ; std::_Tree<std::_Tmap_traits<unsigned long,ThreadInfo * __ptr64,std::less<unsigned long>,std::allocator<std::pair<unsigned long const ,ThreadInfo * __ptr64> >,0> >::_Max
; Function compile flags: /Ogtpy
_TEXT	ENDS
;	COMDAT ?_Lrotate@?$_Tree@V?$_Tmap_traits@KPEAVThreadInfo@@U?$less@K@std@@V?$allocator@U?$pair@$$CBKPEAVThreadInfo@@@std@@@3@$0A@@std@@@std@@IEAAXPEAU_Node@?$_Tree_nod@V?$_Tmap_traits@KPEAVThreadInfo@@U?$less@K@std@@V?$allocator@U?$pair@$$CBKPEAVThreadInfo@@@std@@@3@$0A@@std@@@2@@Z
_TEXT	SEGMENT
this$ = 8
_Wherenode$ = 16
?_Lrotate@?$_Tree@V?$_Tmap_traits@KPEAVThreadInfo@@U?$less@K@std@@V?$allocator@U?$pair@$$CBKPEAVThreadInfo@@@std@@@3@$0A@@std@@@std@@IEAAXPEAU_Node@?$_Tree_nod@V?$_Tmap_traits@KPEAVThreadInfo@@U?$less@K@std@@V?$allocator@U?$pair@$$CBKPEAVThreadInfo@@@std@@@3@$0A@@std@@@2@@Z PROC ; std::_Tree<std::_Tmap_traits<unsigned long,ThreadInfo * __ptr64,std::less<unsigned long>,std::allocator<std::pair<unsigned long const ,ThreadInfo * __ptr64> >,0> >::_Lrotate, COMDAT

; 1286 : 		_Nodeptr _Pnode = _Right(_Wherenode);

	mov	r8, QWORD PTR [rdx+16]

; 1287 : 		_Right(_Wherenode) = _Left(_Pnode);

	mov	rax, QWORD PTR [r8]
	mov	QWORD PTR [rdx+16], rax

; 1288 : 
; 1289 : 		if (!_Isnil(_Left(_Pnode)))

	mov	rax, QWORD PTR [r8]
	cmp	BYTE PTR [rax+41], 0
	jne	SHORT $LN5@Lrotate

; 1290 : 			_Parent(_Left(_Pnode)) = _Wherenode;

	mov	QWORD PTR [rax+8], rdx
$LN5@Lrotate:

; 1291 : 		_Parent(_Pnode) = _Parent(_Wherenode);

	mov	rax, QWORD PTR [rdx+8]
	mov	QWORD PTR [r8+8], rax

; 1292 : 
; 1293 : 		if (_Wherenode == _Root())

	mov	rax, QWORD PTR [rcx+48]
	cmp	rdx, QWORD PTR [rax+8]
	jne	SHORT $LN4@Lrotate

; 1294 : 			_Root() = _Pnode;

	mov	QWORD PTR [rax+8], r8

; 1299 : 
; 1300 : 		_Left(_Pnode) = _Wherenode;

	mov	QWORD PTR [r8], rdx

; 1301 : 		_Parent(_Wherenode) = _Pnode;

	mov	QWORD PTR [rdx+8], r8

; 1302 : 		}

	ret	0
$LN4@Lrotate:

; 1295 : 		else if (_Wherenode == _Left(_Parent(_Wherenode)))

	mov	rax, QWORD PTR [rdx+8]
	cmp	rdx, QWORD PTR [rax]
	jne	SHORT $LN2@Lrotate

; 1296 : 			_Left(_Parent(_Wherenode)) = _Pnode;

	mov	QWORD PTR [rax], r8

; 1299 : 
; 1300 : 		_Left(_Pnode) = _Wherenode;

	mov	QWORD PTR [r8], rdx

; 1301 : 		_Parent(_Wherenode) = _Pnode;

	mov	QWORD PTR [rdx+8], r8

; 1302 : 		}

	ret	0
$LN2@Lrotate:

; 1297 : 		else
; 1298 : 			_Right(_Parent(_Wherenode)) = _Pnode;

	mov	QWORD PTR [rax+16], r8

; 1299 : 
; 1300 : 		_Left(_Pnode) = _Wherenode;

	mov	QWORD PTR [r8], rdx

; 1301 : 		_Parent(_Wherenode) = _Pnode;

	mov	QWORD PTR [rdx+8], r8

; 1302 : 		}

	ret	0
?_Lrotate@?$_Tree@V?$_Tmap_traits@KPEAVThreadInfo@@U?$less@K@std@@V?$allocator@U?$pair@$$CBKPEAVThreadInfo@@@std@@@3@$0A@@std@@@std@@IEAAXPEAU_Node@?$_Tree_nod@V?$_Tmap_traits@KPEAVThreadInfo@@U?$less@K@std@@V?$allocator@U?$pair@$$CBKPEAVThreadInfo@@@std@@@3@$0A@@std@@@2@@Z ENDP ; std::_Tree<std::_Tmap_traits<unsigned long,ThreadInfo * __ptr64,std::less<unsigned long>,std::allocator<std::pair<unsigned long const ,ThreadInfo * __ptr64> >,0> >::_Lrotate
_TEXT	ENDS
;	COMDAT pdata
; File c:\program files\microsoft visual studio 9.0\vc\include\xmemory
pdata	SEGMENT
$pdata$?_Erase@?$_Tree@V?$_Tmap_traits@KPEAVThreadInfo@@U?$less@K@std@@V?$allocator@U?$pair@$$CBKPEAVThreadInfo@@@std@@@3@$0A@@std@@@std@@IEAAXPEAU_Node@?$_Tree_nod@V?$_Tmap_traits@KPEAVThreadInfo@@U?$less@K@std@@V?$allocator@U?$pair@$$CBKPEAVThreadInfo@@@std@@@3@$0A@@std@@@2@@Z DD imagerel $LN16
	DD	imagerel $LN16+80
	DD	imagerel $unwind$?_Erase@?$_Tree@V?$_Tmap_traits@KPEAVThreadInfo@@U?$less@K@std@@V?$allocator@U?$pair@$$CBKPEAVThreadInfo@@@std@@@3@$0A@@std@@@std@@IEAAXPEAU_Node@?$_Tree_nod@V?$_Tmap_traits@KPEAVThreadInfo@@U?$less@K@std@@V?$allocator@U?$pair@$$CBKPEAVThreadInfo@@@std@@@3@$0A@@std@@@2@@Z
pdata	ENDS
;	COMDAT xdata
xdata	SEGMENT
$unwind$?_Erase@?$_Tree@V?$_Tmap_traits@KPEAVThreadInfo@@U?$less@K@std@@V?$allocator@U?$pair@$$CBKPEAVThreadInfo@@@std@@@3@$0A@@std@@@std@@IEAAXPEAU_Node@?$_Tree_nod@V?$_Tmap_traits@KPEAVThreadInfo@@U?$less@K@std@@V?$allocator@U?$pair@$$CBKPEAVThreadInfo@@@std@@@3@$0A@@std@@@2@@Z DD 060f01H
	DD	07640fH
	DD	06340fH
	DD	0700b320fH
; Function compile flags: /Ogtpy
; File c:\program files\microsoft visual studio 9.0\vc\include\xtree
xdata	ENDS
;	COMDAT ?_Erase@?$_Tree@V?$_Tmap_traits@KPEAVThreadInfo@@U?$less@K@std@@V?$allocator@U?$pair@$$CBKPEAVThreadInfo@@@std@@@3@$0A@@std@@@std@@IEAAXPEAU_Node@?$_Tree_nod@V?$_Tmap_traits@KPEAVThreadInfo@@U?$less@K@std@@V?$allocator@U?$pair@$$CBKPEAVThreadInfo@@@std@@@3@$0A@@std@@@2@@Z
_TEXT	SEGMENT
this$ = 48
_Rootnode$ = 56
?_Erase@?$_Tree@V?$_Tmap_traits@KPEAVThreadInfo@@U?$less@K@std@@V?$allocator@U?$pair@$$CBKPEAVThreadInfo@@@std@@@3@$0A@@std@@@std@@IEAAXPEAU_Node@?$_Tree_nod@V?$_Tmap_traits@KPEAVThreadInfo@@U?$less@K@std@@V?$allocator@U?$pair@$$CBKPEAVThreadInfo@@@std@@@3@$0A@@std@@@2@@Z PROC ; std::_Tree<std::_Tmap_traits<unsigned long,ThreadInfo * __ptr64,std::less<unsigned long>,std::allocator<std::pair<unsigned long const ,ThreadInfo * __ptr64> >,0> >::_Erase, COMDAT

; 1166 : 		{	// free entire subtree, recursively

$LN16:
	mov	QWORD PTR [rsp+8], rbx
	mov	QWORD PTR [rsp+16], rsi
	push	rdi
	sub	rsp, 32					; 00000020H

; 1167 : 		for (_Nodeptr _Pnode = _Rootnode; !_Isnil(_Pnode); _Rootnode = _Pnode)

	cmp	BYTE PTR [rdx+41], 0
	mov	rdi, rdx
	mov	rsi, rcx
	mov	rbx, rdx
	jne	SHORT $LN1@Erase
	npad	2
$LL3@Erase:

; 1168 : 			{	// free subtrees, then node
; 1169 : 			_Erase(_Right(_Pnode));

	mov	rdx, QWORD PTR [rbx+16]
	mov	rcx, rsi
	call	?_Erase@?$_Tree@V?$_Tmap_traits@KPEAVThreadInfo@@U?$less@K@std@@V?$allocator@U?$pair@$$CBKPEAVThreadInfo@@@std@@@3@$0A@@std@@@std@@IEAAXPEAU_Node@?$_Tree_nod@V?$_Tmap_traits@KPEAVThreadInfo@@U?$less@K@std@@V?$allocator@U?$pair@$$CBKPEAVThreadInfo@@@std@@@3@$0A@@std@@@2@@Z ; std::_Tree<std::_Tmap_traits<unsigned long,ThreadInfo * __ptr64,std::less<unsigned long>,std::allocator<std::pair<unsigned long const ,ThreadInfo * __ptr64> >,0> >::_Erase

; 1170 : 			_Pnode = _Left(_Pnode);

	mov	rbx, QWORD PTR [rbx]

; 1171 : 			this->_Alnod.destroy(_Rootnode);	// destroy, free erased node
; 1172 : 			this->_Alnod.deallocate(_Rootnode, 1);

	mov	rcx, rdi
	call	??3@YAXPEAX@Z				; operator delete
	cmp	BYTE PTR [rbx+41], 0
	mov	rdi, rbx
	je	SHORT $LL3@Erase
$LN1@Erase:

; 1173 : 			}
; 1174 : 		}

	mov	rbx, QWORD PTR [rsp+48]
	mov	rsi, QWORD PTR [rsp+56]
	add	rsp, 32					; 00000020H
	pop	rdi
	ret	0
?_Erase@?$_Tree@V?$_Tmap_traits@KPEAVThreadInfo@@U?$less@K@std@@V?$allocator@U?$pair@$$CBKPEAVThreadInfo@@@std@@@3@$0A@@std@@@std@@IEAAXPEAU_Node@?$_Tree_nod@V?$_Tmap_traits@KPEAVThreadInfo@@U?$less@K@std@@V?$allocator@U?$pair@$$CBKPEAVThreadInfo@@@std@@@3@$0A@@std@@@2@@Z ENDP ; std::_Tree<std::_Tmap_traits<unsigned long,ThreadInfo * __ptr64,std::less<unsigned long>,std::allocator<std::pair<unsigned long const ,ThreadInfo * __ptr64> >,0> >::_Erase
; Function compile flags: /Ogtpy
_TEXT	ENDS
;	COMDAT ?_Root@?$_Tree@V?$_Tmap_traits@_KPEAVThreadInfo@@U?$less@_K@std@@V?$allocator@U?$pair@$$CB_KPEAVThreadInfo@@@std@@@3@$0A@@std@@@std@@IEBAAEAPEAU_Node@?$_Tree_nod@V?$_Tmap_traits@_KPEAVThreadInfo@@U?$less@_K@std@@V?$allocator@U?$pair@$$CB_KPEAVThreadInfo@@@std@@@3@$0A@@std@@@2@XZ
_TEXT	SEGMENT
this$ = 8
?_Root@?$_Tree@V?$_Tmap_traits@_KPEAVThreadInfo@@U?$less@_K@std@@V?$allocator@U?$pair@$$CB_KPEAVThreadInfo@@@std@@@3@$0A@@std@@@std@@IEBAAEAPEAU_Node@?$_Tree_nod@V?$_Tmap_traits@_KPEAVThreadInfo@@U?$less@_K@std@@V?$allocator@U?$pair@$$CB_KPEAVThreadInfo@@@std@@@3@$0A@@std@@@2@XZ PROC ; std::_Tree<std::_Tmap_traits<unsigned __int64,ThreadInfo * __ptr64,std::less<unsigned __int64>,std::allocator<std::pair<unsigned __int64 const ,ThreadInfo * __ptr64> >,0> >::_Root, COMDAT

; 1325 : 		return (_Parent(_Myhead));

	mov	rax, QWORD PTR [rcx+48]
	add	rax, 8

; 1326 : 		}

	ret	0
?_Root@?$_Tree@V?$_Tmap_traits@_KPEAVThreadInfo@@U?$less@_K@std@@V?$allocator@U?$pair@$$CB_KPEAVThreadInfo@@@std@@@3@$0A@@std@@@std@@IEBAAEAPEAU_Node@?$_Tree_nod@V?$_Tmap_traits@_KPEAVThreadInfo@@U?$less@_K@std@@V?$allocator@U?$pair@$$CB_KPEAVThreadInfo@@@std@@@3@$0A@@std@@@2@XZ ENDP ; std::_Tree<std::_Tmap_traits<unsigned __int64,ThreadInfo * __ptr64,std::less<unsigned __int64>,std::allocator<std::pair<unsigned __int64 const ,ThreadInfo * __ptr64> >,0> >::_Root
; Function compile flags: /Ogtpy
_TEXT	ENDS
;	COMDAT ?_Rmost@?$_Tree@V?$_Tmap_traits@_KPEAVThreadInfo@@U?$less@_K@std@@V?$allocator@U?$pair@$$CB_KPEAVThreadInfo@@@std@@@3@$0A@@std@@@std@@IEBAAEAPEAU_Node@?$_Tree_nod@V?$_Tmap_traits@_KPEAVThreadInfo@@U?$less@_K@std@@V?$allocator@U?$pair@$$CB_KPEAVThreadInfo@@@std@@@3@$0A@@std@@@2@XZ
_TEXT	SEGMENT
this$ = 8
?_Rmost@?$_Tree@V?$_Tmap_traits@_KPEAVThreadInfo@@U?$less@_K@std@@V?$allocator@U?$pair@$$CB_KPEAVThreadInfo@@@std@@@3@$0A@@std@@@std@@IEBAAEAPEAU_Node@?$_Tree_nod@V?$_Tmap_traits@_KPEAVThreadInfo@@U?$less@_K@std@@V?$allocator@U?$pair@$$CB_KPEAVThreadInfo@@@std@@@3@$0A@@std@@@2@XZ PROC ; std::_Tree<std::_Tmap_traits<unsigned __int64,ThreadInfo * __ptr64,std::less<unsigned __int64>,std::allocator<std::pair<unsigned __int64 const ,ThreadInfo * __ptr64> >,0> >::_Rmost, COMDAT

; 1320 : 		return (_Right(_Myhead));

	mov	rax, QWORD PTR [rcx+48]
	add	rax, 16

; 1321 : 		}

	ret	0
?_Rmost@?$_Tree@V?$_Tmap_traits@_KPEAVThreadInfo@@U?$less@_K@std@@V?$allocator@U?$pair@$$CB_KPEAVThreadInfo@@@std@@@3@$0A@@std@@@std@@IEBAAEAPEAU_Node@?$_Tree_nod@V?$_Tmap_traits@_KPEAVThreadInfo@@U?$less@_K@std@@V?$allocator@U?$pair@$$CB_KPEAVThreadInfo@@@std@@@3@$0A@@std@@@2@XZ ENDP ; std::_Tree<std::_Tmap_traits<unsigned __int64,ThreadInfo * __ptr64,std::less<unsigned __int64>,std::allocator<std::pair<unsigned __int64 const ,ThreadInfo * __ptr64> >,0> >::_Rmost
; Function compile flags: /Ogtpy
_TEXT	ENDS
;	COMDAT ?_Min@?$_Tree@V?$_Tmap_traits@_KPEAVThreadInfo@@U?$less@_K@std@@V?$allocator@U?$pair@$$CB_KPEAVThreadInfo@@@std@@@3@$0A@@std@@@std@@KAPEAU_Node@?$_Tree_nod@V?$_Tmap_traits@_KPEAVThreadInfo@@U?$less@_K@std@@V?$allocator@U?$pair@$$CB_KPEAVThreadInfo@@@std@@@3@$0A@@std@@@2@PEAU342@@Z
_TEXT	SEGMENT
_Pnode$ = 8
?_Min@?$_Tree@V?$_Tmap_traits@_KPEAVThreadInfo@@U?$less@_K@std@@V?$allocator@U?$pair@$$CB_KPEAVThreadInfo@@@std@@@3@$0A@@std@@@std@@KAPEAU_Node@?$_Tree_nod@V?$_Tmap_traits@_KPEAVThreadInfo@@U?$less@_K@std@@V?$allocator@U?$pair@$$CB_KPEAVThreadInfo@@@std@@@3@$0A@@std@@@2@PEAU342@@Z PROC ; std::_Tree<std::_Tmap_traits<unsigned __int64,ThreadInfo * __ptr64,std::less<unsigned __int64>,std::allocator<std::pair<unsigned __int64 const ,ThreadInfo * __ptr64> >,0> >::_Min, COMDAT

; 1313 : 		while (!_Isnil(_Left(_Pnode)))

	mov	rax, QWORD PTR [rcx]
	cmp	BYTE PTR [rax+41], 0
	jne	SHORT $LN13@Min@2
	npad	7
$LL2@Min@2:

; 1314 : 			_Pnode = _Left(_Pnode);

	mov	rcx, rax
	mov	rax, QWORD PTR [rax]
	cmp	BYTE PTR [rax+41], 0
	je	SHORT $LL2@Min@2
$LN13@Min@2:

; 1315 : 		return (_Pnode);

	mov	rax, rcx

; 1316 : 		}

	ret	0
?_Min@?$_Tree@V?$_Tmap_traits@_KPEAVThreadInfo@@U?$less@_K@std@@V?$allocator@U?$pair@$$CB_KPEAVThreadInfo@@@std@@@3@$0A@@std@@@std@@KAPEAU_Node@?$_Tree_nod@V?$_Tmap_traits@_KPEAVThreadInfo@@U?$less@_K@std@@V?$allocator@U?$pair@$$CB_KPEAVThreadInfo@@@std@@@3@$0A@@std@@@2@PEAU342@@Z ENDP ; std::_Tree<std::_Tmap_traits<unsigned __int64,ThreadInfo * __ptr64,std::less<unsigned __int64>,std::allocator<std::pair<unsigned __int64 const ,ThreadInfo * __ptr64> >,0> >::_Min
; Function compile flags: /Ogtpy
_TEXT	ENDS
;	COMDAT ?_Max@?$_Tree@V?$_Tmap_traits@_KPEAVThreadInfo@@U?$less@_K@std@@V?$allocator@U?$pair@$$CB_KPEAVThreadInfo@@@std@@@3@$0A@@std@@@std@@KAPEAU_Node@?$_Tree_nod@V?$_Tmap_traits@_KPEAVThreadInfo@@U?$less@_K@std@@V?$allocator@U?$pair@$$CB_KPEAVThreadInfo@@@std@@@3@$0A@@std@@@2@PEAU342@@Z
_TEXT	SEGMENT
_Pnode$ = 8
?_Max@?$_Tree@V?$_Tmap_traits@_KPEAVThreadInfo@@U?$less@_K@std@@V?$allocator@U?$pair@$$CB_KPEAVThreadInfo@@@std@@@3@$0A@@std@@@std@@KAPEAU_Node@?$_Tree_nod@V?$_Tmap_traits@_KPEAVThreadInfo@@U?$less@_K@std@@V?$allocator@U?$pair@$$CB_KPEAVThreadInfo@@@std@@@3@$0A@@std@@@2@PEAU342@@Z PROC ; std::_Tree<std::_Tmap_traits<unsigned __int64,ThreadInfo * __ptr64,std::less<unsigned __int64>,std::allocator<std::pair<unsigned __int64 const ,ThreadInfo * __ptr64> >,0> >::_Max, COMDAT

; 1306 : 		while (!_Isnil(_Right(_Pnode)))

	mov	rax, QWORD PTR [rcx+16]
	cmp	BYTE PTR [rax+41], 0
	jne	SHORT $LN13@Max@2
	npad	6
$LL2@Max@2:

; 1307 : 			_Pnode = _Right(_Pnode);

	mov	rcx, rax
	mov	rax, QWORD PTR [rax+16]
	cmp	BYTE PTR [rax+41], 0
	je	SHORT $LL2@Max@2
$LN13@Max@2:

; 1308 : 		return (_Pnode);

	mov	rax, rcx

; 1309 : 		}

	ret	0
?_Max@?$_Tree@V?$_Tmap_traits@_KPEAVThreadInfo@@U?$less@_K@std@@V?$allocator@U?$pair@$$CB_KPEAVThreadInfo@@@std@@@3@$0A@@std@@@std@@KAPEAU_Node@?$_Tree_nod@V?$_Tmap_traits@_KPEAVThreadInfo@@U?$less@_K@std@@V?$allocator@U?$pair@$$CB_KPEAVThreadInfo@@@std@@@3@$0A@@std@@@2@PEAU342@@Z ENDP ; std::_Tree<std::_Tmap_traits<unsigned __int64,ThreadInfo * __ptr64,std::less<unsigned __int64>,std::allocator<std::pair<unsigned __int64 const ,ThreadInfo * __ptr64> >,0> >::_Max
; Function compile flags: /Ogtpy
_TEXT	ENDS
;	COMDAT ?_Lrotate@?$_Tree@V?$_Tmap_traits@_KPEAVThreadInfo@@U?$less@_K@std@@V?$allocator@U?$pair@$$CB_KPEAVThreadInfo@@@std@@@3@$0A@@std@@@std@@IEAAXPEAU_Node@?$_Tree_nod@V?$_Tmap_traits@_KPEAVThreadInfo@@U?$less@_K@std@@V?$allocator@U?$pair@$$CB_KPEAVThreadInfo@@@std@@@3@$0A@@std@@@2@@Z
_TEXT	SEGMENT
this$ = 8
_Wherenode$ = 16
?_Lrotate@?$_Tree@V?$_Tmap_traits@_KPEAVThreadInfo@@U?$less@_K@std@@V?$allocator@U?$pair@$$CB_KPEAVThreadInfo@@@std@@@3@$0A@@std@@@std@@IEAAXPEAU_Node@?$_Tree_nod@V?$_Tmap_traits@_KPEAVThreadInfo@@U?$less@_K@std@@V?$allocator@U?$pair@$$CB_KPEAVThreadInfo@@@std@@@3@$0A@@std@@@2@@Z PROC ; std::_Tree<std::_Tmap_traits<unsigned __int64,ThreadInfo * __ptr64,std::less<unsigned __int64>,std::allocator<std::pair<unsigned __int64 const ,ThreadInfo * __ptr64> >,0> >::_Lrotate, COMDAT

; 1286 : 		_Nodeptr _Pnode = _Right(_Wherenode);

	mov	r8, QWORD PTR [rdx+16]

; 1287 : 		_Right(_Wherenode) = _Left(_Pnode);

	mov	rax, QWORD PTR [r8]
	mov	QWORD PTR [rdx+16], rax

; 1288 : 
; 1289 : 		if (!_Isnil(_Left(_Pnode)))

	mov	rax, QWORD PTR [r8]
	cmp	BYTE PTR [rax+41], 0
	jne	SHORT $LN5@Lrotate@2

; 1290 : 			_Parent(_Left(_Pnode)) = _Wherenode;

	mov	QWORD PTR [rax+8], rdx
$LN5@Lrotate@2:

; 1291 : 		_Parent(_Pnode) = _Parent(_Wherenode);

	mov	rax, QWORD PTR [rdx+8]
	mov	QWORD PTR [r8+8], rax

; 1292 : 
; 1293 : 		if (_Wherenode == _Root())

	mov	rax, QWORD PTR [rcx+48]
	cmp	rdx, QWORD PTR [rax+8]
	jne	SHORT $LN4@Lrotate@2

; 1294 : 			_Root() = _Pnode;

	mov	QWORD PTR [rax+8], r8

; 1299 : 
; 1300 : 		_Left(_Pnode) = _Wherenode;

	mov	QWORD PTR [r8], rdx

; 1301 : 		_Parent(_Wherenode) = _Pnode;

	mov	QWORD PTR [rdx+8], r8

; 1302 : 		}

	ret	0
$LN4@Lrotate@2:

; 1295 : 		else if (_Wherenode == _Left(_Parent(_Wherenode)))

	mov	rax, QWORD PTR [rdx+8]
	cmp	rdx, QWORD PTR [rax]
	jne	SHORT $LN2@Lrotate@2

; 1296 : 			_Left(_Parent(_Wherenode)) = _Pnode;

	mov	QWORD PTR [rax], r8

; 1299 : 
; 1300 : 		_Left(_Pnode) = _Wherenode;

	mov	QWORD PTR [r8], rdx

; 1301 : 		_Parent(_Wherenode) = _Pnode;

	mov	QWORD PTR [rdx+8], r8

; 1302 : 		}

	ret	0
$LN2@Lrotate@2:

; 1297 : 		else
; 1298 : 			_Right(_Parent(_Wherenode)) = _Pnode;

	mov	QWORD PTR [rax+16], r8

; 1299 : 
; 1300 : 		_Left(_Pnode) = _Wherenode;

	mov	QWORD PTR [r8], rdx

; 1301 : 		_Parent(_Wherenode) = _Pnode;

	mov	QWORD PTR [rdx+8], r8

; 1302 : 		}

	ret	0
?_Lrotate@?$_Tree@V?$_Tmap_traits@_KPEAVThreadInfo@@U?$less@_K@std@@V?$allocator@U?$pair@$$CB_KPEAVThreadInfo@@@std@@@3@$0A@@std@@@std@@IEAAXPEAU_Node@?$_Tree_nod@V?$_Tmap_traits@_KPEAVThreadInfo@@U?$less@_K@std@@V?$allocator@U?$pair@$$CB_KPEAVThreadInfo@@@std@@@3@$0A@@std@@@2@@Z ENDP ; std::_Tree<std::_Tmap_traits<unsigned __int64,ThreadInfo * __ptr64,std::less<unsigned __int64>,std::allocator<std::pair<unsigned __int64 const ,ThreadInfo * __ptr64> >,0> >::_Lrotate
_TEXT	ENDS
;	COMDAT pdata
; File c:\program files\microsoft visual studio 9.0\vc\include\xmemory
pdata	SEGMENT
$pdata$?_Erase@?$_Tree@V?$_Tmap_traits@_KPEAVThreadInfo@@U?$less@_K@std@@V?$allocator@U?$pair@$$CB_KPEAVThreadInfo@@@std@@@3@$0A@@std@@@std@@IEAAXPEAU_Node@?$_Tree_nod@V?$_Tmap_traits@_KPEAVThreadInfo@@U?$less@_K@std@@V?$allocator@U?$pair@$$CB_KPEAVThreadInfo@@@std@@@3@$0A@@std@@@2@@Z DD imagerel $LN16
	DD	imagerel $LN16+80
	DD	imagerel $unwind$?_Erase@?$_Tree@V?$_Tmap_traits@_KPEAVThreadInfo@@U?$less@_K@std@@V?$allocator@U?$pair@$$CB_KPEAVThreadInfo@@@std@@@3@$0A@@std@@@std@@IEAAXPEAU_Node@?$_Tree_nod@V?$_Tmap_traits@_KPEAVThreadInfo@@U?$less@_K@std@@V?$allocator@U?$pair@$$CB_KPEAVThreadInfo@@@std@@@3@$0A@@std@@@2@@Z
pdata	ENDS
;	COMDAT xdata
xdata	SEGMENT
$unwind$?_Erase@?$_Tree@V?$_Tmap_traits@_KPEAVThreadInfo@@U?$less@_K@std@@V?$allocator@U?$pair@$$CB_KPEAVThreadInfo@@@std@@@3@$0A@@std@@@std@@IEAAXPEAU_Node@?$_Tree_nod@V?$_Tmap_traits@_KPEAVThreadInfo@@U?$less@_K@std@@V?$allocator@U?$pair@$$CB_KPEAVThreadInfo@@@std@@@3@$0A@@std@@@2@@Z DD 060f01H
	DD	07640fH
	DD	06340fH
	DD	0700b320fH
; Function compile flags: /Ogtpy
; File c:\program files\microsoft visual studio 9.0\vc\include\xtree
xdata	ENDS
;	COMDAT ?_Erase@?$_Tree@V?$_Tmap_traits@_KPEAVThreadInfo@@U?$less@_K@std@@V?$allocator@U?$pair@$$CB_KPEAVThreadInfo@@@std@@@3@$0A@@std@@@std@@IEAAXPEAU_Node@?$_Tree_nod@V?$_Tmap_traits@_KPEAVThreadInfo@@U?$less@_K@std@@V?$allocator@U?$pair@$$CB_KPEAVThreadInfo@@@std@@@3@$0A@@std@@@2@@Z
_TEXT	SEGMENT
this$ = 48
_Rootnode$ = 56
?_Erase@?$_Tree@V?$_Tmap_traits@_KPEAVThreadInfo@@U?$less@_K@std@@V?$allocator@U?$pair@$$CB_KPEAVThreadInfo@@@std@@@3@$0A@@std@@@std@@IEAAXPEAU_Node@?$_Tree_nod@V?$_Tmap_traits@_KPEAVThreadInfo@@U?$less@_K@std@@V?$allocator@U?$pair@$$CB_KPEAVThreadInfo@@@std@@@3@$0A@@std@@@2@@Z PROC ; std::_Tree<std::_Tmap_traits<unsigned __int64,ThreadInfo * __ptr64,std::less<unsigned __int64>,std::allocator<std::pair<unsigned __int64 const ,ThreadInfo * __ptr64> >,0> >::_Erase, COMDAT

; 1166 : 		{	// free entire subtree, recursively

$LN16:
	mov	QWORD PTR [rsp+8], rbx
	mov	QWORD PTR [rsp+16], rsi
	push	rdi
	sub	rsp, 32					; 00000020H

; 1167 : 		for (_Nodeptr _Pnode = _Rootnode; !_Isnil(_Pnode); _Rootnode = _Pnode)

	cmp	BYTE PTR [rdx+41], 0
	mov	rdi, rdx
	mov	rsi, rcx
	mov	rbx, rdx
	jne	SHORT $LN1@Erase@2
	npad	2
$LL3@Erase@2:

; 1168 : 			{	// free subtrees, then node
; 1169 : 			_Erase(_Right(_Pnode));

	mov	rdx, QWORD PTR [rbx+16]
	mov	rcx, rsi
	call	?_Erase@?$_Tree@V?$_Tmap_traits@_KPEAVThreadInfo@@U?$less@_K@std@@V?$allocator@U?$pair@$$CB_KPEAVThreadInfo@@@std@@@3@$0A@@std@@@std@@IEAAXPEAU_Node@?$_Tree_nod@V?$_Tmap_traits@_KPEAVThreadInfo@@U?$less@_K@std@@V?$allocator@U?$pair@$$CB_KPEAVThreadInfo@@@std@@@3@$0A@@std@@@2@@Z ; std::_Tree<std::_Tmap_traits<unsigned __int64,ThreadInfo * __ptr64,std::less<unsigned __int64>,std::allocator<std::pair<unsigned __int64 const ,ThreadInfo * __ptr64> >,0> >::_Erase

; 1170 : 			_Pnode = _Left(_Pnode);

	mov	rbx, QWORD PTR [rbx]

; 1171 : 			this->_Alnod.destroy(_Rootnode);	// destroy, free erased node
; 1172 : 			this->_Alnod.deallocate(_Rootnode, 1);

	mov	rcx, rdi
	call	??3@YAXPEAX@Z				; operator delete
	cmp	BYTE PTR [rbx+41], 0
	mov	rdi, rbx
	je	SHORT $LL3@Erase@2
$LN1@Erase@2:

; 1173 : 			}
; 1174 : 		}

	mov	rbx, QWORD PTR [rsp+48]
	mov	rsi, QWORD PTR [rsp+56]
	add	rsp, 32					; 00000020H
	pop	rdi
	ret	0
?_Erase@?$_Tree@V?$_Tmap_traits@_KPEAVThreadInfo@@U?$less@_K@std@@V?$allocator@U?$pair@$$CB_KPEAVThreadInfo@@@std@@@3@$0A@@std@@@std@@IEAAXPEAU_Node@?$_Tree_nod@V?$_Tmap_traits@_KPEAVThreadInfo@@U?$less@_K@std@@V?$allocator@U?$pair@$$CB_KPEAVThreadInfo@@@std@@@3@$0A@@std@@@2@@Z ENDP ; std::_Tree<std::_Tmap_traits<unsigned __int64,ThreadInfo * __ptr64,std::less<unsigned __int64>,std::allocator<std::pair<unsigned __int64 const ,ThreadInfo * __ptr64> >,0> >::_Erase
; Function compile flags: /Ogtpy
_TEXT	ENDS
;	COMDAT ?_Root@?$_Tree@V?$_Tmap_traits@_KHU?$less@_K@std@@V?$allocator@U?$pair@$$CB_KH@std@@@2@$0A@@std@@@std@@IEBAAEAPEAU_Node@?$_Tree_nod@V?$_Tmap_traits@_KHU?$less@_K@std@@V?$allocator@U?$pair@$$CB_KH@std@@@2@$0A@@std@@@2@XZ
_TEXT	SEGMENT
this$ = 8
?_Root@?$_Tree@V?$_Tmap_traits@_KHU?$less@_K@std@@V?$allocator@U?$pair@$$CB_KH@std@@@2@$0A@@std@@@std@@IEBAAEAPEAU_Node@?$_Tree_nod@V?$_Tmap_traits@_KHU?$less@_K@std@@V?$allocator@U?$pair@$$CB_KH@std@@@2@$0A@@std@@@2@XZ PROC ; std::_Tree<std::_Tmap_traits<unsigned __int64,int,std::less<unsigned __int64>,std::allocator<std::pair<unsigned __int64 const ,int> >,0> >::_Root, COMDAT

; 1325 : 		return (_Parent(_Myhead));

	mov	rax, QWORD PTR [rcx+48]
	add	rax, 8

; 1326 : 		}

	ret	0
?_Root@?$_Tree@V?$_Tmap_traits@_KHU?$less@_K@std@@V?$allocator@U?$pair@$$CB_KH@std@@@2@$0A@@std@@@std@@IEBAAEAPEAU_Node@?$_Tree_nod@V?$_Tmap_traits@_KHU?$less@_K@std@@V?$allocator@U?$pair@$$CB_KH@std@@@2@$0A@@std@@@2@XZ ENDP ; std::_Tree<std::_Tmap_traits<unsigned __int64,int,std::less<unsigned __int64>,std::allocator<std::pair<unsigned __int64 const ,int> >,0> >::_Root
; Function compile flags: /Ogtpy
_TEXT	ENDS
;	COMDAT ?_Rmost@?$_Tree@V?$_Tmap_traits@_KHU?$less@_K@std@@V?$allocator@U?$pair@$$CB_KH@std@@@2@$0A@@std@@@std@@IEBAAEAPEAU_Node@?$_Tree_nod@V?$_Tmap_traits@_KHU?$less@_K@std@@V?$allocator@U?$pair@$$CB_KH@std@@@2@$0A@@std@@@2@XZ
_TEXT	SEGMENT
this$ = 8
?_Rmost@?$_Tree@V?$_Tmap_traits@_KHU?$less@_K@std@@V?$allocator@U?$pair@$$CB_KH@std@@@2@$0A@@std@@@std@@IEBAAEAPEAU_Node@?$_Tree_nod@V?$_Tmap_traits@_KHU?$less@_K@std@@V?$allocator@U?$pair@$$CB_KH@std@@@2@$0A@@std@@@2@XZ PROC ; std::_Tree<std::_Tmap_traits<unsigned __int64,int,std::less<unsigned __int64>,std::allocator<std::pair<unsigned __int64 const ,int> >,0> >::_Rmost, COMDAT

; 1320 : 		return (_Right(_Myhead));

	mov	rax, QWORD PTR [rcx+48]
	add	rax, 16

; 1321 : 		}

	ret	0
?_Rmost@?$_Tree@V?$_Tmap_traits@_KHU?$less@_K@std@@V?$allocator@U?$pair@$$CB_KH@std@@@2@$0A@@std@@@std@@IEBAAEAPEAU_Node@?$_Tree_nod@V?$_Tmap_traits@_KHU?$less@_K@std@@V?$allocator@U?$pair@$$CB_KH@std@@@2@$0A@@std@@@2@XZ ENDP ; std::_Tree<std::_Tmap_traits<unsigned __int64,int,std::less<unsigned __int64>,std::allocator<std::pair<unsigned __int64 const ,int> >,0> >::_Rmost
; Function compile flags: /Ogtpy
_TEXT	ENDS
;	COMDAT ?_Min@?$_Tree@V?$_Tmap_traits@_KHU?$less@_K@std@@V?$allocator@U?$pair@$$CB_KH@std@@@2@$0A@@std@@@std@@KAPEAU_Node@?$_Tree_nod@V?$_Tmap_traits@_KHU?$less@_K@std@@V?$allocator@U?$pair@$$CB_KH@std@@@2@$0A@@std@@@2@PEAU342@@Z
_TEXT	SEGMENT
_Pnode$ = 8
?_Min@?$_Tree@V?$_Tmap_traits@_KHU?$less@_K@std@@V?$allocator@U?$pair@$$CB_KH@std@@@2@$0A@@std@@@std@@KAPEAU_Node@?$_Tree_nod@V?$_Tmap_traits@_KHU?$less@_K@std@@V?$allocator@U?$pair@$$CB_KH@std@@@2@$0A@@std@@@2@PEAU342@@Z PROC ; std::_Tree<std::_Tmap_traits<unsigned __int64,int,std::less<unsigned __int64>,std::allocator<std::pair<unsigned __int64 const ,int> >,0> >::_Min, COMDAT

; 1313 : 		while (!_Isnil(_Left(_Pnode)))

	mov	rax, QWORD PTR [rcx]
	cmp	BYTE PTR [rax+41], 0
	jne	SHORT $LN13@Min@3
	npad	7
$LL2@Min@3:

; 1314 : 			_Pnode = _Left(_Pnode);

	mov	rcx, rax
	mov	rax, QWORD PTR [rax]
	cmp	BYTE PTR [rax+41], 0
	je	SHORT $LL2@Min@3
$LN13@Min@3:

; 1315 : 		return (_Pnode);

	mov	rax, rcx

; 1316 : 		}

	ret	0
?_Min@?$_Tree@V?$_Tmap_traits@_KHU?$less@_K@std@@V?$allocator@U?$pair@$$CB_KH@std@@@2@$0A@@std@@@std@@KAPEAU_Node@?$_Tree_nod@V?$_Tmap_traits@_KHU?$less@_K@std@@V?$allocator@U?$pair@$$CB_KH@std@@@2@$0A@@std@@@2@PEAU342@@Z ENDP ; std::_Tree<std::_Tmap_traits<unsigned __int64,int,std::less<unsigned __int64>,std::allocator<std::pair<unsigned __int64 const ,int> >,0> >::_Min
; Function compile flags: /Ogtpy
_TEXT	ENDS
;	COMDAT ?_Max@?$_Tree@V?$_Tmap_traits@_KHU?$less@_K@std@@V?$allocator@U?$pair@$$CB_KH@std@@@2@$0A@@std@@@std@@KAPEAU_Node@?$_Tree_nod@V?$_Tmap_traits@_KHU?$less@_K@std@@V?$allocator@U?$pair@$$CB_KH@std@@@2@$0A@@std@@@2@PEAU342@@Z
_TEXT	SEGMENT
_Pnode$ = 8
?_Max@?$_Tree@V?$_Tmap_traits@_KHU?$less@_K@std@@V?$allocator@U?$pair@$$CB_KH@std@@@2@$0A@@std@@@std@@KAPEAU_Node@?$_Tree_nod@V?$_Tmap_traits@_KHU?$less@_K@std@@V?$allocator@U?$pair@$$CB_KH@std@@@2@$0A@@std@@@2@PEAU342@@Z PROC ; std::_Tree<std::_Tmap_traits<unsigned __int64,int,std::less<unsigned __int64>,std::allocator<std::pair<unsigned __int64 const ,int> >,0> >::_Max, COMDAT

; 1306 : 		while (!_Isnil(_Right(_Pnode)))

	mov	rax, QWORD PTR [rcx+16]
	cmp	BYTE PTR [rax+41], 0
	jne	SHORT $LN13@Max@3
	npad	6
$LL2@Max@3:

; 1307 : 			_Pnode = _Right(_Pnode);

	mov	rcx, rax
	mov	rax, QWORD PTR [rax+16]
	cmp	BYTE PTR [rax+41], 0
	je	SHORT $LL2@Max@3
$LN13@Max@3:

; 1308 : 		return (_Pnode);

	mov	rax, rcx

; 1309 : 		}

	ret	0
?_Max@?$_Tree@V?$_Tmap_traits@_KHU?$less@_K@std@@V?$allocator@U?$pair@$$CB_KH@std@@@2@$0A@@std@@@std@@KAPEAU_Node@?$_Tree_nod@V?$_Tmap_traits@_KHU?$less@_K@std@@V?$allocator@U?$pair@$$CB_KH@std@@@2@$0A@@std@@@2@PEAU342@@Z ENDP ; std::_Tree<std::_Tmap_traits<unsigned __int64,int,std::less<unsigned __int64>,std::allocator<std::pair<unsigned __int64 const ,int> >,0> >::_Max
; Function compile flags: /Ogtpy
_TEXT	ENDS
;	COMDAT ?_Lrotate@?$_Tree@V?$_Tmap_traits@_KHU?$less@_K@std@@V?$allocator@U?$pair@$$CB_KH@std@@@2@$0A@@std@@@std@@IEAAXPEAU_Node@?$_Tree_nod@V?$_Tmap_traits@_KHU?$less@_K@std@@V?$allocator@U?$pair@$$CB_KH@std@@@2@$0A@@std@@@2@@Z
_TEXT	SEGMENT
this$ = 8
_Wherenode$ = 16
?_Lrotate@?$_Tree@V?$_Tmap_traits@_KHU?$less@_K@std@@V?$allocator@U?$pair@$$CB_KH@std@@@2@$0A@@std@@@std@@IEAAXPEAU_Node@?$_Tree_nod@V?$_Tmap_traits@_KHU?$less@_K@std@@V?$allocator@U?$pair@$$CB_KH@std@@@2@$0A@@std@@@2@@Z PROC ; std::_Tree<std::_Tmap_traits<unsigned __int64,int,std::less<unsigned __int64>,std::allocator<std::pair<unsigned __int64 const ,int> >,0> >::_Lrotate, COMDAT

; 1286 : 		_Nodeptr _Pnode = _Right(_Wherenode);

	mov	r8, QWORD PTR [rdx+16]

; 1287 : 		_Right(_Wherenode) = _Left(_Pnode);

	mov	rax, QWORD PTR [r8]
	mov	QWORD PTR [rdx+16], rax

; 1288 : 
; 1289 : 		if (!_Isnil(_Left(_Pnode)))

	mov	rax, QWORD PTR [r8]
	cmp	BYTE PTR [rax+41], 0
	jne	SHORT $LN5@Lrotate@3

; 1290 : 			_Parent(_Left(_Pnode)) = _Wherenode;

	mov	QWORD PTR [rax+8], rdx
$LN5@Lrotate@3:

; 1291 : 		_Parent(_Pnode) = _Parent(_Wherenode);

	mov	rax, QWORD PTR [rdx+8]
	mov	QWORD PTR [r8+8], rax

; 1292 : 
; 1293 : 		if (_Wherenode == _Root())

	mov	rax, QWORD PTR [rcx+48]
	cmp	rdx, QWORD PTR [rax+8]
	jne	SHORT $LN4@Lrotate@3

; 1294 : 			_Root() = _Pnode;

	mov	QWORD PTR [rax+8], r8

; 1299 : 
; 1300 : 		_Left(_Pnode) = _Wherenode;

	mov	QWORD PTR [r8], rdx

; 1301 : 		_Parent(_Wherenode) = _Pnode;

	mov	QWORD PTR [rdx+8], r8

; 1302 : 		}

	ret	0
$LN4@Lrotate@3:

; 1295 : 		else if (_Wherenode == _Left(_Parent(_Wherenode)))

	mov	rax, QWORD PTR [rdx+8]
	cmp	rdx, QWORD PTR [rax]
	jne	SHORT $LN2@Lrotate@3

; 1296 : 			_Left(_Parent(_Wherenode)) = _Pnode;

	mov	QWORD PTR [rax], r8

; 1299 : 
; 1300 : 		_Left(_Pnode) = _Wherenode;

	mov	QWORD PTR [r8], rdx

; 1301 : 		_Parent(_Wherenode) = _Pnode;

	mov	QWORD PTR [rdx+8], r8

; 1302 : 		}

	ret	0
$LN2@Lrotate@3:

; 1297 : 		else
; 1298 : 			_Right(_Parent(_Wherenode)) = _Pnode;

	mov	QWORD PTR [rax+16], r8

; 1299 : 
; 1300 : 		_Left(_Pnode) = _Wherenode;

	mov	QWORD PTR [r8], rdx

; 1301 : 		_Parent(_Wherenode) = _Pnode;

	mov	QWORD PTR [rdx+8], r8

; 1302 : 		}

	ret	0
?_Lrotate@?$_Tree@V?$_Tmap_traits@_KHU?$less@_K@std@@V?$allocator@U?$pair@$$CB_KH@std@@@2@$0A@@std@@@std@@IEAAXPEAU_Node@?$_Tree_nod@V?$_Tmap_traits@_KHU?$less@_K@std@@V?$allocator@U?$pair@$$CB_KH@std@@@2@$0A@@std@@@2@@Z ENDP ; std::_Tree<std::_Tmap_traits<unsigned __int64,int,std::less<unsigned __int64>,std::allocator<std::pair<unsigned __int64 const ,int> >,0> >::_Lrotate
_TEXT	ENDS
;	COMDAT pdata
; File c:\program files\microsoft visual studio 9.0\vc\include\xmemory
pdata	SEGMENT
$pdata$?_Erase@?$_Tree@V?$_Tmap_traits@_KHU?$less@_K@std@@V?$allocator@U?$pair@$$CB_KH@std@@@2@$0A@@std@@@std@@IEAAXPEAU_Node@?$_Tree_nod@V?$_Tmap_traits@_KHU?$less@_K@std@@V?$allocator@U?$pair@$$CB_KH@std@@@2@$0A@@std@@@2@@Z DD imagerel $LN16
	DD	imagerel $LN16+80
	DD	imagerel $unwind$?_Erase@?$_Tree@V?$_Tmap_traits@_KHU?$less@_K@std@@V?$allocator@U?$pair@$$CB_KH@std@@@2@$0A@@std@@@std@@IEAAXPEAU_Node@?$_Tree_nod@V?$_Tmap_traits@_KHU?$less@_K@std@@V?$allocator@U?$pair@$$CB_KH@std@@@2@$0A@@std@@@2@@Z
pdata	ENDS
;	COMDAT xdata
xdata	SEGMENT
$unwind$?_Erase@?$_Tree@V?$_Tmap_traits@_KHU?$less@_K@std@@V?$allocator@U?$pair@$$CB_KH@std@@@2@$0A@@std@@@std@@IEAAXPEAU_Node@?$_Tree_nod@V?$_Tmap_traits@_KHU?$less@_K@std@@V?$allocator@U?$pair@$$CB_KH@std@@@2@$0A@@std@@@2@@Z DD 060f01H
	DD	07640fH
	DD	06340fH
	DD	0700b320fH
; Function compile flags: /Ogtpy
; File c:\program files\microsoft visual studio 9.0\vc\include\xtree
xdata	ENDS
;	COMDAT ?_Erase@?$_Tree@V?$_Tmap_traits@_KHU?$less@_K@std@@V?$allocator@U?$pair@$$CB_KH@std@@@2@$0A@@std@@@std@@IEAAXPEAU_Node@?$_Tree_nod@V?$_Tmap_traits@_KHU?$less@_K@std@@V?$allocator@U?$pair@$$CB_KH@std@@@2@$0A@@std@@@2@@Z
_TEXT	SEGMENT
this$ = 48
_Rootnode$ = 56
?_Erase@?$_Tree@V?$_Tmap_traits@_KHU?$less@_K@std@@V?$allocator@U?$pair@$$CB_KH@std@@@2@$0A@@std@@@std@@IEAAXPEAU_Node@?$_Tree_nod@V?$_Tmap_traits@_KHU?$less@_K@std@@V?$allocator@U?$pair@$$CB_KH@std@@@2@$0A@@std@@@2@@Z PROC ; std::_Tree<std::_Tmap_traits<unsigned __int64,int,std::less<unsigned __int64>,std::allocator<std::pair<unsigned __int64 const ,int> >,0> >::_Erase, COMDAT

; 1166 : 		{	// free entire subtree, recursively

$LN16:
	mov	QWORD PTR [rsp+8], rbx
	mov	QWORD PTR [rsp+16], rsi
	push	rdi
	sub	rsp, 32					; 00000020H

; 1167 : 		for (_Nodeptr _Pnode = _Rootnode; !_Isnil(_Pnode); _Rootnode = _Pnode)

	cmp	BYTE PTR [rdx+41], 0
	mov	rdi, rdx
	mov	rsi, rcx
	mov	rbx, rdx
	jne	SHORT $LN1@Erase@3
	npad	2
$LL3@Erase@3:

; 1168 : 			{	// free subtrees, then node
; 1169 : 			_Erase(_Right(_Pnode));

	mov	rdx, QWORD PTR [rbx+16]
	mov	rcx, rsi
	call	?_Erase@?$_Tree@V?$_Tmap_traits@_KHU?$less@_K@std@@V?$allocator@U?$pair@$$CB_KH@std@@@2@$0A@@std@@@std@@IEAAXPEAU_Node@?$_Tree_nod@V?$_Tmap_traits@_KHU?$less@_K@std@@V?$allocator@U?$pair@$$CB_KH@std@@@2@$0A@@std@@@2@@Z ; std::_Tree<std::_Tmap_traits<unsigned __int64,int,std::less<unsigned __int64>,std::allocator<std::pair<unsigned __int64 const ,int> >,0> >::_Erase

; 1170 : 			_Pnode = _Left(_Pnode);

	mov	rbx, QWORD PTR [rbx]

; 1171 : 			this->_Alnod.destroy(_Rootnode);	// destroy, free erased node
; 1172 : 			this->_Alnod.deallocate(_Rootnode, 1);

	mov	rcx, rdi
	call	??3@YAXPEAX@Z				; operator delete
	cmp	BYTE PTR [rbx+41], 0
	mov	rdi, rbx
	je	SHORT $LL3@Erase@3
$LN1@Erase@3:

; 1173 : 			}
; 1174 : 		}

	mov	rbx, QWORD PTR [rsp+48]
	mov	rsi, QWORD PTR [rsp+56]
	add	rsp, 32					; 00000020H
	pop	rdi
	ret	0
?_Erase@?$_Tree@V?$_Tmap_traits@_KHU?$less@_K@std@@V?$allocator@U?$pair@$$CB_KH@std@@@2@$0A@@std@@@std@@IEAAXPEAU_Node@?$_Tree_nod@V?$_Tmap_traits@_KHU?$less@_K@std@@V?$allocator@U?$pair@$$CB_KH@std@@@2@$0A@@std@@@2@@Z ENDP ; std::_Tree<std::_Tmap_traits<unsigned __int64,int,std::less<unsigned __int64>,std::allocator<std::pair<unsigned __int64 const ,int> >,0> >::_Erase
_TEXT	ENDS
;	COMDAT pdata
; File c:\program files\microsoft visual studio 9.0\vc\include\xutility
pdata	SEGMENT
$pdata$??8const_iterator@?$_Tree@V?$_Tmap_traits@KPEAVThreadInfo@@U?$less@K@std@@V?$allocator@U?$pair@$$CBKPEAVThreadInfo@@@std@@@3@$0A@@std@@@std@@QEBA_NAEBV012@@Z DD imagerel $LN12
	DD	imagerel $LN12+57
	DD	imagerel $unwind$??8const_iterator@?$_Tree@V?$_Tmap_traits@KPEAVThreadInfo@@U?$less@K@std@@V?$allocator@U?$pair@$$CBKPEAVThreadInfo@@@std@@@3@$0A@@std@@@std@@QEBA_NAEBV012@@Z
pdata	ENDS
;	COMDAT xdata
xdata	SEGMENT
$unwind$??8const_iterator@?$_Tree@V?$_Tmap_traits@KPEAVThreadInfo@@U?$less@K@std@@V?$allocator@U?$pair@$$CBKPEAVThreadInfo@@@std@@@3@$0A@@std@@@std@@QEBA_NAEBV012@@Z DD 040a01H
	DD	06340aH
	DD	07006320aH
; Function compile flags: /Ogtpy
; File c:\program files\microsoft visual studio 9.0\vc\include\xtree
xdata	ENDS
;	COMDAT ??8const_iterator@?$_Tree@V?$_Tmap_traits@KPEAVThreadInfo@@U?$less@K@std@@V?$allocator@U?$pair@$$CBKPEAVThreadInfo@@@std@@@3@$0A@@std@@@std@@QEBA_NAEBV012@@Z
_TEXT	SEGMENT
this$ = 48
_Right$ = 56
??8const_iterator@?$_Tree@V?$_Tmap_traits@KPEAVThreadInfo@@U?$less@K@std@@V?$allocator@U?$pair@$$CBKPEAVThreadInfo@@@std@@@3@$0A@@std@@@std@@QEBA_NAEBV012@@Z PROC ; std::_Tree<std::_Tmap_traits<unsigned long,ThreadInfo * __ptr64,std::less<unsigned long>,std::allocator<std::pair<unsigned long const ,ThreadInfo * __ptr64> >,0> >::const_iterator::operator==, COMDAT

; 299  : 			{	// test for iterator equality

$LN12:
	mov	QWORD PTR [rsp+8], rbx
	push	rdi
	sub	rsp, 32					; 00000020H

; 300  : 
; 301  :  #if _HAS_ITERATOR_DEBUGGING
; 302  : 			if (this->_Mycont == 0 || this->_Mycont != _Right._Mycont)
; 303  : 				{
; 304  : 				_DEBUG_ERROR("map/set iterators incompatible");
; 305  : 				_SCL_SECURE_INVALID_ARGUMENT;
; 306  : 				}
; 307  :  #else
; 308  : 			_SCL_SECURE_VALIDATE(this->_Has_container() && this->_Same_container(_Right));

	mov	rax, QWORD PTR [rcx]
	mov	rbx, rdx
	mov	rdi, rcx
	test	rax, rax
	je	SHORT $LN4@operator@3
	cmp	rax, QWORD PTR [rdx]
	je	SHORT $LN3@operator@3
$LN4@operator@3:
	call	QWORD PTR __imp__invalid_parameter_noinfo
$LN3@operator@3:

; 309  :  #endif /* _HAS_ITERATOR_DEBUGGING */
; 310  : 
; 311  : 			return (_Ptr == _Right._Ptr);

	mov	rdx, QWORD PTR [rbx+8]

; 312  : 			}

	mov	rbx, QWORD PTR [rsp+48]
	cmp	QWORD PTR [rdi+8], rdx
	sete	al
	add	rsp, 32					; 00000020H
	pop	rdi
	ret	0
??8const_iterator@?$_Tree@V?$_Tmap_traits@KPEAVThreadInfo@@U?$less@K@std@@V?$allocator@U?$pair@$$CBKPEAVThreadInfo@@@std@@@3@$0A@@std@@@std@@QEBA_NAEBV012@@Z ENDP ; std::_Tree<std::_Tmap_traits<unsigned long,ThreadInfo * __ptr64,std::less<unsigned long>,std::allocator<std::pair<unsigned long const ,ThreadInfo * __ptr64> >,0> >::const_iterator::operator==
_TEXT	ENDS
;	COMDAT pdata
; File c:\program files\microsoft visual studio 9.0\vc\include\xutility
pdata	SEGMENT
$pdata$??0iterator@?$_Tree@V?$_Tmap_traits@KPEAVThreadInfo@@U?$less@K@std@@V?$allocator@U?$pair@$$CBKPEAVThreadInfo@@@std@@@3@$0A@@std@@@std@@QEAA@PEAU_Node@?$_Tree_nod@V?$_Tmap_traits@KPEAVThreadInfo@@U?$less@K@std@@V?$allocator@U?$pair@$$CBKPEAVThreadInfo@@@std@@@3@$0A@@std@@@2@PEBV12@@Z DD imagerel $LN17
	DD	imagerel $LN17+58
	DD	imagerel $unwind$??0iterator@?$_Tree@V?$_Tmap_traits@KPEAVThreadInfo@@U?$less@K@std@@V?$allocator@U?$pair@$$CBKPEAVThreadInfo@@@std@@@3@$0A@@std@@@std@@QEAA@PEAU_Node@?$_Tree_nod@V?$_Tmap_traits@KPEAVThreadInfo@@U?$less@K@std@@V?$allocator@U?$pair@$$CBKPEAVThreadInfo@@@std@@@3@$0A@@std@@@2@PEBV12@@Z
pdata	ENDS
;	COMDAT xdata
xdata	SEGMENT
$unwind$??0iterator@?$_Tree@V?$_Tmap_traits@KPEAVThreadInfo@@U?$less@K@std@@V?$allocator@U?$pair@$$CBKPEAVThreadInfo@@@std@@@3@$0A@@std@@@std@@QEAA@PEAU_Node@?$_Tree_nod@V?$_Tmap_traits@KPEAVThreadInfo@@U?$less@K@std@@V?$allocator@U?$pair@$$CBKPEAVThreadInfo@@@std@@@3@$0A@@std@@@2@PEBV12@@Z DD 040a01H
	DD	06340aH
	DD	07006320aH
; Function compile flags: /Ogtpy
; File c:\program files\microsoft visual studio 9.0\vc\include\xtree
xdata	ENDS
;	COMDAT ??0iterator@?$_Tree@V?$_Tmap_traits@KPEAVThreadInfo@@U?$less@K@std@@V?$allocator@U?$pair@$$CBKPEAVThreadInfo@@@std@@@3@$0A@@std@@@std@@QEAA@PEAU_Node@?$_Tree_nod@V?$_Tmap_traits@KPEAVThreadInfo@@U?$less@K@std@@V?$allocator@U?$pair@$$CBKPEAVThreadInfo@@@std@@@3@$0A@@std@@@2@PEBV12@@Z
_TEXT	SEGMENT
this$ = 48
_Pnode$ = 56
_Plist$ = 64
??0iterator@?$_Tree@V?$_Tmap_traits@KPEAVThreadInfo@@U?$less@K@std@@V?$allocator@U?$pair@$$CBKPEAVThreadInfo@@@std@@@3@$0A@@std@@@std@@QEAA@PEAU_Node@?$_Tree_nod@V?$_Tmap_traits@KPEAVThreadInfo@@U?$less@K@std@@V?$allocator@U?$pair@$$CBKPEAVThreadInfo@@@std@@@3@$0A@@std@@@2@PEBV12@@Z PROC ; std::_Tree<std::_Tmap_traits<unsigned long,ThreadInfo * __ptr64,std::less<unsigned long>,std::allocator<std::pair<unsigned long const ,ThreadInfo * __ptr64> >,0> >::iterator::iterator, COMDAT

; 451  : 			{	// construct with node pointer _Pnode

$LN17:
	mov	QWORD PTR [rsp+8], rbx
	push	rdi
	sub	rsp, 32					; 00000020H
	mov	rdi, r8
	mov	rbx, rcx
	mov	QWORD PTR [rcx], 0
	mov	QWORD PTR [rcx+8], rdx
	test	r8, r8
	jne	SHORT $LN5@iterator
	call	QWORD PTR __imp__invalid_parameter_noinfo
$LN5@iterator:
	mov	rax, QWORD PTR [rdi]
	mov	QWORD PTR [rbx], rax

; 452  : 			}

	mov	rax, rbx
	mov	rbx, QWORD PTR [rsp+48]
	add	rsp, 32					; 00000020H
	pop	rdi
	ret	0
??0iterator@?$_Tree@V?$_Tmap_traits@KPEAVThreadInfo@@U?$less@K@std@@V?$allocator@U?$pair@$$CBKPEAVThreadInfo@@@std@@@3@$0A@@std@@@std@@QEAA@PEAU_Node@?$_Tree_nod@V?$_Tmap_traits@KPEAVThreadInfo@@U?$less@K@std@@V?$allocator@U?$pair@$$CBKPEAVThreadInfo@@@std@@@3@$0A@@std@@@2@PEBV12@@Z ENDP ; std::_Tree<std::_Tmap_traits<unsigned long,ThreadInfo * __ptr64,std::less<unsigned long>,std::allocator<std::pair<unsigned long const ,ThreadInfo * __ptr64> >,0> >::iterator::iterator
_TEXT	ENDS
;	COMDAT pdata
; File c:\program files\microsoft visual studio 9.0\vc\include\xutility
pdata	SEGMENT
$pdata$??8const_iterator@?$_Tree@V?$_Tmap_traits@_KPEAVThreadInfo@@U?$less@_K@std@@V?$allocator@U?$pair@$$CB_KPEAVThreadInfo@@@std@@@3@$0A@@std@@@std@@QEBA_NAEBV012@@Z DD imagerel $LN12
	DD	imagerel $LN12+57
	DD	imagerel $unwind$??8const_iterator@?$_Tree@V?$_Tmap_traits@_KPEAVThreadInfo@@U?$less@_K@std@@V?$allocator@U?$pair@$$CB_KPEAVThreadInfo@@@std@@@3@$0A@@std@@@std@@QEBA_NAEBV012@@Z
pdata	ENDS
;	COMDAT xdata
xdata	SEGMENT
$unwind$??8const_iterator@?$_Tree@V?$_Tmap_traits@_KPEAVThreadInfo@@U?$less@_K@std@@V?$allocator@U?$pair@$$CB_KPEAVThreadInfo@@@std@@@3@$0A@@std@@@std@@QEBA_NAEBV012@@Z DD 040a01H
	DD	06340aH
	DD	07006320aH
; Function compile flags: /Ogtpy
; File c:\program files\microsoft visual studio 9.0\vc\include\xtree
xdata	ENDS
;	COMDAT ??8const_iterator@?$_Tree@V?$_Tmap_traits@_KPEAVThreadInfo@@U?$less@_K@std@@V?$allocator@U?$pair@$$CB_KPEAVThreadInfo@@@std@@@3@$0A@@std@@@std@@QEBA_NAEBV012@@Z
_TEXT	SEGMENT
this$ = 48
_Right$ = 56
??8const_iterator@?$_Tree@V?$_Tmap_traits@_KPEAVThreadInfo@@U?$less@_K@std@@V?$allocator@U?$pair@$$CB_KPEAVThreadInfo@@@std@@@3@$0A@@std@@@std@@QEBA_NAEBV012@@Z PROC ; std::_Tree<std::_Tmap_traits<unsigned __int64,ThreadInfo * __ptr64,std::less<unsigned __int64>,std::allocator<std::pair<unsigned __int64 const ,ThreadInfo * __ptr64> >,0> >::const_iterator::operator==, COMDAT

; 299  : 			{	// test for iterator equality

$LN12:
	mov	QWORD PTR [rsp+8], rbx
	push	rdi
	sub	rsp, 32					; 00000020H

; 300  : 
; 301  :  #if _HAS_ITERATOR_DEBUGGING
; 302  : 			if (this->_Mycont == 0 || this->_Mycont != _Right._Mycont)
; 303  : 				{
; 304  : 				_DEBUG_ERROR("map/set iterators incompatible");
; 305  : 				_SCL_SECURE_INVALID_ARGUMENT;
; 306  : 				}
; 307  :  #else
; 308  : 			_SCL_SECURE_VALIDATE(this->_Has_container() && this->_Same_container(_Right));

	mov	rax, QWORD PTR [rcx]
	mov	rbx, rdx
	mov	rdi, rcx
	test	rax, rax
	je	SHORT $LN4@operator@4
	cmp	rax, QWORD PTR [rdx]
	je	SHORT $LN3@operator@4
$LN4@operator@4:
	call	QWORD PTR __imp__invalid_parameter_noinfo
$LN3@operator@4:

; 309  :  #endif /* _HAS_ITERATOR_DEBUGGING */
; 310  : 
; 311  : 			return (_Ptr == _Right._Ptr);

	mov	rdx, QWORD PTR [rbx+8]

; 312  : 			}

	mov	rbx, QWORD PTR [rsp+48]
	cmp	QWORD PTR [rdi+8], rdx
	sete	al
	add	rsp, 32					; 00000020H
	pop	rdi
	ret	0
??8const_iterator@?$_Tree@V?$_Tmap_traits@_KPEAVThreadInfo@@U?$less@_K@std@@V?$allocator@U?$pair@$$CB_KPEAVThreadInfo@@@std@@@3@$0A@@std@@@std@@QEBA_NAEBV012@@Z ENDP ; std::_Tree<std::_Tmap_traits<unsigned __int64,ThreadInfo * __ptr64,std::less<unsigned __int64>,std::allocator<std::pair<unsigned __int64 const ,ThreadInfo * __ptr64> >,0> >::const_iterator::operator==
_TEXT	ENDS
;	COMDAT pdata
; File c:\program files\microsoft visual studio 9.0\vc\include\xutility
pdata	SEGMENT
$pdata$??0iterator@?$_Tree@V?$_Tmap_traits@_KPEAVThreadInfo@@U?$less@_K@std@@V?$allocator@U?$pair@$$CB_KPEAVThreadInfo@@@std@@@3@$0A@@std@@@std@@QEAA@PEAU_Node@?$_Tree_nod@V?$_Tmap_traits@_KPEAVThreadInfo@@U?$less@_K@std@@V?$allocator@U?$pair@$$CB_KPEAVThreadInfo@@@std@@@3@$0A@@std@@@2@PEBV12@@Z DD imagerel $LN17
	DD	imagerel $LN17+58
	DD	imagerel $unwind$??0iterator@?$_Tree@V?$_Tmap_traits@_KPEAVThreadInfo@@U?$less@_K@std@@V?$allocator@U?$pair@$$CB_KPEAVThreadInfo@@@std@@@3@$0A@@std@@@std@@QEAA@PEAU_Node@?$_Tree_nod@V?$_Tmap_traits@_KPEAVThreadInfo@@U?$less@_K@std@@V?$allocator@U?$pair@$$CB_KPEAVThreadInfo@@@std@@@3@$0A@@std@@@2@PEBV12@@Z
pdata	ENDS
;	COMDAT xdata
xdata	SEGMENT
$unwind$??0iterator@?$_Tree@V?$_Tmap_traits@_KPEAVThreadInfo@@U?$less@_K@std@@V?$allocator@U?$pair@$$CB_KPEAVThreadInfo@@@std@@@3@$0A@@std@@@std@@QEAA@PEAU_Node@?$_Tree_nod@V?$_Tmap_traits@_KPEAVThreadInfo@@U?$less@_K@std@@V?$allocator@U?$pair@$$CB_KPEAVThreadInfo@@@std@@@3@$0A@@std@@@2@PEBV12@@Z DD 040a01H
	DD	06340aH
	DD	07006320aH
; Function compile flags: /Ogtpy
; File c:\program files\microsoft visual studio 9.0\vc\include\xtree
xdata	ENDS
;	COMDAT ??0iterator@?$_Tree@V?$_Tmap_traits@_KPEAVThreadInfo@@U?$less@_K@std@@V?$allocator@U?$pair@$$CB_KPEAVThreadInfo@@@std@@@3@$0A@@std@@@std@@QEAA@PEAU_Node@?$_Tree_nod@V?$_Tmap_traits@_KPEAVThreadInfo@@U?$less@_K@std@@V?$allocator@U?$pair@$$CB_KPEAVThreadInfo@@@std@@@3@$0A@@std@@@2@PEBV12@@Z
_TEXT	SEGMENT
this$ = 48
_Pnode$ = 56
_Plist$ = 64
??0iterator@?$_Tree@V?$_Tmap_traits@_KPEAVThreadInfo@@U?$less@_K@std@@V?$allocator@U?$pair@$$CB_KPEAVThreadInfo@@@std@@@3@$0A@@std@@@std@@QEAA@PEAU_Node@?$_Tree_nod@V?$_Tmap_traits@_KPEAVThreadInfo@@U?$less@_K@std@@V?$allocator@U?$pair@$$CB_KPEAVThreadInfo@@@std@@@3@$0A@@std@@@2@PEBV12@@Z PROC ; std::_Tree<std::_Tmap_traits<unsigned __int64,ThreadInfo * __ptr64,std::less<unsigned __int64>,std::allocator<std::pair<unsigned __int64 const ,ThreadInfo * __ptr64> >,0> >::iterator::iterator, COMDAT

; 451  : 			{	// construct with node pointer _Pnode

$LN17:
	mov	QWORD PTR [rsp+8], rbx
	push	rdi
	sub	rsp, 32					; 00000020H
	mov	rdi, r8
	mov	rbx, rcx
	mov	QWORD PTR [rcx], 0
	mov	QWORD PTR [rcx+8], rdx
	test	r8, r8
	jne	SHORT $LN5@iterator@2
	call	QWORD PTR __imp__invalid_parameter_noinfo
$LN5@iterator@2:
	mov	rax, QWORD PTR [rdi]
	mov	QWORD PTR [rbx], rax

; 452  : 			}

	mov	rax, rbx
	mov	rbx, QWORD PTR [rsp+48]
	add	rsp, 32					; 00000020H
	pop	rdi
	ret	0
??0iterator@?$_Tree@V?$_Tmap_traits@_KPEAVThreadInfo@@U?$less@_K@std@@V?$allocator@U?$pair@$$CB_KPEAVThreadInfo@@@std@@@3@$0A@@std@@@std@@QEAA@PEAU_Node@?$_Tree_nod@V?$_Tmap_traits@_KPEAVThreadInfo@@U?$less@_K@std@@V?$allocator@U?$pair@$$CB_KPEAVThreadInfo@@@std@@@3@$0A@@std@@@2@PEBV12@@Z ENDP ; std::_Tree<std::_Tmap_traits<unsigned __int64,ThreadInfo * __ptr64,std::less<unsigned __int64>,std::allocator<std::pair<unsigned __int64 const ,ThreadInfo * __ptr64> >,0> >::iterator::iterator
_TEXT	ENDS
;	COMDAT pdata
; File c:\program files\microsoft visual studio 9.0\vc\include\xutility
pdata	SEGMENT
$pdata$??8const_iterator@?$_Tree@V?$_Tmap_traits@_KHU?$less@_K@std@@V?$allocator@U?$pair@$$CB_KH@std@@@2@$0A@@std@@@std@@QEBA_NAEBV012@@Z DD imagerel $LN12
	DD	imagerel $LN12+57
	DD	imagerel $unwind$??8const_iterator@?$_Tree@V?$_Tmap_traits@_KHU?$less@_K@std@@V?$allocator@U?$pair@$$CB_KH@std@@@2@$0A@@std@@@std@@QEBA_NAEBV012@@Z
pdata	ENDS
;	COMDAT xdata
xdata	SEGMENT
$unwind$??8const_iterator@?$_Tree@V?$_Tmap_traits@_KHU?$less@_K@std@@V?$allocator@U?$pair@$$CB_KH@std@@@2@$0A@@std@@@std@@QEBA_NAEBV012@@Z DD 040a01H
	DD	06340aH
	DD	07006320aH
; Function compile flags: /Ogtpy
; File c:\program files\microsoft visual studio 9.0\vc\include\xtree
xdata	ENDS
;	COMDAT ??8const_iterator@?$_Tree@V?$_Tmap_traits@_KHU?$less@_K@std@@V?$allocator@U?$pair@$$CB_KH@std@@@2@$0A@@std@@@std@@QEBA_NAEBV012@@Z
_TEXT	SEGMENT
this$ = 48
_Right$ = 56
??8const_iterator@?$_Tree@V?$_Tmap_traits@_KHU?$less@_K@std@@V?$allocator@U?$pair@$$CB_KH@std@@@2@$0A@@std@@@std@@QEBA_NAEBV012@@Z PROC ; std::_Tree<std::_Tmap_traits<unsigned __int64,int,std::less<unsigned __int64>,std::allocator<std::pair<unsigned __int64 const ,int> >,0> >::const_iterator::operator==, COMDAT

; 299  : 			{	// test for iterator equality

$LN12:
	mov	QWORD PTR [rsp+8], rbx
	push	rdi
	sub	rsp, 32					; 00000020H

; 300  : 
; 301  :  #if _HAS_ITERATOR_DEBUGGING
; 302  : 			if (this->_Mycont == 0 || this->_Mycont != _Right._Mycont)
; 303  : 				{
; 304  : 				_DEBUG_ERROR("map/set iterators incompatible");
; 305  : 				_SCL_SECURE_INVALID_ARGUMENT;
; 306  : 				}
; 307  :  #else
; 308  : 			_SCL_SECURE_VALIDATE(this->_Has_container() && this->_Same_container(_Right));

	mov	rax, QWORD PTR [rcx]
	mov	rbx, rdx
	mov	rdi, rcx
	test	rax, rax
	je	SHORT $LN4@operator@5
	cmp	rax, QWORD PTR [rdx]
	je	SHORT $LN3@operator@5
$LN4@operator@5:
	call	QWORD PTR __imp__invalid_parameter_noinfo
$LN3@operator@5:

; 309  :  #endif /* _HAS_ITERATOR_DEBUGGING */
; 310  : 
; 311  : 			return (_Ptr == _Right._Ptr);

	mov	rdx, QWORD PTR [rbx+8]

; 312  : 			}

	mov	rbx, QWORD PTR [rsp+48]
	cmp	QWORD PTR [rdi+8], rdx
	sete	al
	add	rsp, 32					; 00000020H
	pop	rdi
	ret	0
??8const_iterator@?$_Tree@V?$_Tmap_traits@_KHU?$less@_K@std@@V?$allocator@U?$pair@$$CB_KH@std@@@2@$0A@@std@@@std@@QEBA_NAEBV012@@Z ENDP ; std::_Tree<std::_Tmap_traits<unsigned __int64,int,std::less<unsigned __int64>,std::allocator<std::pair<unsigned __int64 const ,int> >,0> >::const_iterator::operator==
_TEXT	ENDS
;	COMDAT pdata
; File c:\program files\microsoft visual studio 9.0\vc\include\xutility
pdata	SEGMENT
$pdata$??0iterator@?$_Tree@V?$_Tmap_traits@_KHU?$less@_K@std@@V?$allocator@U?$pair@$$CB_KH@std@@@2@$0A@@std@@@std@@QEAA@PEAU_Node@?$_Tree_nod@V?$_Tmap_traits@_KHU?$less@_K@std@@V?$allocator@U?$pair@$$CB_KH@std@@@2@$0A@@std@@@2@PEBV12@@Z DD imagerel $LN17
	DD	imagerel $LN17+58
	DD	imagerel $unwind$??0iterator@?$_Tree@V?$_Tmap_traits@_KHU?$less@_K@std@@V?$allocator@U?$pair@$$CB_KH@std@@@2@$0A@@std@@@std@@QEAA@PEAU_Node@?$_Tree_nod@V?$_Tmap_traits@_KHU?$less@_K@std@@V?$allocator@U?$pair@$$CB_KH@std@@@2@$0A@@std@@@2@PEBV12@@Z
pdata	ENDS
;	COMDAT xdata
xdata	SEGMENT
$unwind$??0iterator@?$_Tree@V?$_Tmap_traits@_KHU?$less@_K@std@@V?$allocator@U?$pair@$$CB_KH@std@@@2@$0A@@std@@@std@@QEAA@PEAU_Node@?$_Tree_nod@V?$_Tmap_traits@_KHU?$less@_K@std@@V?$allocator@U?$pair@$$CB_KH@std@@@2@$0A@@std@@@2@PEBV12@@Z DD 040a01H
	DD	06340aH
	DD	07006320aH
; Function compile flags: /Ogtpy
; File c:\program files\microsoft visual studio 9.0\vc\include\xtree
xdata	ENDS
;	COMDAT ??0iterator@?$_Tree@V?$_Tmap_traits@_KHU?$less@_K@std@@V?$allocator@U?$pair@$$CB_KH@std@@@2@$0A@@std@@@std@@QEAA@PEAU_Node@?$_Tree_nod@V?$_Tmap_traits@_KHU?$less@_K@std@@V?$allocator@U?$pair@$$CB_KH@std@@@2@$0A@@std@@@2@PEBV12@@Z
_TEXT	SEGMENT
this$ = 48
_Pnode$ = 56
_Plist$ = 64
??0iterator@?$_Tree@V?$_Tmap_traits@_KHU?$less@_K@std@@V?$allocator@U?$pair@$$CB_KH@std@@@2@$0A@@std@@@std@@QEAA@PEAU_Node@?$_Tree_nod@V?$_Tmap_traits@_KHU?$less@_K@std@@V?$allocator@U?$pair@$$CB_KH@std@@@2@$0A@@std@@@2@PEBV12@@Z PROC ; std::_Tree<std::_Tmap_traits<unsigned __int64,int,std::less<unsigned __int64>,std::allocator<std::pair<unsigned __int64 const ,int> >,0> >::iterator::iterator, COMDAT

; 451  : 			{	// construct with node pointer _Pnode

$LN17:
	mov	QWORD PTR [rsp+8], rbx
	push	rdi
	sub	rsp, 32					; 00000020H
	mov	rdi, r8
	mov	rbx, rcx
	mov	QWORD PTR [rcx], 0
	mov	QWORD PTR [rcx+8], rdx
	test	r8, r8
	jne	SHORT $LN5@iterator@3
	call	QWORD PTR __imp__invalid_parameter_noinfo
$LN5@iterator@3:
	mov	rax, QWORD PTR [rdi]
	mov	QWORD PTR [rbx], rax

; 452  : 			}

	mov	rax, rbx
	mov	rbx, QWORD PTR [rsp+48]
	add	rsp, 32					; 00000020H
	pop	rdi
	ret	0
??0iterator@?$_Tree@V?$_Tmap_traits@_KHU?$less@_K@std@@V?$allocator@U?$pair@$$CB_KH@std@@@2@$0A@@std@@@std@@QEAA@PEAU_Node@?$_Tree_nod@V?$_Tmap_traits@_KHU?$less@_K@std@@V?$allocator@U?$pair@$$CB_KH@std@@@2@$0A@@std@@@2@PEBV12@@Z ENDP ; std::_Tree<std::_Tmap_traits<unsigned __int64,int,std::less<unsigned __int64>,std::allocator<std::pair<unsigned __int64 const ,int> >,0> >::iterator::iterator
; Function compile flags: /Ogtpy
_TEXT	ENDS
;	COMDAT ?_Lmost@?$_Tree@V?$_Tmap_traits@KPEAVThreadInfo@@U?$less@K@std@@V?$allocator@U?$pair@$$CBKPEAVThreadInfo@@@std@@@3@$0A@@std@@@std@@IEBAAEAPEAU_Node@?$_Tree_nod@V?$_Tmap_traits@KPEAVThreadInfo@@U?$less@K@std@@V?$allocator@U?$pair@$$CBKPEAVThreadInfo@@@std@@@3@$0A@@std@@@2@XZ
_TEXT	SEGMENT
this$ = 8
?_Lmost@?$_Tree@V?$_Tmap_traits@KPEAVThreadInfo@@U?$less@K@std@@V?$allocator@U?$pair@$$CBKPEAVThreadInfo@@@std@@@3@$0A@@std@@@std@@IEBAAEAPEAU_Node@?$_Tree_nod@V?$_Tmap_traits@KPEAVThreadInfo@@U?$less@K@std@@V?$allocator@U?$pair@$$CBKPEAVThreadInfo@@@std@@@3@$0A@@std@@@2@XZ PROC ; std::_Tree<std::_Tmap_traits<unsigned long,ThreadInfo * __ptr64,std::less<unsigned long>,std::allocator<std::pair<unsigned long const ,ThreadInfo * __ptr64> >,0> >::_Lmost, COMDAT

; 1281 : 		return (_Left(_Myhead));

	mov	rax, QWORD PTR [rcx+48]

; 1282 : 		}

	ret	0
?_Lmost@?$_Tree@V?$_Tmap_traits@KPEAVThreadInfo@@U?$less@K@std@@V?$allocator@U?$pair@$$CBKPEAVThreadInfo@@@std@@@3@$0A@@std@@@std@@IEBAAEAPEAU_Node@?$_Tree_nod@V?$_Tmap_traits@KPEAVThreadInfo@@U?$less@K@std@@V?$allocator@U?$pair@$$CBKPEAVThreadInfo@@@std@@@3@$0A@@std@@@2@XZ ENDP ; std::_Tree<std::_Tmap_traits<unsigned long,ThreadInfo * __ptr64,std::less<unsigned long>,std::allocator<std::pair<unsigned long const ,ThreadInfo * __ptr64> >,0> >::_Lmost
_TEXT	ENDS
;	COMDAT pdata
pdata	SEGMENT
$pdata$?clear@?$_Tree@V?$_Tmap_traits@KPEAVThreadInfo@@U?$less@K@std@@V?$allocator@U?$pair@$$CBKPEAVThreadInfo@@@std@@@3@$0A@@std@@@std@@QEAAXXZ DD imagerel $LN34
	DD	imagerel $LN34+114
	DD	imagerel $unwind$?clear@?$_Tree@V?$_Tmap_traits@KPEAVThreadInfo@@U?$less@K@std@@V?$allocator@U?$pair@$$CBKPEAVThreadInfo@@@std@@@3@$0A@@std@@@std@@QEAAXXZ
pdata	ENDS
;	COMDAT xdata
xdata	SEGMENT
$unwind$?clear@?$_Tree@V?$_Tmap_traits@KPEAVThreadInfo@@U?$less@K@std@@V?$allocator@U?$pair@$$CBKPEAVThreadInfo@@@std@@@3@$0A@@std@@@std@@QEAAXXZ DD 060f01H
	DD	07640fH
	DD	06340fH
	DD	0700b320fH
; Function compile flags: /Ogtpy
xdata	ENDS
;	COMDAT ?clear@?$_Tree@V?$_Tmap_traits@KPEAVThreadInfo@@U?$less@K@std@@V?$allocator@U?$pair@$$CBKPEAVThreadInfo@@@std@@@3@$0A@@std@@@std@@QEAAXXZ
_TEXT	SEGMENT
this$ = 48
?clear@?$_Tree@V?$_Tmap_traits@KPEAVThreadInfo@@U?$less@K@std@@V?$allocator@U?$pair@$$CBKPEAVThreadInfo@@@std@@@3@$0A@@std@@@std@@QEAAXXZ PROC ; std::_Tree<std::_Tmap_traits<unsigned long,ThreadInfo * __ptr64,std::less<unsigned long>,std::allocator<std::pair<unsigned long const ,ThreadInfo * __ptr64> >,0> >::clear, COMDAT

; 965  : 		{	// erase all

$LN34:
	mov	QWORD PTR [rsp+8], rbx
	mov	QWORD PTR [rsp+16], rsi
	push	rdi
	sub	rsp, 32					; 00000020H

; 966  : 
; 967  :  #if _HAS_ITERATOR_DEBUGGING
; 968  : 		this->_Orphan_ptr(*this, 0);
; 969  :  #endif /* _HAS_ITERATOR_DEBUGGING */
; 970  : 
; 971  : 		_Erase(_Root());

	mov	rax, QWORD PTR [rcx+48]
	mov	rbx, rcx
	mov	rsi, QWORD PTR [rax+8]
	mov	rdi, rsi
	cmp	BYTE PTR [rsi+41], 0
	jne	SHORT $LN7@clear
$LL9@clear:
	mov	rdx, QWORD PTR [rdi+16]
	mov	rcx, rbx
	call	?_Erase@?$_Tree@V?$_Tmap_traits@KPEAVThreadInfo@@U?$less@K@std@@V?$allocator@U?$pair@$$CBKPEAVThreadInfo@@@std@@@3@$0A@@std@@@std@@IEAAXPEAU_Node@?$_Tree_nod@V?$_Tmap_traits@KPEAVThreadInfo@@U?$less@K@std@@V?$allocator@U?$pair@$$CBKPEAVThreadInfo@@@std@@@3@$0A@@std@@@2@@Z ; std::_Tree<std::_Tmap_traits<unsigned long,ThreadInfo * __ptr64,std::less<unsigned long>,std::allocator<std::pair<unsigned long const ,ThreadInfo * __ptr64> >,0> >::_Erase
	mov	rdi, QWORD PTR [rdi]
	mov	rcx, rsi
	call	??3@YAXPEAX@Z				; operator delete
	cmp	BYTE PTR [rdi+41], 0
	mov	rsi, rdi
	je	SHORT $LL9@clear
$LN7@clear:

; 972  : 		_Root() = _Myhead, _Mysize = 0;

	mov	rax, QWORD PTR [rbx+48]

; 973  : 		_Lmost() = _Myhead, _Rmost() = _Myhead;
; 974  : 		}

	mov	rsi, QWORD PTR [rsp+56]
	mov	QWORD PTR [rax+8], rax
	mov	rax, QWORD PTR [rbx+48]
	mov	QWORD PTR [rbx+56], 0
	mov	QWORD PTR [rax], rax
	mov	rax, QWORD PTR [rbx+48]
	mov	rbx, QWORD PTR [rsp+48]
	mov	QWORD PTR [rax+16], rax
	add	rsp, 32					; 00000020H
	pop	rdi
	ret	0
?clear@?$_Tree@V?$_Tmap_traits@KPEAVThreadInfo@@U?$less@K@std@@V?$allocator@U?$pair@$$CBKPEAVThreadInfo@@@std@@@3@$0A@@std@@@std@@QEAAXXZ ENDP ; std::_Tree<std::_Tmap_traits<unsigned long,ThreadInfo * __ptr64,std::less<unsigned long>,std::allocator<std::pair<unsigned long const ,ThreadInfo * __ptr64> >,0> >::clear
_TEXT	ENDS
;	COMDAT pdata
; File c:\program files\microsoft visual studio 9.0\vc\include\xutility
pdata	SEGMENT
$pdata$?_Make_iter@?$_Tree@V?$_Tmap_traits@KPEAVThreadInfo@@U?$less@K@std@@V?$allocator@U?$pair@$$CBKPEAVThreadInfo@@@std@@@3@$0A@@std@@@std@@QEBA?AViterator@12@Vconst_iterator@12@@Z DD imagerel $LN19
	DD	imagerel $LN19+77
	DD	imagerel $unwind$?_Make_iter@?$_Tree@V?$_Tmap_traits@KPEAVThreadInfo@@U?$less@K@std@@V?$allocator@U?$pair@$$CBKPEAVThreadInfo@@@std@@@3@$0A@@std@@@std@@QEBA?AViterator@12@Vconst_iterator@12@@Z
pdata	ENDS
;	COMDAT xdata
xdata	SEGMENT
$unwind$?_Make_iter@?$_Tree@V?$_Tmap_traits@KPEAVThreadInfo@@U?$less@K@std@@V?$allocator@U?$pair@$$CBKPEAVThreadInfo@@@std@@@3@$0A@@std@@@std@@QEBA?AViterator@12@Vconst_iterator@12@@Z DD 040a01H
	DD	08340aH
	DD	07006520aH
; Function compile flags: /Ogtpy
; File c:\program files\microsoft visual studio 9.0\vc\include\xtree
xdata	ENDS
;	COMDAT ?_Make_iter@?$_Tree@V?$_Tmap_traits@KPEAVThreadInfo@@U?$less@K@std@@V?$allocator@U?$pair@$$CBKPEAVThreadInfo@@@std@@@3@$0A@@std@@@std@@QEBA?AViterator@12@Vconst_iterator@12@@Z
_TEXT	SEGMENT
$T150132 = 32
this$ = 64
__$ReturnUdt$ = 72
_Where$ = 80
?_Make_iter@?$_Tree@V?$_Tmap_traits@KPEAVThreadInfo@@U?$less@K@std@@V?$allocator@U?$pair@$$CBKPEAVThreadInfo@@@std@@@3@$0A@@std@@@std@@QEBA?AViterator@12@Vconst_iterator@12@@Z PROC ; std::_Tree<std::_Tmap_traits<unsigned long,ThreadInfo * __ptr64,std::less<unsigned long>,std::allocator<std::pair<unsigned long const ,ThreadInfo * __ptr64> >,0> >::_Make_iter, COMDAT

; 575  : 		{	// make iterator from const_iterator

$LN19:
	mov	QWORD PTR [rsp+8], rbx
	push	rdi
	sub	rsp, 48					; 00000030H

; 576  : 		return (iterator(_TREE_ITERATOR(_Where._Ptr)));

	mov	rax, QWORD PTR [r8+8]
	mov	rbx, rdx
	mov	rdi, rcx
	mov	QWORD PTR $T150132[rsp+8], rax
	test	rcx, rcx
	jne	SHORT $LN7@Make_iter
	call	QWORD PTR __imp__invalid_parameter_noinfo
$LN7@Make_iter:
	mov	rax, QWORD PTR [rdi]
	lea	rcx, QWORD PTR $T150132[rsp]
	mov	QWORD PTR $T150132[rsp], rax
	mov	rax, QWORD PTR [rcx]
	mov	QWORD PTR [rbx], rax
	mov	rax, QWORD PTR [rcx+8]
	mov	QWORD PTR [rbx+8], rax
	mov	rax, rbx

; 577  : 		}

	mov	rbx, QWORD PTR [rsp+64]
	add	rsp, 48					; 00000030H
	pop	rdi
	ret	0
?_Make_iter@?$_Tree@V?$_Tmap_traits@KPEAVThreadInfo@@U?$less@K@std@@V?$allocator@U?$pair@$$CBKPEAVThreadInfo@@@std@@@3@$0A@@std@@@std@@QEBA?AViterator@12@Vconst_iterator@12@@Z ENDP ; std::_Tree<std::_Tmap_traits<unsigned long,ThreadInfo * __ptr64,std::less<unsigned long>,std::allocator<std::pair<unsigned long const ,ThreadInfo * __ptr64> >,0> >::_Make_iter
; Function compile flags: /Ogtpy
_TEXT	ENDS
;	COMDAT ?_Lmost@?$_Tree@V?$_Tmap_traits@_KPEAVThreadInfo@@U?$less@_K@std@@V?$allocator@U?$pair@$$CB_KPEAVThreadInfo@@@std@@@3@$0A@@std@@@std@@IEBAAEAPEAU_Node@?$_Tree_nod@V?$_Tmap_traits@_KPEAVThreadInfo@@U?$less@_K@std@@V?$allocator@U?$pair@$$CB_KPEAVThreadInfo@@@std@@@3@$0A@@std@@@2@XZ
_TEXT	SEGMENT
this$ = 8
?_Lmost@?$_Tree@V?$_Tmap_traits@_KPEAVThreadInfo@@U?$less@_K@std@@V?$allocator@U?$pair@$$CB_KPEAVThreadInfo@@@std@@@3@$0A@@std@@@std@@IEBAAEAPEAU_Node@?$_Tree_nod@V?$_Tmap_traits@_KPEAVThreadInfo@@U?$less@_K@std@@V?$allocator@U?$pair@$$CB_KPEAVThreadInfo@@@std@@@3@$0A@@std@@@2@XZ PROC ; std::_Tree<std::_Tmap_traits<unsigned __int64,ThreadInfo * __ptr64,std::less<unsigned __int64>,std::allocator<std::pair<unsigned __int64 const ,ThreadInfo * __ptr64> >,0> >::_Lmost, COMDAT

; 1281 : 		return (_Left(_Myhead));

	mov	rax, QWORD PTR [rcx+48]

; 1282 : 		}

	ret	0
?_Lmost@?$_Tree@V?$_Tmap_traits@_KPEAVThreadInfo@@U?$less@_K@std@@V?$allocator@U?$pair@$$CB_KPEAVThreadInfo@@@std@@@3@$0A@@std@@@std@@IEBAAEAPEAU_Node@?$_Tree_nod@V?$_Tmap_traits@_KPEAVThreadInfo@@U?$less@_K@std@@V?$allocator@U?$pair@$$CB_KPEAVThreadInfo@@@std@@@3@$0A@@std@@@2@XZ ENDP ; std::_Tree<std::_Tmap_traits<unsigned __int64,ThreadInfo * __ptr64,std::less<unsigned __int64>,std::allocator<std::pair<unsigned __int64 const ,ThreadInfo * __ptr64> >,0> >::_Lmost
_TEXT	ENDS
;	COMDAT pdata
pdata	SEGMENT
$pdata$?clear@?$_Tree@V?$_Tmap_traits@_KPEAVThreadInfo@@U?$less@_K@std@@V?$allocator@U?$pair@$$CB_KPEAVThreadInfo@@@std@@@3@$0A@@std@@@std@@QEAAXXZ DD imagerel $LN34
	DD	imagerel $LN34+114
	DD	imagerel $unwind$?clear@?$_Tree@V?$_Tmap_traits@_KPEAVThreadInfo@@U?$less@_K@std@@V?$allocator@U?$pair@$$CB_KPEAVThreadInfo@@@std@@@3@$0A@@std@@@std@@QEAAXXZ
pdata	ENDS
;	COMDAT xdata
xdata	SEGMENT
$unwind$?clear@?$_Tree@V?$_Tmap_traits@_KPEAVThreadInfo@@U?$less@_K@std@@V?$allocator@U?$pair@$$CB_KPEAVThreadInfo@@@std@@@3@$0A@@std@@@std@@QEAAXXZ DD 060f01H
	DD	07640fH
	DD	06340fH
	DD	0700b320fH
; Function compile flags: /Ogtpy
xdata	ENDS
;	COMDAT ?clear@?$_Tree@V?$_Tmap_traits@_KPEAVThreadInfo@@U?$less@_K@std@@V?$allocator@U?$pair@$$CB_KPEAVThreadInfo@@@std@@@3@$0A@@std@@@std@@QEAAXXZ
_TEXT	SEGMENT
this$ = 48
?clear@?$_Tree@V?$_Tmap_traits@_KPEAVThreadInfo@@U?$less@_K@std@@V?$allocator@U?$pair@$$CB_KPEAVThreadInfo@@@std@@@3@$0A@@std@@@std@@QEAAXXZ PROC ; std::_Tree<std::_Tmap_traits<unsigned __int64,ThreadInfo * __ptr64,std::less<unsigned __int64>,std::allocator<std::pair<unsigned __int64 const ,ThreadInfo * __ptr64> >,0> >::clear, COMDAT

; 965  : 		{	// erase all

$LN34:
	mov	QWORD PTR [rsp+8], rbx
	mov	QWORD PTR [rsp+16], rsi
	push	rdi
	sub	rsp, 32					; 00000020H

; 966  : 
; 967  :  #if _HAS_ITERATOR_DEBUGGING
; 968  : 		this->_Orphan_ptr(*this, 0);
; 969  :  #endif /* _HAS_ITERATOR_DEBUGGING */
; 970  : 
; 971  : 		_Erase(_Root());

	mov	rax, QWORD PTR [rcx+48]
	mov	rbx, rcx
	mov	rsi, QWORD PTR [rax+8]
	mov	rdi, rsi
	cmp	BYTE PTR [rsi+41], 0
	jne	SHORT $LN7@clear@2
$LL9@clear@2:
	mov	rdx, QWORD PTR [rdi+16]
	mov	rcx, rbx
	call	?_Erase@?$_Tree@V?$_Tmap_traits@_KPEAVThreadInfo@@U?$less@_K@std@@V?$allocator@U?$pair@$$CB_KPEAVThreadInfo@@@std@@@3@$0A@@std@@@std@@IEAAXPEAU_Node@?$_Tree_nod@V?$_Tmap_traits@_KPEAVThreadInfo@@U?$less@_K@std@@V?$allocator@U?$pair@$$CB_KPEAVThreadInfo@@@std@@@3@$0A@@std@@@2@@Z ; std::_Tree<std::_Tmap_traits<unsigned __int64,ThreadInfo * __ptr64,std::less<unsigned __int64>,std::allocator<std::pair<unsigned __int64 const ,ThreadInfo * __ptr64> >,0> >::_Erase
	mov	rdi, QWORD PTR [rdi]
	mov	rcx, rsi
	call	??3@YAXPEAX@Z				; operator delete
	cmp	BYTE PTR [rdi+41], 0
	mov	rsi, rdi
	je	SHORT $LL9@clear@2
$LN7@clear@2:

; 972  : 		_Root() = _Myhead, _Mysize = 0;

	mov	rax, QWORD PTR [rbx+48]

; 973  : 		_Lmost() = _Myhead, _Rmost() = _Myhead;
; 974  : 		}

	mov	rsi, QWORD PTR [rsp+56]
	mov	QWORD PTR [rax+8], rax
	mov	rax, QWORD PTR [rbx+48]
	mov	QWORD PTR [rbx+56], 0
	mov	QWORD PTR [rax], rax
	mov	rax, QWORD PTR [rbx+48]
	mov	rbx, QWORD PTR [rsp+48]
	mov	QWORD PTR [rax+16], rax
	add	rsp, 32					; 00000020H
	pop	rdi
	ret	0
?clear@?$_Tree@V?$_Tmap_traits@_KPEAVThreadInfo@@U?$less@_K@std@@V?$allocator@U?$pair@$$CB_KPEAVThreadInfo@@@std@@@3@$0A@@std@@@std@@QEAAXXZ ENDP ; std::_Tree<std::_Tmap_traits<unsigned __int64,ThreadInfo * __ptr64,std::less<unsigned __int64>,std::allocator<std::pair<unsigned __int64 const ,ThreadInfo * __ptr64> >,0> >::clear
_TEXT	ENDS
;	COMDAT pdata
; File c:\program files\microsoft visual studio 9.0\vc\include\xutility
pdata	SEGMENT
$pdata$?_Make_iter@?$_Tree@V?$_Tmap_traits@_KPEAVThreadInfo@@U?$less@_K@std@@V?$allocator@U?$pair@$$CB_KPEAVThreadInfo@@@std@@@3@$0A@@std@@@std@@QEBA?AViterator@12@Vconst_iterator@12@@Z DD imagerel $LN19
	DD	imagerel $LN19+77
	DD	imagerel $unwind$?_Make_iter@?$_Tree@V?$_Tmap_traits@_KPEAVThreadInfo@@U?$less@_K@std@@V?$allocator@U?$pair@$$CB_KPEAVThreadInfo@@@std@@@3@$0A@@std@@@std@@QEBA?AViterator@12@Vconst_iterator@12@@Z
pdata	ENDS
;	COMDAT xdata
xdata	SEGMENT
$unwind$?_Make_iter@?$_Tree@V?$_Tmap_traits@_KPEAVThreadInfo@@U?$less@_K@std@@V?$allocator@U?$pair@$$CB_KPEAVThreadInfo@@@std@@@3@$0A@@std@@@std@@QEBA?AViterator@12@Vconst_iterator@12@@Z DD 040a01H
	DD	08340aH
	DD	07006520aH
; Function compile flags: /Ogtpy
; File c:\program files\microsoft visual studio 9.0\vc\include\xtree
xdata	ENDS
;	COMDAT ?_Make_iter@?$_Tree@V?$_Tmap_traits@_KPEAVThreadInfo@@U?$less@_K@std@@V?$allocator@U?$pair@$$CB_KPEAVThreadInfo@@@std@@@3@$0A@@std@@@std@@QEBA?AViterator@12@Vconst_iterator@12@@Z
_TEXT	SEGMENT
$T150281 = 32
this$ = 64
__$ReturnUdt$ = 72
_Where$ = 80
?_Make_iter@?$_Tree@V?$_Tmap_traits@_KPEAVThreadInfo@@U?$less@_K@std@@V?$allocator@U?$pair@$$CB_KPEAVThreadInfo@@@std@@@3@$0A@@std@@@std@@QEBA?AViterator@12@Vconst_iterator@12@@Z PROC ; std::_Tree<std::_Tmap_traits<unsigned __int64,ThreadInfo * __ptr64,std::less<unsigned __int64>,std::allocator<std::pair<unsigned __int64 const ,ThreadInfo * __ptr64> >,0> >::_Make_iter, COMDAT

; 575  : 		{	// make iterator from const_iterator

$LN19:
	mov	QWORD PTR [rsp+8], rbx
	push	rdi
	sub	rsp, 48					; 00000030H

; 576  : 		return (iterator(_TREE_ITERATOR(_Where._Ptr)));

	mov	rax, QWORD PTR [r8+8]
	mov	rbx, rdx
	mov	rdi, rcx
	mov	QWORD PTR $T150281[rsp+8], rax
	test	rcx, rcx
	jne	SHORT $LN7@Make_iter@2
	call	QWORD PTR __imp__invalid_parameter_noinfo
$LN7@Make_iter@2:
	mov	rax, QWORD PTR [rdi]
	lea	rcx, QWORD PTR $T150281[rsp]
	mov	QWORD PTR $T150281[rsp], rax
	mov	rax, QWORD PTR [rcx]
	mov	QWORD PTR [rbx], rax
	mov	rax, QWORD PTR [rcx+8]
	mov	QWORD PTR [rbx+8], rax
	mov	rax, rbx

; 577  : 		}

	mov	rbx, QWORD PTR [rsp+64]
	add	rsp, 48					; 00000030H
	pop	rdi
	ret	0
?_Make_iter@?$_Tree@V?$_Tmap_traits@_KPEAVThreadInfo@@U?$less@_K@std@@V?$allocator@U?$pair@$$CB_KPEAVThreadInfo@@@std@@@3@$0A@@std@@@std@@QEBA?AViterator@12@Vconst_iterator@12@@Z ENDP ; std::_Tree<std::_Tmap_traits<unsigned __int64,ThreadInfo * __ptr64,std::less<unsigned __int64>,std::allocator<std::pair<unsigned __int64 const ,ThreadInfo * __ptr64> >,0> >::_Make_iter
; Function compile flags: /Ogtpy
_TEXT	ENDS
;	COMDAT ?_Lmost@?$_Tree@V?$_Tmap_traits@_KHU?$less@_K@std@@V?$allocator@U?$pair@$$CB_KH@std@@@2@$0A@@std@@@std@@IEBAAEAPEAU_Node@?$_Tree_nod@V?$_Tmap_traits@_KHU?$less@_K@std@@V?$allocator@U?$pair@$$CB_KH@std@@@2@$0A@@std@@@2@XZ
_TEXT	SEGMENT
this$ = 8
?_Lmost@?$_Tree@V?$_Tmap_traits@_KHU?$less@_K@std@@V?$allocator@U?$pair@$$CB_KH@std@@@2@$0A@@std@@@std@@IEBAAEAPEAU_Node@?$_Tree_nod@V?$_Tmap_traits@_KHU?$less@_K@std@@V?$allocator@U?$pair@$$CB_KH@std@@@2@$0A@@std@@@2@XZ PROC ; std::_Tree<std::_Tmap_traits<unsigned __int64,int,std::less<unsigned __int64>,std::allocator<std::pair<unsigned __int64 const ,int> >,0> >::_Lmost, COMDAT

; 1281 : 		return (_Left(_Myhead));

	mov	rax, QWORD PTR [rcx+48]

; 1282 : 		}

	ret	0
?_Lmost@?$_Tree@V?$_Tmap_traits@_KHU?$less@_K@std@@V?$allocator@U?$pair@$$CB_KH@std@@@2@$0A@@std@@@std@@IEBAAEAPEAU_Node@?$_Tree_nod@V?$_Tmap_traits@_KHU?$less@_K@std@@V?$allocator@U?$pair@$$CB_KH@std@@@2@$0A@@std@@@2@XZ ENDP ; std::_Tree<std::_Tmap_traits<unsigned __int64,int,std::less<unsigned __int64>,std::allocator<std::pair<unsigned __int64 const ,int> >,0> >::_Lmost
_TEXT	ENDS
;	COMDAT pdata
pdata	SEGMENT
$pdata$?clear@?$_Tree@V?$_Tmap_traits@_KHU?$less@_K@std@@V?$allocator@U?$pair@$$CB_KH@std@@@2@$0A@@std@@@std@@QEAAXXZ DD imagerel $LN34
	DD	imagerel $LN34+114
	DD	imagerel $unwind$?clear@?$_Tree@V?$_Tmap_traits@_KHU?$less@_K@std@@V?$allocator@U?$pair@$$CB_KH@std@@@2@$0A@@std@@@std@@QEAAXXZ
pdata	ENDS
;	COMDAT xdata
xdata	SEGMENT
$unwind$?clear@?$_Tree@V?$_Tmap_traits@_KHU?$less@_K@std@@V?$allocator@U?$pair@$$CB_KH@std@@@2@$0A@@std@@@std@@QEAAXXZ DD 060f01H
	DD	07640fH
	DD	06340fH
	DD	0700b320fH
; Function compile flags: /Ogtpy
xdata	ENDS
;	COMDAT ?clear@?$_Tree@V?$_Tmap_traits@_KHU?$less@_K@std@@V?$allocator@U?$pair@$$CB_KH@std@@@2@$0A@@std@@@std@@QEAAXXZ
_TEXT	SEGMENT
this$ = 48
?clear@?$_Tree@V?$_Tmap_traits@_KHU?$less@_K@std@@V?$allocator@U?$pair@$$CB_KH@std@@@2@$0A@@std@@@std@@QEAAXXZ PROC ; std::_Tree<std::_Tmap_traits<unsigned __int64,int,std::less<unsigned __int64>,std::allocator<std::pair<unsigned __int64 const ,int> >,0> >::clear, COMDAT

; 965  : 		{	// erase all

$LN34:
	mov	QWORD PTR [rsp+8], rbx
	mov	QWORD PTR [rsp+16], rsi
	push	rdi
	sub	rsp, 32					; 00000020H

; 966  : 
; 967  :  #if _HAS_ITERATOR_DEBUGGING
; 968  : 		this->_Orphan_ptr(*this, 0);
; 969  :  #endif /* _HAS_ITERATOR_DEBUGGING */
; 970  : 
; 971  : 		_Erase(_Root());

	mov	rax, QWORD PTR [rcx+48]
	mov	rbx, rcx
	mov	rsi, QWORD PTR [rax+8]
	mov	rdi, rsi
	cmp	BYTE PTR [rsi+41], 0
	jne	SHORT $LN7@clear@3
$LL9@clear@3:
	mov	rdx, QWORD PTR [rdi+16]
	mov	rcx, rbx
	call	?_Erase@?$_Tree@V?$_Tmap_traits@_KHU?$less@_K@std@@V?$allocator@U?$pair@$$CB_KH@std@@@2@$0A@@std@@@std@@IEAAXPEAU_Node@?$_Tree_nod@V?$_Tmap_traits@_KHU?$less@_K@std@@V?$allocator@U?$pair@$$CB_KH@std@@@2@$0A@@std@@@2@@Z ; std::_Tree<std::_Tmap_traits<unsigned __int64,int,std::less<unsigned __int64>,std::allocator<std::pair<unsigned __int64 const ,int> >,0> >::_Erase
	mov	rdi, QWORD PTR [rdi]
	mov	rcx, rsi
	call	??3@YAXPEAX@Z				; operator delete
	cmp	BYTE PTR [rdi+41], 0
	mov	rsi, rdi
	je	SHORT $LL9@clear@3
$LN7@clear@3:

; 972  : 		_Root() = _Myhead, _Mysize = 0;

	mov	rax, QWORD PTR [rbx+48]

; 973  : 		_Lmost() = _Myhead, _Rmost() = _Myhead;
; 974  : 		}

	mov	rsi, QWORD PTR [rsp+56]
	mov	QWORD PTR [rax+8], rax
	mov	rax, QWORD PTR [rbx+48]
	mov	QWORD PTR [rbx+56], 0
	mov	QWORD PTR [rax], rax
	mov	rax, QWORD PTR [rbx+48]
	mov	rbx, QWORD PTR [rsp+48]
	mov	QWORD PTR [rax+16], rax
	add	rsp, 32					; 00000020H
	pop	rdi
	ret	0
?clear@?$_Tree@V?$_Tmap_traits@_KHU?$less@_K@std@@V?$allocator@U?$pair@$$CB_KH@std@@@2@$0A@@std@@@std@@QEAAXXZ ENDP ; std::_Tree<std::_Tmap_traits<unsigned __int64,int,std::less<unsigned __int64>,std::allocator<std::pair<unsigned __int64 const ,int> >,0> >::clear
_TEXT	ENDS
;	COMDAT pdata
; File c:\program files\microsoft visual studio 9.0\vc\include\xutility
pdata	SEGMENT
$pdata$?_Make_iter@?$_Tree@V?$_Tmap_traits@_KHU?$less@_K@std@@V?$allocator@U?$pair@$$CB_KH@std@@@2@$0A@@std@@@std@@QEBA?AViterator@12@Vconst_iterator@12@@Z DD imagerel $LN19
	DD	imagerel $LN19+77
	DD	imagerel $unwind$?_Make_iter@?$_Tree@V?$_Tmap_traits@_KHU?$less@_K@std@@V?$allocator@U?$pair@$$CB_KH@std@@@2@$0A@@std@@@std@@QEBA?AViterator@12@Vconst_iterator@12@@Z
pdata	ENDS
;	COMDAT xdata
xdata	SEGMENT
$unwind$?_Make_iter@?$_Tree@V?$_Tmap_traits@_KHU?$less@_K@std@@V?$allocator@U?$pair@$$CB_KH@std@@@2@$0A@@std@@@std@@QEBA?AViterator@12@Vconst_iterator@12@@Z DD 040a01H
	DD	08340aH
	DD	07006520aH
; Function compile flags: /Ogtpy
; File c:\program files\microsoft visual studio 9.0\vc\include\xtree
xdata	ENDS
;	COMDAT ?_Make_iter@?$_Tree@V?$_Tmap_traits@_KHU?$less@_K@std@@V?$allocator@U?$pair@$$CB_KH@std@@@2@$0A@@std@@@std@@QEBA?AViterator@12@Vconst_iterator@12@@Z
_TEXT	SEGMENT
$T150430 = 32
this$ = 64
__$ReturnUdt$ = 72
_Where$ = 80
?_Make_iter@?$_Tree@V?$_Tmap_traits@_KHU?$less@_K@std@@V?$allocator@U?$pair@$$CB_KH@std@@@2@$0A@@std@@@std@@QEBA?AViterator@12@Vconst_iterator@12@@Z PROC ; std::_Tree<std::_Tmap_traits<unsigned __int64,int,std::less<unsigned __int64>,std::allocator<std::pair<unsigned __int64 const ,int> >,0> >::_Make_iter, COMDAT

; 575  : 		{	// make iterator from const_iterator

$LN19:
	mov	QWORD PTR [rsp+8], rbx
	push	rdi
	sub	rsp, 48					; 00000030H

; 576  : 		return (iterator(_TREE_ITERATOR(_Where._Ptr)));

	mov	rax, QWORD PTR [r8+8]
	mov	rbx, rdx
	mov	rdi, rcx
	mov	QWORD PTR $T150430[rsp+8], rax
	test	rcx, rcx
	jne	SHORT $LN7@Make_iter@3
	call	QWORD PTR __imp__invalid_parameter_noinfo
$LN7@Make_iter@3:
	mov	rax, QWORD PTR [rdi]
	lea	rcx, QWORD PTR $T150430[rsp]
	mov	QWORD PTR $T150430[rsp], rax
	mov	rax, QWORD PTR [rcx]
	mov	QWORD PTR [rbx], rax
	mov	rax, QWORD PTR [rcx+8]
	mov	QWORD PTR [rbx+8], rax
	mov	rax, rbx

; 577  : 		}

	mov	rbx, QWORD PTR [rsp+64]
	add	rsp, 48					; 00000030H
	pop	rdi
	ret	0
?_Make_iter@?$_Tree@V?$_Tmap_traits@_KHU?$less@_K@std@@V?$allocator@U?$pair@$$CB_KH@std@@@2@$0A@@std@@@std@@QEBA?AViterator@12@Vconst_iterator@12@@Z ENDP ; std::_Tree<std::_Tmap_traits<unsigned __int64,int,std::less<unsigned __int64>,std::allocator<std::pair<unsigned __int64 const ,int> >,0> >::_Make_iter
; Function compile flags: /Ogtpy
_TEXT	ENDS
;	COMDAT ?end@?$_Tree@V?$_Tmap_traits@KPEAVThreadInfo@@U?$less@K@std@@V?$allocator@U?$pair@$$CBKPEAVThreadInfo@@@std@@@3@$0A@@std@@@std@@QEAA?AViterator@12@XZ
_TEXT	SEGMENT
this$ = 8
__$ReturnUdt$ = 16
?end@?$_Tree@V?$_Tmap_traits@KPEAVThreadInfo@@U?$less@K@std@@V?$allocator@U?$pair@$$CBKPEAVThreadInfo@@@std@@@3@$0A@@std@@@std@@QEAA?AViterator@12@XZ PROC ; std::_Tree<std::_Tmap_traits<unsigned long,ThreadInfo * __ptr64,std::less<unsigned long>,std::allocator<std::pair<unsigned long const ,ThreadInfo * __ptr64> >,0> >::end, COMDAT

; 566  : 		return (_TREE_ITERATOR(_Myhead));

	mov	rax, QWORD PTR [rcx+48]
	mov	QWORD PTR [rdx+8], rax
	mov	rax, QWORD PTR [rcx]
	mov	QWORD PTR [rdx], rax
	mov	rax, rdx

; 567  : 		}

	ret	0
?end@?$_Tree@V?$_Tmap_traits@KPEAVThreadInfo@@U?$less@K@std@@V?$allocator@U?$pair@$$CBKPEAVThreadInfo@@@std@@@3@$0A@@std@@@std@@QEAA?AViterator@12@XZ ENDP ; std::_Tree<std::_Tmap_traits<unsigned long,ThreadInfo * __ptr64,std::less<unsigned long>,std::allocator<std::pair<unsigned long const ,ThreadInfo * __ptr64> >,0> >::end
; Function compile flags: /Ogtpy
_TEXT	ENDS
;	COMDAT ?begin@?$_Tree@V?$_Tmap_traits@KPEAVThreadInfo@@U?$less@K@std@@V?$allocator@U?$pair@$$CBKPEAVThreadInfo@@@std@@@3@$0A@@std@@@std@@QEAA?AViterator@12@XZ
_TEXT	SEGMENT
this$ = 8
__$ReturnUdt$ = 16
?begin@?$_Tree@V?$_Tmap_traits@KPEAVThreadInfo@@U?$less@K@std@@V?$allocator@U?$pair@$$CBKPEAVThreadInfo@@@std@@@3@$0A@@std@@@std@@QEAA?AViterator@12@XZ PROC ; std::_Tree<std::_Tmap_traits<unsigned long,ThreadInfo * __ptr64,std::less<unsigned long>,std::allocator<std::pair<unsigned long const ,ThreadInfo * __ptr64> >,0> >::begin, COMDAT

; 556  : 		return (_TREE_ITERATOR(_Lmost()));

	mov	rax, QWORD PTR [rcx+48]
	mov	r8, QWORD PTR [rax]
	mov	rax, QWORD PTR [rcx]
	mov	QWORD PTR [rdx], rax
	mov	rax, rdx
	mov	QWORD PTR [rdx+8], r8

; 557  : 		}

	ret	0
?begin@?$_Tree@V?$_Tmap_traits@KPEAVThreadInfo@@U?$less@K@std@@V?$allocator@U?$pair@$$CBKPEAVThreadInfo@@@std@@@3@$0A@@std@@@std@@QEAA?AViterator@12@XZ ENDP ; std::_Tree<std::_Tmap_traits<unsigned long,ThreadInfo * __ptr64,std::less<unsigned long>,std::allocator<std::pair<unsigned long const ,ThreadInfo * __ptr64> >,0> >::begin
; Function compile flags: /Ogtpy
_TEXT	ENDS
;	COMDAT ?end@?$_Tree@V?$_Tmap_traits@_KPEAVThreadInfo@@U?$less@_K@std@@V?$allocator@U?$pair@$$CB_KPEAVThreadInfo@@@std@@@3@$0A@@std@@@std@@QEAA?AViterator@12@XZ
_TEXT	SEGMENT
this$ = 8
__$ReturnUdt$ = 16
?end@?$_Tree@V?$_Tmap_traits@_KPEAVThreadInfo@@U?$less@_K@std@@V?$allocator@U?$pair@$$CB_KPEAVThreadInfo@@@std@@@3@$0A@@std@@@std@@QEAA?AViterator@12@XZ PROC ; std::_Tree<std::_Tmap_traits<unsigned __int64,ThreadInfo * __ptr64,std::less<unsigned __int64>,std::allocator<std::pair<unsigned __int64 const ,ThreadInfo * __ptr64> >,0> >::end, COMDAT

; 566  : 		return (_TREE_ITERATOR(_Myhead));

	mov	rax, QWORD PTR [rcx+48]
	mov	QWORD PTR [rdx+8], rax
	mov	rax, QWORD PTR [rcx]
	mov	QWORD PTR [rdx], rax
	mov	rax, rdx

; 567  : 		}

	ret	0
?end@?$_Tree@V?$_Tmap_traits@_KPEAVThreadInfo@@U?$less@_K@std@@V?$allocator@U?$pair@$$CB_KPEAVThreadInfo@@@std@@@3@$0A@@std@@@std@@QEAA?AViterator@12@XZ ENDP ; std::_Tree<std::_Tmap_traits<unsigned __int64,ThreadInfo * __ptr64,std::less<unsigned __int64>,std::allocator<std::pair<unsigned __int64 const ,ThreadInfo * __ptr64> >,0> >::end
; Function compile flags: /Ogtpy
_TEXT	ENDS
;	COMDAT ?begin@?$_Tree@V?$_Tmap_traits@_KPEAVThreadInfo@@U?$less@_K@std@@V?$allocator@U?$pair@$$CB_KPEAVThreadInfo@@@std@@@3@$0A@@std@@@std@@QEAA?AViterator@12@XZ
_TEXT	SEGMENT
this$ = 8
__$ReturnUdt$ = 16
?begin@?$_Tree@V?$_Tmap_traits@_KPEAVThreadInfo@@U?$less@_K@std@@V?$allocator@U?$pair@$$CB_KPEAVThreadInfo@@@std@@@3@$0A@@std@@@std@@QEAA?AViterator@12@XZ PROC ; std::_Tree<std::_Tmap_traits<unsigned __int64,ThreadInfo * __ptr64,std::less<unsigned __int64>,std::allocator<std::pair<unsigned __int64 const ,ThreadInfo * __ptr64> >,0> >::begin, COMDAT

; 556  : 		return (_TREE_ITERATOR(_Lmost()));

	mov	rax, QWORD PTR [rcx+48]
	mov	r8, QWORD PTR [rax]
	mov	rax, QWORD PTR [rcx]
	mov	QWORD PTR [rdx], rax
	mov	rax, rdx
	mov	QWORD PTR [rdx+8], r8

; 557  : 		}

	ret	0
?begin@?$_Tree@V?$_Tmap_traits@_KPEAVThreadInfo@@U?$less@_K@std@@V?$allocator@U?$pair@$$CB_KPEAVThreadInfo@@@std@@@3@$0A@@std@@@std@@QEAA?AViterator@12@XZ ENDP ; std::_Tree<std::_Tmap_traits<unsigned __int64,ThreadInfo * __ptr64,std::less<unsigned __int64>,std::allocator<std::pair<unsigned __int64 const ,ThreadInfo * __ptr64> >,0> >::begin
; Function compile flags: /Ogtpy
_TEXT	ENDS
;	COMDAT ?end@?$_Tree@V?$_Tmap_traits@_KHU?$less@_K@std@@V?$allocator@U?$pair@$$CB_KH@std@@@2@$0A@@std@@@std@@QEAA?AViterator@12@XZ
_TEXT	SEGMENT
this$ = 8
__$ReturnUdt$ = 16
?end@?$_Tree@V?$_Tmap_traits@_KHU?$less@_K@std@@V?$allocator@U?$pair@$$CB_KH@std@@@2@$0A@@std@@@std@@QEAA?AViterator@12@XZ PROC ; std::_Tree<std::_Tmap_traits<unsigned __int64,int,std::less<unsigned __int64>,std::allocator<std::pair<unsigned __int64 const ,int> >,0> >::end, COMDAT

; 566  : 		return (_TREE_ITERATOR(_Myhead));

	mov	rax, QWORD PTR [rcx+48]
	mov	QWORD PTR [rdx+8], rax
	mov	rax, QWORD PTR [rcx]
	mov	QWORD PTR [rdx], rax
	mov	rax, rdx

; 567  : 		}

	ret	0
?end@?$_Tree@V?$_Tmap_traits@_KHU?$less@_K@std@@V?$allocator@U?$pair@$$CB_KH@std@@@2@$0A@@std@@@std@@QEAA?AViterator@12@XZ ENDP ; std::_Tree<std::_Tmap_traits<unsigned __int64,int,std::less<unsigned __int64>,std::allocator<std::pair<unsigned __int64 const ,int> >,0> >::end
; Function compile flags: /Ogtpy
_TEXT	ENDS
;	COMDAT ?begin@?$_Tree@V?$_Tmap_traits@_KHU?$less@_K@std@@V?$allocator@U?$pair@$$CB_KH@std@@@2@$0A@@std@@@std@@QEAA?AViterator@12@XZ
_TEXT	SEGMENT
this$ = 8
__$ReturnUdt$ = 16
?begin@?$_Tree@V?$_Tmap_traits@_KHU?$less@_K@std@@V?$allocator@U?$pair@$$CB_KH@std@@@2@$0A@@std@@@std@@QEAA?AViterator@12@XZ PROC ; std::_Tree<std::_Tmap_traits<unsigned __int64,int,std::less<unsigned __int64>,std::allocator<std::pair<unsigned __int64 const ,int> >,0> >::begin, COMDAT

; 556  : 		return (_TREE_ITERATOR(_Lmost()));

	mov	rax, QWORD PTR [rcx+48]
	mov	r8, QWORD PTR [rax]
	mov	rax, QWORD PTR [rcx]
	mov	QWORD PTR [rdx], rax
	mov	rax, rdx
	mov	QWORD PTR [rdx+8], r8

; 557  : 		}

	ret	0
?begin@?$_Tree@V?$_Tmap_traits@_KHU?$less@_K@std@@V?$allocator@U?$pair@$$CB_KH@std@@@2@$0A@@std@@@std@@QEAA?AViterator@12@XZ ENDP ; std::_Tree<std::_Tmap_traits<unsigned __int64,int,std::less<unsigned __int64>,std::allocator<std::pair<unsigned __int64 const ,int> >,0> >::begin
; Function compile flags: /Ogtpy
; File c:\program files\microsoft visual studio 9.0\vc\include\xutility
_TEXT	ENDS
;	COMDAT ??1?$_Container_base_aux_alloc_real@V?$allocator@U?$pair@$$CBKPEAVThreadInfo@@@std@@@std@@@std@@IEAA@XZ
_TEXT	SEGMENT
this$ = 8
??1?$_Container_base_aux_alloc_real@V?$allocator@U?$pair@$$CBKPEAVThreadInfo@@@std@@@std@@@std@@IEAA@XZ PROC ; std::_Container_base_aux_alloc_real<std::allocator<std::pair<unsigned long const ,ThreadInfo * __ptr64> > >::~_Container_base_aux_alloc_real<std::allocator<std::pair<unsigned long const ,ThreadInfo * __ptr64> > >, COMDAT

; 437  : 		_Myownedaux->~_Aux_cont();
; 438  : 
; 439  : 		_Alaux.deallocate(_Myownedaux, 1);

	mov	rcx, QWORD PTR [rcx]

; 440  : 		}

	jmp	??3@YAXPEAX@Z				; operator delete
??1?$_Container_base_aux_alloc_real@V?$allocator@U?$pair@$$CBKPEAVThreadInfo@@@std@@@std@@@std@@IEAA@XZ ENDP ; std::_Container_base_aux_alloc_real<std::allocator<std::pair<unsigned long const ,ThreadInfo * __ptr64> > >::~_Container_base_aux_alloc_real<std::allocator<std::pair<unsigned long const ,ThreadInfo * __ptr64> > >
; Function compile flags: /Ogtpy
_TEXT	ENDS
;	COMDAT ??1?$_Container_base_aux_alloc_real@V?$allocator@U?$pair@$$CB_KPEAVThreadInfo@@@std@@@std@@@std@@IEAA@XZ
_TEXT	SEGMENT
this$ = 8
??1?$_Container_base_aux_alloc_real@V?$allocator@U?$pair@$$CB_KPEAVThreadInfo@@@std@@@std@@@std@@IEAA@XZ PROC ; std::_Container_base_aux_alloc_real<std::allocator<std::pair<unsigned __int64 const ,ThreadInfo * __ptr64> > >::~_Container_base_aux_alloc_real<std::allocator<std::pair<unsigned __int64 const ,ThreadInfo * __ptr64> > >, COMDAT

; 437  : 		_Myownedaux->~_Aux_cont();
; 438  : 
; 439  : 		_Alaux.deallocate(_Myownedaux, 1);

	mov	rcx, QWORD PTR [rcx]

; 440  : 		}

	jmp	??3@YAXPEAX@Z				; operator delete
??1?$_Container_base_aux_alloc_real@V?$allocator@U?$pair@$$CB_KPEAVThreadInfo@@@std@@@std@@@std@@IEAA@XZ ENDP ; std::_Container_base_aux_alloc_real<std::allocator<std::pair<unsigned __int64 const ,ThreadInfo * __ptr64> > >::~_Container_base_aux_alloc_real<std::allocator<std::pair<unsigned __int64 const ,ThreadInfo * __ptr64> > >
; Function compile flags: /Ogtpy
_TEXT	ENDS
;	COMDAT ??1?$_Container_base_aux_alloc_real@V?$allocator@U?$pair@$$CB_KH@std@@@std@@@std@@IEAA@XZ
_TEXT	SEGMENT
this$ = 8
??1?$_Container_base_aux_alloc_real@V?$allocator@U?$pair@$$CB_KH@std@@@std@@@std@@IEAA@XZ PROC ; std::_Container_base_aux_alloc_real<std::allocator<std::pair<unsigned __int64 const ,int> > >::~_Container_base_aux_alloc_real<std::allocator<std::pair<unsigned __int64 const ,int> > >, COMDAT

; 437  : 		_Myownedaux->~_Aux_cont();
; 438  : 
; 439  : 		_Alaux.deallocate(_Myownedaux, 1);

	mov	rcx, QWORD PTR [rcx]

; 440  : 		}

	jmp	??3@YAXPEAX@Z				; operator delete
??1?$_Container_base_aux_alloc_real@V?$allocator@U?$pair@$$CB_KH@std@@@std@@@std@@IEAA@XZ ENDP ; std::_Container_base_aux_alloc_real<std::allocator<std::pair<unsigned __int64 const ,int> > >::~_Container_base_aux_alloc_real<std::allocator<std::pair<unsigned __int64 const ,int> > >
; Function compile flags: /Ogtpy
_TEXT	ENDS
;	COMDAT ??1?$_Tmap_traits@KPEAVThreadInfo@@U?$less@K@std@@V?$allocator@U?$pair@$$CBKPEAVThreadInfo@@@std@@@3@$0A@@std@@QEAA@XZ
_TEXT	SEGMENT
this$ = 8
??1?$_Tmap_traits@KPEAVThreadInfo@@U?$less@K@std@@V?$allocator@U?$pair@$$CBKPEAVThreadInfo@@@std@@@3@$0A@@std@@QEAA@XZ PROC ; std::_Tmap_traits<unsigned long,ThreadInfo * __ptr64,std::less<unsigned long>,std::allocator<std::pair<unsigned long const ,ThreadInfo * __ptr64> >,0>::~_Tmap_traits<unsigned long,ThreadInfo * __ptr64,std::less<unsigned long>,std::allocator<std::pair<unsigned long const ,ThreadInfo * __ptr64> >,0>, COMDAT
	mov	rcx, QWORD PTR [rcx]
	jmp	??3@YAXPEAX@Z				; operator delete
??1?$_Tmap_traits@KPEAVThreadInfo@@U?$less@K@std@@V?$allocator@U?$pair@$$CBKPEAVThreadInfo@@@std@@@3@$0A@@std@@QEAA@XZ ENDP ; std::_Tmap_traits<unsigned long,ThreadInfo * __ptr64,std::less<unsigned long>,std::allocator<std::pair<unsigned long const ,ThreadInfo * __ptr64> >,0>::~_Tmap_traits<unsigned long,ThreadInfo * __ptr64,std::less<unsigned long>,std::allocator<std::pair<unsigned long const ,ThreadInfo * __ptr64> >,0>
; Function compile flags: /Ogtpy
_TEXT	ENDS
;	COMDAT ??1?$_Tmap_traits@_KPEAVThreadInfo@@U?$less@_K@std@@V?$allocator@U?$pair@$$CB_KPEAVThreadInfo@@@std@@@3@$0A@@std@@QEAA@XZ
_TEXT	SEGMENT
this$ = 8
??1?$_Tmap_traits@_KPEAVThreadInfo@@U?$less@_K@std@@V?$allocator@U?$pair@$$CB_KPEAVThreadInfo@@@std@@@3@$0A@@std@@QEAA@XZ PROC ; std::_Tmap_traits<unsigned __int64,ThreadInfo * __ptr64,std::less<unsigned __int64>,std::allocator<std::pair<unsigned __int64 const ,ThreadInfo * __ptr64> >,0>::~_Tmap_traits<unsigned __int64,ThreadInfo * __ptr64,std::less<unsigned __int64>,std::allocator<std::pair<unsigned __int64 const ,ThreadInfo * __ptr64> >,0>, COMDAT
	mov	rcx, QWORD PTR [rcx]
	jmp	??3@YAXPEAX@Z				; operator delete
??1?$_Tmap_traits@_KPEAVThreadInfo@@U?$less@_K@std@@V?$allocator@U?$pair@$$CB_KPEAVThreadInfo@@@std@@@3@$0A@@std@@QEAA@XZ ENDP ; std::_Tmap_traits<unsigned __int64,ThreadInfo * __ptr64,std::less<unsigned __int64>,std::allocator<std::pair<unsigned __int64 const ,ThreadInfo * __ptr64> >,0>::~_Tmap_traits<unsigned __int64,ThreadInfo * __ptr64,std::less<unsigned __int64>,std::allocator<std::pair<unsigned __int64 const ,ThreadInfo * __ptr64> >,0>
; Function compile flags: /Ogtpy
_TEXT	ENDS
;	COMDAT ??1?$_Tmap_traits@_KHU?$less@_K@std@@V?$allocator@U?$pair@$$CB_KH@std@@@2@$0A@@std@@QEAA@XZ
_TEXT	SEGMENT
this$ = 8
??1?$_Tmap_traits@_KHU?$less@_K@std@@V?$allocator@U?$pair@$$CB_KH@std@@@2@$0A@@std@@QEAA@XZ PROC ; std::_Tmap_traits<unsigned __int64,int,std::less<unsigned __int64>,std::allocator<std::pair<unsigned __int64 const ,int> >,0>::~_Tmap_traits<unsigned __int64,int,std::less<unsigned __int64>,std::allocator<std::pair<unsigned __int64 const ,int> >,0>, COMDAT
	mov	rcx, QWORD PTR [rcx]
	jmp	??3@YAXPEAX@Z				; operator delete
??1?$_Tmap_traits@_KHU?$less@_K@std@@V?$allocator@U?$pair@$$CB_KH@std@@@2@$0A@@std@@QEAA@XZ ENDP ; std::_Tmap_traits<unsigned __int64,int,std::less<unsigned __int64>,std::allocator<std::pair<unsigned __int64 const ,int> >,0>::~_Tmap_traits<unsigned __int64,int,std::less<unsigned __int64>,std::allocator<std::pair<unsigned __int64 const ,int> >,0>
; Function compile flags: /Ogtpy
_TEXT	ENDS
;	COMDAT ??1?$_Tree_nod@V?$_Tmap_traits@KPEAVThreadInfo@@U?$less@K@std@@V?$allocator@U?$pair@$$CBKPEAVThreadInfo@@@std@@@3@$0A@@std@@@std@@QEAA@XZ
_TEXT	SEGMENT
this$ = 8
??1?$_Tree_nod@V?$_Tmap_traits@KPEAVThreadInfo@@U?$less@K@std@@V?$allocator@U?$pair@$$CBKPEAVThreadInfo@@@std@@@3@$0A@@std@@@std@@QEAA@XZ PROC ; std::_Tree_nod<std::_Tmap_traits<unsigned long,ThreadInfo * __ptr64,std::less<unsigned long>,std::allocator<std::pair<unsigned long const ,ThreadInfo * __ptr64> >,0> >::~_Tree_nod<std::_Tmap_traits<unsigned long,ThreadInfo * __ptr64,std::less<unsigned long>,std::allocator<std::pair<unsigned long const ,ThreadInfo * __ptr64> >,0> >, COMDAT
	mov	rcx, QWORD PTR [rcx]
	jmp	??3@YAXPEAX@Z				; operator delete
??1?$_Tree_nod@V?$_Tmap_traits@KPEAVThreadInfo@@U?$less@K@std@@V?$allocator@U?$pair@$$CBKPEAVThreadInfo@@@std@@@3@$0A@@std@@@std@@QEAA@XZ ENDP ; std::_Tree_nod<std::_Tmap_traits<unsigned long,ThreadInfo * __ptr64,std::less<unsigned long>,std::allocator<std::pair<unsigned long const ,ThreadInfo * __ptr64> >,0> >::~_Tree_nod<std::_Tmap_traits<unsigned long,ThreadInfo * __ptr64,std::less<unsigned long>,std::allocator<std::pair<unsigned long const ,ThreadInfo * __ptr64> >,0> >
; Function compile flags: /Ogtpy
_TEXT	ENDS
;	COMDAT ??1?$_Tree_nod@V?$_Tmap_traits@_KPEAVThreadInfo@@U?$less@_K@std@@V?$allocator@U?$pair@$$CB_KPEAVThreadInfo@@@std@@@3@$0A@@std@@@std@@QEAA@XZ
_TEXT	SEGMENT
this$ = 8
??1?$_Tree_nod@V?$_Tmap_traits@_KPEAVThreadInfo@@U?$less@_K@std@@V?$allocator@U?$pair@$$CB_KPEAVThreadInfo@@@std@@@3@$0A@@std@@@std@@QEAA@XZ PROC ; std::_Tree_nod<std::_Tmap_traits<unsigned __int64,ThreadInfo * __ptr64,std::less<unsigned __int64>,std::allocator<std::pair<unsigned __int64 const ,ThreadInfo * __ptr64> >,0> >::~_Tree_nod<std::_Tmap_traits<unsigned __int64,ThreadInfo * __ptr64,std::less<unsigned __int64>,std::allocator<std::pair<unsigned __int64 const ,ThreadInfo * __ptr64> >,0> >, COMDAT
	mov	rcx, QWORD PTR [rcx]
	jmp	??3@YAXPEAX@Z				; operator delete
??1?$_Tree_nod@V?$_Tmap_traits@_KPEAVThreadInfo@@U?$less@_K@std@@V?$allocator@U?$pair@$$CB_KPEAVThreadInfo@@@std@@@3@$0A@@std@@@std@@QEAA@XZ ENDP ; std::_Tree_nod<std::_Tmap_traits<unsigned __int64,ThreadInfo * __ptr64,std::less<unsigned __int64>,std::allocator<std::pair<unsigned __int64 const ,ThreadInfo * __ptr64> >,0> >::~_Tree_nod<std::_Tmap_traits<unsigned __int64,ThreadInfo * __ptr64,std::less<unsigned __int64>,std::allocator<std::pair<unsigned __int64 const ,ThreadInfo * __ptr64> >,0> >
; Function compile flags: /Ogtpy
_TEXT	ENDS
;	COMDAT ??1?$_Tree_nod@V?$_Tmap_traits@_KHU?$less@_K@std@@V?$allocator@U?$pair@$$CB_KH@std@@@2@$0A@@std@@@std@@QEAA@XZ
_TEXT	SEGMENT
this$ = 8
??1?$_Tree_nod@V?$_Tmap_traits@_KHU?$less@_K@std@@V?$allocator@U?$pair@$$CB_KH@std@@@2@$0A@@std@@@std@@QEAA@XZ PROC ; std::_Tree_nod<std::_Tmap_traits<unsigned __int64,int,std::less<unsigned __int64>,std::allocator<std::pair<unsigned __int64 const ,int> >,0> >::~_Tree_nod<std::_Tmap_traits<unsigned __int64,int,std::less<unsigned __int64>,std::allocator<std::pair<unsigned __int64 const ,int> >,0> >, COMDAT
	mov	rcx, QWORD PTR [rcx]
	jmp	??3@YAXPEAX@Z				; operator delete
??1?$_Tree_nod@V?$_Tmap_traits@_KHU?$less@_K@std@@V?$allocator@U?$pair@$$CB_KH@std@@@2@$0A@@std@@@std@@QEAA@XZ ENDP ; std::_Tree_nod<std::_Tmap_traits<unsigned __int64,int,std::less<unsigned __int64>,std::allocator<std::pair<unsigned __int64 const ,int> >,0> >::~_Tree_nod<std::_Tmap_traits<unsigned __int64,int,std::less<unsigned __int64>,std::allocator<std::pair<unsigned __int64 const ,int> >,0> >
; Function compile flags: /Ogtpy
_TEXT	ENDS
;	COMDAT ??1?$_Tree_ptr@V?$_Tmap_traits@KPEAVThreadInfo@@U?$less@K@std@@V?$allocator@U?$pair@$$CBKPEAVThreadInfo@@@std@@@3@$0A@@std@@@std@@QEAA@XZ
_TEXT	SEGMENT
this$ = 8
??1?$_Tree_ptr@V?$_Tmap_traits@KPEAVThreadInfo@@U?$less@K@std@@V?$allocator@U?$pair@$$CBKPEAVThreadInfo@@@std@@@3@$0A@@std@@@std@@QEAA@XZ PROC ; std::_Tree_ptr<std::_Tmap_traits<unsigned long,ThreadInfo * __ptr64,std::less<unsigned long>,std::allocator<std::pair<unsigned long const ,ThreadInfo * __ptr64> >,0> >::~_Tree_ptr<std::_Tmap_traits<unsigned long,ThreadInfo * __ptr64,std::less<unsigned long>,std::allocator<std::pair<unsigned long const ,ThreadInfo * __ptr64> >,0> >, COMDAT
	mov	rcx, QWORD PTR [rcx]
	jmp	??3@YAXPEAX@Z				; operator delete
??1?$_Tree_ptr@V?$_Tmap_traits@KPEAVThreadInfo@@U?$less@K@std@@V?$allocator@U?$pair@$$CBKPEAVThreadInfo@@@std@@@3@$0A@@std@@@std@@QEAA@XZ ENDP ; std::_Tree_ptr<std::_Tmap_traits<unsigned long,ThreadInfo * __ptr64,std::less<unsigned long>,std::allocator<std::pair<unsigned long const ,ThreadInfo * __ptr64> >,0> >::~_Tree_ptr<std::_Tmap_traits<unsigned long,ThreadInfo * __ptr64,std::less<unsigned long>,std::allocator<std::pair<unsigned long const ,ThreadInfo * __ptr64> >,0> >
; Function compile flags: /Ogtpy
_TEXT	ENDS
;	COMDAT ??1?$_Tree_ptr@V?$_Tmap_traits@_KPEAVThreadInfo@@U?$less@_K@std@@V?$allocator@U?$pair@$$CB_KPEAVThreadInfo@@@std@@@3@$0A@@std@@@std@@QEAA@XZ
_TEXT	SEGMENT
this$ = 8
??1?$_Tree_ptr@V?$_Tmap_traits@_KPEAVThreadInfo@@U?$less@_K@std@@V?$allocator@U?$pair@$$CB_KPEAVThreadInfo@@@std@@@3@$0A@@std@@@std@@QEAA@XZ PROC ; std::_Tree_ptr<std::_Tmap_traits<unsigned __int64,ThreadInfo * __ptr64,std::less<unsigned __int64>,std::allocator<std::pair<unsigned __int64 const ,ThreadInfo * __ptr64> >,0> >::~_Tree_ptr<std::_Tmap_traits<unsigned __int64,ThreadInfo * __ptr64,std::less<unsigned __int64>,std::allocator<std::pair<unsigned __int64 const ,ThreadInfo * __ptr64> >,0> >, COMDAT
	mov	rcx, QWORD PTR [rcx]
	jmp	??3@YAXPEAX@Z				; operator delete
??1?$_Tree_ptr@V?$_Tmap_traits@_KPEAVThreadInfo@@U?$less@_K@std@@V?$allocator@U?$pair@$$CB_KPEAVThreadInfo@@@std@@@3@$0A@@std@@@std@@QEAA@XZ ENDP ; std::_Tree_ptr<std::_Tmap_traits<unsigned __int64,ThreadInfo * __ptr64,std::less<unsigned __int64>,std::allocator<std::pair<unsigned __int64 const ,ThreadInfo * __ptr64> >,0> >::~_Tree_ptr<std::_Tmap_traits<unsigned __int64,ThreadInfo * __ptr64,std::less<unsigned __int64>,std::allocator<std::pair<unsigned __int64 const ,ThreadInfo * __ptr64> >,0> >
; Function compile flags: /Ogtpy
_TEXT	ENDS
;	COMDAT ??1?$_Tree_ptr@V?$_Tmap_traits@_KHU?$less@_K@std@@V?$allocator@U?$pair@$$CB_KH@std@@@2@$0A@@std@@@std@@QEAA@XZ
_TEXT	SEGMENT
this$ = 8
??1?$_Tree_ptr@V?$_Tmap_traits@_KHU?$less@_K@std@@V?$allocator@U?$pair@$$CB_KH@std@@@2@$0A@@std@@@std@@QEAA@XZ PROC ; std::_Tree_ptr<std::_Tmap_traits<unsigned __int64,int,std::less<unsigned __int64>,std::allocator<std::pair<unsigned __int64 const ,int> >,0> >::~_Tree_ptr<std::_Tmap_traits<unsigned __int64,int,std::less<unsigned __int64>,std::allocator<std::pair<unsigned __int64 const ,int> >,0> >, COMDAT
	mov	rcx, QWORD PTR [rcx]
	jmp	??3@YAXPEAX@Z				; operator delete
??1?$_Tree_ptr@V?$_Tmap_traits@_KHU?$less@_K@std@@V?$allocator@U?$pair@$$CB_KH@std@@@2@$0A@@std@@@std@@QEAA@XZ ENDP ; std::_Tree_ptr<std::_Tmap_traits<unsigned __int64,int,std::less<unsigned __int64>,std::allocator<std::pair<unsigned __int64 const ,int> >,0> >::~_Tree_ptr<std::_Tmap_traits<unsigned __int64,int,std::less<unsigned __int64>,std::allocator<std::pair<unsigned __int64 const ,int> >,0> >
; Function compile flags: /Ogtpy
_TEXT	ENDS
;	COMDAT ??1?$_Tree_val@V?$_Tmap_traits@KPEAVThreadInfo@@U?$less@K@std@@V?$allocator@U?$pair@$$CBKPEAVThreadInfo@@@std@@@3@$0A@@std@@@std@@QEAA@XZ
_TEXT	SEGMENT
this$ = 8
??1?$_Tree_val@V?$_Tmap_traits@KPEAVThreadInfo@@U?$less@K@std@@V?$allocator@U?$pair@$$CBKPEAVThreadInfo@@@std@@@3@$0A@@std@@@std@@QEAA@XZ PROC ; std::_Tree_val<std::_Tmap_traits<unsigned long,ThreadInfo * __ptr64,std::less<unsigned long>,std::allocator<std::pair<unsigned long const ,ThreadInfo * __ptr64> >,0> >::~_Tree_val<std::_Tmap_traits<unsigned long,ThreadInfo * __ptr64,std::less<unsigned long>,std::allocator<std::pair<unsigned long const ,ThreadInfo * __ptr64> >,0> >, COMDAT
	mov	rcx, QWORD PTR [rcx]
	jmp	??3@YAXPEAX@Z				; operator delete
??1?$_Tree_val@V?$_Tmap_traits@KPEAVThreadInfo@@U?$less@K@std@@V?$allocator@U?$pair@$$CBKPEAVThreadInfo@@@std@@@3@$0A@@std@@@std@@QEAA@XZ ENDP ; std::_Tree_val<std::_Tmap_traits<unsigned long,ThreadInfo * __ptr64,std::less<unsigned long>,std::allocator<std::pair<unsigned long const ,ThreadInfo * __ptr64> >,0> >::~_Tree_val<std::_Tmap_traits<unsigned long,ThreadInfo * __ptr64,std::less<unsigned long>,std::allocator<std::pair<unsigned long const ,ThreadInfo * __ptr64> >,0> >
; Function compile flags: /Ogtpy
_TEXT	ENDS
;	COMDAT ??1?$_Tree_val@V?$_Tmap_traits@_KPEAVThreadInfo@@U?$less@_K@std@@V?$allocator@U?$pair@$$CB_KPEAVThreadInfo@@@std@@@3@$0A@@std@@@std@@QEAA@XZ
_TEXT	SEGMENT
this$ = 8
??1?$_Tree_val@V?$_Tmap_traits@_KPEAVThreadInfo@@U?$less@_K@std@@V?$allocator@U?$pair@$$CB_KPEAVThreadInfo@@@std@@@3@$0A@@std@@@std@@QEAA@XZ PROC ; std::_Tree_val<std::_Tmap_traits<unsigned __int64,ThreadInfo * __ptr64,std::less<unsigned __int64>,std::allocator<std::pair<unsigned __int64 const ,ThreadInfo * __ptr64> >,0> >::~_Tree_val<std::_Tmap_traits<unsigned __int64,ThreadInfo * __ptr64,std::less<unsigned __int64>,std::allocator<std::pair<unsigned __int64 const ,ThreadInfo * __ptr64> >,0> >, COMDAT
	mov	rcx, QWORD PTR [rcx]
	jmp	??3@YAXPEAX@Z				; operator delete
??1?$_Tree_val@V?$_Tmap_traits@_KPEAVThreadInfo@@U?$less@_K@std@@V?$allocator@U?$pair@$$CB_KPEAVThreadInfo@@@std@@@3@$0A@@std@@@std@@QEAA@XZ ENDP ; std::_Tree_val<std::_Tmap_traits<unsigned __int64,ThreadInfo * __ptr64,std::less<unsigned __int64>,std::allocator<std::pair<unsigned __int64 const ,ThreadInfo * __ptr64> >,0> >::~_Tree_val<std::_Tmap_traits<unsigned __int64,ThreadInfo * __ptr64,std::less<unsigned __int64>,std::allocator<std::pair<unsigned __int64 const ,ThreadInfo * __ptr64> >,0> >
; Function compile flags: /Ogtpy
_TEXT	ENDS
;	COMDAT ??1?$_Tree_val@V?$_Tmap_traits@_KHU?$less@_K@std@@V?$allocator@U?$pair@$$CB_KH@std@@@2@$0A@@std@@@std@@QEAA@XZ
_TEXT	SEGMENT
this$ = 8
??1?$_Tree_val@V?$_Tmap_traits@_KHU?$less@_K@std@@V?$allocator@U?$pair@$$CB_KH@std@@@2@$0A@@std@@@std@@QEAA@XZ PROC ; std::_Tree_val<std::_Tmap_traits<unsigned __int64,int,std::less<unsigned __int64>,std::allocator<std::pair<unsigned __int64 const ,int> >,0> >::~_Tree_val<std::_Tmap_traits<unsigned __int64,int,std::less<unsigned __int64>,std::allocator<std::pair<unsigned __int64 const ,int> >,0> >, COMDAT
	mov	rcx, QWORD PTR [rcx]
	jmp	??3@YAXPEAX@Z				; operator delete
??1?$_Tree_val@V?$_Tmap_traits@_KHU?$less@_K@std@@V?$allocator@U?$pair@$$CB_KH@std@@@2@$0A@@std@@@std@@QEAA@XZ ENDP ; std::_Tree_val<std::_Tmap_traits<unsigned __int64,int,std::less<unsigned __int64>,std::allocator<std::pair<unsigned __int64 const ,int> >,0> >::~_Tree_val<std::_Tmap_traits<unsigned __int64,int,std::less<unsigned __int64>,std::allocator<std::pair<unsigned __int64 const ,int> >,0> >
; Function compile flags: /Ogtpy
; File c:\local\sharpdevelop_3.2.0.5777_source\src\addins\misc\profiler\hook\lightweightstack.h
_TEXT	ENDS
;	COMDAT ??0?$LightweightStack@UStackEntry@@@@QEAA@XZ
_TEXT	SEGMENT
this$ = 8
??0?$LightweightStack@UStackEntry@@@@QEAA@XZ PROC	; LightweightStack<StackEntry>::LightweightStack<StackEntry>, COMDAT

; 37   : 		array = (T *)stackAllocator.malloc(64 * sizeof(T));

	mov	edx, 1536				; 00000600H
	lock xadd QWORD PTR ?stackAllocator@@3UfastAllocator@@A+8, rdx
	mov	rax, QWORD PTR ?stackAllocator@@3UfastAllocator@@A+16
	xor	r8d, r8d
	sub	rax, rdx
	cmp	rax, 1536				; 00000600H
	cmovg	r8, rdx
	mov	QWORD PTR [rcx], r8

; 38   : 		arrayEnd = array + 64;

	lea	rax, QWORD PTR [r8+1536]
	mov	QWORD PTR [rcx+16], rax

; 39   : 		topPointer = array - 1;

	lea	rax, QWORD PTR [r8-24]
	mov	QWORD PTR [rcx+8], rax

; 40   : 	}

	mov	rax, rcx
	ret	0
??0?$LightweightStack@UStackEntry@@@@QEAA@XZ ENDP	; LightweightStack<StackEntry>::LightweightStack<StackEntry>
_TEXT	ENDS
;	COMDAT pdata
pdata	SEGMENT
$pdata$??0out_of_range@std@@QEAA@AEBV01@@Z DD imagerel $LN8
	DD	imagerel $LN8+86
	DD	imagerel $unwind$??0out_of_range@std@@QEAA@AEBV01@@Z
pdata	ENDS
;	COMDAT pdata
pdata	SEGMENT
$pdata$?dtor$1@?0???0out_of_range@std@@QEAA@AEBV01@@Z@4HA DD imagerel ?dtor$1@?0???0out_of_range@std@@QEAA@AEBV01@@Z@4HA
	DD	imagerel ?dtor$1@?0???0out_of_range@std@@QEAA@AEBV01@@Z@4HA+25
	DD	imagerel $unwind$?dtor$1@?0???0out_of_range@std@@QEAA@AEBV01@@Z@4HA
pdata	ENDS
;	COMDAT xdata
xdata	SEGMENT
$ip2state$??0out_of_range@std@@QEAA@AEBV01@@Z DD imagerel ??0out_of_range@std@@QEAA@AEBV01@@Z
	DD	0ffffffffH
	DD	imagerel ??0out_of_range@std@@QEAA@AEBV01@@Z+37
	DD	00H
	DD	imagerel ??0out_of_range@std@@QEAA@AEBV01@@Z+62
	DD	0ffffffffH
xdata	ENDS
;	COMDAT xdata
xdata	SEGMENT
$unwind$?dtor$1@?0???0out_of_range@std@@QEAA@AEBV01@@Z@4HA DD 020601H
	DD	050023206H
xdata	ENDS
;	COMDAT xdata
xdata	SEGMENT
$unwind$??0out_of_range@std@@QEAA@AEBV01@@Z DD 041811H
	DD	093418H
	DD	07006520aH
	DD	imagerel __CxxFrameHandler3
	DD	imagerel $cppxdata$??0out_of_range@std@@QEAA@AEBV01@@Z
xdata	ENDS
;	COMDAT CONST
CONST	SEGMENT
$cppxdata$??0out_of_range@std@@QEAA@AEBV01@@Z DD 019930522H
	DD	01H
	DD	imagerel $stateUnwindMap$??0out_of_range@std@@QEAA@AEBV01@@Z
	DD	00H
	DD	00H
	DD	03H
	DD	imagerel $ip2state$??0out_of_range@std@@QEAA@AEBV01@@Z
	DD	020H
	DD	00H
	DD	01H
CONST	ENDS
;	COMDAT xdata
xdata	SEGMENT
$stateUnwindMap$??0out_of_range@std@@QEAA@AEBV01@@Z DD 0ffffffffH
	DD	imagerel ?dtor$1@?0???0out_of_range@std@@QEAA@AEBV01@@Z@4HA
; Function compile flags: /Ogtpy
xdata	ENDS
;	COMDAT ??0out_of_range@std@@QEAA@AEBV01@@Z
_TEXT	SEGMENT
$T151356 = 32
this$ = 64
__that$ = 72
??0out_of_range@std@@QEAA@AEBV01@@Z PROC		; std::out_of_range::out_of_range, COMDAT
$LN8:
	mov	QWORD PTR [rsp+8], rcx
	push	rdi
	sub	rsp, 48					; 00000030H
	mov	QWORD PTR $T151356[rsp], -2
	mov	QWORD PTR [rsp+72], rbx
	mov	rbx, rdx
	mov	rdi, rcx
	call	QWORD PTR __imp_??0exception@std@@QEAA@AEBV01@@Z
	npad	1
	lea	rax, OFFSET FLAT:??_7logic_error@std@@6B@
	mov	QWORD PTR [rdi], rax
	lea	rdx, QWORD PTR [rbx+24]
	lea	rcx, QWORD PTR [rdi+24]
	call	QWORD PTR __imp_??0?$basic_string@DU?$char_traits@D@std@@V?$allocator@D@2@@std@@QEAA@AEBV01@@Z
	npad	1
	lea	rax, OFFSET FLAT:??_7out_of_range@std@@6B@
	mov	QWORD PTR [rdi], rax
	mov	rax, rdi
	mov	rbx, QWORD PTR [rsp+72]
	add	rsp, 48					; 00000030H
	pop	rdi
	ret	0
??0out_of_range@std@@QEAA@AEBV01@@Z ENDP		; std::out_of_range::out_of_range
; Function compile flags: /Ogtpy
_TEXT	ENDS
;	COMDAT text$x
text$x	SEGMENT
$T151356 = 32
this$ = 64
__that$ = 72
?dtor$1@?0???0out_of_range@std@@QEAA@AEBV01@@Z@4HA PROC	; `std::out_of_range::out_of_range'::`1'::dtor$1
	push	rbp
	sub	rsp, 32					; 00000020H
	mov	rbp, rdx
	mov	rcx, QWORD PTR this$[rbp]
	call	QWORD PTR __imp_??1exception@std@@UEAA@XZ
	add	rsp, 32					; 00000020H
	pop	rbp
	ret	0
?dtor$1@?0???0out_of_range@std@@QEAA@AEBV01@@Z@4HA ENDP	; `std::out_of_range::out_of_range'::`1'::dtor$1
text$x	ENDS
;	COMDAT pdata
; File c:\program files\microsoft visual studio 9.0\vc\include\stdexcept
pdata	SEGMENT
$pdata$??1out_of_range@std@@UEAA@XZ DD imagerel $LN5
	DD	imagerel $LN5+45
	DD	imagerel $unwind$??1out_of_range@std@@UEAA@XZ
pdata	ENDS
;	COMDAT xdata
xdata	SEGMENT
$unwind$??1out_of_range@std@@UEAA@XZ DD 020601H
	DD	030023206H
; Function compile flags: /Ogtpy
xdata	ENDS
;	COMDAT ??1out_of_range@std@@UEAA@XZ
_TEXT	SEGMENT
this$ = 48
??1out_of_range@std@@UEAA@XZ PROC			; std::out_of_range::~out_of_range, COMDAT

; 133  : 		{	// destroy the object

$LN5:
	push	rbx
	sub	rsp, 32					; 00000020H

; 134  : 		}

	lea	rax, OFFSET FLAT:??_7logic_error@std@@6B@
	mov	rbx, rcx
	add	rcx, 24
	mov	QWORD PTR [rcx-24], rax
	call	QWORD PTR __imp_??1?$basic_string@DU?$char_traits@D@std@@V?$allocator@D@2@@std@@QEAA@XZ
	mov	rcx, rbx
	add	rsp, 32					; 00000020H
	pop	rbx
	rex_jmp	QWORD PTR __imp_??1exception@std@@UEAA@XZ
??1out_of_range@std@@UEAA@XZ ENDP			; std::out_of_range::~out_of_range
_TEXT	ENDS
;	COMDAT pdata
pdata	SEGMENT
$pdata$??0out_of_range@std@@QEAA@AEBV?$basic_string@DU?$char_traits@D@std@@V?$allocator@D@2@@1@@Z DD imagerel $LN8
	DD	imagerel $LN8+85
	DD	imagerel $unwind$??0out_of_range@std@@QEAA@AEBV?$basic_string@DU?$char_traits@D@std@@V?$allocator@D@2@@1@@Z
pdata	ENDS
;	COMDAT pdata
pdata	SEGMENT
$pdata$?dtor$1@?0???0out_of_range@std@@QEAA@AEBV?$basic_string@DU?$char_traits@D@std@@V?$allocator@D@2@@1@@Z@4HA DD imagerel ?dtor$1@?0???0out_of_range@std@@QEAA@AEBV?$basic_string@DU?$char_traits@D@std@@V?$allocator@D@2@@1@@Z@4HA
	DD	imagerel ?dtor$1@?0???0out_of_range@std@@QEAA@AEBV?$basic_string@DU?$char_traits@D@std@@V?$allocator@D@2@@1@@Z@4HA+25
	DD	imagerel $unwind$?dtor$1@?0???0out_of_range@std@@QEAA@AEBV?$basic_string@DU?$char_traits@D@std@@V?$allocator@D@2@@1@@Z@4HA
pdata	ENDS
;	COMDAT xdata
xdata	SEGMENT
$ip2state$??0out_of_range@std@@QEAA@AEBV?$basic_string@DU?$char_traits@D@std@@V?$allocator@D@2@@1@@Z DD imagerel ??0out_of_range@std@@QEAA@AEBV?$basic_string@DU?$char_traits@D@std@@V?$allocator@D@2@@1@@Z
	DD	0ffffffffH
	DD	imagerel ??0out_of_range@std@@QEAA@AEBV?$basic_string@DU?$char_traits@D@std@@V?$allocator@D@2@@1@@Z+37
	DD	00H
	DD	imagerel ??0out_of_range@std@@QEAA@AEBV?$basic_string@DU?$char_traits@D@std@@V?$allocator@D@2@@1@@Z+61
	DD	0ffffffffH
xdata	ENDS
;	COMDAT xdata
xdata	SEGMENT
$unwind$?dtor$1@?0???0out_of_range@std@@QEAA@AEBV?$basic_string@DU?$char_traits@D@std@@V?$allocator@D@2@@1@@Z@4HA DD 020601H
	DD	050023206H
xdata	ENDS
;	COMDAT xdata
xdata	SEGMENT
$unwind$??0out_of_range@std@@QEAA@AEBV?$basic_string@DU?$char_traits@D@std@@V?$allocator@D@2@@1@@Z DD 041811H
	DD	093418H
	DD	07006520aH
	DD	imagerel __CxxFrameHandler3
	DD	imagerel $cppxdata$??0out_of_range@std@@QEAA@AEBV?$basic_string@DU?$char_traits@D@std@@V?$allocator@D@2@@1@@Z
xdata	ENDS
;	COMDAT CONST
CONST	SEGMENT
$cppxdata$??0out_of_range@std@@QEAA@AEBV?$basic_string@DU?$char_traits@D@std@@V?$allocator@D@2@@1@@Z DD 019930522H
	DD	01H
	DD	imagerel $stateUnwindMap$??0out_of_range@std@@QEAA@AEBV?$basic_string@DU?$char_traits@D@std@@V?$allocator@D@2@@1@@Z
	DD	00H
	DD	00H
	DD	03H
	DD	imagerel $ip2state$??0out_of_range@std@@QEAA@AEBV?$basic_string@DU?$char_traits@D@std@@V?$allocator@D@2@@1@@Z
	DD	020H
	DD	00H
	DD	01H
CONST	ENDS
;	COMDAT xdata
xdata	SEGMENT
$stateUnwindMap$??0out_of_range@std@@QEAA@AEBV?$basic_string@DU?$char_traits@D@std@@V?$allocator@D@2@@1@@Z DD 0ffffffffH
	DD	imagerel ?dtor$1@?0???0out_of_range@std@@QEAA@AEBV?$basic_string@DU?$char_traits@D@std@@V?$allocator@D@2@@1@@Z@4HA
; Function compile flags: /Ogtpy
xdata	ENDS
;	COMDAT ??0out_of_range@std@@QEAA@AEBV?$basic_string@DU?$char_traits@D@std@@V?$allocator@D@2@@1@@Z
_TEXT	SEGMENT
$T151404 = 32
this$ = 64
_Message$ = 72
??0out_of_range@std@@QEAA@AEBV?$basic_string@DU?$char_traits@D@std@@V?$allocator@D@2@@1@@Z PROC ; std::out_of_range::out_of_range, COMDAT

; 129  : 		{	// construct from message string

$LN8:
	mov	QWORD PTR [rsp+8], rcx
	push	rdi
	sub	rsp, 48					; 00000030H
	mov	QWORD PTR $T151404[rsp], -2
	mov	QWORD PTR [rsp+72], rbx
	mov	rbx, rdx
	mov	rdi, rcx
	call	QWORD PTR __imp_??0exception@std@@QEAA@XZ
	npad	1
	lea	rax, OFFSET FLAT:??_7logic_error@std@@6B@
	mov	QWORD PTR [rdi], rax
	lea	rcx, QWORD PTR [rdi+24]
	mov	rdx, rbx
	call	QWORD PTR __imp_??0?$basic_string@DU?$char_traits@D@std@@V?$allocator@D@2@@std@@QEAA@AEBV01@@Z
	npad	1
	lea	rax, OFFSET FLAT:??_7out_of_range@std@@6B@
	mov	QWORD PTR [rdi], rax

; 130  : 		}

	mov	rax, rdi
	mov	rbx, QWORD PTR [rsp+72]
	add	rsp, 48					; 00000030H
	pop	rdi
	ret	0
??0out_of_range@std@@QEAA@AEBV?$basic_string@DU?$char_traits@D@std@@V?$allocator@D@2@@1@@Z ENDP ; std::out_of_range::out_of_range
; Function compile flags: /Ogtpy
_TEXT	ENDS
;	COMDAT text$x
text$x	SEGMENT
$T151404 = 32
this$ = 64
_Message$ = 72
?dtor$1@?0???0out_of_range@std@@QEAA@AEBV?$basic_string@DU?$char_traits@D@std@@V?$allocator@D@2@@1@@Z@4HA PROC ; `std::out_of_range::out_of_range'::`1'::dtor$1
	push	rbp
	sub	rsp, 32					; 00000020H
	mov	rbp, rdx
	mov	rcx, QWORD PTR this$[rbp]
	call	QWORD PTR __imp_??1exception@std@@UEAA@XZ
	add	rsp, 32					; 00000020H
	pop	rbp
	ret	0
?dtor$1@?0???0out_of_range@std@@QEAA@AEBV?$basic_string@DU?$char_traits@D@std@@V?$allocator@D@2@@1@@Z@4HA ENDP ; `std::out_of_range::out_of_range'::`1'::dtor$1
text$x	ENDS
;	COMDAT pdata
pdata	SEGMENT
$pdata$??_Glogic_error@std@@UEAAPEAXI@Z DD imagerel $LN7
	DD	imagerel $LN7+72
	DD	imagerel $unwind$??_Glogic_error@std@@UEAAPEAXI@Z
pdata	ENDS
;	COMDAT xdata
xdata	SEGMENT
$unwind$??_Glogic_error@std@@UEAAPEAXI@Z DD 040a01H
	DD	06340aH
	DD	07006320aH
; Function compile flags: /Ogtpy
xdata	ENDS
;	COMDAT ??_Glogic_error@std@@UEAAPEAXI@Z
_TEXT	SEGMENT
this$ = 48
__flags$ = 56
??_Glogic_error@std@@UEAAPEAXI@Z PROC			; std::logic_error::`scalar deleting destructor', COMDAT
$LN7:
	mov	QWORD PTR [rsp+8], rbx
	push	rdi
	sub	rsp, 32					; 00000020H
	lea	rax, OFFSET FLAT:??_7logic_error@std@@6B@
	mov	rdi, rcx
	add	rcx, 24
	mov	QWORD PTR [rcx-24], rax
	mov	ebx, edx
	call	QWORD PTR __imp_??1?$basic_string@DU?$char_traits@D@std@@V?$allocator@D@2@@std@@QEAA@XZ
	mov	rcx, rdi
	call	QWORD PTR __imp_??1exception@std@@UEAA@XZ
	test	bl, 1
	je	SHORT $LN6@scalar@2
	mov	rcx, rdi
	call	??3@YAXPEAX@Z				; operator delete
$LN6@scalar@2:
	mov	rax, rdi
	mov	rbx, QWORD PTR [rsp+48]
	add	rsp, 32					; 00000020H
	pop	rdi
	ret	0
??_Glogic_error@std@@UEAAPEAXI@Z ENDP			; std::logic_error::`scalar deleting destructor'
;	COMDAT pdata
; File c:\program files\microsoft visual studio 9.0\vc\include\xtree
pdata	SEGMENT
$pdata$?_Inc@const_iterator@?$_Tree@V?$_Tmap_traits@KPEAVThreadInfo@@U?$less@K@std@@V?$allocator@U?$pair@$$CBKPEAVThreadInfo@@@std@@@3@$0A@@std@@@std@@QEAAXXZ DD imagerel $LN44
	DD	imagerel $LN44+130
	DD	imagerel $unwind$?_Inc@const_iterator@?$_Tree@V?$_Tmap_traits@KPEAVThreadInfo@@U?$less@K@std@@V?$allocator@U?$pair@$$CBKPEAVThreadInfo@@@std@@@3@$0A@@std@@@std@@QEAAXXZ
pdata	ENDS
;	COMDAT xdata
xdata	SEGMENT
$unwind$?_Inc@const_iterator@?$_Tree@V?$_Tmap_traits@KPEAVThreadInfo@@U?$less@K@std@@V?$allocator@U?$pair@$$CBKPEAVThreadInfo@@@std@@@3@$0A@@std@@@std@@QEAAXXZ DD 020601H
	DD	030023206H
; Function compile flags: /Ogtpy
xdata	ENDS
;	COMDAT ?_Inc@const_iterator@?$_Tree@V?$_Tmap_traits@KPEAVThreadInfo@@U?$less@K@std@@V?$allocator@U?$pair@$$CBKPEAVThreadInfo@@@std@@@3@$0A@@std@@@std@@QEAAXXZ
_TEXT	SEGMENT
this$ = 48
?_Inc@const_iterator@?$_Tree@V?$_Tmap_traits@KPEAVThreadInfo@@U?$less@K@std@@V?$allocator@U?$pair@$$CBKPEAVThreadInfo@@@std@@@3@$0A@@std@@@std@@QEAAXXZ PROC ; std::_Tree<std::_Tmap_traits<unsigned long,ThreadInfo * __ptr64,std::less<unsigned long>,std::allocator<std::pair<unsigned long const ,ThreadInfo * __ptr64> >,0> >::const_iterator::_Inc, COMDAT

; 377  : 			{	// move to node with next larger value

$LN44:
	push	rbx
	sub	rsp, 32					; 00000020H

; 378  : 
; 379  :  #if _HAS_ITERATOR_DEBUGGING
; 380  : 			if (this->_Mycont == 0
; 381  : 				|| _Ptr == 0
; 382  : 				|| _Isnil(_Ptr))
; 383  : 				{
; 384  : 				_DEBUG_ERROR("map/set iterator not incrementable");
; 385  : 				_SCL_SECURE_OUT_OF_RANGE;
; 386  : 				}
; 387  :  #else
; 388  : 			_SCL_SECURE_VALIDATE(this->_Has_container());

	cmp	QWORD PTR [rcx], 0
	mov	rbx, rcx
	jne	SHORT $LN9@Inc
	call	QWORD PTR __imp__invalid_parameter_noinfo
$LN9@Inc:

; 389  : 			if (_Isnil(_Ptr))

	mov	rcx, QWORD PTR [rbx+8]
	cmp	BYTE PTR [rcx+41], 0
	je	SHORT $LN6@Inc

; 405  : 				}
; 406  : 			}

	add	rsp, 32					; 00000020H
	pop	rbx
	rex_jmp	QWORD PTR __imp__invalid_parameter_noinfo
$LN6@Inc:

; 390  : 				{
; 391  : 				_SCL_SECURE_OUT_OF_RANGE;
; 392  : 				// end() shouldn't be incremented, don't move if _SCL_SECURE is not turned on
; 393  : 				}
; 394  :  #endif /* _HAS_ITERATOR_DEBUGGING */
; 395  : 
; 396  : 			else if (!_Isnil(_Right(_Ptr)))

	mov	rax, QWORD PTR [rcx+16]
	cmp	BYTE PTR [rax+41], 0
	jne	SHORT $LN40@Inc

; 397  : 				_Ptr = _Min(_Right(_Ptr));	// ==> smallest of right subtree

	mov	rcx, QWORD PTR [rax]
	cmp	BYTE PTR [rcx+41], 0
	jne	SHORT $LN23@Inc
	npad	2
$LL24@Inc:
	mov	rax, rcx
	mov	rcx, QWORD PTR [rcx]
	cmp	BYTE PTR [rcx+41], 0
	je	SHORT $LL24@Inc
$LN23@Inc:
	mov	QWORD PTR [rbx+8], rax

; 405  : 				}
; 406  : 			}

	add	rsp, 32					; 00000020H
	pop	rbx
	ret	0
$LN40@Inc:

; 398  : 			else
; 399  : 				{	// climb looking for right subtree
; 400  : 				_Nodeptr _Pnode;
; 401  : 				while (!_Isnil(_Pnode = _Parent(_Ptr))
; 402  : 					&& _Ptr == _Right(_Pnode))

	mov	rcx, QWORD PTR [rcx+8]
	cmp	BYTE PTR [rcx+41], 0
	jne	SHORT $LN43@Inc
$LL2@Inc:
	mov	rax, QWORD PTR [rcx+16]
	cmp	QWORD PTR [rbx+8], rax
	jne	SHORT $LN43@Inc

; 403  : 					_Ptr = _Pnode;	// ==> parent while right subtree

	mov	QWORD PTR [rbx+8], rcx
	mov	rcx, QWORD PTR [rcx+8]
	cmp	BYTE PTR [rcx+41], 0
	je	SHORT $LL2@Inc
$LN43@Inc:

; 404  : 				_Ptr = _Pnode;	// ==> parent (head if end())

	mov	QWORD PTR [rbx+8], rcx

; 405  : 				}
; 406  : 			}

	add	rsp, 32					; 00000020H
	pop	rbx
	ret	0
?_Inc@const_iterator@?$_Tree@V?$_Tmap_traits@KPEAVThreadInfo@@U?$less@K@std@@V?$allocator@U?$pair@$$CBKPEAVThreadInfo@@@std@@@3@$0A@@std@@@std@@QEAAXXZ ENDP ; std::_Tree<std::_Tmap_traits<unsigned long,ThreadInfo * __ptr64,std::less<unsigned long>,std::allocator<std::pair<unsigned long const ,ThreadInfo * __ptr64> >,0> >::const_iterator::_Inc
_TEXT	ENDS
;	COMDAT pdata
pdata	SEGMENT
$pdata$?_Inc@const_iterator@?$_Tree@V?$_Tmap_traits@_KPEAVThreadInfo@@U?$less@_K@std@@V?$allocator@U?$pair@$$CB_KPEAVThreadInfo@@@std@@@3@$0A@@std@@@std@@QEAAXXZ DD imagerel $LN44
	DD	imagerel $LN44+130
	DD	imagerel $unwind$?_Inc@const_iterator@?$_Tree@V?$_Tmap_traits@_KPEAVThreadInfo@@U?$less@_K@std@@V?$allocator@U?$pair@$$CB_KPEAVThreadInfo@@@std@@@3@$0A@@std@@@std@@QEAAXXZ
pdata	ENDS
;	COMDAT xdata
xdata	SEGMENT
$unwind$?_Inc@const_iterator@?$_Tree@V?$_Tmap_traits@_KPEAVThreadInfo@@U?$less@_K@std@@V?$allocator@U?$pair@$$CB_KPEAVThreadInfo@@@std@@@3@$0A@@std@@@std@@QEAAXXZ DD 020601H
	DD	030023206H
; Function compile flags: /Ogtpy
xdata	ENDS
;	COMDAT ?_Inc@const_iterator@?$_Tree@V?$_Tmap_traits@_KPEAVThreadInfo@@U?$less@_K@std@@V?$allocator@U?$pair@$$CB_KPEAVThreadInfo@@@std@@@3@$0A@@std@@@std@@QEAAXXZ
_TEXT	SEGMENT
this$ = 48
?_Inc@const_iterator@?$_Tree@V?$_Tmap_traits@_KPEAVThreadInfo@@U?$less@_K@std@@V?$allocator@U?$pair@$$CB_KPEAVThreadInfo@@@std@@@3@$0A@@std@@@std@@QEAAXXZ PROC ; std::_Tree<std::_Tmap_traits<unsigned __int64,ThreadInfo * __ptr64,std::less<unsigned __int64>,std::allocator<std::pair<unsigned __int64 const ,ThreadInfo * __ptr64> >,0> >::const_iterator::_Inc, COMDAT

; 377  : 			{	// move to node with next larger value

$LN44:
	push	rbx
	sub	rsp, 32					; 00000020H

; 378  : 
; 379  :  #if _HAS_ITERATOR_DEBUGGING
; 380  : 			if (this->_Mycont == 0
; 381  : 				|| _Ptr == 0
; 382  : 				|| _Isnil(_Ptr))
; 383  : 				{
; 384  : 				_DEBUG_ERROR("map/set iterator not incrementable");
; 385  : 				_SCL_SECURE_OUT_OF_RANGE;
; 386  : 				}
; 387  :  #else
; 388  : 			_SCL_SECURE_VALIDATE(this->_Has_container());

	cmp	QWORD PTR [rcx], 0
	mov	rbx, rcx
	jne	SHORT $LN9@Inc@2
	call	QWORD PTR __imp__invalid_parameter_noinfo
$LN9@Inc@2:

; 389  : 			if (_Isnil(_Ptr))

	mov	rcx, QWORD PTR [rbx+8]
	cmp	BYTE PTR [rcx+41], 0
	je	SHORT $LN6@Inc@2

; 405  : 				}
; 406  : 			}

	add	rsp, 32					; 00000020H
	pop	rbx
	rex_jmp	QWORD PTR __imp__invalid_parameter_noinfo
$LN6@Inc@2:

; 390  : 				{
; 391  : 				_SCL_SECURE_OUT_OF_RANGE;
; 392  : 				// end() shouldn't be incremented, don't move if _SCL_SECURE is not turned on
; 393  : 				}
; 394  :  #endif /* _HAS_ITERATOR_DEBUGGING */
; 395  : 
; 396  : 			else if (!_Isnil(_Right(_Ptr)))

	mov	rax, QWORD PTR [rcx+16]
	cmp	BYTE PTR [rax+41], 0
	jne	SHORT $LN40@Inc@2

; 397  : 				_Ptr = _Min(_Right(_Ptr));	// ==> smallest of right subtree

	mov	rcx, QWORD PTR [rax]
	cmp	BYTE PTR [rcx+41], 0
	jne	SHORT $LN23@Inc@2
	npad	2
$LL24@Inc@2:
	mov	rax, rcx
	mov	rcx, QWORD PTR [rcx]
	cmp	BYTE PTR [rcx+41], 0
	je	SHORT $LL24@Inc@2
$LN23@Inc@2:
	mov	QWORD PTR [rbx+8], rax

; 405  : 				}
; 406  : 			}

	add	rsp, 32					; 00000020H
	pop	rbx
	ret	0
$LN40@Inc@2:

; 398  : 			else
; 399  : 				{	// climb looking for right subtree
; 400  : 				_Nodeptr _Pnode;
; 401  : 				while (!_Isnil(_Pnode = _Parent(_Ptr))
; 402  : 					&& _Ptr == _Right(_Pnode))

	mov	rcx, QWORD PTR [rcx+8]
	cmp	BYTE PTR [rcx+41], 0
	jne	SHORT $LN43@Inc@2
$LL2@Inc@2:
	mov	rax, QWORD PTR [rcx+16]
	cmp	QWORD PTR [rbx+8], rax
	jne	SHORT $LN43@Inc@2

