; Listing generated by Microsoft (R) Optimizing Compiler Version 15.00.30729.01 

include listing.inc

INCLUDELIB OLDNAMES

PUBLIC	??$?0_W@?$allocator@V_Aux_cont@std@@@std@@QEAA@AEBV?$allocator@_W@1@@Z ; std::allocator<std::_Aux_cont>::allocator<std::_Aux_cont><wchar_t>
PUBLIC	??0?$_Container_base_aux_alloc_real@V?$allocator@_W@std@@@std@@IEAA@V?$allocator@_W@1@@Z ; std::_Container_base_aux_alloc_real<std::allocator<wchar_t> >::_Container_base_aux_alloc_real<std::allocator<wchar_t> >
PUBLIC	??$?0_W@?$allocator@PEA_W@std@@QEAA@AEBV?$allocator@_W@1@@Z ; std::allocator<wchar_t * __ptr64>::allocator<wchar_t * __ptr64><wchar_t>
PUBLIC	??0?$_Deque_map@_WV?$allocator@_W@std@@@std@@IEAA@V?$allocator@_W@1@@Z ; std::_Deque_map<wchar_t,std::allocator<wchar_t> >::_Deque_map<wchar_t,std::allocator<wchar_t> >
PUBLIC	??0?$_Deque_val@_WV?$allocator@_W@std@@@std@@IEAA@V?$allocator@_W@1@@Z ; std::_Deque_val<wchar_t,std::allocator<wchar_t> >::_Deque_val<wchar_t,std::allocator<wchar_t> >
PUBLIC	??0?$deque@_WV?$allocator@_W@std@@@std@@QEAA@XZ	; std::deque<wchar_t,std::allocator<wchar_t> >::deque<wchar_t,std::allocator<wchar_t> >
PUBLIC	??0?$stack@_WV?$deque@_WV?$allocator@_W@std@@@std@@@std@@QEAA@XZ ; std::stack<wchar_t,std::deque<wchar_t,std::allocator<wchar_t> > >::stack<wchar_t,std::deque<wchar_t,std::allocator<wchar_t> > >
PUBLIC	??1?$_Container_base_aux_alloc_real@V?$allocator@_W@std@@@std@@IEAA@XZ ; std::_Container_base_aux_alloc_real<std::allocator<wchar_t> >::~_Container_base_aux_alloc_real<std::allocator<wchar_t> >
PUBLIC	??1?$_Deque_map@_WV?$allocator@_W@std@@@std@@QEAA@XZ ; std::_Deque_map<wchar_t,std::allocator<wchar_t> >::~_Deque_map<wchar_t,std::allocator<wchar_t> >
PUBLIC	??1?$_Deque_val@_WV?$allocator@_W@std@@@std@@QEAA@XZ ; std::_Deque_val<wchar_t,std::allocator<wchar_t> >::~_Deque_val<wchar_t,std::allocator<wchar_t> >
PUBLIC	??$_Destroy@PEA_W@std@@YAXPEAPEA_W@Z		; std::_Destroy<wchar_t * __ptr64>
PUBLIC	?destroy@?$allocator@PEA_W@std@@QEAAXPEAPEA_W@Z	; std::allocator<wchar_t * __ptr64>::destroy
PUBLIC	?_Tidy@?$deque@_WV?$allocator@_W@std@@@std@@IEAAXXZ ; std::deque<wchar_t,std::allocator<wchar_t> >::_Tidy
PUBLIC	??1?$deque@_WV?$allocator@_W@std@@@std@@QEAA@XZ	; std::deque<wchar_t,std::allocator<wchar_t> >::~deque<wchar_t,std::allocator<wchar_t> >
PUBLIC	??1?$stack@_WV?$deque@_WV?$allocator@_W@std@@@std@@@std@@QEAA@XZ ; std::stack<wchar_t,std::deque<wchar_t,std::allocator<wchar_t> > >::~stack<wchar_t,std::deque<wchar_t,std::allocator<wchar_t> > >
PUBLIC	??0?$allocator@V?$basic_string@_WU?$char_traits@_W@std@@V?$allocator@_W@2@@std@@@std@@QEAA@XZ ; std::allocator<std::basic_string<wchar_t,std::char_traits<wchar_t>,std::allocator<wchar_t> > >::allocator<std::basic_string<wchar_t,std::char_traits<wchar_t>,std::allocator<wchar_t> > >
PUBLIC	??$?0V?$basic_string@_WU?$char_traits@_W@std@@V?$allocator@_W@2@@std@@@?$allocator@V_Aux_cont@std@@@std@@QEAA@AEBV?$allocator@V?$basic_string@_WU?$char_traits@_W@std@@V?$allocator@_W@2@@std@@@1@@Z ; std::allocator<std::_Aux_cont>::allocator<std::_Aux_cont><std::basic_string<wchar_t,std::char_traits<wchar_t>,std::allocator<wchar_t> > >
PUBLIC	??0?$_Container_base_aux_alloc_real@V?$allocator@V?$basic_string@_WU?$char_traits@_W@std@@V?$allocator@_W@2@@std@@@std@@@std@@IEAA@V?$allocator@V?$basic_string@_WU?$char_traits@_W@std@@V?$allocator@_W@2@@std@@@1@@Z ; std::_Container_base_aux_alloc_real<std::allocator<std::basic_string<wchar_t,std::char_traits<wchar_t>,std::allocator<wchar_t> > > >::_Container_base_aux_alloc_real<std::allocator<std::basic_string<wchar_t,std::char_traits<wchar_t>,std::allocator<wchar_t> > > >
PUBLIC	??0?$allocator@V?$basic_string@_WU?$char_traits@_W@std@@V?$allocator@_W@2@@std@@@std@@QEAA@AEBV01@@Z ; std::allocator<std::basic_string<wchar_t,std::char_traits<wchar_t>,std::allocator<wchar_t> > >::allocator<std::basic_string<wchar_t,std::char_traits<wchar_t>,std::allocator<wchar_t> > >
PUBLIC	??$?0V?$basic_string@_WU?$char_traits@_W@std@@V?$allocator@_W@2@@std@@@?$allocator@PEAV?$basic_string@_WU?$char_traits@_W@std@@V?$allocator@_W@2@@std@@@std@@QEAA@AEBV?$allocator@V?$basic_string@_WU?$char_traits@_W@std@@V?$allocator@_W@2@@std@@@1@@Z ; std::allocator<std::basic_string<wchar_t,std::char_traits<wchar_t>,std::allocator<wchar_t> > * __ptr64>::allocator<std::basic_string<wchar_t,std::char_traits<wchar_t>,std::allocator<wchar_t> > * __ptr64><std::basic_string<wchar_t,std::char_traits<wchar_t>,std::allocator<wchar_t> > >
PUBLIC	??0?$_Deque_map@V?$basic_string@_WU?$char_traits@_W@std@@V?$allocator@_W@2@@std@@V?$allocator@V?$basic_string@_WU?$char_traits@_W@std@@V?$allocator@_W@2@@std@@@2@@std@@IEAA@V?$allocator@V?$basic_string@_WU?$char_traits@_W@std@@V?$allocator@_W@2@@std@@@1@@Z ; std::_Deque_map<std::basic_string<wchar_t,std::char_traits<wchar_t>,std::allocator<wchar_t> >,std::allocator<std::basic_string<wchar_t,std::char_traits<wchar_t>,std::allocator<wchar_t> > > >::_Deque_map<std::basic_string<wchar_t,std::char_traits<wchar_t>,std::allocator<wchar_t> >,std::allocator<std::basic_string<wchar_t,std::char_traits<wchar_t>,std::allocator<wchar_t> > > >
PUBLIC	??0?$_Deque_val@V?$basic_string@_WU?$char_traits@_W@std@@V?$allocator@_W@2@@std@@V?$allocator@V?$basic_string@_WU?$char_traits@_W@std@@V?$allocator@_W@2@@std@@@2@@std@@IEAA@V?$allocator@V?$basic_string@_WU?$char_traits@_W@std@@V?$allocator@_W@2@@std@@@1@@Z ; std::_Deque_val<std::basic_string<wchar_t,std::char_traits<wchar_t>,std::allocator<wchar_t> >,std::allocator<std::basic_string<wchar_t,std::char_traits<wchar_t>,std::allocator<wchar_t> > > >::_Deque_val<std::basic_string<wchar_t,std::char_traits<wchar_t>,std::allocator<wchar_t> >,std::allocator<std::basic_string<wchar_t,std::char_traits<wchar_t>,std::allocator<wchar_t> > > >
PUBLIC	??0?$deque@V?$basic_string@_WU?$char_traits@_W@std@@V?$allocator@_W@2@@std@@V?$allocator@V?$basic_string@_WU?$char_traits@_W@std@@V?$allocator@_W@2@@std@@@2@@std@@QEAA@XZ ; std::deque<std::basic_string<wchar_t,std::char_traits<wchar_t>,std::allocator<wchar_t> >,std::allocator<std::basic_string<wchar_t,std::char_traits<wchar_t>,std::allocator<wchar_t> > > >::deque<std::basic_string<wchar_t,std::char_traits<wchar_t>,std::allocator<wchar_t> >,std::allocator<std::basic_string<wchar_t,std::char_traits<wchar_t>,std::allocator<wchar_t> > > >
PUBLIC	??0?$stack@V?$basic_string@_WU?$char_traits@_W@std@@V?$allocator@_W@2@@std@@V?$deque@V?$basic_string@_WU?$char_traits@_W@std@@V?$allocator@_W@2@@std@@V?$allocator@V?$basic_string@_WU?$char_traits@_W@std@@V?$allocator@_W@2@@std@@@2@@2@@std@@QEAA@XZ ; std::stack<std::basic_string<wchar_t,std::char_traits<wchar_t>,std::allocator<wchar_t> >,std::deque<std::basic_string<wchar_t,std::char_traits<wchar_t>,std::allocator<wchar_t> >,std::allocator<std::basic_string<wchar_t,std::char_traits<wchar_t>,std::allocator<wchar_t> > > > >::stack<std::basic_string<wchar_t,std::char_traits<wchar_t>,std::allocator<wchar_t> >,std::deque<std::basic_string<wchar_t,std::char_traits<wchar_t>,std::allocator<wchar_t> >,std::allocator<std::basic_string<wchar_t,std::char_traits<wchar_t>,std::allocator<wchar_t> > > > >
PUBLIC	?empty@?$stack@V?$basic_string@_WU?$char_traits@_W@std@@V?$allocator@_W@2@@std@@V?$deque@V?$basic_string@_WU?$char_traits@_W@std@@V?$allocator@_W@2@@std@@V?$allocator@V?$basic_string@_WU?$char_traits@_W@std@@V?$allocator@_W@2@@std@@@2@@2@@std@@QEBA_NXZ ; std::stack<std::basic_string<wchar_t,std::char_traits<wchar_t>,std::allocator<wchar_t> >,std::deque<std::basic_string<wchar_t,std::char_traits<wchar_t>,std::allocator<wchar_t> >,std::allocator<std::basic_string<wchar_t,std::char_traits<wchar_t>,std::allocator<wchar_t> > > > >::empty
PUBLIC	??0?$_Iterator_with_base@Urandom_access_iterator_tag@std@@V?$basic_string@_WU?$char_traits@_W@std@@V?$allocator@_W@2@@2@_JPEBV32@AEBV32@V_Iterator_base_aux@2@@std@@QEAA@XZ ; std::_Iterator_with_base<std::random_access_iterator_tag,std::basic_string<wchar_t,std::char_traits<wchar_t>,std::allocator<wchar_t> >,__int64,std::basic_string<wchar_t,std::char_traits<wchar_t>,std::allocator<wchar_t> > const * __ptr64,std::basic_string<wchar_t,std::char_traits<wchar_t>,std::allocator<wchar_t> > const & __ptr64,std::_Iterator_base_aux>::_Iterator_with_base<std::random_access_iterator_tag,std::basic_string<wchar_t,std::char_traits<wchar_t>,std::allocator<wchar_t> >,__int64,std::basic_string<wchar_t,std::char_traits<wchar_t>,std::allocator<wchar_t> > const * __ptr64,std::basic_string<wchar_t,std::char_traits<wchar_t>,std::allocator<wchar_t> > const & __ptr64,std::_Iterator_base_aux>
PUBLIC	??0?$_Ranit@V?$basic_string@_WU?$char_traits@_W@std@@V?$allocator@_W@2@@std@@_JPEBV12@AEBV12@@std@@QEAA@XZ ; std::_Ranit<std::basic_string<wchar_t,std::char_traits<wchar_t>,std::allocator<wchar_t> >,__int64,std::basic_string<wchar_t,std::char_traits<wchar_t>,std::allocator<wchar_t> > const * __ptr64,std::basic_string<wchar_t,std::char_traits<wchar_t>,std::allocator<wchar_t> > const & __ptr64>::_Ranit<std::basic_string<wchar_t,std::char_traits<wchar_t>,std::allocator<wchar_t> >,__int64,std::basic_string<wchar_t,std::char_traits<wchar_t>,std::allocator<wchar_t> > const * __ptr64,std::basic_string<wchar_t,std::char_traits<wchar_t>,std::allocator<wchar_t> > const & __ptr64>
PUBLIC	??0?$_Deque_const_iterator@V?$basic_string@_WU?$char_traits@_W@std@@V?$allocator@_W@2@@std@@V?$allocator@V?$basic_string@_WU?$char_traits@_W@std@@V?$allocator@_W@2@@std@@@2@$00@std@@QEAA@_KPEBV_Container_base_aux@1@@Z ; std::_Deque_const_iterator<std::basic_string<wchar_t,std::char_traits<wchar_t>,std::allocator<wchar_t> >,std::allocator<std::basic_string<wchar_t,std::char_traits<wchar_t>,std::allocator<wchar_t> > >,1>::_Deque_const_iterator<std::basic_string<wchar_t,std::char_traits<wchar_t>,std::allocator<wchar_t> >,std::allocator<std::basic_string<wchar_t,std::char_traits<wchar_t>,std::allocator<wchar_t> > >,1>
PUBLIC	??0?$_Deque_iterator@V?$basic_string@_WU?$char_traits@_W@std@@V?$allocator@_W@2@@std@@V?$allocator@V?$basic_string@_WU?$char_traits@_W@std@@V?$allocator@_W@2@@std@@@2@$00@std@@QEAA@_KPEBV_Container_base_aux@1@@Z ; std::_Deque_iterator<std::basic_string<wchar_t,std::char_traits<wchar_t>,std::allocator<wchar_t> >,std::allocator<std::basic_string<wchar_t,std::char_traits<wchar_t>,std::allocator<wchar_t> > >,1>::_Deque_iterator<std::basic_string<wchar_t,std::char_traits<wchar_t>,std::allocator<wchar_t> >,std::allocator<std::basic_string<wchar_t,std::char_traits<wchar_t>,std::allocator<wchar_t> > >,1>
PUBLIC	?end@?$deque@V?$basic_string@_WU?$char_traits@_W@std@@V?$allocator@_W@2@@std@@V?$allocator@V?$basic_string@_WU?$char_traits@_W@std@@V?$allocator@_W@2@@std@@@2@@std@@QEAA?AV?$_Deque_iterator@V?$basic_string@_WU?$char_traits@_W@std@@V?$allocator@_W@2@@std@@V?$allocator@V?$basic_string@_WU?$char_traits@_W@std@@V?$allocator@_W@2@@std@@@2@$00@2@XZ ; std::deque<std::basic_string<wchar_t,std::char_traits<wchar_t>,std::allocator<wchar_t> >,std::allocator<std::basic_string<wchar_t,std::char_traits<wchar_t>,std::allocator<wchar_t> > > >::end
PUBLIC	??D?$_Deque_const_iterator@V?$basic_string@_WU?$char_traits@_W@std@@V?$allocator@_W@2@@std@@V?$allocator@V?$basic_string@_WU?$char_traits@_W@std@@V?$allocator@_W@2@@std@@@2@$00@std@@QEBAAEBV?$basic_string@_WU?$char_traits@_W@std@@V?$allocator@_W@2@@1@XZ ; std::_Deque_const_iterator<std::basic_string<wchar_t,std::char_traits<wchar_t>,std::allocator<wchar_t> >,std::allocator<std::basic_string<wchar_t,std::char_traits<wchar_t>,std::allocator<wchar_t> > >,1>::operator*
PUBLIC	??D?$_Deque_iterator@V?$basic_string@_WU?$char_traits@_W@std@@V?$allocator@_W@2@@std@@V?$allocator@V?$basic_string@_WU?$char_traits@_W@std@@V?$allocator@_W@2@@std@@@2@$00@std@@QEBAAEAV?$basic_string@_WU?$char_traits@_W@std@@V?$allocator@_W@2@@1@XZ ; std::_Deque_iterator<std::basic_string<wchar_t,std::char_traits<wchar_t>,std::allocator<wchar_t> >,std::allocator<std::basic_string<wchar_t,std::char_traits<wchar_t>,std::allocator<wchar_t> > >,1>::operator*
PUBLIC	??Y?$_Deque_const_iterator@V?$basic_string@_WU?$char_traits@_W@std@@V?$allocator@_W@2@@std@@V?$allocator@V?$basic_string@_WU?$char_traits@_W@std@@V?$allocator@_W@2@@std@@@2@$00@std@@QEAAAEAV01@_J@Z ; std::_Deque_const_iterator<std::basic_string<wchar_t,std::char_traits<wchar_t>,std::allocator<wchar_t> >,std::allocator<std::basic_string<wchar_t,std::char_traits<wchar_t>,std::allocator<wchar_t> > >,1>::operator+=
PUBLIC	??Y?$_Deque_iterator@V?$basic_string@_WU?$char_traits@_W@std@@V?$allocator@_W@2@@std@@V?$allocator@V?$basic_string@_WU?$char_traits@_W@std@@V?$allocator@_W@2@@std@@@2@$00@std@@QEAAAEAV01@_J@Z ; std::_Deque_iterator<std::basic_string<wchar_t,std::char_traits<wchar_t>,std::allocator<wchar_t> >,std::allocator<std::basic_string<wchar_t,std::char_traits<wchar_t>,std::allocator<wchar_t> > >,1>::operator+=
PUBLIC	??Z?$_Deque_iterator@V?$basic_string@_WU?$char_traits@_W@std@@V?$allocator@_W@2@@std@@V?$allocator@V?$basic_string@_WU?$char_traits@_W@std@@V?$allocator@_W@2@@std@@@2@$00@std@@QEAAAEAV01@_J@Z ; std::_Deque_iterator<std::basic_string<wchar_t,std::char_traits<wchar_t>,std::allocator<wchar_t> >,std::allocator<std::basic_string<wchar_t,std::char_traits<wchar_t>,std::allocator<wchar_t> > >,1>::operator-=
PUBLIC	??G?$_Deque_iterator@V?$basic_string@_WU?$char_traits@_W@std@@V?$allocator@_W@2@@std@@V?$allocator@V?$basic_string@_WU?$char_traits@_W@std@@V?$allocator@_W@2@@std@@@2@$00@std@@QEBA?AV01@_J@Z ; std::_Deque_iterator<std::basic_string<wchar_t,std::char_traits<wchar_t>,std::allocator<wchar_t> >,std::allocator<std::basic_string<wchar_t,std::char_traits<wchar_t>,std::allocator<wchar_t> > >,1>::operator-
PUBLIC	?back@?$deque@V?$basic_string@_WU?$char_traits@_W@std@@V?$allocator@_W@2@@std@@V?$allocator@V?$basic_string@_WU?$char_traits@_W@std@@V?$allocator@_W@2@@std@@@2@@std@@QEAAAEAV?$basic_string@_WU?$char_traits@_W@std@@V?$allocator@_W@2@@2@XZ ; std::deque<std::basic_string<wchar_t,std::char_traits<wchar_t>,std::allocator<wchar_t> >,std::allocator<std::basic_string<wchar_t,std::char_traits<wchar_t>,std::allocator<wchar_t> > > >::back
PUBLIC	?top@?$stack@V?$basic_string@_WU?$char_traits@_W@std@@V?$allocator@_W@2@@std@@V?$deque@V?$basic_string@_WU?$char_traits@_W@std@@V?$allocator@_W@2@@std@@V?$allocator@V?$basic_string@_WU?$char_traits@_W@std@@V?$allocator@_W@2@@std@@@2@@2@@std@@QEAAAEAV?$basic_string@_WU?$char_traits@_W@std@@V?$allocator@_W@2@@2@XZ ; std::stack<std::basic_string<wchar_t,std::char_traits<wchar_t>,std::allocator<wchar_t> >,std::deque<std::basic_string<wchar_t,std::char_traits<wchar_t>,std::allocator<wchar_t> >,std::allocator<std::basic_string<wchar_t,std::char_traits<wchar_t>,std::allocator<wchar_t> > > > >::top
PUBLIC	??$_Allocate@V?$basic_string@_WU?$char_traits@_W@std@@V?$allocator@_W@2@@std@@@std@@YAPEAV?$basic_string@_WU?$char_traits@_W@std@@V?$allocator@_W@2@@0@_KPEAV10@@Z ; std::_Allocate<std::basic_string<wchar_t,std::char_traits<wchar_t>,std::allocator<wchar_t> > >
PUBLIC	?allocate@?$allocator@V?$basic_string@_WU?$char_traits@_W@std@@V?$allocator@_W@2@@std@@@std@@QEAAPEAV?$basic_string@_WU?$char_traits@_W@std@@V?$allocator@_W@2@@2@_K@Z ; std::allocator<std::basic_string<wchar_t,std::char_traits<wchar_t>,std::allocator<wchar_t> > >::allocate
PUBLIC	??$_Construct@V?$basic_string@_WU?$char_traits@_W@std@@V?$allocator@_W@2@@std@@V12@@std@@YAXPEAV?$basic_string@_WU?$char_traits@_W@std@@V?$allocator@_W@2@@0@AEBV10@@Z ; std::_Construct<std::basic_string<wchar_t,std::char_traits<wchar_t>,std::allocator<wchar_t> >,std::basic_string<wchar_t,std::char_traits<wchar_t>,std::allocator<wchar_t> > >
PUBLIC	?construct@?$allocator@V?$basic_string@_WU?$char_traits@_W@std@@V?$allocator@_W@2@@std@@@std@@QEAAXPEAV?$basic_string@_WU?$char_traits@_W@std@@V?$allocator@_W@2@@2@AEBV32@@Z ; std::allocator<std::basic_string<wchar_t,std::char_traits<wchar_t>,std::allocator<wchar_t> > >::construct
PUBLIC	??$_Allocate@PEAV?$basic_string@_WU?$char_traits@_W@std@@V?$allocator@_W@2@@std@@@std@@YAPEAPEAV?$basic_string@_WU?$char_traits@_W@std@@V?$allocator@_W@2@@0@_KPEAPEAV10@@Z ; std::_Allocate<std::basic_string<wchar_t,std::char_traits<wchar_t>,std::allocator<wchar_t> > * __ptr64>
PUBLIC	?allocate@?$allocator@PEAV?$basic_string@_WU?$char_traits@_W@std@@V?$allocator@_W@2@@std@@@std@@QEAAPEAPEAV?$basic_string@_WU?$char_traits@_W@std@@V?$allocator@_W@2@@2@_K@Z ; std::allocator<std::basic_string<wchar_t,std::char_traits<wchar_t>,std::allocator<wchar_t> > * __ptr64>::allocate
PUBLIC	?max_size@?$allocator@V?$basic_string@_WU?$char_traits@_W@std@@V?$allocator@_W@2@@std@@@std@@QEBA_KXZ ; std::allocator<std::basic_string<wchar_t,std::char_traits<wchar_t>,std::allocator<wchar_t> > >::max_size
PUBLIC	?max_size@?$deque@V?$basic_string@_WU?$char_traits@_W@std@@V?$allocator@_W@2@@std@@V?$allocator@V?$basic_string@_WU?$char_traits@_W@std@@V?$allocator@_W@2@@std@@@2@@std@@QEBA_KXZ ; std::deque<std::basic_string<wchar_t,std::char_traits<wchar_t>,std::allocator<wchar_t> >,std::allocator<std::basic_string<wchar_t,std::char_traits<wchar_t>,std::allocator<wchar_t> > > >::max_size
PUBLIC	?_Xlen@?$deque@V?$basic_string@_WU?$char_traits@_W@std@@V?$allocator@_W@2@@std@@V?$allocator@V?$basic_string@_WU?$char_traits@_W@std@@V?$allocator@_W@2@@std@@@2@@std@@KAXXZ ; std::deque<std::basic_string<wchar_t,std::char_traits<wchar_t>,std::allocator<wchar_t> >,std::allocator<std::basic_string<wchar_t,std::char_traits<wchar_t>,std::allocator<wchar_t> > > >::_Xlen
PUBLIC	??$_Uninit_copy@PEAPEAV?$basic_string@_WU?$char_traits@_W@std@@V?$allocator@_W@2@@std@@PEAPEAV12@V?$allocator@PEAV?$basic_string@_WU?$char_traits@_W@std@@V?$allocator@_W@2@@std@@@2@@std@@YAPEAPEAV?$basic_string@_WU?$char_traits@_W@std@@V?$allocator@_W@2@@0@PEAPEAV10@00AEAV?$allocator@PEAV?$basic_string@_WU?$char_traits@_W@std@@V?$allocator@_W@2@@std@@@0@U_Scalar_ptr_iterator_tag@0@U_Range_checked_iterator_tag@0@@Z ; std::_Uninit_copy<std::basic_string<wchar_t,std::char_traits<wchar_t>,std::allocator<wchar_t> > * __ptr64 * __ptr64,std::basic_string<wchar_t,std::char_traits<wchar_t>,std::allocator<wchar_t> > * __ptr64 * __ptr64,std::allocator<std::basic_string<wchar_t,std::char_traits<wchar_t>,std::allocator<wchar_t> > * __ptr64> >
PUBLIC	??$unchecked_uninitialized_copy@PEAPEAV?$basic_string@_WU?$char_traits@_W@std@@V?$allocator@_W@2@@std@@PEAPEAV12@V?$allocator@PEAV?$basic_string@_WU?$char_traits@_W@std@@V?$allocator@_W@2@@std@@@2@@stdext@@YAPEAPEAV?$basic_string@_WU?$char_traits@_W@std@@V?$allocator@_W@2@@std@@PEAPEAV12@00AEAV?$allocator@PEAV?$basic_string@_WU?$char_traits@_W@std@@V?$allocator@_W@2@@std@@@2@@Z ; stdext::unchecked_uninitialized_copy<std::basic_string<wchar_t,std::char_traits<wchar_t>,std::allocator<wchar_t> > * __ptr64 * __ptr64,std::basic_string<wchar_t,std::char_traits<wchar_t>,std::allocator<wchar_t> > * __ptr64 * __ptr64,std::allocator<std::basic_string<wchar_t,std::char_traits<wchar_t>,std::allocator<wchar_t> > * __ptr64> >
PUBLIC	??$_Iter_cat@PEAPEAV?$basic_string@_WU?$char_traits@_W@std@@V?$allocator@_W@2@@std@@@std@@YA?AUrandom_access_iterator_tag@0@AEBQEAPEAV?$basic_string@_WU?$char_traits@_W@std@@V?$allocator@_W@2@@0@@Z ; std::_Iter_cat<std::basic_string<wchar_t,std::char_traits<wchar_t>,std::allocator<wchar_t> > * __ptr64 * __ptr64>
PUBLIC	??$_Checked_base@PEAPEAV?$basic_string@_WU?$char_traits@_W@std@@V?$allocator@_W@2@@std@@@std@@YAPEAPEAV?$basic_string@_WU?$char_traits@_W@std@@V?$allocator@_W@2@@0@AEAPEAPEAV10@U_Unchanged_checked_iterator_base_type_tag@0@@Z ; std::_Checked_base<std::basic_string<wchar_t,std::char_traits<wchar_t>,std::allocator<wchar_t> > * __ptr64 * __ptr64>
PUBLIC	??$_Checked_base@PEAPEAV?$basic_string@_WU?$char_traits@_W@std@@V?$allocator@_W@2@@std@@@std@@YAPEAPEAV?$basic_string@_WU?$char_traits@_W@std@@V?$allocator@_W@2@@0@AEAPEAPEAV10@@Z ; std::_Checked_base<std::basic_string<wchar_t,std::char_traits<wchar_t>,std::allocator<wchar_t> > * __ptr64 * __ptr64>
PUBLIC	??$_Fill_n@PEAPEAV?$basic_string@_WU?$char_traits@_W@std@@V?$allocator@_W@2@@std@@_KPEAV12@@std@@YAXPEAPEAV?$basic_string@_WU?$char_traits@_W@std@@V?$allocator@_W@2@@0@_KAEBQEAV10@U_Range_checked_iterator_tag@0@@Z ; std::_Fill_n<std::basic_string<wchar_t,std::char_traits<wchar_t>,std::allocator<wchar_t> > * __ptr64 * __ptr64,unsigned __int64,std::basic_string<wchar_t,std::char_traits<wchar_t>,std::allocator<wchar_t> > * __ptr64>
PUBLIC	??$_Fill_n@PEAPEAV?$basic_string@_WU?$char_traits@_W@std@@V?$allocator@_W@2@@std@@_KPEAV12@@std@@YAXPEAPEAV?$basic_string@_WU?$char_traits@_W@std@@V?$allocator@_W@2@@0@_KAEBQEAV10@Urandom_access_iterator_tag@0@U_Range_checked_iterator_tag@0@@Z ; std::_Fill_n<std::basic_string<wchar_t,std::char_traits<wchar_t>,std::allocator<wchar_t> > * __ptr64 * __ptr64,unsigned __int64,std::basic_string<wchar_t,std::char_traits<wchar_t>,std::allocator<wchar_t> > * __ptr64>
PUBLIC	??$unchecked_fill_n@PEAPEAV?$basic_string@_WU?$char_traits@_W@std@@V?$allocator@_W@2@@std@@_KPEAV12@@stdext@@YAXPEAPEAV?$basic_string@_WU?$char_traits@_W@std@@V?$allocator@_W@2@@std@@_KAEBQEAV12@@Z ; stdext::unchecked_fill_n<std::basic_string<wchar_t,std::char_traits<wchar_t>,std::allocator<wchar_t> > * __ptr64 * __ptr64,unsigned __int64,std::basic_string<wchar_t,std::char_traits<wchar_t>,std::allocator<wchar_t> > * __ptr64>
PUBLIC	??$_Uninit_fill_n@PEAPEAV?$basic_string@_WU?$char_traits@_W@std@@V?$allocator@_W@2@@std@@_KPEAV12@V?$allocator@PEAV?$basic_string@_WU?$char_traits@_W@std@@V?$allocator@_W@2@@std@@@2@@std@@YAXPEAPEAV?$basic_string@_WU?$char_traits@_W@std@@V?$allocator@_W@2@@0@_KAEBQEAV10@AEAV?$allocator@PEAV?$basic_string@_WU?$char_traits@_W@std@@V?$allocator@_W@2@@std@@@0@U_Scalar_ptr_iterator_tag@0@U_Range_checked_iterator_tag@0@@Z ; std::_Uninit_fill_n<std::basic_string<wchar_t,std::char_traits<wchar_t>,std::allocator<wchar_t> > * __ptr64 * __ptr64,unsigned __int64,std::basic_string<wchar_t,std::char_traits<wchar_t>,std::allocator<wchar_t> > * __ptr64,std::allocator<std::basic_string<wchar_t,std::char_traits<wchar_t>,std::allocator<wchar_t> > * __ptr64> >
PUBLIC	??$unchecked_uninitialized_fill_n@PEAPEAV?$basic_string@_WU?$char_traits@_W@std@@V?$allocator@_W@2@@std@@_KPEAV12@V?$allocator@PEAV?$basic_string@_WU?$char_traits@_W@std@@V?$allocator@_W@2@@std@@@2@@stdext@@YAXPEAPEAV?$basic_string@_WU?$char_traits@_W@std@@V?$allocator@_W@2@@std@@_KAEBQEAV12@AEAV?$allocator@PEAV?$basic_string@_WU?$char_traits@_W@std@@V?$allocator@_W@2@@std@@@2@@Z ; stdext::unchecked_uninitialized_fill_n<std::basic_string<wchar_t,std::char_traits<wchar_t>,std::allocator<wchar_t> > * __ptr64 * __ptr64,unsigned __int64,std::basic_string<wchar_t,std::char_traits<wchar_t>,std::allocator<wchar_t> > * __ptr64,std::allocator<std::basic_string<wchar_t,std::char_traits<wchar_t>,std::allocator<wchar_t> > * __ptr64> >
PUBLIC	??$_Ptr_cat@PEAPEAV?$basic_string@_WU?$char_traits@_W@std@@V?$allocator@_W@2@@std@@PEAPEAV12@@std@@YA?AU_Scalar_ptr_iterator_tag@0@AEAPEAPEAV?$basic_string@_WU?$char_traits@_W@std@@V?$allocator@_W@2@@0@0@Z ; std::_Ptr_cat<std::basic_string<wchar_t,std::char_traits<wchar_t>,std::allocator<wchar_t> > * __ptr64 * __ptr64,std::basic_string<wchar_t,std::char_traits<wchar_t>,std::allocator<wchar_t> > * __ptr64 * __ptr64>
PUBLIC	??$_Destroy_range@V?$allocator@PEAV?$basic_string@_WU?$char_traits@_W@std@@V?$allocator@_W@2@@std@@@std@@@std@@YAXPEAPEAV?$basic_string@_WU?$char_traits@_W@std@@V?$allocator@_W@2@@0@0AEAV?$allocator@PEAV?$basic_string@_WU?$char_traits@_W@std@@V?$allocator@_W@2@@std@@@0@U_Scalar_ptr_iterator_tag@0@@Z ; std::_Destroy_range<std::allocator<std::basic_string<wchar_t,std::char_traits<wchar_t>,std::allocator<wchar_t> > * __ptr64> >
PUBLIC	??$_Destroy_range@V?$allocator@PEAV?$basic_string@_WU?$char_traits@_W@std@@V?$allocator@_W@2@@std@@@std@@@std@@YAXPEAPEAV?$basic_string@_WU?$char_traits@_W@std@@V?$allocator@_W@2@@0@0AEAV?$allocator@PEAV?$basic_string@_WU?$char_traits@_W@std@@V?$allocator@_W@2@@std@@@0@@Z ; std::_Destroy_range<std::allocator<std::basic_string<wchar_t,std::char_traits<wchar_t>,std::allocator<wchar_t> > * __ptr64> >
PUBLIC	?_Growmap@?$deque@V?$basic_string@_WU?$char_traits@_W@std@@V?$allocator@_W@2@@std@@V?$allocator@V?$basic_string@_WU?$char_traits@_W@std@@V?$allocator@_W@2@@std@@@2@@std@@IEAAX_K@Z ; std::deque<std::basic_string<wchar_t,std::char_traits<wchar_t>,std::allocator<wchar_t> >,std::allocator<std::basic_string<wchar_t,std::char_traits<wchar_t>,std::allocator<wchar_t> > > >::_Growmap
PUBLIC	?push_back@?$deque@V?$basic_string@_WU?$char_traits@_W@std@@V?$allocator@_W@2@@std@@V?$allocator@V?$basic_string@_WU?$char_traits@_W@std@@V?$allocator@_W@2@@std@@@2@@std@@QEAAXAEBV?$basic_string@_WU?$char_traits@_W@std@@V?$allocator@_W@2@@2@@Z ; std::deque<std::basic_string<wchar_t,std::char_traits<wchar_t>,std::allocator<wchar_t> >,std::allocator<std::basic_string<wchar_t,std::char_traits<wchar_t>,std::allocator<wchar_t> > > >::push_back
PUBLIC	?push@?$stack@V?$basic_string@_WU?$char_traits@_W@std@@V?$allocator@_W@2@@std@@V?$deque@V?$basic_string@_WU?$char_traits@_W@std@@V?$allocator@_W@2@@std@@V?$allocator@V?$basic_string@_WU?$char_traits@_W@std@@V?$allocator@_W@2@@std@@@2@@2@@std@@QEAAXAEBV?$basic_string@_WU?$char_traits@_W@std@@V?$allocator@_W@2@@2@@Z ; std::stack<std::basic_string<wchar_t,std::char_traits<wchar_t>,std::allocator<wchar_t> >,std::deque<std::basic_string<wchar_t,std::char_traits<wchar_t>,std::allocator<wchar_t> >,std::allocator<std::basic_string<wchar_t,std::char_traits<wchar_t>,std::allocator<wchar_t> > > > >::push
PUBLIC	?pop@?$stack@V?$basic_string@_WU?$char_traits@_W@std@@V?$allocator@_W@2@@std@@V?$deque@V?$basic_string@_WU?$char_traits@_W@std@@V?$allocator@_W@2@@std@@V?$allocator@V?$basic_string@_WU?$char_traits@_W@std@@V?$allocator@_W@2@@std@@@2@@2@@std@@QEAAXXZ ; std::stack<std::basic_string<wchar_t,std::char_traits<wchar_t>,std::allocator<wchar_t> >,std::deque<std::basic_string<wchar_t,std::char_traits<wchar_t>,std::allocator<wchar_t> >,std::allocator<std::basic_string<wchar_t,std::char_traits<wchar_t>,std::allocator<wchar_t> > > > >::pop
PUBLIC	??1?$_Container_base_aux_alloc_real@V?$allocator@V?$basic_string@_WU?$char_traits@_W@std@@V?$allocator@_W@2@@std@@@std@@@std@@IEAA@XZ ; std::_Container_base_aux_alloc_real<std::allocator<std::basic_string<wchar_t,std::char_traits<wchar_t>,std::allocator<wchar_t> > > >::~_Container_base_aux_alloc_real<std::allocator<std::basic_string<wchar_t,std::char_traits<wchar_t>,std::allocator<wchar_t> > > >
PUBLIC	??1?$_Deque_map@V?$basic_string@_WU?$char_traits@_W@std@@V?$allocator@_W@2@@std@@V?$allocator@V?$basic_string@_WU?$char_traits@_W@std@@V?$allocator@_W@2@@std@@@2@@std@@QEAA@XZ ; std::_Deque_map<std::basic_string<wchar_t,std::char_traits<wchar_t>,std::allocator<wchar_t> >,std::allocator<std::basic_string<wchar_t,std::char_traits<wchar_t>,std::allocator<wchar_t> > > >::~_Deque_map<std::basic_string<wchar_t,std::char_traits<wchar_t>,std::allocator<wchar_t> >,std::allocator<std::basic_string<wchar_t,std::char_traits<wchar_t>,std::allocator<wchar_t> > > >
PUBLIC	??1?$_Deque_val@V?$basic_string@_WU?$char_traits@_W@std@@V?$allocator@_W@2@@std@@V?$allocator@V?$basic_string@_WU?$char_traits@_W@std@@V?$allocator@_W@2@@std@@@2@@std@@QEAA@XZ ; std::_Deque_val<std::basic_string<wchar_t,std::char_traits<wchar_t>,std::allocator<wchar_t> >,std::allocator<std::basic_string<wchar_t,std::char_traits<wchar_t>,std::allocator<wchar_t> > > >::~_Deque_val<std::basic_string<wchar_t,std::char_traits<wchar_t>,std::allocator<wchar_t> >,std::allocator<std::basic_string<wchar_t,std::char_traits<wchar_t>,std::allocator<wchar_t> > > >
PUBLIC	?deallocate@?$allocator@V?$basic_string@_WU?$char_traits@_W@std@@V?$allocator@_W@2@@std@@@std@@QEAAXPEAV?$basic_string@_WU?$char_traits@_W@std@@V?$allocator@_W@2@@2@_K@Z ; std::allocator<std::basic_string<wchar_t,std::char_traits<wchar_t>,std::allocator<wchar_t> > >::deallocate
PUBLIC	?deallocate@?$allocator@PEAV?$basic_string@_WU?$char_traits@_W@std@@V?$allocator@_W@2@@std@@@std@@QEAAXPEAPEAV?$basic_string@_WU?$char_traits@_W@std@@V?$allocator@_W@2@@2@_K@Z ; std::allocator<std::basic_string<wchar_t,std::char_traits<wchar_t>,std::allocator<wchar_t> > * __ptr64>::deallocate
PUBLIC	??$_Destroy@PEAV?$basic_string@_WU?$char_traits@_W@std@@V?$allocator@_W@2@@std@@@std@@YAXPEAPEAV?$basic_string@_WU?$char_traits@_W@std@@V?$allocator@_W@2@@0@@Z ; std::_Destroy<std::basic_string<wchar_t,std::char_traits<wchar_t>,std::allocator<wchar_t> > * __ptr64>
PUBLIC	?destroy@?$allocator@PEAV?$basic_string@_WU?$char_traits@_W@std@@V?$allocator@_W@2@@std@@@std@@QEAAXPEAPEAV?$basic_string@_WU?$char_traits@_W@std@@V?$allocator@_W@2@@2@@Z ; std::allocator<std::basic_string<wchar_t,std::char_traits<wchar_t>,std::allocator<wchar_t> > * __ptr64>::destroy
PUBLIC	??_G?$basic_string@_WU?$char_traits@_W@std@@V?$allocator@_W@2@@std@@QEAAPEAXI@Z ; std::basic_string<wchar_t,std::char_traits<wchar_t>,std::allocator<wchar_t> >::`scalar deleting destructor'
PUBLIC	??$_Destroy@V?$basic_string@_WU?$char_traits@_W@std@@V?$allocator@_W@2@@std@@@std@@YAXPEAV?$basic_string@_WU?$char_traits@_W@std@@V?$allocator@_W@2@@0@@Z ; std::_Destroy<std::basic_string<wchar_t,std::char_traits<wchar_t>,std::allocator<wchar_t> > >
PUBLIC	?destroy@?$allocator@V?$basic_string@_WU?$char_traits@_W@std@@V?$allocator@_W@2@@std@@@std@@QEAAXPEAV?$basic_string@_WU?$char_traits@_W@std@@V?$allocator@_W@2@@2@@Z ; std::allocator<std::basic_string<wchar_t,std::char_traits<wchar_t>,std::allocator<wchar_t> > >::destroy
PUBLIC	?empty@?$deque@V?$basic_string@_WU?$char_traits@_W@std@@V?$allocator@_W@2@@std@@V?$allocator@V?$basic_string@_WU?$char_traits@_W@std@@V?$allocator@_W@2@@std@@@2@@std@@QEBA_NXZ ; std::deque<std::basic_string<wchar_t,std::char_traits<wchar_t>,std::allocator<wchar_t> >,std::allocator<std::basic_string<wchar_t,std::char_traits<wchar_t>,std::allocator<wchar_t> > > >::empty
PUBLIC	?pop_back@?$deque@V?$basic_string@_WU?$char_traits@_W@std@@V?$allocator@_W@2@@std@@V?$allocator@V?$basic_string@_WU?$char_traits@_W@std@@V?$allocator@_W@2@@std@@@2@@std@@QEAAXXZ ; std::deque<std::basic_string<wchar_t,std::char_traits<wchar_t>,std::allocator<wchar_t> >,std::allocator<std::basic_string<wchar_t,std::char_traits<wchar_t>,std::allocator<wchar_t> > > >::pop_back
PUBLIC	?_Tidy@?$deque@V?$basic_string@_WU?$char_traits@_W@std@@V?$allocator@_W@2@@std@@V?$allocator@V?$basic_string@_WU?$char_traits@_W@std@@V?$allocator@_W@2@@std@@@2@@std@@IEAAXXZ ; std::deque<std::basic_string<wchar_t,std::char_traits<wchar_t>,std::allocator<wchar_t> >,std::allocator<std::basic_string<wchar_t,std::char_traits<wchar_t>,std::allocator<wchar_t> > > >::_Tidy
PUBLIC	??1?$deque@V?$basic_string@_WU?$char_traits@_W@std@@V?$allocator@_W@2@@std@@V?$allocator@V?$basic_string@_WU?$char_traits@_W@std@@V?$allocator@_W@2@@std@@@2@@std@@QEAA@XZ ; std::deque<std::basic_string<wchar_t,std::char_traits<wchar_t>,std::allocator<wchar_t> >,std::allocator<std::basic_string<wchar_t,std::char_traits<wchar_t>,std::allocator<wchar_t> > > >::~deque<std::basic_string<wchar_t,std::char_traits<wchar_t>,std::allocator<wchar_t> >,std::allocator<std::basic_string<wchar_t,std::char_traits<wchar_t>,std::allocator<wchar_t> > > >
PUBLIC	??1?$stack@V?$basic_string@_WU?$char_traits@_W@std@@V?$allocator@_W@2@@std@@V?$deque@V?$basic_string@_WU?$char_traits@_W@std@@V?$allocator@_W@2@@std@@V?$allocator@V?$basic_string@_WU?$char_traits@_W@std@@V?$allocator@_W@2@@std@@@2@@2@@std@@QEAA@XZ ; std::stack<std::basic_string<wchar_t,std::char_traits<wchar_t>,std::allocator<wchar_t> >,std::deque<std::basic_string<wchar_t,std::char_traits<wchar_t>,std::allocator<wchar_t> >,std::allocator<std::basic_string<wchar_t,std::char_traits<wchar_t>,std::allocator<wchar_t> > > > >::~stack<std::basic_string<wchar_t,std::char_traits<wchar_t>,std::allocator<wchar_t> >,std::deque<std::basic_string<wchar_t,std::char_traits<wchar_t>,std::allocator<wchar_t> >,std::allocator<std::basic_string<wchar_t,std::char_traits<wchar_t>,std::allocator<wchar_t> > > > >
PUBLIC	??$?6_WU?$char_traits@_W@std@@@std@@YAAEAV?$basic_ostream@_WU?$char_traits@_W@std@@@0@AEAV10@D@Z ; std::operator<<<wchar_t,std::char_traits<wchar_t> >
PUBLIC	?CorSigUncompressData@@YAJPEBEKPEAK1@Z		; CorSigUncompressData
PUBLIC	?CorSigUncompressData@@YAKPEBEPEAK@Z		; CorSigUncompressData
PUBLIC	?CorSigUncompressToken@@YAKPEBEPEAI@Z		; CorSigUncompressToken
PUBLIC	??$?6_WU?$char_traits@_W@std@@@std@@YAAEAV?$basic_ostream@_WU?$char_traits@_W@std@@@0@AEAV10@PEB_W@Z ; std::operator<<<wchar_t,std::char_traits<wchar_t> >
PUBLIC	?deallocate@?$allocator@PEA_W@std@@QEAAXPEAPEA_W_K@Z ; std::allocator<wchar_t * __ptr64>::deallocate
PUBLIC	??$_Allocate@PEA_W@std@@YAPEAPEA_W_KPEAPEA_W@Z	; std::_Allocate<wchar_t * __ptr64>
PUBLIC	?allocate@?$allocator@PEA_W@std@@QEAAPEAPEA_W_K@Z ; std::allocator<wchar_t * __ptr64>::allocate
PUBLIC	?max_size@?$deque@_WV?$allocator@_W@std@@@std@@QEBA_KXZ ; std::deque<wchar_t,std::allocator<wchar_t> >::max_size
PUBLIC	?_Xlen@?$deque@_WV?$allocator@_W@std@@@std@@KAXXZ ; std::deque<wchar_t,std::allocator<wchar_t> >::_Xlen
PUBLIC	??$_Uninit_copy@PEAPEA_WPEAPEA_WV?$allocator@PEA_W@std@@@std@@YAPEAPEA_WPEAPEA_W00AEAV?$allocator@PEA_W@0@U_Scalar_ptr_iterator_tag@0@U_Range_checked_iterator_tag@0@@Z ; std::_Uninit_copy<wchar_t * __ptr64 * __ptr64,wchar_t * __ptr64 * __ptr64,std::allocator<wchar_t * __ptr64> >
PUBLIC	??$unchecked_uninitialized_copy@PEAPEA_WPEAPEA_WV?$allocator@PEA_W@std@@@stdext@@YAPEAPEA_WPEAPEA_W00AEAV?$allocator@PEA_W@std@@@Z ; stdext::unchecked_uninitialized_copy<wchar_t * __ptr64 * __ptr64,wchar_t * __ptr64 * __ptr64,std::allocator<wchar_t * __ptr64> >
PUBLIC	??$_Iter_cat@PEAPEA_W@std@@YA?AUrandom_access_iterator_tag@0@AEBQEAPEA_W@Z ; std::_Iter_cat<wchar_t * __ptr64 * __ptr64>
PUBLIC	??$_Checked_base@PEAPEA_W@std@@YAPEAPEA_WAEAPEAPEA_WU_Unchanged_checked_iterator_base_type_tag@0@@Z ; std::_Checked_base<wchar_t * __ptr64 * __ptr64>
PUBLIC	??$_Checked_base@PEAPEA_W@std@@YAPEAPEA_WAEAPEAPEA_W@Z ; std::_Checked_base<wchar_t * __ptr64 * __ptr64>
PUBLIC	??$_Fill_n@PEAPEA_W_KPEA_W@std@@YAXPEAPEA_W_KAEBQEA_WU_Range_checked_iterator_tag@0@@Z ; std::_Fill_n<wchar_t * __ptr64 * __ptr64,unsigned __int64,wchar_t * __ptr64>
PUBLIC	??$_Fill_n@PEAPEA_W_KPEA_W@std@@YAXPEAPEA_W_KAEBQEA_WUrandom_access_iterator_tag@0@U_Range_checked_iterator_tag@0@@Z ; std::_Fill_n<wchar_t * __ptr64 * __ptr64,unsigned __int64,wchar_t * __ptr64>
PUBLIC	??$unchecked_fill_n@PEAPEA_W_KPEA_W@stdext@@YAXPEAPEA_W_KAEBQEA_W@Z ; stdext::unchecked_fill_n<wchar_t * __ptr64 * __ptr64,unsigned __int64,wchar_t * __ptr64>
PUBLIC	??$_Uninit_fill_n@PEAPEA_W_KPEA_WV?$allocator@PEA_W@std@@@std@@YAXPEAPEA_W_KAEBQEA_WAEAV?$allocator@PEA_W@0@U_Scalar_ptr_iterator_tag@0@U_Range_checked_iterator_tag@0@@Z ; std::_Uninit_fill_n<wchar_t * __ptr64 * __ptr64,unsigned __int64,wchar_t * __ptr64,std::allocator<wchar_t * __ptr64> >
PUBLIC	??$unchecked_uninitialized_fill_n@PEAPEA_W_KPEA_WV?$allocator@PEA_W@std@@@stdext@@YAXPEAPEA_W_KAEBQEA_WAEAV?$allocator@PEA_W@std@@@Z ; stdext::unchecked_uninitialized_fill_n<wchar_t * __ptr64 * __ptr64,unsigned __int64,wchar_t * __ptr64,std::allocator<wchar_t * __ptr64> >
PUBLIC	??$_Ptr_cat@PEAPEA_WPEAPEA_W@std@@YA?AU_Scalar_ptr_iterator_tag@0@AEAPEAPEA_W0@Z ; std::_Ptr_cat<wchar_t * __ptr64 * __ptr64,wchar_t * __ptr64 * __ptr64>
PUBLIC	??$_Destroy_range@V?$allocator@PEA_W@std@@@std@@YAXPEAPEA_W0AEAV?$allocator@PEA_W@0@U_Scalar_ptr_iterator_tag@0@@Z ; std::_Destroy_range<std::allocator<wchar_t * __ptr64> >
PUBLIC	??$_Destroy_range@V?$allocator@PEA_W@std@@@std@@YAXPEAPEA_W0AEAV?$allocator@PEA_W@0@@Z ; std::_Destroy_range<std::allocator<wchar_t * __ptr64> >
PUBLIC	?_Growmap@?$deque@_WV?$allocator@_W@std@@@std@@IEAAX_K@Z ; std::deque<wchar_t,std::allocator<wchar_t> >::_Growmap
PUBLIC	?push_back@?$deque@_WV?$allocator@_W@std@@@std@@QEAAXAEB_W@Z ; std::deque<wchar_t,std::allocator<wchar_t> >::push_back
PUBLIC	?push@?$stack@_WV?$deque@_WV?$allocator@_W@std@@@std@@@std@@QEAAXAEB_W@Z ; std::stack<wchar_t,std::deque<wchar_t,std::allocator<wchar_t> > >::push
PUBLIC	?empty@?$stack@_WV?$deque@_WV?$allocator@_W@std@@@std@@@std@@QEBA_NXZ ; std::stack<wchar_t,std::deque<wchar_t,std::allocator<wchar_t> > >::empty
PUBLIC	??0?$_Iterator_with_base@Urandom_access_iterator_tag@std@@_W_JPEB_WAEB_WV_Iterator_base_aux@2@@std@@QEAA@XZ ; std::_Iterator_with_base<std::random_access_iterator_tag,wchar_t,__int64,wchar_t const * __ptr64,wchar_t const & __ptr64,std::_Iterator_base_aux>::_Iterator_with_base<std::random_access_iterator_tag,wchar_t,__int64,wchar_t const * __ptr64,wchar_t const & __ptr64,std::_Iterator_base_aux>
PUBLIC	??0?$_Ranit@_W_JPEB_WAEB_W@std@@QEAA@XZ		; std::_Ranit<wchar_t,__int64,wchar_t const * __ptr64,wchar_t const & __ptr64>::_Ranit<wchar_t,__int64,wchar_t const * __ptr64,wchar_t const & __ptr64>
PUBLIC	??0?$_Deque_const_iterator@_WV?$allocator@_W@std@@$00@std@@QEAA@_KPEBV_Container_base_aux@1@@Z ; std::_Deque_const_iterator<wchar_t,std::allocator<wchar_t>,1>::_Deque_const_iterator<wchar_t,std::allocator<wchar_t>,1>
PUBLIC	??0?$_Deque_iterator@_WV?$allocator@_W@std@@$00@std@@QEAA@_KPEBV_Container_base_aux@1@@Z ; std::_Deque_iterator<wchar_t,std::allocator<wchar_t>,1>::_Deque_iterator<wchar_t,std::allocator<wchar_t>,1>
PUBLIC	?end@?$deque@_WV?$allocator@_W@std@@@std@@QEAA?AV?$_Deque_iterator@_WV?$allocator@_W@std@@$00@2@XZ ; std::deque<wchar_t,std::allocator<wchar_t> >::end
PUBLIC	??D?$_Deque_const_iterator@_WV?$allocator@_W@std@@$00@std@@QEBAAEB_WXZ ; std::_Deque_const_iterator<wchar_t,std::allocator<wchar_t>,1>::operator*
PUBLIC	??D?$_Deque_iterator@_WV?$allocator@_W@std@@$00@std@@QEBAAEA_WXZ ; std::_Deque_iterator<wchar_t,std::allocator<wchar_t>,1>::operator*
PUBLIC	??Y?$_Deque_const_iterator@_WV?$allocator@_W@std@@$00@std@@QEAAAEAV01@_J@Z ; std::_Deque_const_iterator<wchar_t,std::allocator<wchar_t>,1>::operator+=
PUBLIC	??Y?$_Deque_iterator@_WV?$allocator@_W@std@@$00@std@@QEAAAEAV01@_J@Z ; std::_Deque_iterator<wchar_t,std::allocator<wchar_t>,1>::operator+=
PUBLIC	??Z?$_Deque_iterator@_WV?$allocator@_W@std@@$00@std@@QEAAAEAV01@_J@Z ; std::_Deque_iterator<wchar_t,std::allocator<wchar_t>,1>::operator-=
PUBLIC	??G?$_Deque_iterator@_WV?$allocator@_W@std@@$00@std@@QEBA?AV01@_J@Z ; std::_Deque_iterator<wchar_t,std::allocator<wchar_t>,1>::operator-
PUBLIC	?back@?$deque@_WV?$allocator@_W@std@@@std@@QEAAAEA_WXZ ; std::deque<wchar_t,std::allocator<wchar_t> >::back
PUBLIC	?top@?$stack@_WV?$deque@_WV?$allocator@_W@std@@@std@@@std@@QEAAAEA_WXZ ; std::stack<wchar_t,std::deque<wchar_t,std::allocator<wchar_t> > >::top
PUBLIC	?empty@?$deque@_WV?$allocator@_W@std@@@std@@QEBA_NXZ ; std::deque<wchar_t,std::allocator<wchar_t> >::empty
PUBLIC	?pop_back@?$deque@_WV?$allocator@_W@std@@@std@@QEAAXXZ ; std::deque<wchar_t,std::allocator<wchar_t> >::pop_back
PUBLIC	?pop@?$stack@_WV?$deque@_WV?$allocator@_W@std@@@std@@@std@@QEAAXXZ ; std::stack<wchar_t,std::deque<wchar_t,std::allocator<wchar_t> > >::pop
PUBLIC	?_Register@facet@locale@std@@QEAAXXZ		; std::locale::facet::_Register
PUBLIC	??$use_facet@V?$ctype@_W@std@@@std@@YAAEBV?$ctype@_W@0@AEBVlocale@0@@Z ; std::use_facet<std::ctype<wchar_t> >
PUBLIC	??$?6_WU?$char_traits@_W@std@@@std@@YAAEAV?$basic_ostream@_WU?$char_traits@_W@std@@@0@AEAV10@PEBD@Z ; std::operator<<<wchar_t,std::char_traits<wchar_t> >
PUBLIC	??0_Sentry_base@?$basic_ostream@_WU?$char_traits@_W@std@@@std@@QEAA@AEAV12@@Z ; std::basic_ostream<wchar_t,std::char_traits<wchar_t> >::_Sentry_base::_Sentry_base
PUBLIC	??0sentry@?$basic_ostream@_WU?$char_traits@_W@std@@@std@@QEAA@AEAV12@@Z ; std::basic_ostream<wchar_t,std::char_traits<wchar_t> >::sentry::sentry
PUBLIC	??1_Sentry_base@?$basic_ostream@_WU?$char_traits@_W@std@@@std@@QEAA@XZ ; std::basic_ostream<wchar_t,std::char_traits<wchar_t> >::_Sentry_base::~_Sentry_base
PUBLIC	??1sentry@?$basic_ostream@_WU?$char_traits@_W@std@@@std@@QEAA@XZ ; std::basic_ostream<wchar_t,std::char_traits<wchar_t> >::sentry::~sentry
PUBLIC	??Bsentry@?$basic_ostream@_WU?$char_traits@_W@std@@@std@@QEBA_NXZ ; std::basic_ostream<wchar_t,std::char_traits<wchar_t> >::sentry::operator bool
PUBLIC	??$?6_WU?$char_traits@_W@std@@@std@@YAAEAV?$basic_ostream@_WU?$char_traits@_W@std@@@0@AEAV10@_W@Z ; std::operator<<<wchar_t,std::char_traits<wchar_t> >
PUBLIC	??_C@_11LOCGONAA@?$AA?$AA@			; `string'
PUBLIC	??_C@_13KJIIAINM@?$AA?$CL?$AA?$AA@		; `string'
PUBLIC	??_C@_19HFFGOOIH@?$AAv?$AAo?$AAi?$AAd?$AA?$AA@	; `string'
PUBLIC	??_C@_13HOIJIPNN@?$AA?5?$AA?$AA@		; `string'
PUBLIC	??_C@_13JOFGPIOO@?$AA?4?$AA?$AA@		; `string'
PUBLIC	??_C@_17CMKEDJDI@?$AAo?$AAu?$AAt?$AA?$AA@	; `string'
PUBLIC	??_C@_17DCNMIAEN@?$AAr?$AAe?$AAf?$AA?$AA@	; `string'
PUBLIC	??_C@_19EIPOAEOH@?$AAb?$AAo?$AAo?$AAl?$AA?$AA@	; `string'
PUBLIC	??_C@_19CHDFCHBM@?$AAc?$AAh?$AAa?$AAr?$AA?$AA@	; `string'
PUBLIC	??_C@_1O@PLMJMAHL@?$AAI?$AAn?$AAt?$AAP?$AAt?$AAr?$AA?$AA@ ; `string'
PUBLIC	??_C@_1BA@HEMJOHJL@?$AAU?$AAI?$AAn?$AAt?$AAP?$AAt?$AAr?$AA?$AA@ ; `string'
PUBLIC	??_C@_1M@CNLIHMIE@?$AAs?$AAb?$AAy?$AAt?$AAe?$AA?$AA@ ; `string'
PUBLIC	??_C@_19OGDDIBJJ@?$AAb?$AAy?$AAt?$AAe?$AA?$AA@	; `string'
PUBLIC	??_C@_1M@LOLCAHAG@?$AAs?$AAh?$AAo?$AAr?$AAt?$AA?$AA@ ; `string'
PUBLIC	??_C@_1O@HKBAGFIG@?$AAu?$AAs?$AAh?$AAo?$AAr?$AAt?$AA?$AA@ ; `string'
PUBLIC	??_C@_17IDNKMCOH@?$AAi?$AAn?$AAt?$AA?$AA@	; `string'
PUBLIC	??_C@_19BFBCDLCE@?$AAu?$AAi?$AAn?$AAt?$AA?$AA@	; `string'
PUBLIC	??_C@_19EKGKGAPA@?$AAl?$AAo?$AAn?$AAg?$AA?$AA@	; `string'
PUBLIC	??_C@_1M@GONMDIAN@?$AAu?$AAl?$AAo?$AAn?$AAg?$AA?$AA@ ; `string'
PUBLIC	??_C@_1M@KGKAENKF@?$AAf?$AAl?$AAo?$AAa?$AAt?$AA?$AA@ ; `string'
PUBLIC	??_C@_1O@BAJDFEHJ@?$AAd?$AAo?$AAu?$AAb?$AAl?$AAe?$AA?$AA@ ; `string'
PUBLIC	??_C@_1O@DGBBOFII@?$AAs?$AAt?$AAr?$AAi?$AAn?$AAg?$AA?$AA@ ; `string'
PUBLIC	??_C@_1O@EJHDPCJ@?$AAo?$AAb?$AAj?$AAe?$AAc?$AAt?$AA?$AA@ ; `string'
PUBLIC	??_C@_13HGPDMIBE@?$AA?$DP?$AA?$AA@		; `string'
PUBLIC	??_C@_19CAKNEAEL@?$AAc?$AAm?$AAo?$AAd?$AA?$AA@	; `string'
PUBLIC	??_C@_1M@HBLOHCOL@?$AAf?$AAn?$AAp?$AAt?$AAr?$AA?$AA@ ; `string'
PUBLIC	??_C@_13BBDEGPLJ@?$AA?$CK?$AA?$AA@		; `string'
PUBLIC	??_C@_13GEEGGHPK@?$AA?$DM?$AA?$AA@		; `string'
PUBLIC	??_C@_13DEFPDAGF@?$AA?0?$AA?$AA@		; `string'
PUBLIC	??_C@_13MOEPKPHB@?$AA?$DO?$AA?$AA@		; `string'
PUBLIC	??_C@_13MGDFOILI@?$AA?$CB?$AA?$AA@		; `string'
PUBLIC	??_C@_02JMMFPCED@?$CC?$CC?$AA@			; `string'
PUBLIC	??_C@_0BC@KBDMBKEH@deque?$DMT?$DO?5too?5long?$AA@ ; `string'
PUBLIC	??_C@_08EPJLHIJG@bad?5cast?$AA@			; `string'
PUBLIC	??_R0?AVbad_cast@std@@@8			; std::bad_cast `RTTI Type Descriptor'
PUBLIC	_CT??_R0?AVbad_cast@std@@@8??0bad_cast@std@@QEAA@AEBV01@@Z24
PUBLIC	_CTA2?AVbad_cast@std@@
PUBLIC	_TI2?AVbad_cast@std@@
PUBLIC	?_Psave@?$_Facetptr@V?$ctype@_W@std@@@std@@2PEBVfacet@locale@2@EB ; std::_Facetptr<std::ctype<wchar_t> >::_Psave
EXTRN	??1bad_cast@std@@UEAA@XZ:PROC			; std::bad_cast::~bad_cast
EXTRN	??0bad_cast@std@@QEAA@AEBV01@@Z:PROC		; std::bad_cast::bad_cast
EXTRN	__imp_??0?$basic_ostringstream@_WU?$char_traits@_W@std@@V?$allocator@_W@2@@std@@QEAA@H@Z:PROC
EXTRN	__imp_??_D?$basic_ostringstream@_WU?$char_traits@_W@std@@V?$allocator@_W@2@@std@@QEAAXXZ:PROC
EXTRN	__imp_??0?$allocator@_W@std@@QEAA@XZ:PROC
EXTRN	__imp_??0?$allocator@_W@std@@QEAA@AEBV01@@Z:PROC
EXTRN	__imp_?deallocate@?$allocator@_W@std@@QEAAXPEA_W_K@Z:PROC
EXTRN	__imp_??0?$basic_string@_WU?$char_traits@_W@std@@V?$allocator@_W@2@@std@@QEAA@PEB_W@Z:PROC
EXTRN	__imp_??$?6_WU?$char_traits@_W@std@@V?$allocator@_W@1@@std@@YAAEAV?$basic_ostream@_WU?$char_traits@_W@std@@@0@AEAV10@AEBV?$basic_string@_WU?$char_traits@_W@std@@V?$allocator@_W@2@@0@@Z:PROC
EXTRN	__imp_?str@?$basic_ostringstream@_WU?$char_traits@_W@std@@V?$allocator@_W@2@@std@@QEAAXAEBV?$basic_string@_WU?$char_traits@_W@std@@V?$allocator@_W@2@@2@@Z:PROC
EXTRN	__imp_??0?$basic_string@_WU?$char_traits@_W@std@@V?$allocator@_W@2@@std@@QEAA@AEBV01@@Z:PROC
EXTRN	__imp_?str@?$basic_ostringstream@_WU?$char_traits@_W@std@@V?$allocator@_W@2@@std@@QEBA?AV?$basic_string@_WU?$char_traits@_W@std@@V?$allocator@_W@2@@2@XZ:PROC
EXTRN	__imp_??6?$basic_ostream@_WU?$char_traits@_W@std@@@std@@QEAAAEAV01@H@Z:PROC
EXTRN	__imp_?length@?$char_traits@_W@std@@SA_KPEB_W@Z:PROC
EXTRN	__imp_?sputn@?$basic_streambuf@_WU?$char_traits@_W@std@@@std@@QEAA_JPEB_W_J@Z:PROC
EXTRN	__imp_?allocate@?$allocator@_W@std@@QEAAPEA_W_K@Z:PROC
EXTRN	__imp_?construct@?$allocator@_W@std@@QEAAXPEA_WAEB_W@Z:PROC
EXTRN	__imp_?max_size@?$allocator@_W@std@@QEBA_KXZ:PROC
EXTRN	__imp_memmove_s:PROC
EXTRN	__imp_?destroy@?$allocator@_W@std@@QEAAXPEA_W@Z:PROC
EXTRN	__imp_??1locale@std@@QEAA@XZ:PROC
EXTRN	__imp_?widen@?$ctype@_W@std@@QEBA_WD@Z:PROC
EXTRN	__imp_?getloc@ios_base@std@@QEBA?AVlocale@2@XZ:PROC
EXTRN	__imp_??0_Lockit@std@@QEAA@H@Z:PROC
EXTRN	__imp_??1_Lockit@std@@QEAA@XZ:PROC
EXTRN	__imp_??0bad_cast@std@@QEAA@PEBD@Z:PROC
EXTRN	__imp_??Bid@locale@std@@QEAA_KXZ:PROC
EXTRN	__imp_?_Incref@facet@locale@std@@QEAAXXZ:PROC
EXTRN	?facet_Register@facet@locale@std@@CAXPEAV123@@Z:PROC ; std::locale::facet::facet_Register
EXTRN	__imp_?_Getfacet@locale@std@@QEBAPEBVfacet@12@_K@Z:PROC
EXTRN	__imp_?id@?$ctype@_W@std@@2V0locale@2@A:QWORD
EXTRN	__imp_?_Getcat@?$ctype@_W@std@@SA_KPEAPEBVfacet@locale@2@PEBV42@@Z:PROC
EXTRN	__imp_??1bad_cast@std@@UEAA@XZ:PROC
EXTRN	__imp_??0bad_cast@std@@QEAA@AEBV01@@Z:PROC
EXTRN	__imp_?eq_int_type@?$char_traits@_W@std@@SA_NAEBG0@Z:PROC
EXTRN	__imp_?eof@?$char_traits@_W@std@@SAGXZ:PROC
EXTRN	__imp_?flags@ios_base@std@@QEBAHXZ:PROC
EXTRN	__imp_?width@ios_base@std@@QEBA_JXZ:PROC
EXTRN	__imp_?width@ios_base@std@@QEAA_J_J@Z:PROC
EXTRN	__imp_?sputc@?$basic_streambuf@_WU?$char_traits@_W@std@@@std@@QEAAG_W@Z:PROC
EXTRN	__imp_?setstate@?$basic_ios@_WU?$char_traits@_W@std@@@std@@QEAAXH_N@Z:PROC
EXTRN	__imp_?fill@?$basic_ios@_WU?$char_traits@_W@std@@@std@@QEBA_WXZ:PROC
EXTRN	__imp_?rdstate@ios_base@std@@QEBAHXZ:PROC
EXTRN	__imp_?good@ios_base@std@@QEBA_NXZ:PROC
EXTRN	__imp_?tie@?$basic_ios@_WU?$char_traits@_W@std@@@std@@QEBAPEAV?$basic_ostream@_WU?$char_traits@_W@std@@@2@XZ:PROC
EXTRN	__imp_?flush@?$basic_ostream@_WU?$char_traits@_W@std@@@std@@QEAAAEAV12@XZ:PROC
EXTRN	__imp_?_Lock@?$basic_streambuf@_WU?$char_traits@_W@std@@@std@@QEAAXXZ:PROC
EXTRN	__imp_?uncaught_exception@std@@YA_NXZ:PROC
EXTRN	__imp_?_Osfx@?$basic_ostream@_WU?$char_traits@_W@std@@@std@@QEAAXXZ:PROC
EXTRN	__imp_?_Unlock@?$basic_streambuf@_WU?$char_traits@_W@std@@@std@@QEAAXXZ:PROC
EXTRN	__imp_?rdbuf@?$basic_ios@_WU?$char_traits@_W@std@@@std@@QEBAPEAV?$basic_streambuf@_WU?$char_traits@_W@std@@@2@XZ:PROC
;	COMDAT ?_Psave@?$_Facetptr@V?$ctype@_W@std@@@std@@2PEBVfacet@locale@2@EB
_BSS	SEGMENT
?_Psave@?$_Facetptr@V?$ctype@_W@std@@@std@@2PEBVfacet@locale@2@EB DQ 01H DUP (?) ; std::_Facetptr<std::ctype<wchar_t> >::_Psave
;	COMDAT _TI2?AVbad_cast@std@@
xdata$x	SEGMENT
_TI2?AVbad_cast@std@@ DD 00H
	DD	imagerel __imp_??1bad_cast@std@@UEAA@XZ
	DD	00H
	DD	imagerel _CTA2?AVbad_cast@std@@
xdata$x	ENDS
;	COMDAT _CTA2?AVbad_cast@std@@
xdata$x	SEGMENT
_CTA2?AVbad_cast@std@@ DD 02H
	DD	imagerel _CT??_R0?AVbad_cast@std@@@8??0bad_cast@std@@QEAA@AEBV01@@Z24
	DD	imagerel _CT??_R0?AVexception@std@@@8??0exception@std@@QEAA@AEBV01@@Z24
xdata$x	ENDS
;	COMDAT _CT??_R0?AVbad_cast@std@@@8??0bad_cast@std@@QEAA@AEBV01@@Z24
xdata$x	SEGMENT
_CT??_R0?AVbad_cast@std@@@8??0bad_cast@std@@QEAA@AEBV01@@Z24 DD 00H
	DD	imagerel ??_R0?AVbad_cast@std@@@8
	DD	00H
	DD	0ffffffffH
	ORG $+4
	DD	018H
	DD	imagerel __imp_??0bad_cast@std@@QEAA@AEBV01@@Z
xdata$x	ENDS
;	COMDAT ??_R0?AVbad_cast@std@@@8
_DATA	SEGMENT
??_R0?AVbad_cast@std@@@8 DQ FLAT:??_7type_info@@6B@	; std::bad_cast `RTTI Type Descriptor'
	DQ	0000000000000000H
	DB	'.?AVbad_cast@std@@', 00H
_DATA	ENDS
;	COMDAT ??_C@_08EPJLHIJG@bad?5cast?$AA@
CONST	SEGMENT
??_C@_08EPJLHIJG@bad?5cast?$AA@ DB 'bad cast', 00H	; `string'
CONST	ENDS
;	COMDAT ??_C@_0BC@KBDMBKEH@deque?$DMT?$DO?5too?5long?$AA@
CONST	SEGMENT
??_C@_0BC@KBDMBKEH@deque?$DMT?$DO?5too?5long?$AA@ DB 'deque<T> too long', 00H ; `string'
CONST	ENDS
;	COMDAT ??_C@_02JMMFPCED@?$CC?$CC?$AA@
CONST	SEGMENT
??_C@_02JMMFPCED@?$CC?$CC?$AA@ DB '""', 00H		; `string'
mscorlibkey DB	00H
	DB	00H
	DB	00H
	DB	00H
	DB	00H
	DB	00H
	DB	00H
	DB	00H
	DB	04H
	DB	00H
	DB	00H
	DB	00H
	DB	00H
	DB	00H
	DB	00H
	DB	00H
systemdrawingkey DB 00H
	DB	024H
	DB	00H
	DB	00H
	DB	04H
	DB	080H
	DB	00H
	DB	00H
	DB	094H
	DB	00H
	DB	00H
	DB	00H
	DB	06H
	DB	02H
	DB	00H
	DB	00H
	DB	00H
	DB	024H
	DB	00H
	DB	00H
	DB	052H
	DB	053H
	DB	041H
	DB	031H
	DB	00H
	DB	04H
	DB	00H
	DB	00H
	DB	01H
	DB	00H
	DB	01H
	DB	00H
	DB	07H
	DB	0d1H
	DB	0faH
	DB	057H
	DB	0c4H
	DB	0aeH
	DB	0d9H
	DB	0f0H
	DB	0a3H
	DB	02eH
	DB	084H
	DB	0aaH
	DB	0fH
	DB	0aeH
	DB	0fdH
	DB	0dH
	DB	0e9H
	DB	0e8H
	DB	0fdH
	DB	06aH
	DB	0ecH
	DB	08fH
	DB	087H
	DB	0fbH
	DB	03H
	DB	076H
	DB	06cH
	DB	083H
	DB	04cH
	DB	099H
	DB	092H
	DB	01eH
	DB	0b2H
	DB	03bH
	DB	0e7H
	DB	09aH
	DB	0d9H
	DB	0d5H
	DB	0dcH
	DB	0c1H
	DB	0ddH
	DB	09aH
	DB	0d2H
	DB	036H
	DB	013H
	DB	021H
	DB	02H
	DB	090H
	DB	0bH
	DB	072H
	DB	03cH
	DB	0f9H
	DB	080H
	DB	095H
	DB	07fH
	DB	0c4H
	DB	0e1H
	DB	077H
	DB	010H
	DB	08fH
	DB	0c6H
	DB	07H
	DB	077H
	DB	04fH
	DB	029H
	DB	0e8H
	DB	032H
	DB	0eH
	DB	092H
	DB	0eaH
	DB	05H
	DB	0ecH
	DB	0e4H
	DB	0e8H
	DB	021H
	DB	0c0H
	DB	0a5H
	DB	0efH
	DB	0e8H
	DB	0f1H
	DB	064H
	DB	05cH
	DB	04cH
	DB	0cH
	DB	093H
	DB	0c1H
	DB	0abH
	DB	099H
	DB	028H
	DB	05dH
	DB	062H
	DB	02cH
	DB	0aaH
	DB	065H
	DB	02cH
	DB	01dH
	DB	0faH
	DB	0d6H
	DB	03dH
	DB	074H
	DB	05dH
	DB	06fH
	DB	02dH
	DB	0e5H
	DB	0f1H
	DB	07eH
	DB	05eH
	DB	0afH
	DB	0fH
	DB	0c4H
	DB	096H
	DB	03dH
	DB	026H
	DB	01cH
	DB	08aH
	DB	012H
	DB	043H
	DB	065H
	DB	018H
	DB	020H
	DB	06dH
	DB	0c0H
	DB	093H
	DB	034H
	DB	04dH
	DB	05aH
	DB	0d2H
	DB	093H
wpfassemblieskey DB 00H
	DB	024H
	DB	00H
	DB	00H
	DB	04H
	DB	080H
	DB	00H
	DB	00H
	DB	094H
	DB	00H
	DB	00H
	DB	00H
	DB	06H
	DB	02H
	DB	00H
	DB	00H
	DB	00H
	DB	024H
	DB	00H
	DB	00H
	DB	052H
	DB	053H
	DB	041H
	DB	031H
	DB	00H
	DB	04H
	DB	00H
	DB	00H
	DB	01H
	DB	00H
	DB	01H
	DB	00H
	DB	0b5H
	DB	0fcH
	DB	090H
	DB	0e7H
	DB	02H
	DB	07fH
	DB	067H
	DB	087H
	DB	01eH
	DB	077H
	DB	03aH
	DB	08fH
	DB	0deH
	DB	089H
	DB	038H
	DB	0c8H
	DB	01dH
	DB	0d4H
	DB	02H
	DB	0baH
	DB	065H
	DB	0b9H
	DB	020H
	DB	01dH
	DB	060H
	DB	059H
	DB	03eH
	DB	096H
	DB	0c4H
	DB	092H
	DB	065H
	DB	01eH
	DB	088H
	DB	09cH
	DB	0c1H
	DB	03fH
	DB	014H
	DB	015H
	DB	0ebH
	DB	0b5H
	DB	03fH
	DB	0acH
	DB	011H
	DB	031H
	DB	0aeH
	DB	0bH
	DB	0d3H
	DB	033H
	DB	0c5H
	DB	0eeH
	DB	060H
	DB	021H
	DB	067H
	DB	02dH
	DB	097H
	DB	018H
	DB	0eaH
	DB	031H
	DB	0a8H
	DB	0aeH
	DB	0bdH
	DB	0dH
	DB	0a0H
	DB	07H
	DB	02fH
	DB	025H
	DB	0d8H
	DB	07dH
	DB	0baH
	DB	06fH
	DB	0c9H
	DB	0fH
	DB	0fdH
	DB	059H
	DB	08eH
	DB	0d4H
	DB	0daH
	DB	035H
	DB	0e4H
	DB	04cH
	DB	039H
	DB	08cH
	DB	045H
	DB	043H
	DB	07H
	DB	0e8H
	DB	0e3H
	DB	03bH
	DB	084H
	DB	026H
	DB	014H
	DB	03dH
	DB	0aeH
	DB	0c9H
	DB	0f5H
	DB	096H
	DB	083H
	DB	06fH
	DB	097H
	DB	0c8H
	DB	0f7H
	DB	047H
	DB	050H
	DB	0e5H
	DB	097H
	DB	05cH
	DB	064H
	DB	0e2H
	DB	018H
	DB	09fH
	DB	045H
	DB	0deH
	DB	0f4H
	DB	06bH
	DB	02aH
	DB	02bH
	DB	012H
	DB	047H
	DB	0adH
	DB	0c3H
	DB	065H
	DB	02bH
	DB	0f5H
	DB	0c3H
	DB	08H
	DB	05H
	DB	05dH
	DB	0a9H
;	COMDAT ??_C@_13MGDFOILI@?$AA?$CB?$AA?$AA@
CONST	SEGMENT
??_C@_13MGDFOILI@?$AA?$CB?$AA?$AA@ DB '!', 00H, 00H, 00H ; `string'
CONST	ENDS
;	COMDAT ??_C@_13MOEPKPHB@?$AA?$DO?$AA?$AA@
CONST	SEGMENT
??_C@_13MOEPKPHB@?$AA?$DO?$AA?$AA@ DB '>', 00H, 00H, 00H ; `string'
CONST	ENDS
;	COMDAT ??_C@_13DEFPDAGF@?$AA?0?$AA?$AA@
CONST	SEGMENT
??_C@_13DEFPDAGF@?$AA?0?$AA?$AA@ DB ',', 00H, 00H, 00H	; `string'
CONST	ENDS
;	COMDAT ??_C@_13GEEGGHPK@?$AA?$DM?$AA?$AA@
CONST	SEGMENT
??_C@_13GEEGGHPK@?$AA?$DM?$AA?$AA@ DB '<', 00H, 00H, 00H ; `string'
CONST	ENDS
;	COMDAT ??_C@_13BBDEGPLJ@?$AA?$CK?$AA?$AA@
CONST	SEGMENT
??_C@_13BBDEGPLJ@?$AA?$CK?$AA?$AA@ DB '*', 00H, 00H, 00H ; `string'
CONST	ENDS
;	COMDAT ??_C@_1M@HBLOHCOL@?$AAf?$AAn?$AAp?$AAt?$AAr?$AA?$AA@
CONST	SEGMENT
??_C@_1M@HBLOHCOL@?$AAf?$AAn?$AAp?$AAt?$AAr?$AA?$AA@ DB 'f', 00H, 'n', 00H
	DB	'p', 00H, 't', 00H, 'r', 00H, 00H, 00H	; `string'
CONST	ENDS
;	COMDAT ??_C@_19CAKNEAEL@?$AAc?$AAm?$AAo?$AAd?$AA?$AA@
CONST	SEGMENT
??_C@_19CAKNEAEL@?$AAc?$AAm?$AAo?$AAd?$AA?$AA@ DB 'c', 00H, 'm', 00H, 'o', 00H
	DB	'd', 00H, 00H, 00H				; `string'
CONST	ENDS
;	COMDAT ??_C@_13HGPDMIBE@?$AA?$DP?$AA?$AA@
CONST	SEGMENT
??_C@_13HGPDMIBE@?$AA?$DP?$AA?$AA@ DB '?', 00H, 00H, 00H ; `string'
CONST	ENDS
;	COMDAT ??_C@_1O@EJHDPCJ@?$AAo?$AAb?$AAj?$AAe?$AAc?$AAt?$AA?$AA@
CONST	SEGMENT
??_C@_1O@EJHDPCJ@?$AAo?$AAb?$AAj?$AAe?$AAc?$AAt?$AA?$AA@ DB 'o', 00H, 'b', 00H
	DB	'j', 00H, 'e', 00H, 'c', 00H, 't', 00H, 00H, 00H ; `string'
CONST	ENDS
;	COMDAT ??_C@_1O@DGBBOFII@?$AAs?$AAt?$AAr?$AAi?$AAn?$AAg?$AA?$AA@
CONST	SEGMENT
??_C@_1O@DGBBOFII@?$AAs?$AAt?$AAr?$AAi?$AAn?$AAg?$AA?$AA@ DB 's', 00H, 't'
	DB	00H, 'r', 00H, 'i', 00H, 'n', 00H, 'g', 00H, 00H, 00H ; `string'
CONST	ENDS
;	COMDAT ??_C@_1O@BAJDFEHJ@?$AAd?$AAo?$AAu?$AAb?$AAl?$AAe?$AA?$AA@
CONST	SEGMENT
??_C@_1O@BAJDFEHJ@?$AAd?$AAo?$AAu?$AAb?$AAl?$AAe?$AA?$AA@ DB 'd', 00H, 'o'
	DB	00H, 'u', 00H, 'b', 00H, 'l', 00H, 'e', 00H, 00H, 00H ; `string'
CONST	ENDS
;	COMDAT ??_C@_1M@KGKAENKF@?$AAf?$AAl?$AAo?$AAa?$AAt?$AA?$AA@
CONST	SEGMENT
??_C@_1M@KGKAENKF@?$AAf?$AAl?$AAo?$AAa?$AAt?$AA?$AA@ DB 'f', 00H, 'l', 00H
	DB	'o', 00H, 'a', 00H, 't', 00H, 00H, 00H	; `string'
CONST	ENDS
;	COMDAT ??_C@_1M@GONMDIAN@?$AAu?$AAl?$AAo?$AAn?$AAg?$AA?$AA@
CONST	SEGMENT
??_C@_1M@GONMDIAN@?$AAu?$AAl?$AAo?$AAn?$AAg?$AA?$AA@ DB 'u', 00H, 'l', 00H
	DB	'o', 00H, 'n', 00H, 'g', 00H, 00H, 00H	; `string'
CONST	ENDS
;	COMDAT ??_C@_19EKGKGAPA@?$AAl?$AAo?$AAn?$AAg?$AA?$AA@
CONST	SEGMENT
??_C@_19EKGKGAPA@?$AAl?$AAo?$AAn?$AAg?$AA?$AA@ DB 'l', 00H, 'o', 00H, 'n', 00H
	DB	'g', 00H, 00H, 00H				; `string'
CONST	ENDS
;	COMDAT ??_C@_19BFBCDLCE@?$AAu?$AAi?$AAn?$AAt?$AA?$AA@
CONST	SEGMENT
??_C@_19BFBCDLCE@?$AAu?$AAi?$AAn?$AAt?$AA?$AA@ DB 'u', 00H, 'i', 00H, 'n', 00H
	DB	't', 00H, 00H, 00H				; `string'
CONST	ENDS
;	COMDAT ??_C@_17IDNKMCOH@?$AAi?$AAn?$AAt?$AA?$AA@
CONST	SEGMENT
??_C@_17IDNKMCOH@?$AAi?$AAn?$AAt?$AA?$AA@ DB 'i', 00H, 'n', 00H, 't', 00H
	DB	00H, 00H					; `string'
CONST	ENDS
;	COMDAT ??_C@_1O@HKBAGFIG@?$AAu?$AAs?$AAh?$AAo?$AAr?$AAt?$AA?$AA@
CONST	SEGMENT
??_C@_1O@HKBAGFIG@?$AAu?$AAs?$AAh?$AAo?$AAr?$AAt?$AA?$AA@ DB 'u', 00H, 's'
	DB	00H, 'h', 00H, 'o', 00H, 'r', 00H, 't', 00H, 00H, 00H ; `string'
CONST	ENDS
;	COMDAT ??_C@_1M@LOLCAHAG@?$AAs?$AAh?$AAo?$AAr?$AAt?$AA?$AA@
CONST	SEGMENT
??_C@_1M@LOLCAHAG@?$AAs?$AAh?$AAo?$AAr?$AAt?$AA?$AA@ DB 's', 00H, 'h', 00H
	DB	'o', 00H, 'r', 00H, 't', 00H, 00H, 00H	; `string'
CONST	ENDS
;	COMDAT ??_C@_19OGDDIBJJ@?$AAb?$AAy?$AAt?$AAe?$AA?$AA@
CONST	SEGMENT
??_C@_19OGDDIBJJ@?$AAb?$AAy?$AAt?$AAe?$AA?$AA@ DB 'b', 00H, 'y', 00H, 't', 00H
	DB	'e', 00H, 00H, 00H				; `string'
CONST	ENDS
;	COMDAT ??_C@_1M@CNLIHMIE@?$AAs?$AAb?$AAy?$AAt?$AAe?$AA?$AA@
CONST	SEGMENT
??_C@_1M@CNLIHMIE@?$AAs?$AAb?$AAy?$AAt?$AAe?$AA?$AA@ DB 's', 00H, 'b', 00H
	DB	'y', 00H, 't', 00H, 'e', 00H, 00H, 00H	; `string'
CONST	ENDS
;	COMDAT ??_C@_1BA@HEMJOHJL@?$AAU?$AAI?$AAn?$AAt?$AAP?$AAt?$AAr?$AA?$AA@
CONST	SEGMENT
??_C@_1BA@HEMJOHJL@?$AAU?$AAI?$AAn?$AAt?$AAP?$AAt?$AAr?$AA?$AA@ DB 'U', 00H
	DB	'I', 00H, 'n', 00H, 't', 00H, 'P', 00H, 't', 00H, 'r', 00H, 00H
	DB	00H						; `string'
CONST	ENDS
;	COMDAT ??_C@_1O@PLMJMAHL@?$AAI?$AAn?$AAt?$AAP?$AAt?$AAr?$AA?$AA@
CONST	SEGMENT
??_C@_1O@PLMJMAHL@?$AAI?$AAn?$AAt?$AAP?$AAt?$AAr?$AA?$AA@ DB 'I', 00H, 'n'
	DB	00H, 't', 00H, 'P', 00H, 't', 00H, 'r', 00H, 00H, 00H ; `string'
CONST	ENDS
;	COMDAT ??_C@_19CHDFCHBM@?$AAc?$AAh?$AAa?$AAr?$AA?$AA@
CONST	SEGMENT
??_C@_19CHDFCHBM@?$AAc?$AAh?$AAa?$AAr?$AA?$AA@ DB 'c', 00H, 'h', 00H, 'a', 00H
	DB	'r', 00H, 00H, 00H				; `string'
CONST	ENDS
;	COMDAT ??_C@_19EIPOAEOH@?$AAb?$AAo?$AAo?$AAl?$AA?$AA@
CONST	SEGMENT
??_C@_19EIPOAEOH@?$AAb?$AAo?$AAo?$AAl?$AA?$AA@ DB 'b', 00H, 'o', 00H, 'o', 00H
	DB	'l', 00H, 00H, 00H				; `string'
CONST	ENDS
;	COMDAT ??_C@_17DCNMIAEN@?$AAr?$AAe?$AAf?$AA?$AA@
CONST	SEGMENT
??_C@_17DCNMIAEN@?$AAr?$AAe?$AAf?$AA?$AA@ DB 'r', 00H, 'e', 00H, 'f', 00H
	DB	00H, 00H					; `string'
CONST	ENDS
;	COMDAT ??_C@_17CMKEDJDI@?$AAo?$AAu?$AAt?$AA?$AA@
CONST	SEGMENT
??_C@_17CMKEDJDI@?$AAo?$AAu?$AAt?$AA?$AA@ DB 'o', 00H, 'u', 00H, 't', 00H
	DB	00H, 00H					; `string'
CONST	ENDS
;	COMDAT ??_C@_13JOFGPIOO@?$AA?4?$AA?$AA@
CONST	SEGMENT
??_C@_13JOFGPIOO@?$AA?4?$AA?$AA@ DB '.', 00H, 00H, 00H	; `string'
CONST	ENDS
;	COMDAT ??_C@_13HOIJIPNN@?$AA?5?$AA?$AA@
CONST	SEGMENT
??_C@_13HOIJIPNN@?$AA?5?$AA?$AA@ DB ' ', 00H, 00H, 00H	; `string'
CONST	ENDS
;	COMDAT ??_C@_19HFFGOOIH@?$AAv?$AAo?$AAi?$AAd?$AA?$AA@
CONST	SEGMENT
??_C@_19HFFGOOIH@?$AAv?$AAo?$AAi?$AAd?$AA?$AA@ DB 'v', 00H, 'o', 00H, 'i', 00H
	DB	'd', 00H, 00H, 00H				; `string'
CONST	ENDS
;	COMDAT ??_C@_13KJIIAINM@?$AA?$CL?$AA?$AA@
CONST	SEGMENT
??_C@_13KJIIAINM@?$AA?$CL?$AA?$AA@ DB '+', 00H, 00H, 00H ; `string'
CONST	ENDS
;	COMDAT ??_C@_11LOCGONAA@?$AA?$AA@
CONST	SEGMENT
??_C@_11LOCGONAA@?$AA?$AA@ DB 00H, 00H			; `string'
_bad_alloc_Message DQ FLAT:??_C@_0P@GHFPNOJB@bad?5allocation?$AA@
; Function compile flags: /Ogtpy
; File c:\program files\microsoft visual studio 9.0\vc\include\xutility
;	COMDAT ??$_Fill_n@PEAPEAV?$basic_string@_WU?$char_traits@_W@std@@V?$allocator@_W@2@@std@@_KPEAV12@@std@@YAXPEAPEAV?$basic_string@_WU?$char_traits@_W@std@@V?$allocator@_W@2@@0@_KAEBQEAV10@U_Range_checked_iterator_tag@0@@Z
_TEXT	SEGMENT
_First$ = 8
_Count$ = 16
_Val$ = 24
__formal$ = 32
??$_Fill_n@PEAPEAV?$basic_string@_WU?$char_traits@_W@std@@V?$allocator@_W@2@@std@@_KPEAV12@@std@@YAXPEAPEAV?$basic_string@_WU?$char_traits@_W@std@@V?$allocator@_W@2@@0@_KAEBQEAV10@U_Range_checked_iterator_tag@0@@Z PROC ; std::_Fill_n<std::basic_string<wchar_t,std::char_traits<wchar_t>,std::allocator<wchar_t> > * __ptr64 * __ptr64,unsigned __int64,std::basic_string<wchar_t,std::char_traits<wchar_t>,std::allocator<wchar_t> > * __ptr64>, COMDAT

; 3197 : 	for (; 0 < _Count; --_Count, ++_First)

	test	rdx, rdx
	je	SHORT $LN1@Fill_n
	npad	11
$LL3@Fill_n:

; 3198 : 		*_First = _Val;

	mov	rax, QWORD PTR [r8]
	add	rcx, 8
	sub	rdx, 1
	mov	QWORD PTR [rcx-8], rax
	jne	SHORT $LL3@Fill_n
$LN1@Fill_n:

; 3199 : 	}

	fatret	0
??$_Fill_n@PEAPEAV?$basic_string@_WU?$char_traits@_W@std@@V?$allocator@_W@2@@std@@_KPEAV12@@std@@YAXPEAPEAV?$basic_string@_WU?$char_traits@_W@std@@V?$allocator@_W@2@@0@_KAEBQEAV10@U_Range_checked_iterator_tag@0@@Z ENDP ; std::_Fill_n<std::basic_string<wchar_t,std::char_traits<wchar_t>,std::allocator<wchar_t> > * __ptr64 * __ptr64,unsigned __int64,std::basic_string<wchar_t,std::char_traits<wchar_t>,std::allocator<wchar_t> > * __ptr64>
; Function compile flags: /Ogtpy
_TEXT	ENDS
;	COMDAT ??$_Fill_n@PEAPEA_W_KPEA_W@std@@YAXPEAPEA_W_KAEBQEA_WU_Range_checked_iterator_tag@0@@Z
_TEXT	SEGMENT
_First$ = 8
_Count$ = 16
_Val$ = 24
__formal$ = 32
??$_Fill_n@PEAPEA_W_KPEA_W@std@@YAXPEAPEA_W_KAEBQEA_WU_Range_checked_iterator_tag@0@@Z PROC ; std::_Fill_n<wchar_t * __ptr64 * __ptr64,unsigned __int64,wchar_t * __ptr64>, COMDAT

; 3197 : 	for (; 0 < _Count; --_Count, ++_First)

	test	rdx, rdx
	je	SHORT $LN1@Fill_n@2
	npad	11
$LL3@Fill_n@2:

; 3198 : 		*_First = _Val;

	mov	rax, QWORD PTR [r8]
	add	rcx, 8
	sub	rdx, 1
	mov	QWORD PTR [rcx-8], rax
	jne	SHORT $LL3@Fill_n@2
$LN1@Fill_n@2:

; 3199 : 	}

	fatret	0
??$_Fill_n@PEAPEA_W_KPEA_W@std@@YAXPEAPEA_W_KAEBQEA_WU_Range_checked_iterator_tag@0@@Z ENDP ; std::_Fill_n<wchar_t * __ptr64 * __ptr64,unsigned __int64,wchar_t * __ptr64>
; Function compile flags: /Ogtpy
_TEXT	ENDS
;	COMDAT ??$_Iter_cat@PEAPEAV?$basic_string@_WU?$char_traits@_W@std@@V?$allocator@_W@2@@std@@@std@@YA?AUrandom_access_iterator_tag@0@AEBQEAPEAV?$basic_string@_WU?$char_traits@_W@std@@V?$allocator@_W@2@@0@@Z
_TEXT	SEGMENT
__$ReturnUdt$ = 8
__formal$ = 16
??$_Iter_cat@PEAPEAV?$basic_string@_WU?$char_traits@_W@std@@V?$allocator@_W@2@@std@@@std@@YA?AUrandom_access_iterator_tag@0@AEBQEAPEAV?$basic_string@_WU?$char_traits@_W@std@@V?$allocator@_W@2@@0@@Z PROC ; std::_Iter_cat<std::basic_string<wchar_t,std::char_traits<wchar_t>,std::allocator<wchar_t> > * __ptr64 * __ptr64>, COMDAT

; 953  : 	typename iterator_traits<_Iter>::iterator_category _Cat;
; 954  : 	return (_Cat);

	mov	rax, rcx

; 955  : 	}

	ret	0
??$_Iter_cat@PEAPEAV?$basic_string@_WU?$char_traits@_W@std@@V?$allocator@_W@2@@std@@@std@@YA?AUrandom_access_iterator_tag@0@AEBQEAPEAV?$basic_string@_WU?$char_traits@_W@std@@V?$allocator@_W@2@@0@@Z ENDP ; std::_Iter_cat<std::basic_string<wchar_t,std::char_traits<wchar_t>,std::allocator<wchar_t> > * __ptr64 * __ptr64>
; Function compile flags: /Ogtpy
_TEXT	ENDS
;	COMDAT ??$_Iter_cat@PEAPEA_W@std@@YA?AUrandom_access_iterator_tag@0@AEBQEAPEA_W@Z
_TEXT	SEGMENT
__$ReturnUdt$ = 8
__formal$ = 16
??$_Iter_cat@PEAPEA_W@std@@YA?AUrandom_access_iterator_tag@0@AEBQEAPEA_W@Z PROC ; std::_Iter_cat<wchar_t * __ptr64 * __ptr64>, COMDAT

; 953  : 	typename iterator_traits<_Iter>::iterator_category _Cat;
; 954  : 	return (_Cat);

	mov	rax, rcx

; 955  : 	}

	ret	0
??$_Iter_cat@PEAPEA_W@std@@YA?AUrandom_access_iterator_tag@0@AEBQEAPEA_W@Z ENDP ; std::_Iter_cat<wchar_t * __ptr64 * __ptr64>
; Function compile flags: /Ogtpy
_TEXT	ENDS
;	COMDAT ??$_Checked_base@PEAPEAV?$basic_string@_WU?$char_traits@_W@std@@V?$allocator@_W@2@@std@@@std@@YAPEAPEAV?$basic_string@_WU?$char_traits@_W@std@@V?$allocator@_W@2@@0@AEAPEAPEAV10@U_Unchanged_checked_iterator_base_type_tag@0@@Z
_TEXT	SEGMENT
_It$ = 8
__formal$ = 16
??$_Checked_base@PEAPEAV?$basic_string@_WU?$char_traits@_W@std@@V?$allocator@_W@2@@std@@@std@@YAPEAPEAV?$basic_string@_WU?$char_traits@_W@std@@V?$allocator@_W@2@@0@AEAPEAPEAV10@U_Unchanged_checked_iterator_base_type_tag@0@@Z PROC ; std::_Checked_base<std::basic_string<wchar_t,std::char_traits<wchar_t>,std::allocator<wchar_t> > * __ptr64 * __ptr64>, COMDAT

; 1147 : 		return _It;

	mov	rax, QWORD PTR [rcx]

; 1148 : 	}

	ret	0
??$_Checked_base@PEAPEAV?$basic_string@_WU?$char_traits@_W@std@@V?$allocator@_W@2@@std@@@std@@YAPEAPEAV?$basic_string@_WU?$char_traits@_W@std@@V?$allocator@_W@2@@0@AEAPEAPEAV10@U_Unchanged_checked_iterator_base_type_tag@0@@Z ENDP ; std::_Checked_base<std::basic_string<wchar_t,std::char_traits<wchar_t>,std::allocator<wchar_t> > * __ptr64 * __ptr64>
; Function compile flags: /Ogtpy
_TEXT	ENDS
;	COMDAT ??$_Checked_base@PEAPEA_W@std@@YAPEAPEA_WAEAPEAPEA_WU_Unchanged_checked_iterator_base_type_tag@0@@Z
_TEXT	SEGMENT
_It$ = 8
__formal$ = 16
??$_Checked_base@PEAPEA_W@std@@YAPEAPEA_WAEAPEAPEA_WU_Unchanged_checked_iterator_base_type_tag@0@@Z PROC ; std::_Checked_base<wchar_t * __ptr64 * __ptr64>, COMDAT

; 1147 : 		return _It;

	mov	rax, QWORD PTR [rcx]

; 1148 : 	}

	ret	0
??$_Checked_base@PEAPEA_W@std@@YAPEAPEA_WAEAPEAPEA_WU_Unchanged_checked_iterator_base_type_tag@0@@Z ENDP ; std::_Checked_base<wchar_t * __ptr64 * __ptr64>
; Function compile flags: /Ogtpy
; File c:\program files\microsoft visual studio 9.0\vc\include\xmemory
_TEXT	ENDS
;	COMDAT ??$_Destroy_range@V?$allocator@PEAV?$basic_string@_WU?$char_traits@_W@std@@V?$allocator@_W@2@@std@@@std@@@std@@YAXPEAPEAV?$basic_string@_WU?$char_traits@_W@std@@V?$allocator@_W@2@@0@0AEAV?$allocator@PEAV?$basic_string@_WU?$char_traits@_W@std@@V?$allocator@_W@2@@std@@@0@U_Scalar_ptr_iterator_tag@0@@Z
_TEXT	SEGMENT
_First$ = 8
_Last$ = 16
_Al$ = 24
__formal$ = 32
??$_Destroy_range@V?$allocator@PEAV?$basic_string@_WU?$char_traits@_W@std@@V?$allocator@_W@2@@std@@@std@@@std@@YAXPEAPEAV?$basic_string@_WU?$char_traits@_W@std@@V?$allocator@_W@2@@0@0AEAV?$allocator@PEAV?$basic_string@_WU?$char_traits@_W@std@@V?$allocator@_W@2@@std@@@0@U_Scalar_ptr_iterator_tag@0@@Z PROC ; std::_Destroy_range<std::allocator<std::basic_string<wchar_t,std::char_traits<wchar_t>,std::allocator<wchar_t> > * __ptr64> >, COMDAT

; 242  : 	}

	ret	0
??$_Destroy_range@V?$allocator@PEAV?$basic_string@_WU?$char_traits@_W@std@@V?$allocator@_W@2@@std@@@std@@@std@@YAXPEAPEAV?$basic_string@_WU?$char_traits@_W@std@@V?$allocator@_W@2@@0@0AEAV?$allocator@PEAV?$basic_string@_WU?$char_traits@_W@std@@V?$allocator@_W@2@@std@@@0@U_Scalar_ptr_iterator_tag@0@@Z ENDP ; std::_Destroy_range<std::allocator<std::basic_string<wchar_t,std::char_traits<wchar_t>,std::allocator<wchar_t> > * __ptr64> >
_TEXT	ENDS
;	COMDAT pdata
; File c:\program files\microsoft visual studio 9.0\vc\include\memory
pdata	SEGMENT
$pdata$??$_Uninit_copy@PEAPEAV?$basic_string@_WU?$char_traits@_W@std@@V?$allocator@_W@2@@std@@PEAPEAV12@V?$allocator@PEAV?$basic_string@_WU?$char_traits@_W@std@@V?$allocator@_W@2@@std@@@2@@std@@YAPEAPEAV?$basic_string@_WU?$char_traits@_W@std@@V?$allocator@_W@2@@0@PEAPEAV10@00AEAV?$allocator@PEAV?$basic_string@_WU?$char_traits@_W@std@@V?$allocator@_W@2@@std@@@0@U_Scalar_ptr_iterator_tag@0@U_Range_checked_iterator_tag@0@@Z DD imagerel $LN5
	DD	imagerel $LN5+60
	DD	imagerel $unwind$??$_Uninit_copy@PEAPEAV?$basic_string@_WU?$char_traits@_W@std@@V?$allocator@_W@2@@std@@PEAPEAV12@V?$allocator@PEAV?$basic_string@_WU?$char_traits@_W@std@@V?$allocator@_W@2@@std@@@2@@std@@YAPEAPEAV?$basic_string@_WU?$char_traits@_W@std@@V?$allocator@_W@2@@0@PEAPEAV10@00AEAV?$allocator@PEAV?$basic_string@_WU?$char_traits@_W@std@@V?$allocator@_W@2@@std@@@0@U_Scalar_ptr_iterator_tag@0@U_Range_checked_iterator_tag@0@@Z
pdata	ENDS
;	COMDAT xdata
xdata	SEGMENT
$unwind$??$_Uninit_copy@PEAPEAV?$basic_string@_WU?$char_traits@_W@std@@V?$allocator@_W@2@@std@@PEAPEAV12@V?$allocator@PEAV?$basic_string@_WU?$char_traits@_W@std@@V?$allocator@_W@2@@std@@@2@@std@@YAPEAPEAV?$basic_string@_WU?$char_traits@_W@std@@V?$allocator@_W@2@@0@PEAPEAV10@00AEAV?$allocator@PEAV?$basic_string@_WU?$char_traits@_W@std@@V?$allocator@_W@2@@std@@@0@U_Scalar_ptr_iterator_tag@0@U_Range_checked_iterator_tag@0@@Z DD 020601H
	DD	030023206H
; Function compile flags: /Ogtpy
xdata	ENDS
;	COMDAT ??$_Uninit_copy@PEAPEAV?$basic_string@_WU?$char_traits@_W@std@@V?$allocator@_W@2@@std@@PEAPEAV12@V?$allocator@PEAV?$basic_string@_WU?$char_traits@_W@std@@V?$allocator@_W@2@@std@@@2@@std@@YAPEAPEAV?$basic_string@_WU?$char_traits@_W@std@@V?$allocator@_W@2@@0@PEAPEAV10@00AEAV?$allocator@PEAV?$basic_string@_WU?$char_traits@_W@std@@V?$allocator@_W@2@@std@@@0@U_Scalar_ptr_iterator_tag@0@U_Range_checked_iterator_tag@0@@Z
_TEXT	SEGMENT
_First$ = 48
_Last$ = 56
_Dest$ = 64
__formal$ = 72
__formal$ = 80
__formal$ = 88
??$_Uninit_copy@PEAPEAV?$basic_string@_WU?$char_traits@_W@std@@V?$allocator@_W@2@@std@@PEAPEAV12@V?$allocator@PEAV?$basic_string@_WU?$char_traits@_W@std@@V?$allocator@_W@2@@std@@@2@@std@@YAPEAPEAV?$basic_string@_WU?$char_traits@_W@std@@V?$allocator@_W@2@@0@PEAPEAV10@00AEAV?$allocator@PEAV?$basic_string@_WU?$char_traits@_W@std@@V?$allocator@_W@2@@std@@@0@U_Scalar_ptr_iterator_tag@0@U_Range_checked_iterator_tag@0@@Z PROC ; std::_Uninit_copy<std::basic_string<wchar_t,std::char_traits<wchar_t>,std::allocator<wchar_t> > * __ptr64 * __ptr64,std::basic_string<wchar_t,std::char_traits<wchar_t>,std::allocator<wchar_t> > * __ptr64 * __ptr64,std::allocator<std::basic_string<wchar_t,std::char_traits<wchar_t>,std::allocator<wchar_t> > * __ptr64> >, COMDAT

; 145  : 	{	// copy [_First, _Last) to raw _Dest, scalar type

$LN5:
	push	rbx
	sub	rsp, 32					; 00000020H

; 146  : 	_DEBUG_RANGE(_First, _Last);
; 147  : 	_DEBUG_POINTER(_Dest);
; 148  : 	size_t _Count = (size_t)(_Last - _First);

	sub	rdx, rcx
	mov	r10, r8
	sar	rdx, 3

; 149  : 	_FwdIt _Result = _Dest + _Count;

	lea	rax, QWORD PTR [rdx*8]
	lea	rbx, QWORD PTR [rax+r8]

; 150  : 	if (_Count > 0)

	test	rdx, rdx
	je	SHORT $LN4@Uninit_cop

; 151  : 		_CRT_SECURE_MEMMOVE(&*_Dest, _Count * sizeof (*_First), &*_First, _Count * sizeof (*_First));	// NB: non-overlapping move

	mov	r8, rcx
	mov	r9, rax
	mov	rdx, rax
	mov	rcx, r10
	call	QWORD PTR __imp_memmove_s
$LN4@Uninit_cop:

; 152  : 	return (_Result);

	mov	rax, rbx

; 153  : 	}

	add	rsp, 32					; 00000020H
	pop	rbx
	ret	0
??$_Uninit_copy@PEAPEAV?$basic_string@_WU?$char_traits@_W@std@@V?$allocator@_W@2@@std@@PEAPEAV12@V?$allocator@PEAV?$basic_string@_WU?$char_traits@_W@std@@V?$allocator@_W@2@@std@@@2@@std@@YAPEAPEAV?$basic_string@_WU?$char_traits@_W@std@@V?$allocator@_W@2@@0@PEAPEAV10@00AEAV?$allocator@PEAV?$basic_string@_WU?$char_traits@_W@std@@V?$allocator@_W@2@@std@@@0@U_Scalar_ptr_iterator_tag@0@U_Range_checked_iterator_tag@0@@Z ENDP ; std::_Uninit_copy<std::basic_string<wchar_t,std::char_traits<wchar_t>,std::allocator<wchar_t> > * __ptr64 * __ptr64,std::basic_string<wchar_t,std::char_traits<wchar_t>,std::allocator<wchar_t> > * __ptr64 * __ptr64,std::allocator<std::basic_string<wchar_t,std::char_traits<wchar_t>,std::allocator<wchar_t> > * __ptr64> >
; Function compile flags: /Ogtpy
; File c:\program files\microsoft visual studio 9.0\vc\include\xutility
_TEXT	ENDS
;	COMDAT ??$_Ptr_cat@PEAPEAV?$basic_string@_WU?$char_traits@_W@std@@V?$allocator@_W@2@@std@@PEAPEAV12@@std@@YA?AU_Scalar_ptr_iterator_tag@0@AEAPEAPEAV?$basic_string@_WU?$char_traits@_W@std@@V?$allocator@_W@2@@0@0@Z
_TEXT	SEGMENT
__formal$ = 8
__formal$ = 16
_Cat$ = 24
??$_Ptr_cat@PEAPEAV?$basic_string@_WU?$char_traits@_W@std@@V?$allocator@_W@2@@std@@PEAPEAV12@@std@@YA?AU_Scalar_ptr_iterator_tag@0@AEAPEAPEAV?$basic_string@_WU?$char_traits@_W@std@@V?$allocator@_W@2@@0@0@Z PROC ; std::_Ptr_cat<std::basic_string<wchar_t,std::char_traits<wchar_t>,std::allocator<wchar_t> > * __ptr64 * __ptr64,std::basic_string<wchar_t,std::char_traits<wchar_t>,std::allocator<wchar_t> > * __ptr64 * __ptr64>, COMDAT

; 1510 : 	typename _Ptr_cat_helper<_T1, _T2>::_Ptr_cat _Cat;
; 1511 : 	return (_Cat);

	mov	al, BYTE PTR _Cat$[rsp]

; 1512 : 	}

	ret	0
??$_Ptr_cat@PEAPEAV?$basic_string@_WU?$char_traits@_W@std@@V?$allocator@_W@2@@std@@PEAPEAV12@@std@@YA?AU_Scalar_ptr_iterator_tag@0@AEAPEAPEAV?$basic_string@_WU?$char_traits@_W@std@@V?$allocator@_W@2@@0@0@Z ENDP ; std::_Ptr_cat<std::basic_string<wchar_t,std::char_traits<wchar_t>,std::allocator<wchar_t> > * __ptr64 * __ptr64,std::basic_string<wchar_t,std::char_traits<wchar_t>,std::allocator<wchar_t> > * __ptr64 * __ptr64>
; Function compile flags: /Ogtpy
_TEXT	ENDS
;	COMDAT ??$_Checked_base@PEAPEAV?$basic_string@_WU?$char_traits@_W@std@@V?$allocator@_W@2@@std@@@std@@YAPEAPEAV?$basic_string@_WU?$char_traits@_W@std@@V?$allocator@_W@2@@0@AEAPEAPEAV10@@Z
_TEXT	SEGMENT
_It$ = 8
??$_Checked_base@PEAPEAV?$basic_string@_WU?$char_traits@_W@std@@V?$allocator@_W@2@@std@@@std@@YAPEAPEAV?$basic_string@_WU?$char_traits@_W@std@@V?$allocator@_W@2@@0@AEAPEAPEAV10@@Z PROC ; std::_Checked_base<std::basic_string<wchar_t,std::char_traits<wchar_t>,std::allocator<wchar_t> > * __ptr64 * __ptr64>, COMDAT

; 1164 : 		typename _Checked_iterator_base_helper<_Iter>::_Checked_iterator_base_type_tag _Base_tag;
; 1165 : 		return _Checked_base(_It, _Base_tag);

	mov	rax, QWORD PTR [rcx]

; 1166 : 	}

	ret	0
??$_Checked_base@PEAPEAV?$basic_string@_WU?$char_traits@_W@std@@V?$allocator@_W@2@@std@@@std@@YAPEAPEAV?$basic_string@_WU?$char_traits@_W@std@@V?$allocator@_W@2@@0@AEAPEAPEAV10@@Z ENDP ; std::_Checked_base<std::basic_string<wchar_t,std::char_traits<wchar_t>,std::allocator<wchar_t> > * __ptr64 * __ptr64>
; Function compile flags: /Ogtpy
; File c:\program files\microsoft visual studio 9.0\vc\include\xmemory
_TEXT	ENDS
;	COMDAT ??$_Destroy_range@V?$allocator@PEA_W@std@@@std@@YAXPEAPEA_W0AEAV?$allocator@PEA_W@0@U_Scalar_ptr_iterator_tag@0@@Z
_TEXT	SEGMENT
_First$ = 8
_Last$ = 16
_Al$ = 24
__formal$ = 32
??$_Destroy_range@V?$allocator@PEA_W@std@@@std@@YAXPEAPEA_W0AEAV?$allocator@PEA_W@0@U_Scalar_ptr_iterator_tag@0@@Z PROC ; std::_Destroy_range<std::allocator<wchar_t * __ptr64> >, COMDAT

; 242  : 	}

	ret	0
??$_Destroy_range@V?$allocator@PEA_W@std@@@std@@YAXPEAPEA_W0AEAV?$allocator@PEA_W@0@U_Scalar_ptr_iterator_tag@0@@Z ENDP ; std::_Destroy_range<std::allocator<wchar_t * __ptr64> >
_TEXT	ENDS
;	COMDAT pdata
; File c:\program files\microsoft visual studio 9.0\vc\include\memory
pdata	SEGMENT
$pdata$??$_Uninit_copy@PEAPEA_WPEAPEA_WV?$allocator@PEA_W@std@@@std@@YAPEAPEA_WPEAPEA_W00AEAV?$allocator@PEA_W@0@U_Scalar_ptr_iterator_tag@0@U_Range_checked_iterator_tag@0@@Z DD imagerel $LN5
	DD	imagerel $LN5+60
	DD	imagerel $unwind$??$_Uninit_copy@PEAPEA_WPEAPEA_WV?$allocator@PEA_W@std@@@std@@YAPEAPEA_WPEAPEA_W00AEAV?$allocator@PEA_W@0@U_Scalar_ptr_iterator_tag@0@U_Range_checked_iterator_tag@0@@Z
pdata	ENDS
;	COMDAT xdata
xdata	SEGMENT
$unwind$??$_Uninit_copy@PEAPEA_WPEAPEA_WV?$allocator@PEA_W@std@@@std@@YAPEAPEA_WPEAPEA_W00AEAV?$allocator@PEA_W@0@U_Scalar_ptr_iterator_tag@0@U_Range_checked_iterator_tag@0@@Z DD 020601H
	DD	030023206H
; Function compile flags: /Ogtpy
xdata	ENDS
;	COMDAT ??$_Uninit_copy@PEAPEA_WPEAPEA_WV?$allocator@PEA_W@std@@@std@@YAPEAPEA_WPEAPEA_W00AEAV?$allocator@PEA_W@0@U_Scalar_ptr_iterator_tag@0@U_Range_checked_iterator_tag@0@@Z
_TEXT	SEGMENT
_First$ = 48
_Last$ = 56
_Dest$ = 64
__formal$ = 72
__formal$ = 80
__formal$ = 88
??$_Uninit_copy@PEAPEA_WPEAPEA_WV?$allocator@PEA_W@std@@@std@@YAPEAPEA_WPEAPEA_W00AEAV?$allocator@PEA_W@0@U_Scalar_ptr_iterator_tag@0@U_Range_checked_iterator_tag@0@@Z PROC ; std::_Uninit_copy<wchar_t * __ptr64 * __ptr64,wchar_t * __ptr64 * __ptr64,std::allocator<wchar_t * __ptr64> >, COMDAT

; 145  : 	{	// copy [_First, _Last) to raw _Dest, scalar type

$LN5:
	push	rbx
	sub	rsp, 32					; 00000020H

; 146  : 	_DEBUG_RANGE(_First, _Last);
; 147  : 	_DEBUG_POINTER(_Dest);
; 148  : 	size_t _Count = (size_t)(_Last - _First);

	sub	rdx, rcx
	mov	r10, r8
	sar	rdx, 3

; 149  : 	_FwdIt _Result = _Dest + _Count;

	lea	rax, QWORD PTR [rdx*8]
	lea	rbx, QWORD PTR [rax+r8]

; 150  : 	if (_Count > 0)

	test	rdx, rdx
	je	SHORT $LN4@Uninit_cop@2

; 151  : 		_CRT_SECURE_MEMMOVE(&*_Dest, _Count * sizeof (*_First), &*_First, _Count * sizeof (*_First));	// NB: non-overlapping move

	mov	r8, rcx
	mov	r9, rax
	mov	rdx, rax
	mov	rcx, r10
	call	QWORD PTR __imp_memmove_s
$LN4@Uninit_cop@2:

; 152  : 	return (_Result);

	mov	rax, rbx

; 153  : 	}

	add	rsp, 32					; 00000020H
	pop	rbx
	ret	0
??$_Uninit_copy@PEAPEA_WPEAPEA_WV?$allocator@PEA_W@std@@@std@@YAPEAPEA_WPEAPEA_W00AEAV?$allocator@PEA_W@0@U_Scalar_ptr_iterator_tag@0@U_Range_checked_iterator_tag@0@@Z ENDP ; std::_Uninit_copy<wchar_t * __ptr64 * __ptr64,wchar_t * __ptr64 * __ptr64,std::allocator<wchar_t * __ptr64> >
; Function compile flags: /Ogtpy
; File c:\program files\microsoft visual studio 9.0\vc\include\xutility
_TEXT	ENDS
;	COMDAT ??$_Ptr_cat@PEAPEA_WPEAPEA_W@std@@YA?AU_Scalar_ptr_iterator_tag@0@AEAPEAPEA_W0@Z
_TEXT	SEGMENT
__formal$ = 8
__formal$ = 16
_Cat$ = 24
??$_Ptr_cat@PEAPEA_WPEAPEA_W@std@@YA?AU_Scalar_ptr_iterator_tag@0@AEAPEAPEA_W0@Z PROC ; std::_Ptr_cat<wchar_t * __ptr64 * __ptr64,wchar_t * __ptr64 * __ptr64>, COMDAT

; 1510 : 	typename _Ptr_cat_helper<_T1, _T2>::_Ptr_cat _Cat;
; 1511 : 	return (_Cat);

	mov	al, BYTE PTR _Cat$[rsp]

; 1512 : 	}

	ret	0
??$_Ptr_cat@PEAPEA_WPEAPEA_W@std@@YA?AU_Scalar_ptr_iterator_tag@0@AEAPEAPEA_W0@Z ENDP ; std::_Ptr_cat<wchar_t * __ptr64 * __ptr64,wchar_t * __ptr64 * __ptr64>
; Function compile flags: /Ogtpy
_TEXT	ENDS
;	COMDAT ??$_Checked_base@PEAPEA_W@std@@YAPEAPEA_WAEAPEAPEA_W@Z
_TEXT	SEGMENT
_It$ = 8
??$_Checked_base@PEAPEA_W@std@@YAPEAPEA_WAEAPEAPEA_W@Z PROC ; std::_Checked_base<wchar_t * __ptr64 * __ptr64>, COMDAT

; 1164 : 		typename _Checked_iterator_base_helper<_Iter>::_Checked_iterator_base_type_tag _Base_tag;
; 1165 : 		return _Checked_base(_It, _Base_tag);

	mov	rax, QWORD PTR [rcx]

; 1166 : 	}

	ret	0
??$_Checked_base@PEAPEA_W@std@@YAPEAPEA_WAEAPEAPEA_W@Z ENDP ; std::_Checked_base<wchar_t * __ptr64 * __ptr64>
_TEXT	ENDS
;	COMDAT pdata
pdata	SEGMENT
$pdata$??_G?$basic_string@_WU?$char_traits@_W@std@@V?$allocator@_W@2@@std@@QEAAPEAXI@Z DD imagerel $LN4
	DD	imagerel $LN4+24
	DD	imagerel $unwind$??_G?$basic_string@_WU?$char_traits@_W@std@@V?$allocator@_W@2@@std@@QEAAPEAXI@Z
pdata	ENDS
;	COMDAT xdata
xdata	SEGMENT
$unwind$??_G?$basic_string@_WU?$char_traits@_W@std@@V?$allocator@_W@2@@std@@QEAAPEAXI@Z DD 020601H
	DD	030023206H
; Function compile flags: /Ogtpy
xdata	ENDS
;	COMDAT ??_G?$basic_string@_WU?$char_traits@_W@std@@V?$allocator@_W@2@@std@@QEAAPEAXI@Z
_TEXT	SEGMENT
this$ = 48
__flags$ = 56
??_G?$basic_string@_WU?$char_traits@_W@std@@V?$allocator@_W@2@@std@@QEAAPEAXI@Z PROC ; std::basic_string<wchar_t,std::char_traits<wchar_t>,std::allocator<wchar_t> >::`scalar deleting destructor', COMDAT
$LN4:
	push	rbx
	sub	rsp, 32					; 00000020H
	mov	rbx, rcx
	call	QWORD PTR __imp_??1?$basic_string@_WU?$char_traits@_W@std@@V?$allocator@_W@2@@std@@QEAA@XZ
	mov	rax, rbx
	add	rsp, 32					; 00000020H
	pop	rbx
	ret	0
??_G?$basic_string@_WU?$char_traits@_W@std@@V?$allocator@_W@2@@std@@QEAAPEAXI@Z ENDP ; std::basic_string<wchar_t,std::char_traits<wchar_t>,std::allocator<wchar_t> >::`scalar deleting destructor'
; Function compile flags: /Ogtpy
; File c:\program files\microsoft visual studio 9.0\vc\include\xmemory
_TEXT	ENDS
;	COMDAT ??$?0V?$basic_string@_WU?$char_traits@_W@std@@V?$allocator@_W@2@@std@@@?$allocator@V_Aux_cont@std@@@std@@QEAA@AEBV?$allocator@V?$basic_string@_WU?$char_traits@_W@std@@V?$allocator@_W@2@@std@@@1@@Z
_TEXT	SEGMENT
this$ = 8
__formal$ = 16
??$?0V?$basic_string@_WU?$char_traits@_W@std@@V?$allocator@_W@2@@std@@@?$allocator@V_Aux_cont@std@@@std@@QEAA@AEBV?$allocator@V?$basic_string@_WU?$char_traits@_W@std@@V?$allocator@_W@2@@std@@@1@@Z PROC ; std::allocator<std::_Aux_cont>::allocator<std::_Aux_cont><std::basic_string<wchar_t,std::char_traits<wchar_t>,std::allocator<wchar_t> > >, COMDAT

; 129  : 		{	// construct from a related allocator (do nothing)
; 130  : 		}

	mov	rax, rcx
	ret	0
??$?0V?$basic_string@_WU?$char_traits@_W@std@@V?$allocator@_W@2@@std@@@?$allocator@V_Aux_cont@std@@@std@@QEAA@AEBV?$allocator@V?$basic_string@_WU?$char_traits@_W@std@@V?$allocator@_W@2@@std@@@1@@Z ENDP ; std::allocator<std::_Aux_cont>::allocator<std::_Aux_cont><std::basic_string<wchar_t,std::char_traits<wchar_t>,std::allocator<wchar_t> > >
; Function compile flags: /Ogtpy
_TEXT	ENDS
;	COMDAT ??$?0_W@?$allocator@V_Aux_cont@std@@@std@@QEAA@AEBV?$allocator@_W@1@@Z
_TEXT	SEGMENT
this$ = 8
__formal$ = 16
??$?0_W@?$allocator@V_Aux_cont@std@@@std@@QEAA@AEBV?$allocator@_W@1@@Z PROC ; std::allocator<std::_Aux_cont>::allocator<std::_Aux_cont><wchar_t>, COMDAT

; 129  : 		{	// construct from a related allocator (do nothing)
; 130  : 		}

	mov	rax, rcx
	ret	0
??$?0_W@?$allocator@V_Aux_cont@std@@@std@@QEAA@AEBV?$allocator@_W@1@@Z ENDP ; std::allocator<std::_Aux_cont>::allocator<std::_Aux_cont><wchar_t>
; Function compile flags: /Ogtpy
_TEXT	ENDS
;	COMDAT ??$?0V?$basic_string@_WU?$char_traits@_W@std@@V?$allocator@_W@2@@std@@@?$allocator@PEAV?$basic_string@_WU?$char_traits@_W@std@@V?$allocator@_W@2@@std@@@std@@QEAA@AEBV?$allocator@V?$basic_string@_WU?$char_traits@_W@std@@V?$allocator@_W@2@@std@@@1@@Z
_TEXT	SEGMENT
this$ = 8
__formal$ = 16
??$?0V?$basic_string@_WU?$char_traits@_W@std@@V?$allocator@_W@2@@std@@@?$allocator@PEAV?$basic_string@_WU?$char_traits@_W@std@@V?$allocator@_W@2@@std@@@std@@QEAA@AEBV?$allocator@V?$basic_string@_WU?$char_traits@_W@std@@V?$allocator@_W@2@@std@@@1@@Z PROC ; std::allocator<std::basic_string<wchar_t,std::char_traits<wchar_t>,std::allocator<wchar_t> > * __ptr64>::allocator<std::basic_string<wchar_t,std::char_traits<wchar_t>,std::allocator<wchar_t> > * __ptr64><std::basic_string<wchar_t,std::char_traits<wchar_t>,std::allocator<wchar_t> > >, COMDAT

; 129  : 		{	// construct from a related allocator (do nothing)
; 130  : 		}

	mov	rax, rcx
	ret	0
??$?0V?$basic_string@_WU?$char_traits@_W@std@@V?$allocator@_W@2@@std@@@?$allocator@PEAV?$basic_string@_WU?$char_traits@_W@std@@V?$allocator@_W@2@@std@@@std@@QEAA@AEBV?$allocator@V?$basic_string@_WU?$char_traits@_W@std@@V?$allocator@_W@2@@std@@@1@@Z ENDP ; std::allocator<std::basic_string<wchar_t,std::char_traits<wchar_t>,std::allocator<wchar_t> > * __ptr64>::allocator<std::basic_string<wchar_t,std::char_traits<wchar_t>,std::allocator<wchar_t> > * __ptr64><std::basic_string<wchar_t,std::char_traits<wchar_t>,std::allocator<wchar_t> > >
; Function compile flags: /Ogtpy
_TEXT	ENDS
;	COMDAT ??$?0_W@?$allocator@PEA_W@std@@QEAA@AEBV?$allocator@_W@1@@Z
_TEXT	SEGMENT
this$ = 8
__formal$ = 16
??$?0_W@?$allocator@PEA_W@std@@QEAA@AEBV?$allocator@_W@1@@Z PROC ; std::allocator<wchar_t * __ptr64>::allocator<wchar_t * __ptr64><wchar_t>, COMDAT

; 129  : 		{	// construct from a related allocator (do nothing)
; 130  : 		}

	mov	rax, rcx
	ret	0
??$?0_W@?$allocator@PEA_W@std@@QEAA@AEBV?$allocator@_W@1@@Z ENDP ; std::allocator<wchar_t * __ptr64>::allocator<wchar_t * __ptr64><wchar_t>
; Function compile flags: /Ogtpy
_TEXT	ENDS
;	COMDAT ??$_Destroy@PEAV?$basic_string@_WU?$char_traits@_W@std@@V?$allocator@_W@2@@std@@@std@@YAXPEAPEAV?$basic_string@_WU?$char_traits@_W@std@@V?$allocator@_W@2@@0@@Z
_TEXT	SEGMENT
_Ptr$ = 8
??$_Destroy@PEAV?$basic_string@_WU?$char_traits@_W@std@@V?$allocator@_W@2@@std@@@std@@YAXPEAPEAV?$basic_string@_WU?$char_traits@_W@std@@V?$allocator@_W@2@@0@@Z PROC ; std::_Destroy<std::basic_string<wchar_t,std::char_traits<wchar_t>,std::allocator<wchar_t> > * __ptr64>, COMDAT

; 59   : 	_DESTRUCTOR(_Ty, _Ptr);
; 60   : 	}

	ret	0
??$_Destroy@PEAV?$basic_string@_WU?$char_traits@_W@std@@V?$allocator@_W@2@@std@@@std@@YAXPEAPEAV?$basic_string@_WU?$char_traits@_W@std@@V?$allocator@_W@2@@0@@Z ENDP ; std::_Destroy<std::basic_string<wchar_t,std::char_traits<wchar_t>,std::allocator<wchar_t> > * __ptr64>
; Function compile flags: /Ogtpy
_TEXT	ENDS
;	COMDAT ??$_Destroy@V?$basic_string@_WU?$char_traits@_W@std@@V?$allocator@_W@2@@std@@@std@@YAXPEAV?$basic_string@_WU?$char_traits@_W@std@@V?$allocator@_W@2@@0@@Z
_TEXT	SEGMENT
_Ptr$ = 8
??$_Destroy@V?$basic_string@_WU?$char_traits@_W@std@@V?$allocator@_W@2@@std@@@std@@YAXPEAV?$basic_string@_WU?$char_traits@_W@std@@V?$allocator@_W@2@@0@@Z PROC ; std::_Destroy<std::basic_string<wchar_t,std::char_traits<wchar_t>,std::allocator<wchar_t> > >, COMDAT

; 59   : 	_DESTRUCTOR(_Ty, _Ptr);
; 60   : 	}

	rex_jmp	QWORD PTR __imp_??1?$basic_string@_WU?$char_traits@_W@std@@V?$allocator@_W@2@@std@@QEAA@XZ
??$_Destroy@V?$basic_string@_WU?$char_traits@_W@std@@V?$allocator@_W@2@@std@@@std@@YAXPEAV?$basic_string@_WU?$char_traits@_W@std@@V?$allocator@_W@2@@0@@Z ENDP ; std::_Destroy<std::basic_string<wchar_t,std::char_traits<wchar_t>,std::allocator<wchar_t> > >
; Function compile flags: /Ogtpy
_TEXT	ENDS
;	COMDAT ??$_Destroy_range@V?$allocator@PEAV?$basic_string@_WU?$char_traits@_W@std@@V?$allocator@_W@2@@std@@@std@@@std@@YAXPEAPEAV?$basic_string@_WU?$char_traits@_W@std@@V?$allocator@_W@2@@0@0AEAV?$allocator@PEAV?$basic_string@_WU?$char_traits@_W@std@@V?$allocator@_W@2@@std@@@0@@Z
_TEXT	SEGMENT
_First$ = 8
_Last$ = 16
_Al$ = 24
??$_Destroy_range@V?$allocator@PEAV?$basic_string@_WU?$char_traits@_W@std@@V?$allocator@_W@2@@std@@@std@@@std@@YAXPEAPEAV?$basic_string@_WU?$char_traits@_W@std@@V?$allocator@_W@2@@0@0AEAV?$allocator@PEAV?$basic_string@_WU?$char_traits@_W@std@@V?$allocator@_W@2@@std@@@0@@Z PROC ; std::_Destroy_range<std::allocator<std::basic_string<wchar_t,std::char_traits<wchar_t>,std::allocator<wchar_t> > * __ptr64> >, COMDAT

; 225  : 	_Destroy_range(_First, _Last, _Al, _Ptr_cat(_First, _Last));
; 226  : 	}

	ret	0
??$_Destroy_range@V?$allocator@PEAV?$basic_string@_WU?$char_traits@_W@std@@V?$allocator@_W@2@@std@@@std@@@std@@YAXPEAPEAV?$basic_string@_WU?$char_traits@_W@std@@V?$allocator@_W@2@@0@0AEAV?$allocator@PEAV?$basic_string@_WU?$char_traits@_W@std@@V?$allocator@_W@2@@std@@@0@@Z ENDP ; std::_Destroy_range<std::allocator<std::basic_string<wchar_t,std::char_traits<wchar_t>,std::allocator<wchar_t> > * __ptr64> >
_TEXT	ENDS
;	COMDAT pdata
; File c:\program files\microsoft visual studio 9.0\vc\include\memory
pdata	SEGMENT
$pdata$??$unchecked_uninitialized_copy@PEAPEAV?$basic_string@_WU?$char_traits@_W@std@@V?$allocator@_W@2@@std@@PEAPEAV12@V?$allocator@PEAV?$basic_string@_WU?$char_traits@_W@std@@V?$allocator@_W@2@@std@@@2@@stdext@@YAPEAPEAV?$basic_string@_WU?$char_traits@_W@std@@V?$allocator@_W@2@@std@@PEAPEAV12@00AEAV?$allocator@PEAV?$basic_string@_WU?$char_traits@_W@std@@V?$allocator@_W@2@@std@@@2@@Z DD imagerel $LN17
	DD	imagerel $LN17+60
	DD	imagerel $unwind$??$unchecked_uninitialized_copy@PEAPEAV?$basic_string@_WU?$char_traits@_W@std@@V?$allocator@_W@2@@std@@PEAPEAV12@V?$allocator@PEAV?$basic_string@_WU?$char_traits@_W@std@@V?$allocator@_W@2@@std@@@2@@stdext@@YAPEAPEAV?$basic_string@_WU?$char_traits@_W@std@@V?$allocator@_W@2@@std@@PEAPEAV12@00AEAV?$allocator@PEAV?$basic_string@_WU?$char_traits@_W@std@@V?$allocator@_W@2@@std@@@2@@Z
pdata	ENDS
;	COMDAT xdata
xdata	SEGMENT
$unwind$??$unchecked_uninitialized_copy@PEAPEAV?$basic_string@_WU?$char_traits@_W@std@@V?$allocator@_W@2@@std@@PEAPEAV12@V?$allocator@PEAV?$basic_string@_WU?$char_traits@_W@std@@V?$allocator@_W@2@@std@@@2@@stdext@@YAPEAPEAV?$basic_string@_WU?$char_traits@_W@std@@V?$allocator@_W@2@@std@@PEAPEAV12@00AEAV?$allocator@PEAV?$basic_string@_WU?$char_traits@_W@std@@V?$allocator@_W@2@@std@@@2@@Z DD 020601H
	DD	030023206H
; Function compile flags: /Ogtpy
xdata	ENDS
;	COMDAT ??$unchecked_uninitialized_copy@PEAPEAV?$basic_string@_WU?$char_traits@_W@std@@V?$allocator@_W@2@@std@@PEAPEAV12@V?$allocator@PEAV?$basic_string@_WU?$char_traits@_W@std@@V?$allocator@_W@2@@std@@@2@@stdext@@YAPEAPEAV?$basic_string@_WU?$char_traits@_W@std@@V?$allocator@_W@2@@std@@PEAPEAV12@00AEAV?$allocator@PEAV?$basic_string@_WU?$char_traits@_W@std@@V?$allocator@_W@2@@std@@@2@@Z
_TEXT	SEGMENT
_First$ = 48
_Last$ = 56
_Dest$ = 64
_Al$ = 72
??$unchecked_uninitialized_copy@PEAPEAV?$basic_string@_WU?$char_traits@_W@std@@V?$allocator@_W@2@@std@@PEAPEAV12@V?$allocator@PEAV?$basic_string@_WU?$char_traits@_W@std@@V?$allocator@_W@2@@std@@@2@@stdext@@YAPEAPEAV?$basic_string@_WU?$char_traits@_W@std@@V?$allocator@_W@2@@std@@PEAPEAV12@00AEAV?$allocator@PEAV?$basic_string@_WU?$char_traits@_W@std@@V?$allocator@_W@2@@std@@@2@@Z PROC ; stdext::unchecked_uninitialized_copy<std::basic_string<wchar_t,std::char_traits<wchar_t>,std::allocator<wchar_t> > * __ptr64 * __ptr64,std::basic_string<wchar_t,std::char_traits<wchar_t>,std::allocator<wchar_t> > * __ptr64 * __ptr64,std::allocator<std::basic_string<wchar_t,std::char_traits<wchar_t>,std::allocator<wchar_t> > * __ptr64> >, COMDAT

; 819  : 	{	// copy [_First, _Last) to raw _Dest, using _Al

$LN17:
	push	rbx
	sub	rsp, 32					; 00000020H

; 820  : 	return (_STD _Uninit_copy(_CHECKED_BASE(_First),
; 821  : 		_CHECKED_BASE(_Last), _Dest, _Al,
; 822  : 		_STD _Ptr_cat(_First, _Dest), _STD _Range_checked_iterator_tag()));

	sub	rdx, rcx
	mov	r10, r8
	sar	rdx, 3
	lea	rax, QWORD PTR [rdx*8]
	lea	rbx, QWORD PTR [rax+r8]
	test	rdx, rdx
	je	SHORT $LN16@unchecked_
	mov	r8, rcx
	mov	r9, rax
	mov	rdx, rax
	mov	rcx, r10
	call	QWORD PTR __imp_memmove_s
$LN16@unchecked_:
	mov	rax, rbx

; 823  : 	}

	add	rsp, 32					; 00000020H
	pop	rbx
	ret	0
??$unchecked_uninitialized_copy@PEAPEAV?$basic_string@_WU?$char_traits@_W@std@@V?$allocator@_W@2@@std@@PEAPEAV12@V?$allocator@PEAV?$basic_string@_WU?$char_traits@_W@std@@V?$allocator@_W@2@@std@@@2@@stdext@@YAPEAPEAV?$basic_string@_WU?$char_traits@_W@std@@V?$allocator@_W@2@@std@@PEAPEAV12@00AEAV?$allocator@PEAV?$basic_string@_WU?$char_traits@_W@std@@V?$allocator@_W@2@@std@@@2@@Z ENDP ; stdext::unchecked_uninitialized_copy<std::basic_string<wchar_t,std::char_traits<wchar_t>,std::allocator<wchar_t> > * __ptr64 * __ptr64,std::basic_string<wchar_t,std::char_traits<wchar_t>,std::allocator<wchar_t> > * __ptr64 * __ptr64,std::allocator<std::basic_string<wchar_t,std::char_traits<wchar_t>,std::allocator<wchar_t> > * __ptr64> >
; Function compile flags: /Ogtpy
; File c:\program files\microsoft visual studio 9.0\vc\include\xmemory
_TEXT	ENDS
;	COMDAT ??$_Destroy@PEA_W@std@@YAXPEAPEA_W@Z
_TEXT	SEGMENT
_Ptr$ = 8
??$_Destroy@PEA_W@std@@YAXPEAPEA_W@Z PROC		; std::_Destroy<wchar_t * __ptr64>, COMDAT

; 59   : 	_DESTRUCTOR(_Ty, _Ptr);
; 60   : 	}

	ret	0
??$_Destroy@PEA_W@std@@YAXPEAPEA_W@Z ENDP		; std::_Destroy<wchar_t * __ptr64>
; Function compile flags: /Ogtpy
_TEXT	ENDS
;	COMDAT ??$_Destroy_range@V?$allocator@PEA_W@std@@@std@@YAXPEAPEA_W0AEAV?$allocator@PEA_W@0@@Z
_TEXT	SEGMENT
_First$ = 8
_Last$ = 16
_Al$ = 24
??$_Destroy_range@V?$allocator@PEA_W@std@@@std@@YAXPEAPEA_W0AEAV?$allocator@PEA_W@0@@Z PROC ; std::_Destroy_range<std::allocator<wchar_t * __ptr64> >, COMDAT

; 225  : 	_Destroy_range(_First, _Last, _Al, _Ptr_cat(_First, _Last));
; 226  : 	}

	ret	0
??$_Destroy_range@V?$allocator@PEA_W@std@@@std@@YAXPEAPEA_W0AEAV?$allocator@PEA_W@0@@Z ENDP ; std::_Destroy_range<std::allocator<wchar_t * __ptr64> >
_TEXT	ENDS
;	COMDAT pdata
; File c:\program files\microsoft visual studio 9.0\vc\include\memory
pdata	SEGMENT
$pdata$??$unchecked_uninitialized_copy@PEAPEA_WPEAPEA_WV?$allocator@PEA_W@std@@@stdext@@YAPEAPEA_WPEAPEA_W00AEAV?$allocator@PEA_W@std@@@Z DD imagerel $LN17
	DD	imagerel $LN17+60
	DD	imagerel $unwind$??$unchecked_uninitialized_copy@PEAPEA_WPEAPEA_WV?$allocator@PEA_W@std@@@stdext@@YAPEAPEA_WPEAPEA_W00AEAV?$allocator@PEA_W@std@@@Z
pdata	ENDS
;	COMDAT xdata
xdata	SEGMENT
$unwind$??$unchecked_uninitialized_copy@PEAPEA_WPEAPEA_WV?$allocator@PEA_W@std@@@stdext@@YAPEAPEA_WPEAPEA_W00AEAV?$allocator@PEA_W@std@@@Z DD 020601H
	DD	030023206H
; Function compile flags: /Ogtpy
xdata	ENDS
;	COMDAT ??$unchecked_uninitialized_copy@PEAPEA_WPEAPEA_WV?$allocator@PEA_W@std@@@stdext@@YAPEAPEA_WPEAPEA_W00AEAV?$allocator@PEA_W@std@@@Z
_TEXT	SEGMENT
_First$ = 48
_Last$ = 56
_Dest$ = 64
_Al$ = 72
??$unchecked_uninitialized_copy@PEAPEA_WPEAPEA_WV?$allocator@PEA_W@std@@@stdext@@YAPEAPEA_WPEAPEA_W00AEAV?$allocator@PEA_W@std@@@Z PROC ; stdext::unchecked_uninitialized_copy<wchar_t * __ptr64 * __ptr64,wchar_t * __ptr64 * __ptr64,std::allocator<wchar_t * __ptr64> >, COMDAT

; 819  : 	{	// copy [_First, _Last) to raw _Dest, using _Al

$LN17:
	push	rbx
	sub	rsp, 32					; 00000020H

; 820  : 	return (_STD _Uninit_copy(_CHECKED_BASE(_First),
; 821  : 		_CHECKED_BASE(_Last), _Dest, _Al,
; 822  : 		_STD _Ptr_cat(_First, _Dest), _STD _Range_checked_iterator_tag()));

	sub	rdx, rcx
	mov	r10, r8
	sar	rdx, 3
	lea	rax, QWORD PTR [rdx*8]
	lea	rbx, QWORD PTR [rax+r8]
	test	rdx, rdx
	je	SHORT $LN16@unchecked_@2
	mov	r8, rcx
	mov	r9, rax
	mov	rdx, rax
	mov	rcx, r10
	call	QWORD PTR __imp_memmove_s
$LN16@unchecked_@2:
	mov	rax, rbx

; 823  : 	}

	add	rsp, 32					; 00000020H
	pop	rbx
	ret	0
??$unchecked_uninitialized_copy@PEAPEA_WPEAPEA_WV?$allocator@PEA_W@std@@@stdext@@YAPEAPEA_WPEAPEA_W00AEAV?$allocator@PEA_W@std@@@Z ENDP ; stdext::unchecked_uninitialized_copy<wchar_t * __ptr64 * __ptr64,wchar_t * __ptr64 * __ptr64,std::allocator<wchar_t * __ptr64> >
; Function compile flags: /Ogtpy
; File c:\program files\microsoft visual studio 9.0\vc\include\xmemory
_TEXT	ENDS
;	COMDAT ?max_size@?$allocator@V?$basic_string@_WU?$char_traits@_W@std@@V?$allocator@_W@2@@std@@@std@@QEBA_KXZ
_TEXT	SEGMENT
this$ = 8
?max_size@?$allocator@V?$basic_string@_WU?$char_traits@_W@std@@V?$allocator@_W@2@@std@@@std@@QEBA_KXZ PROC ; std::allocator<std::basic_string<wchar_t,std::char_traits<wchar_t>,std::allocator<wchar_t> > >::max_size, COMDAT

; 165  : 		_SIZT _Count = (_SIZT)(-1) / sizeof (_Ty);
; 166  : 		return (0 < _Count ? _Count : 1);

	mov	rax, 461168601842738790			; 0666666666666666H

; 167  : 		}

	ret	0
?max_size@?$allocator@V?$basic_string@_WU?$char_traits@_W@std@@V?$allocator@_W@2@@std@@@std@@QEBA_KXZ ENDP ; std::allocator<std::basic_string<wchar_t,std::char_traits<wchar_t>,std::allocator<wchar_t> > >::max_size
; Function compile flags: /Ogtpy
_TEXT	ENDS
;	COMDAT ??0?$allocator@V?$basic_string@_WU?$char_traits@_W@std@@V?$allocator@_W@2@@std@@@std@@QEAA@AEBV01@@Z
_TEXT	SEGMENT
this$ = 8
__formal$ = 16
??0?$allocator@V?$basic_string@_WU?$char_traits@_W@std@@V?$allocator@_W@2@@std@@@std@@QEAA@AEBV01@@Z PROC ; std::allocator<std::basic_string<wchar_t,std::char_traits<wchar_t>,std::allocator<wchar_t> > >::allocator<std::basic_string<wchar_t,std::char_traits<wchar_t>,std::allocator<wchar_t> > >, COMDAT

; 124  : 		{	// construct by copying (do nothing)
; 125  : 		}

	mov	rax, rcx
	ret	0
??0?$allocator@V?$basic_string@_WU?$char_traits@_W@std@@V?$allocator@_W@2@@std@@@std@@QEAA@AEBV01@@Z ENDP ; std::allocator<std::basic_string<wchar_t,std::char_traits<wchar_t>,std::allocator<wchar_t> > >::allocator<std::basic_string<wchar_t,std::char_traits<wchar_t>,std::allocator<wchar_t> > >
; Function compile flags: /Ogtpy
; File c:\program files\microsoft visual studio 9.0\vc\include\deque
_TEXT	ENDS
;	COMDAT ?max_size@?$deque@V?$basic_string@_WU?$char_traits@_W@std@@V?$allocator@_W@2@@std@@V?$allocator@V?$basic_string@_WU?$char_traits@_W@std@@V?$allocator@_W@2@@std@@@2@@std@@QEBA_KXZ
_TEXT	SEGMENT
this$ = 8
?max_size@?$deque@V?$basic_string@_WU?$char_traits@_W@std@@V?$allocator@_W@2@@std@@V?$allocator@V?$basic_string@_WU?$char_traits@_W@std@@V?$allocator@_W@2@@std@@@2@@std@@QEBA_KXZ PROC ; std::deque<std::basic_string<wchar_t,std::char_traits<wchar_t>,std::allocator<wchar_t> >,std::allocator<std::basic_string<wchar_t,std::char_traits<wchar_t>,std::allocator<wchar_t> > > >::max_size, COMDAT

; 729  : 		return (this->_Alval.max_size());

	mov	rax, 461168601842738790			; 0666666666666666H

; 730  : 		}

	ret	0
?max_size@?$deque@V?$basic_string@_WU?$char_traits@_W@std@@V?$allocator@_W@2@@std@@V?$allocator@V?$basic_string@_WU?$char_traits@_W@std@@V?$allocator@_W@2@@std@@@2@@std@@QEBA_KXZ ENDP ; std::deque<std::basic_string<wchar_t,std::char_traits<wchar_t>,std::allocator<wchar_t> >,std::allocator<std::basic_string<wchar_t,std::char_traits<wchar_t>,std::allocator<wchar_t> > > >::max_size
; Function compile flags: /Ogtpy
_TEXT	ENDS
;	COMDAT ?max_size@?$deque@_WV?$allocator@_W@std@@@std@@QEBA_KXZ
_TEXT	SEGMENT
this$ = 8
?max_size@?$deque@_WV?$allocator@_W@std@@@std@@QEBA_KXZ PROC ; std::deque<wchar_t,std::allocator<wchar_t> >::max_size, COMDAT

; 729  : 		return (this->_Alval.max_size());

	mov	rax, 9223372036854775807		; 7fffffffffffffffH

; 730  : 		}

	ret	0
?max_size@?$deque@_WV?$allocator@_W@std@@@std@@QEBA_KXZ ENDP ; std::deque<wchar_t,std::allocator<wchar_t> >::max_size
_TEXT	ENDS
;	COMDAT pdata
; File c:\program files\microsoft visual studio 9.0\vc\include\ios
pdata	SEGMENT
$pdata$??1_Sentry_base@?$basic_ostream@_WU?$char_traits@_W@std@@@std@@QEAA@XZ DD imagerel $LN8
	DD	imagerel $LN8+35
	DD	imagerel $unwind$??1_Sentry_base@?$basic_ostream@_WU?$char_traits@_W@std@@@std@@QEAA@XZ
pdata	ENDS
;	COMDAT xdata
xdata	SEGMENT
$unwind$??1_Sentry_base@?$basic_ostream@_WU?$char_traits@_W@std@@@std@@QEAA@XZ DD 010401H
	DD	04204H
; Function compile flags: /Ogtpy
; File c:\program files\microsoft visual studio 9.0\vc\include\ostream
xdata	ENDS
;	COMDAT ??1_Sentry_base@?$basic_ostream@_WU?$char_traits@_W@std@@@std@@QEAA@XZ
_TEXT	SEGMENT
this$ = 48
??1_Sentry_base@?$basic_ostream@_WU?$char_traits@_W@std@@@std@@QEAA@XZ PROC ; std::basic_ostream<wchar_t,std::char_traits<wchar_t> >::_Sentry_base::~_Sentry_base, COMDAT

; 81   : 			{	// destroy after unlocking

$LN8:
	sub	rsp, 40					; 00000028H

; 82   : 			if (_Myostr.rdbuf() != 0)

	mov	rdx, QWORD PTR [rcx]
	mov	rax, QWORD PTR [rdx]
	movsxd	rcx, DWORD PTR [rax+4]
	mov	rcx, QWORD PTR [rcx+rdx+72]
	test	rcx, rcx
	je	SHORT $LN1@Sentry_bas

; 83   : 				_Myostr.rdbuf()->_Unlock();

	call	QWORD PTR __imp_?_Unlock@?$basic_streambuf@_WU?$char_traits@_W@std@@@std@@QEAAXXZ
$LN1@Sentry_bas:

; 84   : 			}

	add	rsp, 40					; 00000028H
	ret	0
??1_Sentry_base@?$basic_ostream@_WU?$char_traits@_W@std@@@std@@QEAA@XZ ENDP ; std::basic_ostream<wchar_t,std::char_traits<wchar_t> >::_Sentry_base::~_Sentry_base
_TEXT	ENDS
;	COMDAT pdata
; File c:\program files\microsoft visual studio 9.0\vc\include\ios
pdata	SEGMENT
$pdata$??0_Sentry_base@?$basic_ostream@_WU?$char_traits@_W@std@@@std@@QEAA@AEAV12@@Z DD imagerel $LN9
	DD	imagerel $LN9+44
	DD	imagerel $unwind$??0_Sentry_base@?$basic_ostream@_WU?$char_traits@_W@std@@@std@@QEAA@AEAV12@@Z
pdata	ENDS
;	COMDAT xdata
xdata	SEGMENT
$unwind$??0_Sentry_base@?$basic_ostream@_WU?$char_traits@_W@std@@@std@@QEAA@AEAV12@@Z DD 020601H
	DD	030023206H
; Function compile flags: /Ogtpy
; File c:\program files\microsoft visual studio 9.0\vc\include\ostream
xdata	ENDS
;	COMDAT ??0_Sentry_base@?$basic_ostream@_WU?$char_traits@_W@std@@@std@@QEAA@AEAV12@@Z
_TEXT	SEGMENT
this$ = 48
_Ostr$ = 56
??0_Sentry_base@?$basic_ostream@_WU?$char_traits@_W@std@@@std@@QEAA@AEAV12@@Z PROC ; std::basic_ostream<wchar_t,std::char_traits<wchar_t> >::_Sentry_base::_Sentry_base, COMDAT

; 75   : 			{	// lock the stream buffer, if there

$LN9:
	push	rbx
	sub	rsp, 32					; 00000020H
	mov	QWORD PTR [rcx], rdx

; 76   : 			if (_Myostr.rdbuf() != 0)

	mov	rax, QWORD PTR [rdx]
	mov	rbx, rcx
	movsxd	r8, DWORD PTR [rax+4]
	mov	rcx, QWORD PTR [r8+rdx+72]
	test	rcx, rcx
	je	SHORT $LN8@Sentry_bas@2

; 77   : 				_Myostr.rdbuf()->_Lock();

	call	QWORD PTR __imp_?_Lock@?$basic_streambuf@_WU?$char_traits@_W@std@@@std@@QEAAXXZ
$LN8@Sentry_bas@2:

; 78   : 			}

	mov	rax, rbx
	add	rsp, 32					; 00000020H
	pop	rbx
	ret	0
??0_Sentry_base@?$basic_ostream@_WU?$char_traits@_W@std@@@std@@QEAA@AEAV12@@Z ENDP ; std::basic_ostream<wchar_t,std::char_traits<wchar_t> >::_Sentry_base::_Sentry_base
; Function compile flags: /Ogtpy
; File c:\program files\microsoft visual studio 9.0\vc\include\xmemory
_TEXT	ENDS
;	COMDAT ?destroy@?$allocator@PEAV?$basic_string@_WU?$char_traits@_W@std@@V?$allocator@_W@2@@std@@@std@@QEAAXPEAPEAV?$basic_string@_WU?$char_traits@_W@std@@V?$allocator@_W@2@@2@@Z
_TEXT	SEGMENT
this$ = 8
_Ptr$ = 16
?destroy@?$allocator@PEAV?$basic_string@_WU?$char_traits@_W@std@@V?$allocator@_W@2@@std@@@std@@QEAAXPEAPEAV?$basic_string@_WU?$char_traits@_W@std@@V?$allocator@_W@2@@2@@Z PROC ; std::allocator<std::basic_string<wchar_t,std::char_traits<wchar_t>,std::allocator<wchar_t> > * __ptr64>::destroy, COMDAT

; 160  : 		_Destroy(_Ptr);
; 161  : 		}

	ret	0
?destroy@?$allocator@PEAV?$basic_string@_WU?$char_traits@_W@std@@V?$allocator@_W@2@@std@@@std@@QEAAXPEAPEAV?$basic_string@_WU?$char_traits@_W@std@@V?$allocator@_W@2@@2@@Z ENDP ; std::allocator<std::basic_string<wchar_t,std::char_traits<wchar_t>,std::allocator<wchar_t> > * __ptr64>::destroy
; Function compile flags: /Ogtpy
_TEXT	ENDS
;	COMDAT ?deallocate@?$allocator@PEAV?$basic_string@_WU?$char_traits@_W@std@@V?$allocator@_W@2@@std@@@std@@QEAAXPEAPEAV?$basic_string@_WU?$char_traits@_W@std@@V?$allocator@_W@2@@2@_K@Z
_TEXT	SEGMENT
this$ = 8
_Ptr$ = 16
__formal$ = 24
?deallocate@?$allocator@PEAV?$basic_string@_WU?$char_traits@_W@std@@V?$allocator@_W@2@@std@@@std@@QEAAXPEAPEAV?$basic_string@_WU?$char_traits@_W@std@@V?$allocator@_W@2@@2@_K@Z PROC ; std::allocator<std::basic_string<wchar_t,std::char_traits<wchar_t>,std::allocator<wchar_t> > * __ptr64>::deallocate, COMDAT

; 140  : 		::operator delete(_Ptr);

	mov	rcx, rdx

; 141  : 		}

	jmp	??3@YAXPEAX@Z				; operator delete
?deallocate@?$allocator@PEAV?$basic_string@_WU?$char_traits@_W@std@@V?$allocator@_W@2@@std@@@std@@QEAAXPEAPEAV?$basic_string@_WU?$char_traits@_W@std@@V?$allocator@_W@2@@2@_K@Z ENDP ; std::allocator<std::basic_string<wchar_t,std::char_traits<wchar_t>,std::allocator<wchar_t> > * __ptr64>::deallocate
; Function compile flags: /Ogtpy
_TEXT	ENDS
;	COMDAT ?destroy@?$allocator@V?$basic_string@_WU?$char_traits@_W@std@@V?$allocator@_W@2@@std@@@std@@QEAAXPEAV?$basic_string@_WU?$char_traits@_W@std@@V?$allocator@_W@2@@2@@Z
_TEXT	SEGMENT
this$ = 8
_Ptr$ = 16
?destroy@?$allocator@V?$basic_string@_WU?$char_traits@_W@std@@V?$allocator@_W@2@@std@@@std@@QEAAXPEAV?$basic_string@_WU?$char_traits@_W@std@@V?$allocator@_W@2@@2@@Z PROC ; std::allocator<std::basic_string<wchar_t,std::char_traits<wchar_t>,std::allocator<wchar_t> > >::destroy, COMDAT

; 160  : 		_Destroy(_Ptr);

	mov	rcx, rdx

; 161  : 		}

	rex_jmp	QWORD PTR __imp_??1?$basic_string@_WU?$char_traits@_W@std@@V?$allocator@_W@2@@std@@QEAA@XZ
?destroy@?$allocator@V?$basic_string@_WU?$char_traits@_W@std@@V?$allocator@_W@2@@std@@@std@@QEAAXPEAV?$basic_string@_WU?$char_traits@_W@std@@V?$allocator@_W@2@@2@@Z ENDP ; std::allocator<std::basic_string<wchar_t,std::char_traits<wchar_t>,std::allocator<wchar_t> > >::destroy
; Function compile flags: /Ogtpy
_TEXT	ENDS
;	COMDAT ?deallocate@?$allocator@V?$basic_string@_WU?$char_traits@_W@std@@V?$allocator@_W@2@@std@@@std@@QEAAXPEAV?$basic_string@_WU?$char_traits@_W@std@@V?$allocator@_W@2@@2@_K@Z
_TEXT	SEGMENT
this$ = 8
_Ptr$ = 16
__formal$ = 24
?deallocate@?$allocator@V?$basic_string@_WU?$char_traits@_W@std@@V?$allocator@_W@2@@std@@@std@@QEAAXPEAV?$basic_string@_WU?$char_traits@_W@std@@V?$allocator@_W@2@@2@_K@Z PROC ; std::allocator<std::basic_string<wchar_t,std::char_traits<wchar_t>,std::allocator<wchar_t> > >::deallocate, COMDAT

; 140  : 		::operator delete(_Ptr);

	mov	rcx, rdx

; 141  : 		}

	jmp	??3@YAXPEAX@Z				; operator delete
?deallocate@?$allocator@V?$basic_string@_WU?$char_traits@_W@std@@V?$allocator@_W@2@@std@@@std@@QEAAXPEAV?$basic_string@_WU?$char_traits@_W@std@@V?$allocator@_W@2@@2@_K@Z ENDP ; std::allocator<std::basic_string<wchar_t,std::char_traits<wchar_t>,std::allocator<wchar_t> > >::deallocate
; Function compile flags: /Ogtpy
_TEXT	ENDS
;	COMDAT ??0?$allocator@V?$basic_string@_WU?$char_traits@_W@std@@V?$allocator@_W@2@@std@@@std@@QEAA@XZ
_TEXT	SEGMENT
this$ = 8
??0?$allocator@V?$basic_string@_WU?$char_traits@_W@std@@V?$allocator@_W@2@@std@@@std@@QEAA@XZ PROC ; std::allocator<std::basic_string<wchar_t,std::char_traits<wchar_t>,std::allocator<wchar_t> > >::allocator<std::basic_string<wchar_t,std::char_traits<wchar_t>,std::allocator<wchar_t> > >, COMDAT

; 120  : 		{	// construct default allocator (do nothing)
; 121  : 		}

	mov	rax, rcx
	ret	0
??0?$allocator@V?$basic_string@_WU?$char_traits@_W@std@@V?$allocator@_W@2@@std@@@std@@QEAA@XZ ENDP ; std::allocator<std::basic_string<wchar_t,std::char_traits<wchar_t>,std::allocator<wchar_t> > >::allocator<std::basic_string<wchar_t,std::char_traits<wchar_t>,std::allocator<wchar_t> > >
; Function compile flags: /Ogtpy
_TEXT	ENDS
;	COMDAT ?destroy@?$allocator@PEA_W@std@@QEAAXPEAPEA_W@Z
_TEXT	SEGMENT
this$ = 8
_Ptr$ = 16
?destroy@?$allocator@PEA_W@std@@QEAAXPEAPEA_W@Z PROC	; std::allocator<wchar_t * __ptr64>::destroy, COMDAT

; 160  : 		_Destroy(_Ptr);
; 161  : 		}

	ret	0
?destroy@?$allocator@PEA_W@std@@QEAAXPEAPEA_W@Z ENDP	; std::allocator<wchar_t * __ptr64>::destroy
; Function compile flags: /Ogtpy
_TEXT	ENDS
;	COMDAT ?deallocate@?$allocator@PEA_W@std@@QEAAXPEAPEA_W_K@Z
_TEXT	SEGMENT
this$ = 8
_Ptr$ = 16
__formal$ = 24
?deallocate@?$allocator@PEA_W@std@@QEAAXPEAPEA_W_K@Z PROC ; std::allocator<wchar_t * __ptr64>::deallocate, COMDAT

; 140  : 		::operator delete(_Ptr);

	mov	rcx, rdx

; 141  : 		}

	jmp	??3@YAXPEAX@Z				; operator delete
?deallocate@?$allocator@PEA_W@std@@QEAAXPEAPEA_W_K@Z ENDP ; std::allocator<wchar_t * __ptr64>::deallocate
; Function compile flags: /Ogtpy
; File c:\program files\microsoft visual studio 9.0\vc\include\ostream
_TEXT	ENDS
;	COMDAT ??Bsentry@?$basic_ostream@_WU?$char_traits@_W@std@@@std@@QEBA_NXZ
_TEXT	SEGMENT
this$ = 8
??Bsentry@?$basic_ostream@_WU?$char_traits@_W@std@@@std@@QEBA_NXZ PROC ; std::basic_ostream<wchar_t,std::char_traits<wchar_t> >::sentry::operator bool, COMDAT

; 116  : 			return (_Ok);

	mov	al, BYTE PTR [rcx+8]

; 117  : 			}

	ret	0
??Bsentry@?$basic_ostream@_WU?$char_traits@_W@std@@@std@@QEBA_NXZ ENDP ; std::basic_ostream<wchar_t,std::char_traits<wchar_t> >::sentry::operator bool
_TEXT	ENDS
EXTRN	__CxxFrameHandler3:PROC
;	COMDAT pdata
; File c:\program files\microsoft visual studio 9.0\vc\include\ios
pdata	SEGMENT
$pdata$??1sentry@?$basic_ostream@_WU?$char_traits@_W@std@@@std@@QEAA@XZ DD imagerel $LN12
	DD	imagerel $LN12+74
	DD	imagerel $unwind$??1sentry@?$basic_ostream@_WU?$char_traits@_W@std@@@std@@QEAA@XZ
pdata	ENDS
;	COMDAT pdata
pdata	SEGMENT
$pdata$?dtor$0@?0???1sentry@?$basic_ostream@_WU?$char_traits@_W@std@@@std@@QEAA@XZ@4HA DD imagerel ?dtor$0@?0???1sentry@?$basic_ostream@_WU?$char_traits@_W@std@@@std@@QEAA@XZ@4HA
	DD	imagerel ?dtor$0@?0???1sentry@?$basic_ostream@_WU?$char_traits@_W@std@@@std@@QEAA@XZ@4HA+24
	DD	imagerel $unwind$?dtor$0@?0???1sentry@?$basic_ostream@_WU?$char_traits@_W@std@@@std@@QEAA@XZ@4HA
pdata	ENDS
;	COMDAT xdata
xdata	SEGMENT
$ip2state$??1sentry@?$basic_ostream@_WU?$char_traits@_W@std@@@std@@QEAA@XZ DD imagerel ??1sentry@?$basic_ostream@_WU?$char_traits@_W@std@@@std@@QEAA@XZ
	DD	0ffffffffH
	DD	imagerel ??1sentry@?$basic_ostream@_WU?$char_traits@_W@std@@@std@@QEAA@XZ+22
	DD	00H
	DD	imagerel ??1sentry@?$basic_ostream@_WU?$char_traits@_W@std@@@std@@QEAA@XZ+42
	DD	0ffffffffH
xdata	ENDS
;	COMDAT xdata
xdata	SEGMENT
$unwind$?dtor$0@?0???1sentry@?$basic_ostream@_WU?$char_traits@_W@std@@@std@@QEAA@XZ@4HA DD 020601H
	DD	050023206H
xdata	ENDS
;	COMDAT xdata
xdata	SEGMENT
$unwind$??1sentry@?$basic_ostream@_WU?$char_traits@_W@std@@@std@@QEAA@XZ DD 021311H
	DD	03006520aH
	DD	imagerel __CxxFrameHandler3
	DD	imagerel $cppxdata$??1sentry@?$basic_ostream@_WU?$char_traits@_W@std@@@std@@QEAA@XZ
xdata	ENDS
;	COMDAT CONST
CONST	SEGMENT
$cppxdata$??1sentry@?$basic_ostream@_WU?$char_traits@_W@std@@@std@@QEAA@XZ DD 019930522H
	DD	01H
	DD	imagerel $stateUnwindMap$??1sentry@?$basic_ostream@_WU?$char_traits@_W@std@@@std@@QEAA@XZ
	DD	00H
	DD	00H
	DD	03H
	DD	imagerel $ip2state$??1sentry@?$basic_ostream@_WU?$char_traits@_W@std@@@std@@QEAA@XZ
	DD	020H
	DD	00H
	DD	01H
CONST	ENDS
;	COMDAT xdata
xdata	SEGMENT
$stateUnwindMap$??1sentry@?$basic_ostream@_WU?$char_traits@_W@std@@@std@@QEAA@XZ DD 0ffffffffH
	DD	imagerel ?dtor$0@?0???1sentry@?$basic_ostream@_WU?$char_traits@_W@std@@@std@@QEAA@XZ@4HA
; Function compile flags: /Ogtpy
; File c:\program files\microsoft visual studio 9.0\vc\include\ostream
xdata	ENDS
;	COMDAT ??1sentry@?$basic_ostream@_WU?$char_traits@_W@std@@@std@@QEAA@XZ
_TEXT	SEGMENT
$T144332 = 32
this$ = 64
??1sentry@?$basic_ostream@_WU?$char_traits@_W@std@@@std@@QEAA@XZ PROC ; std::basic_ostream<wchar_t,std::char_traits<wchar_t> >::sentry::~sentry, COMDAT

; 102  : 			{	// destroy the object

$LN12:
	mov	QWORD PTR [rsp+8], rcx
	push	rbx
	sub	rsp, 48					; 00000030H
	mov	QWORD PTR $T144332[rsp], -2
	mov	rbx, rcx

; 103  : 
; 104  :  #if _HAS_EXCEPTIONS
; 105  : 			if (!_XSTD uncaught_exception())

	call	QWORD PTR __imp_?uncaught_exception@std@@YA_NXZ
	test	al, al
	jne	SHORT $LN1@sentry

; 106  : 				this->_Myostr._Osfx();

	mov	rcx, QWORD PTR [rbx]
	call	QWORD PTR __imp_?_Osfx@?$basic_ostream@_WU?$char_traits@_W@std@@@std@@QEAAXXZ
	npad	1
$LN1@sentry:

; 107  : 			}

	mov	rdx, QWORD PTR [rbx]
	mov	rax, QWORD PTR [rdx]
	movsxd	rcx, DWORD PTR [rax+4]
	mov	rcx, QWORD PTR [rcx+rdx+72]
	test	rcx, rcx
	je	SHORT $LN5@sentry
	call	QWORD PTR __imp_?_Unlock@?$basic_streambuf@_WU?$char_traits@_W@std@@@std@@QEAAXXZ
$LN5@sentry:
	add	rsp, 48					; 00000030H
	pop	rbx
	ret	0
??1sentry@?$basic_ostream@_WU?$char_traits@_W@std@@@std@@QEAA@XZ ENDP ; std::basic_ostream<wchar_t,std::char_traits<wchar_t> >::sentry::~sentry
; Function compile flags: /Ogtpy
_TEXT	ENDS
;	COMDAT text$x
text$x	SEGMENT
$T144332 = 32
this$ = 64
?dtor$0@?0???1sentry@?$basic_ostream@_WU?$char_traits@_W@std@@@std@@QEAA@XZ@4HA PROC ; `std::basic_ostream<wchar_t,std::char_traits<wchar_t> >::sentry::~sentry'::`1'::dtor$0
	push	rbp
	sub	rsp, 32					; 00000020H
	mov	rbp, rdx
	mov	rcx, QWORD PTR this$[rbp]
	call	??1_Sentry_base@?$basic_ostream@_WU?$char_traits@_W@std@@@std@@QEAA@XZ ; std::basic_ostream<wchar_t,std::char_traits<wchar_t> >::_Sentry_base::~_Sentry_base
	add	rsp, 32					; 00000020H
	pop	rbp
	ret	0
?dtor$0@?0???1sentry@?$basic_ostream@_WU?$char_traits@_W@std@@@std@@QEAA@XZ@4HA ENDP ; `std::basic_ostream<wchar_t,std::char_traits<wchar_t> >::sentry::~sentry'::`1'::dtor$0
text$x	ENDS
;	COMDAT pdata
; File c:\program files\microsoft visual studio 9.0\vc\include\xiosbase
pdata	SEGMENT
$pdata$??0sentry@?$basic_ostream@_WU?$char_traits@_W@std@@@std@@QEAA@AEAV12@@Z DD imagerel $LN24
	DD	imagerel $LN24+119
	DD	imagerel $unwind$??0sentry@?$basic_ostream@_WU?$char_traits@_W@std@@@std@@QEAA@AEAV12@@Z
pdata	ENDS
;	COMDAT pdata
pdata	SEGMENT
$pdata$?dtor$0@?0???0sentry@?$basic_ostream@_WU?$char_traits@_W@std@@@std@@QEAA@AEAV12@@Z@4HA DD imagerel ?dtor$0@?0???0sentry@?$basic_ostream@_WU?$char_traits@_W@std@@@std@@QEAA@AEAV12@@Z@4HA
	DD	imagerel ?dtor$0@?0???0sentry@?$basic_ostream@_WU?$char_traits@_W@std@@@std@@QEAA@AEAV12@@Z@4HA+24
	DD	imagerel $unwind$?dtor$0@?0???0sentry@?$basic_ostream@_WU?$char_traits@_W@std@@@std@@QEAA@AEAV12@@Z@4HA
pdata	ENDS
;	COMDAT xdata
xdata	SEGMENT
$ip2state$??0sentry@?$basic_ostream@_WU?$char_traits@_W@std@@@std@@QEAA@AEAV12@@Z DD imagerel ??0sentry@?$basic_ostream@_WU?$char_traits@_W@std@@@std@@QEAA@AEAV12@@Z
	DD	0ffffffffH
	DD	imagerel ??0sentry@?$basic_ostream@_WU?$char_traits@_W@std@@@std@@QEAA@AEAV12@@Z+57
	DD	00H
	DD	imagerel ??0sentry@?$basic_ostream@_WU?$char_traits@_W@std@@@std@@QEAA@AEAV12@@Z+105
	DD	0ffffffffH
xdata	ENDS
;	COMDAT xdata
xdata	SEGMENT
$unwind$?dtor$0@?0???0sentry@?$basic_ostream@_WU?$char_traits@_W@std@@@std@@QEAA@AEAV12@@Z@4HA DD 020601H
	DD	050023206H
xdata	ENDS
;	COMDAT xdata
xdata	SEGMENT
$unwind$??0sentry@?$basic_ostream@_WU?$char_traits@_W@std@@@std@@QEAA@AEAV12@@Z DD 041811H
	DD	093418H
	DD	07006520aH
	DD	imagerel __CxxFrameHandler3
	DD	imagerel $cppxdata$??0sentry@?$basic_ostream@_WU?$char_traits@_W@std@@@std@@QEAA@AEAV12@@Z
xdata	ENDS
;	COMDAT CONST
CONST	SEGMENT
$cppxdata$??0sentry@?$basic_ostream@_WU?$char_traits@_W@std@@@std@@QEAA@AEAV12@@Z DD 019930522H
	DD	01H
	DD	imagerel $stateUnwindMap$??0sentry@?$basic_ostream@_WU?$char_traits@_W@std@@@std@@QEAA@AEAV12@@Z
	DD	00H
	DD	00H
	DD	03H
	DD	imagerel $ip2state$??0sentry@?$basic_ostream@_WU?$char_traits@_W@std@@@std@@QEAA@AEAV12@@Z
	DD	020H
	DD	00H
	DD	01H
CONST	ENDS
;	COMDAT xdata
xdata	SEGMENT
$stateUnwindMap$??0sentry@?$basic_ostream@_WU?$char_traits@_W@std@@@std@@QEAA@AEAV12@@Z DD 0ffffffffH
	DD	imagerel ?dtor$0@?0???0sentry@?$basic_ostream@_WU?$char_traits@_W@std@@@std@@QEAA@AEAV12@@Z@4HA
; Function compile flags: /Ogtpy
; File c:\program files\microsoft visual studio 9.0\vc\include\ostream
xdata	ENDS
;	COMDAT ??0sentry@?$basic_ostream@_WU?$char_traits@_W@std@@@std@@QEAA@AEAV12@@Z
_TEXT	SEGMENT
$T144409 = 32
this$ = 64
_Ostr$ = 72
??0sentry@?$basic_ostream@_WU?$char_traits@_W@std@@@std@@QEAA@AEAV12@@Z PROC ; std::basic_ostream<wchar_t,std::char_traits<wchar_t> >::sentry::sentry, COMDAT

; 95   : 			{	// construct locking and testing stream

$LN24:
	mov	QWORD PTR [rsp+8], rcx
	push	rdi
	sub	rsp, 48					; 00000030H
	mov	QWORD PTR $T144409[rsp], -2
	mov	QWORD PTR [rsp+72], rbx
	mov	rbx, rdx
	mov	rdi, rcx
	mov	QWORD PTR [rcx], rdx
	mov	rax, QWORD PTR [rdx]
	movsxd	r8, DWORD PTR [rax+4]
	mov	rcx, QWORD PTR [r8+rdx+72]
	test	rcx, rcx
	je	SHORT $LN5@sentry@2
	call	QWORD PTR __imp_?_Lock@?$basic_streambuf@_WU?$char_traits@_W@std@@@std@@QEAAXXZ
	npad	1
$LN5@sentry@2:

; 96   : 			if (_Ostr.good() && _Ostr.tie() != 0)

	mov	rax, QWORD PTR [rbx]
	movsxd	rcx, DWORD PTR [rax+4]
	cmp	DWORD PTR [rcx+rbx+16], 0
	jne	SHORT $LN1@sentry@2
	mov	rcx, QWORD PTR [rcx+rbx+80]
	test	rcx, rcx
	je	SHORT $LN1@sentry@2

; 97   : 				_Ostr.tie()->flush();

	call	QWORD PTR __imp_?flush@?$basic_ostream@_WU?$char_traits@_W@std@@@std@@QEAAAEAV12@XZ
$LN1@sentry@2:

; 98   : 			_Ok = _Ostr.good();	// store test only after flushing tie

	mov	rax, QWORD PTR [rbx]
	movsxd	rcx, DWORD PTR [rax+4]
	cmp	DWORD PTR [rcx+rbx+16], 0
	sete	al
	mov	BYTE PTR [rdi+8], al

; 99   : 			}

	mov	rax, rdi
	mov	rbx, QWORD PTR [rsp+72]
	add	rsp, 48					; 00000030H
	pop	rdi
	ret	0
??0sentry@?$basic_ostream@_WU?$char_traits@_W@std@@@std@@QEAA@AEAV12@@Z ENDP ; std::basic_ostream<wchar_t,std::char_traits<wchar_t> >::sentry::sentry
; Function compile flags: /Ogtpy
_TEXT	ENDS
;	COMDAT text$x
text$x	SEGMENT
$T144409 = 32
this$ = 64
_Ostr$ = 72
?dtor$0@?0???0sentry@?$basic_ostream@_WU?$char_traits@_W@std@@@std@@QEAA@AEAV12@@Z@4HA PROC ; `std::basic_ostream<wchar_t,std::char_traits<wchar_t> >::sentry::sentry'::`1'::dtor$0
	push	rbp
	sub	rsp, 32					; 00000020H
	mov	rbp, rdx
	mov	rcx, QWORD PTR this$[rbp]
	call	??1_Sentry_base@?$basic_ostream@_WU?$char_traits@_W@std@@@std@@QEAA@XZ ; std::basic_ostream<wchar_t,std::char_traits<wchar_t> >::_Sentry_base::~_Sentry_base
	add	rsp, 32					; 00000020H
	pop	rbp
	ret	0
?dtor$0@?0???0sentry@?$basic_ostream@_WU?$char_traits@_W@std@@@std@@QEAA@AEAV12@@Z@4HA ENDP ; `std::basic_ostream<wchar_t,std::char_traits<wchar_t> >::sentry::sentry'::`1'::dtor$0
; Function compile flags: /Ogtpy
; File c:\program files\microsoft visual studio 9.0\vc\include\deque
text$x	ENDS
;	COMDAT ?empty@?$deque@V?$basic_string@_WU?$char_traits@_W@std@@V?$allocator@_W@2@@std@@V?$allocator@V?$basic_string@_WU?$char_traits@_W@std@@V?$allocator@_W@2@@std@@@2@@std@@QEBA_NXZ
_TEXT	SEGMENT
this$ = 8
?empty@?$deque@V?$basic_string@_WU?$char_traits@_W@std@@V?$allocator@_W@2@@std@@V?$allocator@V?$basic_string@_WU?$char_traits@_W@std@@V?$allocator@_W@2@@std@@@2@@std@@QEBA_NXZ PROC ; std::deque<std::basic_string<wchar_t,std::char_traits<wchar_t>,std::allocator<wchar_t> >,std::allocator<std::basic_string<wchar_t,std::char_traits<wchar_t>,std::allocator<wchar_t> > > >::empty, COMDAT

; 734  : 		return (_Mysize == 0);

	xor	eax, eax
	cmp	QWORD PTR [rcx+56], rax
	sete	al

; 735  : 		}

	ret	0
?empty@?$deque@V?$basic_string@_WU?$char_traits@_W@std@@V?$allocator@_W@2@@std@@V?$allocator@V?$basic_string@_WU?$char_traits@_W@std@@V?$allocator@_W@2@@std@@@2@@std@@QEBA_NXZ ENDP ; std::deque<std::basic_string<wchar_t,std::char_traits<wchar_t>,std::allocator<wchar_t> >,std::allocator<std::basic_string<wchar_t,std::char_traits<wchar_t>,std::allocator<wchar_t> > > >::empty
; Function compile flags: /Ogtpy
_TEXT	ENDS
;	COMDAT ?empty@?$deque@_WV?$allocator@_W@std@@@std@@QEBA_NXZ
_TEXT	SEGMENT
this$ = 8
?empty@?$deque@_WV?$allocator@_W@std@@@std@@QEBA_NXZ PROC ; std::deque<wchar_t,std::allocator<wchar_t> >::empty, COMDAT

; 734  : 		return (_Mysize == 0);

	xor	eax, eax
	cmp	QWORD PTR [rcx+56], rax
	sete	al

; 735  : 		}

	ret	0
?empty@?$deque@_WV?$allocator@_W@std@@@std@@QEBA_NXZ ENDP ; std::deque<wchar_t,std::allocator<wchar_t> >::empty
; Function compile flags: /Ogtpy
; File c:\program files\microsoft visual studio 9.0\vc\include\stack
_TEXT	ENDS
;	COMDAT ?empty@?$stack@V?$basic_string@_WU?$char_traits@_W@std@@V?$allocator@_W@2@@std@@V?$deque@V?$basic_string@_WU?$char_traits@_W@std@@V?$allocator@_W@2@@std@@V?$allocator@V?$basic_string@_WU?$char_traits@_W@std@@V?$allocator@_W@2@@std@@@2@@2@@std@@QEBA_NXZ
_TEXT	SEGMENT
this$ = 8
?empty@?$stack@V?$basic_string@_WU?$char_traits@_W@std@@V?$allocator@_W@2@@std@@V?$deque@V?$basic_string@_WU?$char_traits@_W@std@@V?$allocator@_W@2@@std@@V?$allocator@V?$basic_string@_WU?$char_traits@_W@std@@V?$allocator@_W@2@@std@@@2@@2@@std@@QEBA_NXZ PROC ; std::stack<std::basic_string<wchar_t,std::char_traits<wchar_t>,std::allocator<wchar_t> >,std::deque<std::basic_string<wchar_t,std::char_traits<wchar_t>,std::allocator<wchar_t> >,std::allocator<std::basic_string<wchar_t,std::char_traits<wchar_t>,std::allocator<wchar_t> > > > >::empty, COMDAT

; 38   : 		return (c.empty());

	xor	eax, eax
	cmp	QWORD PTR [rcx+56], rax
	sete	al

; 39   : 		}

	ret	0
?empty@?$stack@V?$basic_string@_WU?$char_traits@_W@std@@V?$allocator@_W@2@@std@@V?$deque@V?$basic_string@_WU?$char_traits@_W@std@@V?$allocator@_W@2@@std@@V?$allocator@V?$basic_string@_WU?$char_traits@_W@std@@V?$allocator@_W@2@@std@@@2@@2@@std@@QEBA_NXZ ENDP ; std::stack<std::basic_string<wchar_t,std::char_traits<wchar_t>,std::allocator<wchar_t> >,std::deque<std::basic_string<wchar_t,std::char_traits<wchar_t>,std::allocator<wchar_t> >,std::allocator<std::basic_string<wchar_t,std::char_traits<wchar_t>,std::allocator<wchar_t> > > > >::empty
; Function compile flags: /Ogtpy
_TEXT	ENDS
;	COMDAT ?empty@?$stack@_WV?$deque@_WV?$allocator@_W@std@@@std@@@std@@QEBA_NXZ
_TEXT	SEGMENT
this$ = 8
?empty@?$stack@_WV?$deque@_WV?$allocator@_W@std@@@std@@@std@@QEBA_NXZ PROC ; std::stack<wchar_t,std::deque<wchar_t,std::allocator<wchar_t> > >::empty, COMDAT

; 38   : 		return (c.empty());

	xor	eax, eax
	cmp	QWORD PTR [rcx+56], rax
	sete	al

; 39   : 		}

	ret	0
?empty@?$stack@_WV?$deque@_WV?$allocator@_W@std@@@std@@@std@@QEBA_NXZ ENDP ; std::stack<wchar_t,std::deque<wchar_t,std::allocator<wchar_t> > >::empty
_TEXT	ENDS
PUBLIC	?IsNetInternal@SignatureReader@@QEAA_N_K@Z	; SignatureReader::IsNetInternal
EXTRN	memcmp:PROC
;	COMDAT pdata
; File c:\local\sharpdevelop_3.2.0.5777_source\src\addins\misc\profiler\hook\profilermetadata.cpp
pdata	SEGMENT
$pdata$?IsNetInternal@SignatureReader@@QEAA_N_K@Z DD imagerel $LN12
	DD	imagerel $LN12+310
	DD	imagerel $unwind$?IsNetInternal@SignatureReader@@QEAA_N_K@Z
pdata	ENDS
;	COMDAT xdata
xdata	SEGMENT
$unwind$?IsNetInternal@SignatureReader@@QEAA_N_K@Z DD 030901H
	DD	010e0109H
	DD	03002H
; Function compile flags: /Ogtpy
xdata	ENDS
;	COMDAT ?IsNetInternal@SignatureReader@@QEAA_N_K@Z
_TEXT	SEGMENT
asmMetaData$ = 80
publicKey$ = 88
assemblyNameLength$119848 = 96
assemblyName$119847 = 112
assembly$119844 = 2176
this$ = 2176
fid$ = 2184
pKLength$ = 2192
funcToken$ = 2200
?IsNetInternal@SignatureReader@@QEAA_N_K@Z PROC		; SignatureReader::IsNetInternal, COMDAT

; 564  : {

$LN12:
	push	rbx
	sub	rsp, 2160				; 00000870H

; 565  : 	mdToken funcToken;
; 566  : 	HRESULT hr = S_OK;
; 567  : 	IMetaDataAssemblyImport *asmMetaData;
; 568  : 	const void *publicKey;
; 569  : 	ULONG pKLength;
; 570  : 
; 571  : 	hr = profilerInfo->GetTokenAndMetaDataFromFunction(fid, IID_IMetaDataAssemblyImport, (LPUNKNOWN *) &asmMetaData, &funcToken);

	mov	rcx, QWORD PTR [rcx]
	lea	r8, QWORD PTR funcToken$[rsp]
	lea	r9, QWORD PTR asmMetaData$[rsp]
	mov	rax, QWORD PTR [rcx]
	mov	QWORD PTR [rsp+32], r8
	lea	r8, OFFSET FLAT:IID_IMetaDataAssemblyImport
	call	QWORD PTR [rax+152]

; 572  : 	if (SUCCEEDED(hr)) {

	test	eax, eax
	js	$LN1@IsNetInter

; 573  : 		mdAssembly assembly;
; 574  : 		hr = asmMetaData->GetAssemblyFromScope(&assembly);

	mov	rcx, QWORD PTR asmMetaData$[rsp]
	lea	rdx, QWORD PTR assembly$119844[rsp]
	mov	rax, QWORD PTR [rcx]
	call	QWORD PTR [rax+96]

; 575  : 		if (SUCCEEDED(hr)) {

	test	eax, eax
	js	$LN1@IsNetInter

; 576  : 			WCHAR assemblyName[NAME_BUFFER_SIZE];
; 577  : 			ULONG assemblyNameLength;
; 578  : 
; 579  : 			hr = asmMetaData->GetAssemblyProps(assembly, &publicKey, &pKLength, nullptr, assemblyName, NAME_BUFFER_SIZE, &assemblyNameLength, nullptr, nullptr);

	mov	rcx, QWORD PTR asmMetaData$[rsp]
	xor	ebx, ebx
	lea	rdx, QWORD PTR assemblyNameLength$119848[rsp]
	mov	rax, QWORD PTR [rcx]
	mov	QWORD PTR [rsp+72], rbx
	mov	QWORD PTR [rsp+64], rbx
	mov	QWORD PTR [rsp+56], rdx
	lea	rdx, QWORD PTR assemblyName$119847[rsp]
	mov	DWORD PTR [rsp+48], 1024		; 00000400H
	mov	QWORD PTR [rsp+40], rdx
	mov	edx, DWORD PTR assembly$119844[rsp]
	lea	r9, QWORD PTR pKLength$[rsp]
	lea	r8, QWORD PTR publicKey$[rsp]
	mov	QWORD PTR [rsp+32], rbx
	call	QWORD PTR [rax+24]

; 580  : 			const byte *b = (const byte *)publicKey;
; 581  : 			
; 582  : 			if (pKLength == sizeof(mscorlibkey) && memcmp(mscorlibkey, b, sizeof(mscorlibkey)) == 0)

	mov	r11d, DWORD PTR pKLength$[rsp]
	cmp	r11d, 16
	jne	SHORT $LN3@IsNetInter
	mov	rcx, QWORD PTR publicKey$[rsp]
	lea	rax, OFFSET FLAT:mscorlibkey
	mov	rdx, QWORD PTR [rax]
	cmp	rdx, QWORD PTR [rcx]
	jne	SHORT $LN9@IsNetInter
	mov	rdx, QWORD PTR [rax+8]
	add	rax, 8
	cmp	rdx, QWORD PTR [rcx+8]
	je	SHORT $LN10@IsNetInter
$LN9@IsNetInter:
	sbb	eax, eax
	sbb	eax, -1
	mov	ebx, eax
$LN10@IsNetInter:
	test	ebx, ebx
	jne	SHORT $LN1@IsNetInter
$LN11@IsNetInter:

; 583  : 				return true;

	mov	al, 1

; 592  : }

	add	rsp, 2160				; 00000870H
	pop	rbx
	ret	0
$LN3@IsNetInter:

; 584  : 			if (pKLength == sizeof(systemdrawingkey) && memcmp(systemdrawingkey, b, sizeof(systemdrawingkey)) == 0)

	cmp	r11d, 160				; 000000a0H
	jne	SHORT $LN1@IsNetInter
	mov	rbx, QWORD PTR publicKey$[rsp]
	lea	rcx, OFFSET FLAT:systemdrawingkey
	mov	r8d, r11d
	mov	rdx, rbx
	call	memcmp
	test	eax, eax

; 585  : 				return true;

	je	SHORT $LN11@IsNetInter

; 586  : 			if (pKLength == sizeof(wpfassemblieskey) && memcmp(wpfassemblieskey, b, sizeof(wpfassemblieskey)) == 0)

	lea	rcx, OFFSET FLAT:wpfassemblieskey
	mov	r8d, 160				; 000000a0H
	mov	rdx, rbx
	call	memcmp
	test	eax, eax
	jne	SHORT $LN1@IsNetInter

; 587  : 				return true;

	mov	al, 1

; 592  : }

	add	rsp, 2160				; 00000870H
	pop	rbx
	ret	0
$LN1@IsNetInter:

; 588  : 		}
; 589  : 	}
; 590  : 	
; 591  : 	return false;

	xor	al, al

; 592  : }

	add	rsp, 2160				; 00000870H
	pop	rbx
	ret	0
?IsNetInternal@SignatureReader@@QEAA_N_K@Z ENDP		; SignatureReader::IsNetInternal
_TEXT	ENDS
PUBLIC	?ReadByte@SignatureReader@@AEAA_NPEAE@Z		; SignatureReader::ReadByte
; Function compile flags: /Ogtpy
;	COMDAT ?ReadByte@SignatureReader@@AEAA_NPEAE@Z
_TEXT	SEGMENT
this$ = 8
out$ = 16
?ReadByte@SignatureReader@@AEAA_NPEAE@Z PROC		; SignatureReader::ReadByte, COMDAT

; 486  : 	if (this->data < this->endPosition) {
; 487  : 		*out = *this->data;

	mov	rax, QWORD PTR [rcx+24]
	movzx	r8d, BYTE PTR [rax]

; 488  : 		this->data++;
; 489  : 		return true;

	mov	al, 1
	mov	BYTE PTR [rdx], r8b
	inc	QWORD PTR [rcx+24]

; 490  : 	}
; 491  : 
; 492  : 	return false;
; 493  : }

	ret	0
?ReadByte@SignatureReader@@AEAA_NPEAE@Z ENDP		; SignatureReader::ReadByte
; Function compile flags: /Ogtpy
; File c:\program files\microsoft sdks\windows\v7.0\include\cor.h
_TEXT	ENDS
;	COMDAT ?CorSigUncompressData@@YAJPEBEKPEAK1@Z
_TEXT	SEGMENT
pData$ = 8
len$ = 16
pDataOut$ = 24
pDataLen$ = 32
?CorSigUncompressData@@YAJPEBEKPEAK1@Z PROC		; CorSigUncompressData, COMDAT

; 2293 :     HRESULT hr = S_OK;        
; 2294 :     BYTE const  *pBytes = reinterpret_cast<BYTE const*>(pData); 
; 2295 : 
; 2296 :     // Smallest.    
; 2297 :     if ((*pBytes & 0x80) == 0x00)       // 0??? ????    

	movzx	edx, BYTE PTR [rcx]
	xor	r11d, r11d
	mov	r10, rcx
	test	dl, dl
	js	SHORT $LN12@CorSigUnco

; 2298 :     {   
; 2299 :         if (len < 1)
; 2300 :         {
; 2301 :             *pDataOut = NULL;
; 2302 :             *pDataLen = 0;
; 2303 :             hr = META_E_BAD_SIGNATURE;
; 2304 :         }
; 2305 :         else
; 2306 :         {
; 2307 :             *pDataOut = *pBytes;    

	movzx	ecx, dl

; 2308 :             *pDataLen = 1; 

	mov	DWORD PTR [r9], 1

; 2344 :         hr = META_E_BAD_SIGNATURE;
; 2345 :     }
; 2346 :     
; 2347 :     return hr;  

	mov	eax, r11d
	mov	DWORD PTR [r8], ecx

; 2348 : 
; 2349 : }

	ret	0
$LN12@CorSigUnco:

; 2309 :         }
; 2310 :     }    
; 2311 :     // Medium.  
; 2312 :     else if ((*pBytes & 0xC0) == 0x80)  // 10?? ????    

	movzx	eax, dl
	and	al, 192					; 000000c0H
	cmp	al, 128					; 00000080H
	jne	SHORT $LN8@CorSigUnco

; 2313 :     {   
; 2314 :         if (len < 2)
; 2315 :         {
; 2316 :             *pDataOut = NULL;
; 2317 :             *pDataLen = 0;
; 2318 :             hr = META_E_BAD_SIGNATURE;
; 2319 :         }
; 2320 :         else
; 2321 :         {
; 2322 :             *pDataOut = (ULONG)(((*pBytes & 0x3f) << 8 | *(pBytes+1)));    

	movzx	eax, BYTE PTR [r10+1]
	movzx	ecx, dl

; 2323 :             *pDataLen = 2; 

	mov	DWORD PTR [r9], 2
	and	ecx, 63					; 0000003fH
	shl	ecx, 8
	or	ecx, eax

; 2344 :         hr = META_E_BAD_SIGNATURE;
; 2345 :     }
; 2346 :     
; 2347 :     return hr;  

	mov	eax, r11d
	mov	DWORD PTR [r8], ecx

; 2348 : 
; 2349 : }

	ret	0
$LN8@CorSigUnco:

; 2324 :         }
; 2325 :     }   
; 2326 :     else if ((*pBytes & 0xE0) == 0xC0)      // 110? ????    

	movzx	eax, dl
	and	al, 224					; 000000e0H
	cmp	al, 192					; 000000c0H
	jne	SHORT $LN4@CorSigUnco

; 2327 :     {   
; 2328 :         if (len < 4)
; 2329 :         {
; 2330 :             *pDataOut = NULL;
; 2331 :             *pDataLen = 0;
; 2332 :             hr = META_E_BAD_SIGNATURE;
; 2333 :         }
; 2334 :         else
; 2335 :         {
; 2336 :             *pDataOut = (ULONG)(((*pBytes & 0x1f) << 24 | *(pBytes+1) << 16 | *(pBytes+2) << 8 | *(pBytes+3)));  

	movzx	eax, BYTE PTR [r10+1]
	movzx	ecx, dl

; 2337 :             *pDataLen = 4; 

	mov	DWORD PTR [r9], 4
	and	ecx, 31
	shl	ecx, 8
	or	ecx, eax
	movzx	eax, BYTE PTR [r10+2]
	shl	ecx, 8
	or	ecx, eax
	movzx	eax, BYTE PTR [r10+3]
	shl	ecx, 8
	or	ecx, eax

; 2344 :         hr = META_E_BAD_SIGNATURE;
; 2345 :     }
; 2346 :     
; 2347 :     return hr;  

	mov	eax, r11d
	mov	DWORD PTR [r8], ecx

; 2348 : 
; 2349 : }

	ret	0
$LN4@CorSigUnco:

; 2338 :         }
; 2339 :     }   
; 2340 :     else // We don't recognize this encoding
; 2341 :     {
; 2342 :         *pDataOut = NULL;

	mov	DWORD PTR [r8], r11d

; 2343 :         *pDataLen = 0;

	mov	DWORD PTR [r9], r11d

; 2344 :         hr = META_E_BAD_SIGNATURE;
; 2345 :     }
; 2346 :     
; 2347 :     return hr;  

	mov	eax, -2146233966			; ffffffff80131192H

; 2348 : 
; 2349 : }

	ret	0
?CorSigUncompressData@@YAJPEBEKPEAK1@Z ENDP		; CorSigUncompressData
; Function compile flags: /Ogtpy
; File c:\program files\microsoft visual studio 9.0\vc\include\xlocale
_TEXT	ENDS
;	COMDAT ?_Register@facet@locale@std@@QEAAXXZ
_TEXT	SEGMENT
this$ = 8
?_Register@facet@locale@std@@QEAAXXZ PROC		; std::locale::facet::_Register, COMDAT

; 135  : #if defined(_M_CEE)
; 136  : 			facet_Register_m(this);
; 137  : #else
; 138  : 			facet_Register(this);
; 139  : #endif
; 140  : 			}

	jmp	?facet_Register@facet@locale@std@@CAXPEAV123@@Z ; std::locale::facet::facet_Register
?_Register@facet@locale@std@@QEAAXXZ ENDP		; std::locale::facet::_Register
; Function compile flags: /Ogtpy
; File c:\program files\microsoft visual studio 9.0\vc\include\xutility
;	COMDAT ??$_Fill_n@PEAPEAV?$basic_string@_WU?$char_traits@_W@std@@V?$allocator@_W@2@@std@@_KPEAV12@@std@@YAXPEAPEAV?$basic_string@_WU?$char_traits@_W@std@@V?$allocator@_W@2@@0@_KAEBQEAV10@Urandom_access_iterator_tag@0@U_Range_checked_iterator_tag@0@@Z
_TEXT	SEGMENT
_First$ = 8
_Count$ = 16
_Val$ = 24
__formal$ = 32
__formal$ = 40
??$_Fill_n@PEAPEAV?$basic_string@_WU?$char_traits@_W@std@@V?$allocator@_W@2@@std@@_KPEAV12@@std@@YAXPEAPEAV?$basic_string@_WU?$char_traits@_W@std@@V?$allocator@_W@2@@0@_KAEBQEAV10@Urandom_access_iterator_tag@0@U_Range_checked_iterator_tag@0@@Z PROC ; std::_Fill_n<std::basic_string<wchar_t,std::char_traits<wchar_t>,std::allocator<wchar_t> > * __ptr64 * __ptr64,unsigned __int64,std::basic_string<wchar_t,std::char_traits<wchar_t>,std::allocator<wchar_t> > * __ptr64>, COMDAT

; 3251 : 		// if _OutIt is checked, this will ensure we have enough space
; 3252 : 		_OutIt _Last = _First + _Count; (_Last);
; 3253 : 		_Fill_n(_CHECKED_BASE(_First), _Count, _Val,
; 3254 : 			_Range_checked_iterator_tag());

	test	rdx, rdx
	je	SHORT $LN7@Fill_n@3
	npad	11
$LL9@Fill_n@3:
	mov	rax, QWORD PTR [r8]
	add	rcx, 8
	sub	rdx, 1
	mov	QWORD PTR [rcx-8], rax
	jne	SHORT $LL9@Fill_n@3
$LN7@Fill_n@3:

; 3255 : 	}

	fatret	0
??$_Fill_n@PEAPEAV?$basic_string@_WU?$char_traits@_W@std@@V?$allocator@_W@2@@std@@_KPEAV12@@std@@YAXPEAPEAV?$basic_string@_WU?$char_traits@_W@std@@V?$allocator@_W@2@@0@_KAEBQEAV10@Urandom_access_iterator_tag@0@U_Range_checked_iterator_tag@0@@Z ENDP ; std::_Fill_n<std::basic_string<wchar_t,std::char_traits<wchar_t>,std::allocator<wchar_t> > * __ptr64 * __ptr64,unsigned __int64,std::basic_string<wchar_t,std::char_traits<wchar_t>,std::allocator<wchar_t> > * __ptr64>
; Function compile flags: /Ogtpy
_TEXT	ENDS
;	COMDAT ??$_Fill_n@PEAPEA_W_KPEA_W@std@@YAXPEAPEA_W_KAEBQEA_WUrandom_access_iterator_tag@0@U_Range_checked_iterator_tag@0@@Z
_TEXT	SEGMENT
_First$ = 8
_Count$ = 16
_Val$ = 24
__formal$ = 32
__formal$ = 40
??$_Fill_n@PEAPEA_W_KPEA_W@std@@YAXPEAPEA_W_KAEBQEA_WUrandom_access_iterator_tag@0@U_Range_checked_iterator_tag@0@@Z PROC ; std::_Fill_n<wchar_t * __ptr64 * __ptr64,unsigned __int64,wchar_t * __ptr64>, COMDAT

; 3251 : 		// if _OutIt is checked, this will ensure we have enough space
; 3252 : 		_OutIt _Last = _First + _Count; (_Last);
; 3253 : 		_Fill_n(_CHECKED_BASE(_First), _Count, _Val,
; 3254 : 			_Range_checked_iterator_tag());

	test	rdx, rdx
	je	SHORT $LN7@Fill_n@4
	npad	11
$LL9@Fill_n@4:
	mov	rax, QWORD PTR [r8]
	add	rcx, 8
	sub	rdx, 1
	mov	QWORD PTR [rcx-8], rax
	jne	SHORT $LL9@Fill_n@4
$LN7@Fill_n@4:

; 3255 : 	}

	fatret	0
??$_Fill_n@PEAPEA_W_KPEA_W@std@@YAXPEAPEA_W_KAEBQEA_WUrandom_access_iterator_tag@0@U_Range_checked_iterator_tag@0@@Z ENDP ; std::_Fill_n<wchar_t * __ptr64 * __ptr64,unsigned __int64,wchar_t * __ptr64>
; Function compile flags: /Ogtpy
_TEXT	ENDS
;	COMDAT ??$unchecked_fill_n@PEAPEAV?$basic_string@_WU?$char_traits@_W@std@@V?$allocator@_W@2@@std@@_KPEAV12@@stdext@@YAXPEAPEAV?$basic_string@_WU?$char_traits@_W@std@@V?$allocator@_W@2@@std@@_KAEBQEAV12@@Z
_TEXT	SEGMENT
_First$ = 8
_Count$ = 16
_Val$ = 24
??$unchecked_fill_n@PEAPEAV?$basic_string@_WU?$char_traits@_W@std@@V?$allocator@_W@2@@std@@_KPEAV12@@stdext@@YAXPEAPEAV?$basic_string@_WU?$char_traits@_W@std@@V?$allocator@_W@2@@std@@_KAEBQEAV12@@Z PROC ; stdext::unchecked_fill_n<std::basic_string<wchar_t,std::char_traits<wchar_t>,std::allocator<wchar_t> > * __ptr64 * __ptr64,unsigned __int64,std::basic_string<wchar_t,std::char_traits<wchar_t>,std::allocator<wchar_t> > * __ptr64>, COMDAT

; 3721 : 		_STD _Fill_n(_First, _Count, _Val, _STD _Iter_cat(_First), _STD _Range_checked_iterator_tag());

	test	rdx, rdx
	je	SHORT $LN11@unchecked_@3
	npad	11
$LL13@unchecked_@3:
	mov	rax, QWORD PTR [r8]
	add	rcx, 8
	sub	rdx, 1
	mov	QWORD PTR [rcx-8], rax
	jne	SHORT $LL13@unchecked_@3
$LN11@unchecked_@3:

; 3722 : 	}

	fatret	0
??$unchecked_fill_n@PEAPEAV?$basic_string@_WU?$char_traits@_W@std@@V?$allocator@_W@2@@std@@_KPEAV12@@stdext@@YAXPEAPEAV?$basic_string@_WU?$char_traits@_W@std@@V?$allocator@_W@2@@std@@_KAEBQEAV12@@Z ENDP ; stdext::unchecked_fill_n<std::basic_string<wchar_t,std::char_traits<wchar_t>,std::allocator<wchar_t> > * __ptr64 * __ptr64,unsigned __int64,std::basic_string<wchar_t,std::char_traits<wchar_t>,std::allocator<wchar_t> > * __ptr64>
; Function compile flags: /Ogtpy
_TEXT	ENDS
;	COMDAT ??$unchecked_fill_n@PEAPEA_W_KPEA_W@stdext@@YAXPEAPEA_W_KAEBQEA_W@Z
_TEXT	SEGMENT
_First$ = 8
_Count$ = 16
_Val$ = 24
??$unchecked_fill_n@PEAPEA_W_KPEA_W@stdext@@YAXPEAPEA_W_KAEBQEA_W@Z PROC ; stdext::unchecked_fill_n<wchar_t * __ptr64 * __ptr64,unsigned __int64,wchar_t * __ptr64>, COMDAT

; 3721 : 		_STD _Fill_n(_First, _Count, _Val, _STD _Iter_cat(_First), _STD _Range_checked_iterator_tag());

	test	rdx, rdx
	je	SHORT $LN11@unchecked_@4
	npad	11
$LL13@unchecked_@4:
	mov	rax, QWORD PTR [r8]
	add	rcx, 8
	sub	rdx, 1
	mov	QWORD PTR [rcx-8], rax
	jne	SHORT $LL13@unchecked_@4
$LN11@unchecked_@4:

; 3722 : 	}

	fatret	0
??$unchecked_fill_n@PEAPEA_W_KPEA_W@stdext@@YAXPEAPEA_W_KAEBQEA_W@Z ENDP ; stdext::unchecked_fill_n<wchar_t * __ptr64 * __ptr64,unsigned __int64,wchar_t * __ptr64>
; Function compile flags: /Ogtpy
; File c:\program files\microsoft visual studio 9.0\vc\include\memory
_TEXT	ENDS
;	COMDAT ??$_Uninit_fill_n@PEAPEAV?$basic_string@_WU?$char_traits@_W@std@@V?$allocator@_W@2@@std@@_KPEAV12@V?$allocator@PEAV?$basic_string@_WU?$char_traits@_W@std@@V?$allocator@_W@2@@std@@@2@@std@@YAXPEAPEAV?$basic_string@_WU?$char_traits@_W@std@@V?$allocator@_W@2@@0@_KAEBQEAV10@AEAV?$allocator@PEAV?$basic_string@_WU?$char_traits@_W@std@@V?$allocator@_W@2@@std@@@0@U_Scalar_ptr_iterator_tag@0@U_Range_checked_iterator_tag@0@@Z
_TEXT	SEGMENT
_First$ = 8
_Count$ = 16
_Val$ = 24
__formal$ = 32
__formal$ = 40
__formal$ = 48
??$_Uninit_fill_n@PEAPEAV?$basic_string@_WU?$char_traits@_W@std@@V?$allocator@_W@2@@std@@_KPEAV12@V?$allocator@PEAV?$basic_string@_WU?$char_traits@_W@std@@V?$allocator@_W@2@@std@@@2@@std@@YAXPEAPEAV?$basic_string@_WU?$char_traits@_W@std@@V?$allocator@_W@2@@0@_KAEBQEAV10@AEAV?$allocator@PEAV?$basic_string@_WU?$char_traits@_W@std@@V?$allocator@_W@2@@std@@@0@U_Scalar_ptr_iterator_tag@0@U_Range_checked_iterator_tag@0@@Z PROC ; std::_Uninit_fill_n<std::basic_string<wchar_t,std::char_traits<wchar_t>,std::allocator<wchar_t> > * __ptr64 * __ptr64,unsigned __int64,std::basic_string<wchar_t,std::char_traits<wchar_t>,std::allocator<wchar_t> > * __ptr64,std::allocator<std::basic_string<wchar_t,std::char_traits<wchar_t>,std::allocator<wchar_t> > * __ptr64> >, COMDAT

; 419  : 		_STDEXT unchecked_fill_n(_First, _Count, _Val);

	test	rdx, rdx
	je	SHORT $LN13@Uninit_fil
	npad	11
$LL15@Uninit_fil:
	mov	rax, QWORD PTR [r8]
	add	rcx, 8
	sub	rdx, 1
	mov	QWORD PTR [rcx-8], rax
	jne	SHORT $LL15@Uninit_fil
$LN13@Uninit_fil:

; 420  : 	}

	fatret	0
??$_Uninit_fill_n@PEAPEAV?$basic_string@_WU?$char_traits@_W@std@@V?$allocator@_W@2@@std@@_KPEAV12@V?$allocator@PEAV?$basic_string@_WU?$char_traits@_W@std@@V?$allocator@_W@2@@std@@@2@@std@@YAXPEAPEAV?$basic_string@_WU?$char_traits@_W@std@@V?$allocator@_W@2@@0@_KAEBQEAV10@AEAV?$allocator@PEAV?$basic_string@_WU?$char_traits@_W@std@@V?$allocator@_W@2@@std@@@0@U_Scalar_ptr_iterator_tag@0@U_Range_checked_iterator_tag@0@@Z ENDP ; std::_Uninit_fill_n<std::basic_string<wchar_t,std::char_traits<wchar_t>,std::allocator<wchar_t> > * __ptr64 * __ptr64,unsigned __int64,std::basic_string<wchar_t,std::char_traits<wchar_t>,std::allocator<wchar_t> > * __ptr64,std::allocator<std::basic_string<wchar_t,std::char_traits<wchar_t>,std::allocator<wchar_t> > * __ptr64> >
; Function compile flags: /Ogtpy
_TEXT	ENDS
;	COMDAT ??$_Uninit_fill_n@PEAPEA_W_KPEA_WV?$allocator@PEA_W@std@@@std@@YAXPEAPEA_W_KAEBQEA_WAEAV?$allocator@PEA_W@0@U_Scalar_ptr_iterator_tag@0@U_Range_checked_iterator_tag@0@@Z
_TEXT	SEGMENT
_First$ = 8
_Count$ = 16
_Val$ = 24
__formal$ = 32
__formal$ = 40
__formal$ = 48
??$_Uninit_fill_n@PEAPEA_W_KPEA_WV?$allocator@PEA_W@std@@@std@@YAXPEAPEA_W_KAEBQEA_WAEAV?$allocator@PEA_W@0@U_Scalar_ptr_iterator_tag@0@U_Range_checked_iterator_tag@0@@Z PROC ; std::_Uninit_fill_n<wchar_t * __ptr64 * __ptr64,unsigned __int64,wchar_t * __ptr64,std::allocator<wchar_t * __ptr64> >, COMDAT

; 419  : 		_STDEXT unchecked_fill_n(_First, _Count, _Val);

	test	rdx, rdx
	je	SHORT $LN13@Uninit_fil@2
	npad	11
$LL15@Uninit_fil@2:
	mov	rax, QWORD PTR [r8]
	add	rcx, 8
	sub	rdx, 1
	mov	QWORD PTR [rcx-8], rax
	jne	SHORT $LL15@Uninit_fil@2
$LN13@Uninit_fil@2:

; 420  : 	}

	fatret	0
??$_Uninit_fill_n@PEAPEA_W_KPEA_WV?$allocator@PEA_W@std@@@std@@YAXPEAPEA_W_KAEBQEA_WAEAV?$allocator@PEA_W@0@U_Scalar_ptr_iterator_tag@0@U_Range_checked_iterator_tag@0@@Z ENDP ; std::_Uninit_fill_n<wchar_t * __ptr64 * __ptr64,unsigned __int64,wchar_t * __ptr64,std::allocator<wchar_t * __ptr64> >
_TEXT	ENDS
;	COMDAT pdata
; File c:\program files\microsoft visual studio 9.0\vc\include\exception
pdata	SEGMENT
$pdata$??$_Allocate@PEAV?$basic_string@_WU?$char_traits@_W@std@@V?$allocator@_W@2@@std@@@std@@YAPEAPEAV?$basic_string@_WU?$char_traits@_W@std@@V?$allocator@_W@2@@0@_KPEAPEAV10@@Z DD imagerel $LN13
	DD	imagerel $LN13+87
	DD	imagerel $unwind$??$_Allocate@PEAV?$basic_string@_WU?$char_traits@_W@std@@V?$allocator@_W@2@@std@@@std@@YAPEAPEAV?$basic_string@_WU?$char_traits@_W@std@@V?$allocator@_W@2@@0@_KPEAPEAV10@@Z
pdata	ENDS
;	COMDAT xdata
xdata	SEGMENT
$unwind$??$_Allocate@PEAV?$basic_string@_WU?$char_traits@_W@std@@V?$allocator@_W@2@@std@@@std@@YAPEAPEAV?$basic_string@_WU?$char_traits@_W@std@@V?$allocator@_W@2@@0@_KPEAPEAV10@@Z DD 010401H
	DD	08204H
; Function compile flags: /Ogtpy
; File c:\program files\microsoft visual studio 9.0\vc\include\xmemory
xdata	ENDS
;	COMDAT ??$_Allocate@PEAV?$basic_string@_WU?$char_traits@_W@std@@V?$allocator@_W@2@@std@@@std@@YAPEAPEAV?$basic_string@_WU?$char_traits@_W@std@@V?$allocator@_W@2@@0@_KPEAPEAV10@@Z
_TEXT	SEGMENT
$T146183 = 32
$T146191 = 80
_Count$ = 80
??$_Allocate@PEAV?$basic_string@_WU?$char_traits@_W@std@@V?$allocator@_W@2@@std@@@std@@YAPEAPEAV?$basic_string@_WU?$char_traits@_W@std@@V?$allocator@_W@2@@0@_KPEAPEAV10@@Z PROC ; std::_Allocate<std::basic_string<wchar_t,std::char_traits<wchar_t>,std::allocator<wchar_t> > * __ptr64>, COMDAT

; 36   : 	{	// check for integer overflow

$LN13:
	sub	rsp, 72					; 00000048H

; 37   : 	if (_Count <= 0)
; 38   : 		_Count = 0;
; 39   : 	else if (((_SIZT)(-1) / _Count) < sizeof (_Ty))

	xor	edx, edx
	or	rax, -1
	div	rcx
	cmp	rax, 8
	jae	SHORT $LN1@Allocate

; 40   : 		_THROW_NCEE(std::bad_alloc, NULL);

	lea	rdx, QWORD PTR $T146191[rsp]
	lea	rcx, QWORD PTR $T146183[rsp]
	mov	QWORD PTR $T146191[rsp], 0
	call	QWORD PTR __imp_??0exception@std@@QEAA@AEBQEBD@Z
	lea	r11, OFFSET FLAT:??_7bad_alloc@std@@6B@
	lea	rdx, OFFSET FLAT:_TI2?AVbad_alloc@std@@
	lea	rcx, QWORD PTR $T146183[rsp]
	mov	QWORD PTR $T146183[rsp], r11
	call	_CxxThrowException
	int	3
$LN1@Allocate:

; 41   : 
; 42   : 		// allocate storage for _Count elements of type _Ty
; 43   : 	return ((_Ty _FARQ *)::operator new(_Count * sizeof (_Ty)));

	shl	rcx, 3

; 44   : 	}

	add	rsp, 72					; 00000048H
	jmp	??2@YAPEAX_K@Z				; operator new
$LN12@Allocate:
??$_Allocate@PEAV?$basic_string@_WU?$char_traits@_W@std@@V?$allocator@_W@2@@std@@@std@@YAPEAPEAV?$basic_string@_WU?$char_traits@_W@std@@V?$allocator@_W@2@@0@_KPEAPEAV10@@Z ENDP ; std::_Allocate<std::basic_string<wchar_t,std::char_traits<wchar_t>,std::allocator<wchar_t> > * __ptr64>
_TEXT	ENDS
;	COMDAT pdata
; File c:\program files\microsoft visual studio 9.0\vc\include\exception
pdata	SEGMENT
$pdata$??$_Allocate@PEA_W@std@@YAPEAPEA_W_KPEAPEA_W@Z DD imagerel $LN13
	DD	imagerel $LN13+87
	DD	imagerel $unwind$??$_Allocate@PEA_W@std@@YAPEAPEA_W_KPEAPEA_W@Z
pdata	ENDS
;	COMDAT xdata
xdata	SEGMENT
$unwind$??$_Allocate@PEA_W@std@@YAPEAPEA_W_KPEAPEA_W@Z DD 010401H
	DD	08204H
; Function compile flags: /Ogtpy
; File c:\program files\microsoft visual studio 9.0\vc\include\xmemory
xdata	ENDS
;	COMDAT ??$_Allocate@PEA_W@std@@YAPEAPEA_W_KPEAPEA_W@Z
_TEXT	SEGMENT
$T146204 = 32
$T146212 = 80
_Count$ = 80
??$_Allocate@PEA_W@std@@YAPEAPEA_W_KPEAPEA_W@Z PROC	; std::_Allocate<wchar_t * __ptr64>, COMDAT

; 36   : 	{	// check for integer overflow

$LN13:
	sub	rsp, 72					; 00000048H

; 37   : 	if (_Count <= 0)
; 38   : 		_Count = 0;
; 39   : 	else if (((_SIZT)(-1) / _Count) < sizeof (_Ty))

	xor	edx, edx
	or	rax, -1
	div	rcx
	cmp	rax, 8
	jae	SHORT $LN1@Allocate@2

; 40   : 		_THROW_NCEE(std::bad_alloc, NULL);

	lea	rdx, QWORD PTR $T146212[rsp]
	lea	rcx, QWORD PTR $T146204[rsp]
	mov	QWORD PTR $T146212[rsp], 0
	call	QWORD PTR __imp_??0exception@std@@QEAA@AEBQEBD@Z
	lea	r11, OFFSET FLAT:??_7bad_alloc@std@@6B@
	lea	rdx, OFFSET FLAT:_TI2?AVbad_alloc@std@@
	lea	rcx, QWORD PTR $T146204[rsp]
	mov	QWORD PTR $T146204[rsp], r11
	call	_CxxThrowException
	int	3
$LN1@Allocate@2:

; 41   : 
; 42   : 		// allocate storage for _Count elements of type _Ty
; 43   : 	return ((_Ty _FARQ *)::operator new(_Count * sizeof (_Ty)));

	shl	rcx, 3

; 44   : 	}

	add	rsp, 72					; 00000048H
	jmp	??2@YAPEAX_K@Z				; operator new
$LN12@Allocate@2:
??$_Allocate@PEA_W@std@@YAPEAPEA_W_KPEAPEA_W@Z ENDP	; std::_Allocate<wchar_t * __ptr64>
_TEXT	ENDS
;	COMDAT pdata
; File c:\program files\microsoft visual studio 9.0\vc\include\new
pdata	SEGMENT
$pdata$??$_Construct@V?$basic_string@_WU?$char_traits@_W@std@@V?$allocator@_W@2@@std@@V12@@std@@YAXPEAV?$basic_string@_WU?$char_traits@_W@std@@V?$allocator@_W@2@@0@AEBV10@@Z DD imagerel $LN9
	DD	imagerel $LN9+42
	DD	imagerel $unwind$??$_Construct@V?$basic_string@_WU?$char_traits@_W@std@@V?$allocator@_W@2@@std@@V12@@std@@YAXPEAV?$basic_string@_WU?$char_traits@_W@std@@V?$allocator@_W@2@@0@AEBV10@@Z
pdata	ENDS
;	COMDAT pdata
pdata	SEGMENT
$pdata$?dtor$0@?0???$_Construct@V?$basic_string@_WU?$char_traits@_W@std@@V?$allocator@_W@2@@std@@V12@@std@@YAXPEAV?$basic_string@_WU?$char_traits@_W@std@@V?$allocator@_W@2@@0@AEBV10@@Z@4HA DD imagerel ?dtor$0@?0???$_Construct@V?$basic_string@_WU?$char_traits@_W@std@@V?$allocator@_W@2@@std@@V12@@std@@YAXPEAV?$basic_string@_WU?$char_traits@_W@std@@V?$allocator@_W@2@@0@AEBV10@@Z@4HA
	DD	imagerel ?dtor$0@?0???$_Construct@V?$basic_string@_WU?$char_traits@_W@std@@V?$allocator@_W@2@@std@@V12@@std@@YAXPEAV?$basic_string@_WU?$char_traits@_W@std@@V?$allocator@_W@2@@0@AEBV10@@Z@4HA+28
	DD	imagerel $unwind$?dtor$0@?0???$_Construct@V?$basic_string@_WU?$char_traits@_W@std@@V?$allocator@_W@2@@std@@V12@@std@@YAXPEAV?$basic_string@_WU?$char_traits@_W@std@@V?$allocator@_W@2@@0@AEBV10@@Z@4HA
pdata	ENDS
;	COMDAT xdata
xdata	SEGMENT
$ip2state$??$_Construct@V?$basic_string@_WU?$char_traits@_W@std@@V?$allocator@_W@2@@std@@V12@@std@@YAXPEAV?$basic_string@_WU?$char_traits@_W@std@@V?$allocator@_W@2@@0@AEBV10@@Z DD imagerel ??$_Construct@V?$basic_string@_WU?$char_traits@_W@std@@V?$allocator@_W@2@@std@@V12@@std@@YAXPEAV?$basic_string@_WU?$char_traits@_W@std@@V?$allocator@_W@2@@0@AEBV10@@Z
	DD	0ffffffffH
	DD	imagerel ??$_Construct@V?$basic_string@_WU?$char_traits@_W@std@@V?$allocator@_W@2@@std@@V12@@std@@YAXPEAV?$basic_string@_WU?$char_traits@_W@std@@V?$allocator@_W@2@@0@AEBV10@@Z+23
	DD	00H
	DD	imagerel ??$_Construct@V?$basic_string@_WU?$char_traits@_W@std@@V?$allocator@_W@2@@std@@V12@@std@@YAXPEAV?$basic_string@_WU?$char_traits@_W@std@@V?$allocator@_W@2@@0@AEBV10@@Z+35
	DD	0ffffffffH
xdata	ENDS
;	COMDAT xdata
xdata	SEGMENT
$unwind$?dtor$0@?0???$_Construct@V?$basic_string@_WU?$char_traits@_W@std@@V?$allocator@_W@2@@std@@V12@@std@@YAXPEAV?$basic_string@_WU?$char_traits@_W@std@@V?$allocator@_W@2@@0@AEBV10@@Z@4HA DD 020601H
	DD	050023206H
xdata	ENDS
;	COMDAT xdata
xdata	SEGMENT
$unwind$??$_Construct@V?$basic_string@_WU?$char_traits@_W@std@@V?$allocator@_W@2@@std@@V12@@std@@YAXPEAV?$basic_string@_WU?$char_traits@_W@std@@V?$allocator@_W@2@@0@AEBV10@@Z DD 010d11H
	DD	06204H
	DD	imagerel __CxxFrameHandler3
	DD	imagerel $cppxdata$??$_Construct@V?$basic_string@_WU?$char_traits@_W@std@@V?$allocator@_W@2@@std@@V12@@std@@YAXPEAV?$basic_string@_WU?$char_traits@_W@std@@V?$allocator@_W@2@@0@AEBV10@@Z
xdata	ENDS
;	COMDAT CONST
CONST	SEGMENT
$cppxdata$??$_Construct@V?$basic_string@_WU?$char_traits@_W@std@@V?$allocator@_W@2@@std@@V12@@std@@YAXPEAV?$basic_string@_WU?$char_traits@_W@std@@V?$allocator@_W@2@@0@AEBV10@@Z DD 019930522H
	DD	01H
	DD	imagerel $stateUnwindMap$??$_Construct@V?$basic_string@_WU?$char_traits@_W@std@@V?$allocator@_W@2@@std@@V12@@std@@YAXPEAV?$basic_string@_WU?$char_traits@_W@std@@V?$allocator@_W@2@@0@AEBV10@@Z
	DD	00H
	DD	00H
	DD	03H
	DD	imagerel $ip2state$??$_Construct@V?$basic_string@_WU?$char_traits@_W@std@@V?$allocator@_W@2@@std@@V12@@std@@YAXPEAV?$basic_string@_WU?$char_traits@_W@std@@V?$allocator@_W@2@@0@AEBV10@@Z
	DD	020H
	DD	00H
	DD	01H
CONST	ENDS
;	COMDAT xdata
xdata	SEGMENT
$stateUnwindMap$??$_Construct@V?$basic_string@_WU?$char_traits@_W@std@@V?$allocator@_W@2@@std@@V12@@std@@YAXPEAV?$basic_string@_WU?$char_traits@_W@std@@V?$allocator@_W@2@@0@AEBV10@@Z DD 0ffffffffH
	DD	imagerel ?dtor$0@?0???$_Construct@V?$basic_string@_WU?$char_traits@_W@std@@V?$allocator@_W@2@@std@@V12@@std@@YAXPEAV?$basic_string@_WU?$char_traits@_W@std@@V?$allocator@_W@2@@0@AEBV10@@Z@4HA
; Function compile flags: /Ogtpy
; File c:\program files\microsoft visual studio 9.0\vc\include\xmemory
xdata	ENDS
;	COMDAT ??$_Construct@V?$basic_string@_WU?$char_traits@_W@std@@V?$allocator@_W@2@@std@@V12@@std@@YAXPEAV?$basic_string@_WU?$char_traits@_W@std@@V?$allocator@_W@2@@0@AEBV10@@Z
_TEXT	SEGMENT
$T146240 = 32
_Vptr$ = 64
_Ptr$ = 64
_Val$ = 72
$T146226 = 80
??$_Construct@V?$basic_string@_WU?$char_traits@_W@std@@V?$allocator@_W@2@@std@@V12@@std@@YAXPEAV?$basic_string@_WU?$char_traits@_W@std@@V?$allocator@_W@2@@0@AEBV10@@Z PROC ; std::_Construct<std::basic_string<wchar_t,std::char_traits<wchar_t>,std::allocator<wchar_t> >,std::basic_string<wchar_t,std::char_traits<wchar_t>,std::allocator<wchar_t> > >, COMDAT

; 50   : 	{	// construct object at _Ptr with value _Val

$LN9:
	sub	rsp, 56					; 00000038H
	mov	QWORD PTR $T146240[rsp], -2

; 51   : 	void _FARQ *_Vptr = _Ptr;

	mov	QWORD PTR _Vptr$[rsp], rcx

; 52   : 	::new (_Vptr) _T1(_Val);

	mov	QWORD PTR $T146226[rsp], rcx
	test	rcx, rcx
	je	SHORT $LN8@Construct
	call	QWORD PTR __imp_??0?$basic_string@_WU?$char_traits@_W@std@@V?$allocator@_W@2@@std@@QEAA@AEBV01@@Z
	npad	1
	jmp	SHORT $LN3@Construct
$LN8@Construct:
$LN3@Construct:

; 53   : 	}

	add	rsp, 56					; 00000038H
	ret	0
??$_Construct@V?$basic_string@_WU?$char_traits@_W@std@@V?$allocator@_W@2@@std@@V12@@std@@YAXPEAV?$basic_string@_WU?$char_traits@_W@std@@V?$allocator@_W@2@@0@AEBV10@@Z ENDP ; std::_Construct<std::basic_string<wchar_t,std::char_traits<wchar_t>,std::allocator<wchar_t> >,std::basic_string<wchar_t,std::char_traits<wchar_t>,std::allocator<wchar_t> > >
; Function compile flags: /Ogtpy
_TEXT	ENDS
;	COMDAT text$x
text$x	SEGMENT
$T146240 = 32
_Vptr$ = 64
_Ptr$ = 64
_Val$ = 72
$T146226 = 80
?dtor$0@?0???$_Construct@V?$basic_string@_WU?$char_traits@_W@std@@V?$allocator@_W@2@@std@@V12@@std@@YAXPEAV?$basic_string@_WU?$char_traits@_W@std@@V?$allocator@_W@2@@0@AEBV10@@Z@4HA PROC ; `std::_Construct<std::basic_string<wchar_t,std::char_traits<wchar_t>,std::allocator<wchar_t> >,std::basic_string<wchar_t,std::char_traits<wchar_t>,std::allocator<wchar_t> > >'::`1'::dtor$0
	push	rbp
	sub	rsp, 32					; 00000020H
	mov	rbp, rdx
	mov	rdx, QWORD PTR _Vptr$[rbp]
	mov	rcx, QWORD PTR $T146226[rbp]
	call	??3@YAXPEAX0@Z				; operator delete
	add	rsp, 32					; 00000020H
	pop	rbp
	ret	0
?dtor$0@?0???$_Construct@V?$basic_string@_WU?$char_traits@_W@std@@V?$allocator@_W@2@@std@@V12@@std@@YAXPEAV?$basic_string@_WU?$char_traits@_W@std@@V?$allocator@_W@2@@0@AEBV10@@Z@4HA ENDP ; `std::_Construct<std::basic_string<wchar_t,std::char_traits<wchar_t>,std::allocator<wchar_t> >,std::basic_string<wchar_t,std::char_traits<wchar_t>,std::allocator<wchar_t> > >'::`1'::dtor$0
text$x	ENDS
;	COMDAT pdata
; File c:\program files\microsoft visual studio 9.0\vc\include\exception
pdata	SEGMENT
$pdata$??$_Allocate@V?$basic_string@_WU?$char_traits@_W@std@@V?$allocator@_W@2@@std@@@std@@YAPEAV?$basic_string@_WU?$char_traits@_W@std@@V?$allocator@_W@2@@0@_KPEAV10@@Z DD imagerel $LN13
	DD	imagerel $LN13+91
	DD	imagerel $unwind$??$_Allocate@V?$basic_string@_WU?$char_traits@_W@std@@V?$allocator@_W@2@@std@@@std@@YAPEAV?$basic_string@_WU?$char_traits@_W@std@@V?$allocator@_W@2@@0@_KPEAV10@@Z
pdata	ENDS
;	COMDAT xdata
xdata	SEGMENT
$unwind$??$_Allocate@V?$basic_string@_WU?$char_traits@_W@std@@V?$allocator@_W@2@@std@@@std@@YAPEAV?$basic_string@_WU?$char_traits@_W@std@@V?$allocator@_W@2@@0@_KPEAV10@@Z DD 010401H
	DD	08204H
; Function compile flags: /Ogtpy
; File c:\program files\microsoft visual studio 9.0\vc\include\xmemory
xdata	ENDS
;	COMDAT ??$_Allocate@V?$basic_string@_WU?$char_traits@_W@std@@V?$allocator@_W@2@@std@@@std@@YAPEAV?$basic_string@_WU?$char_traits@_W@std@@V?$allocator@_W@2@@0@_KPEAV10@@Z
_TEXT	SEGMENT
$T146260 = 32
$T146268 = 80
_Count$ = 80
??$_Allocate@V?$basic_string@_WU?$char_traits@_W@std@@V?$allocator@_W@2@@std@@@std@@YAPEAV?$basic_string@_WU?$char_traits@_W@std@@V?$allocator@_W@2@@0@_KPEAV10@@Z PROC ; std::_Allocate<std::basic_string<wchar_t,std::char_traits<wchar_t>,std::allocator<wchar_t> > >, COMDAT

; 36   : 	{	// check for integer overflow

$LN13:
	sub	rsp, 72					; 00000048H

; 37   : 	if (_Count <= 0)
; 38   : 		_Count = 0;
; 39   : 	else if (((_SIZT)(-1) / _Count) < sizeof (_Ty))

	xor	edx, edx
	or	rax, -1
	div	rcx
	cmp	rax, 40					; 00000028H
	jae	SHORT $LN1@Allocate@3

; 40   : 		_THROW_NCEE(std::bad_alloc, NULL);

	lea	rdx, QWORD PTR $T146268[rsp]
	lea	rcx, QWORD PTR $T146260[rsp]
	mov	QWORD PTR $T146268[rsp], 0
	call	QWORD PTR __imp_??0exception@std@@QEAA@AEBQEBD@Z
	lea	r11, OFFSET FLAT:??_7bad_alloc@std@@6B@
	lea	rdx, OFFSET FLAT:_TI2?AVbad_alloc@std@@
	lea	rcx, QWORD PTR $T146260[rsp]
	mov	QWORD PTR $T146260[rsp], r11
	call	_CxxThrowException
	int	3
$LN1@Allocate@3:

; 41   : 
; 42   : 		// allocate storage for _Count elements of type _Ty
; 43   : 	return ((_Ty _FARQ *)::operator new(_Count * sizeof (_Ty)));

	lea	rcx, QWORD PTR [rcx+rcx*4]
	shl	rcx, 3

; 44   : 	}

	add	rsp, 72					; 00000048H
	jmp	??2@YAPEAX_K@Z				; operator new
$LN12@Allocate@3:
??$_Allocate@V?$basic_string@_WU?$char_traits@_W@std@@V?$allocator@_W@2@@std@@@std@@YAPEAV?$basic_string@_WU?$char_traits@_W@std@@V?$allocator@_W@2@@0@_KPEAV10@@Z ENDP ; std::_Allocate<std::basic_string<wchar_t,std::char_traits<wchar_t>,std::allocator<wchar_t> > >
; Function compile flags: /Ogtpy
; File c:\program files\microsoft visual studio 9.0\vc\include\memory
_TEXT	ENDS
;	COMDAT ??$unchecked_uninitialized_fill_n@PEAPEAV?$basic_string@_WU?$char_traits@_W@std@@V?$allocator@_W@2@@std@@_KPEAV12@V?$allocator@PEAV?$basic_string@_WU?$char_traits@_W@std@@V?$allocator@_W@2@@std@@@2@@stdext@@YAXPEAPEAV?$basic_string@_WU?$char_traits@_W@std@@V?$allocator@_W@2@@std@@_KAEBQEAV12@AEAV?$allocator@PEAV?$basic_string@_WU?$char_traits@_W@std@@V?$allocator@_W@2@@std@@@2@@Z
_TEXT	SEGMENT
_First$ = 8
_Count$ = 16
_Val$ = 24
_Al$ = 32
??$unchecked_uninitialized_fill_n@PEAPEAV?$basic_string@_WU?$char_traits@_W@std@@V?$allocator@_W@2@@std@@_KPEAV12@V?$allocator@PEAV?$basic_string@_WU?$char_traits@_W@std@@V?$allocator@_W@2@@std@@@2@@stdext@@YAXPEAPEAV?$basic_string@_WU?$char_traits@_W@std@@V?$allocator@_W@2@@std@@_KAEBQEAV12@AEAV?$allocator@PEAV?$basic_string@_WU?$char_traits@_W@std@@V?$allocator@_W@2@@std@@@2@@Z PROC ; stdext::unchecked_uninitialized_fill_n<std::basic_string<wchar_t,std::char_traits<wchar_t>,std::allocator<wchar_t> > * __ptr64 * __ptr64,unsigned __int64,std::basic_string<wchar_t,std::char_traits<wchar_t>,std::allocator<wchar_t> > * __ptr64,std::allocator<std::basic_string<wchar_t,std::char_traits<wchar_t>,std::allocator<wchar_t> > * __ptr64> >, COMDAT

; 941  : 	_STD _Uninit_fill_n(_First, _Count, _Val, _Al,
; 942  : 		_STD _Ptr_cat(_First, _First), _STD _Range_checked_iterator_tag());

	test	rdx, rdx
	je	SHORT $LN17@unchecked_@5
	npad	11
$LL19@unchecked_@5:
	mov	rax, QWORD PTR [r8]
	add	rcx, 8
	sub	rdx, 1
	mov	QWORD PTR [rcx-8], rax
	jne	SHORT $LL19@unchecked_@5
$LN17@unchecked_@5:

; 943  : 	}

	fatret	0
??$unchecked_uninitialized_fill_n@PEAPEAV?$basic_string@_WU?$char_traits@_W@std@@V?$allocator@_W@2@@std@@_KPEAV12@V?$allocator@PEAV?$basic_string@_WU?$char_traits@_W@std@@V?$allocator@_W@2@@std@@@2@@stdext@@YAXPEAPEAV?$basic_string@_WU?$char_traits@_W@std@@V?$allocator@_W@2@@std@@_KAEBQEAV12@AEAV?$allocator@PEAV?$basic_string@_WU?$char_traits@_W@std@@V?$allocator@_W@2@@std@@@2@@Z ENDP ; stdext::unchecked_uninitialized_fill_n<std::basic_string<wchar_t,std::char_traits<wchar_t>,std::allocator<wchar_t> > * __ptr64 * __ptr64,unsigned __int64,std::basic_string<wchar_t,std::char_traits<wchar_t>,std::allocator<wchar_t> > * __ptr64,std::allocator<std::basic_string<wchar_t,std::char_traits<wchar_t>,std::allocator<wchar_t> > * __ptr64> >
; Function compile flags: /Ogtpy
_TEXT	ENDS
;	COMDAT ??$unchecked_uninitialized_fill_n@PEAPEA_W_KPEA_WV?$allocator@PEA_W@std@@@stdext@@YAXPEAPEA_W_KAEBQEA_WAEAV?$allocator@PEA_W@std@@@Z
_TEXT	SEGMENT
_First$ = 8
_Count$ = 16
_Val$ = 24
_Al$ = 32
??$unchecked_uninitialized_fill_n@PEAPEA_W_KPEA_WV?$allocator@PEA_W@std@@@stdext@@YAXPEAPEA_W_KAEBQEA_WAEAV?$allocator@PEA_W@std@@@Z PROC ; stdext::unchecked_uninitialized_fill_n<wchar_t * __ptr64 * __ptr64,unsigned __int64,wchar_t * __ptr64,std::allocator<wchar_t * __ptr64> >, COMDAT

; 941  : 	_STD _Uninit_fill_n(_First, _Count, _Val, _Al,
; 942  : 		_STD _Ptr_cat(_First, _First), _STD _Range_checked_iterator_tag());

	test	rdx, rdx
	je	SHORT $LN17@unchecked_@6
	npad	11
$LL19@unchecked_@6:
	mov	rax, QWORD PTR [r8]
	add	rcx, 8
	sub	rdx, 1
	mov	QWORD PTR [rcx-8], rax
	jne	SHORT $LL19@unchecked_@6
$LN17@unchecked_@6:

; 943  : 	}

	fatret	0
??$unchecked_uninitialized_fill_n@PEAPEA_W_KPEA_WV?$allocator@PEA_W@std@@@stdext@@YAXPEAPEA_W_KAEBQEA_WAEAV?$allocator@PEA_W@std@@@Z ENDP ; stdext::unchecked_uninitialized_fill_n<wchar_t * __ptr64 * __ptr64,unsigned __int64,wchar_t * __ptr64,std::allocator<wchar_t * __ptr64> >
_TEXT	ENDS
;	COMDAT pdata
; File c:\program files\microsoft visual studio 9.0\vc\include\ios
pdata	SEGMENT
$pdata$??$?6_WU?$char_traits@_W@std@@@std@@YAAEAV?$basic_ostream@_WU?$char_traits@_W@std@@@0@AEAV10@_W@Z DD imagerel $LN96
	DD	imagerel $LN96+491
	DD	imagerel $unwind$??$?6_WU?$char_traits@_W@std@@@std@@YAAEAV?$basic_ostream@_WU?$char_traits@_W@std@@@0@AEAV10@_W@Z
pdata	ENDS
;	COMDAT pdata
pdata	SEGMENT
$pdata$?dtor$1@?0???$?6_WU?$char_traits@_W@std@@@std@@YAAEAV?$basic_ostream@_WU?$char_traits@_W@std@@@0@AEAV10@_W@Z@4HA DD imagerel ?dtor$1@?0???$?6_WU?$char_traits@_W@std@@@std@@YAAEAV?$basic_ostream@_WU?$char_traits@_W@std@@@0@AEAV10@_W@Z@4HA
	DD	imagerel ?dtor$1@?0???$?6_WU?$char_traits@_W@std@@@std@@YAAEAV?$basic_ostream@_WU?$char_traits@_W@std@@@0@AEAV10@_W@Z@4HA+24
	DD	imagerel $unwind$?dtor$1@?0???$?6_WU?$char_traits@_W@std@@@std@@YAAEAV?$basic_ostream@_WU?$char_traits@_W@std@@@0@AEAV10@_W@Z@4HA
pdata	ENDS
;	COMDAT pdata
pdata	SEGMENT
$pdata$?dtor$0@?0???$?6_WU?$char_traits@_W@std@@@std@@YAAEAV?$basic_ostream@_WU?$char_traits@_W@std@@@0@AEAV10@_W@Z@4HA DD imagerel ?dtor$0@?0???$?6_WU?$char_traits@_W@std@@@std@@YAAEAV?$basic_ostream@_WU?$char_traits@_W@std@@@0@AEAV10@_W@Z@4HA
	DD	imagerel ?dtor$0@?0???$?6_WU?$char_traits@_W@std@@@std@@YAAEAV?$basic_ostream@_WU?$char_traits@_W@std@@@0@AEAV10@_W@Z@4HA+24
	DD	imagerel $unwind$?dtor$0@?0???$?6_WU?$char_traits@_W@std@@@std@@YAAEAV?$basic_ostream@_WU?$char_traits@_W@std@@@0@AEAV10@_W@Z@4HA
pdata	ENDS
;	COMDAT pdata
pdata	SEGMENT
$pdata$?catch$0@?0???$?6_WU?$char_traits@_W@std@@@std@@YAAEAV?$basic_ostream@_WU?$char_traits@_W@std@@@0@AEAV10@_W@Z@4HA DD imagerel ?catch$0@?0???$?6_WU?$char_traits@_W@std@@@std@@YAAEAV?$basic_ostream@_WU?$char_traits@_W@std@@@0@AEAV10@_W@Z@4HA
	DD	imagerel ?catch$0@?0???$?6_WU?$char_traits@_W@std@@@std@@YAAEAV?$basic_ostream@_WU?$char_traits@_W@std@@@0@AEAV10@_W@Z@4HA+62
	DD	imagerel $unwind$?catch$0@?0???$?6_WU?$char_traits@_W@std@@@std@@YAAEAV?$basic_ostream@_WU?$char_traits@_W@std@@@0@AEAV10@_W@Z@4HA
pdata	ENDS
;	COMDAT pdata
pdata	SEGMENT
$pdata$?dtor$2@?0???$?6_WU?$char_traits@_W@std@@@std@@YAAEAV?$basic_ostream@_WU?$char_traits@_W@std@@@0@AEAV10@_W@Z@4HA DD imagerel ?dtor$2@?0???$?6_WU?$char_traits@_W@std@@@std@@YAAEAV?$basic_ostream@_WU?$char_traits@_W@std@@@0@AEAV10@_W@Z@4HA
	DD	imagerel ?dtor$2@?0???$?6_WU?$char_traits@_W@std@@@std@@YAAEAV?$basic_ostream@_WU?$char_traits@_W@std@@@0@AEAV10@_W@Z@4HA+24
	DD	imagerel $unwind$?dtor$2@?0???$?6_WU?$char_traits@_W@std@@@std@@YAAEAV?$basic_ostream@_WU?$char_traits@_W@std@@@0@AEAV10@_W@Z@4HA
pdata	ENDS
;	COMDAT xdata
xdata	SEGMENT
$ip2state$??$?6_WU?$char_traits@_W@std@@@std@@YAAEAV?$basic_ostream@_WU?$char_traits@_W@std@@@0@AEAV10@_W@Z DD imagerel ??$?6_WU?$char_traits@_W@std@@@std@@YAAEAV?$basic_ostream@_WU?$char_traits@_W@std@@@0@AEAV10@_W@Z
	DD	0ffffffffH
	DD	imagerel ??$?6_WU?$char_traits@_W@std@@@std@@YAAEAV?$basic_ostream@_WU?$char_traits@_W@std@@@0@AEAV10@_W@Z+84
	DD	00H
	DD	imagerel ??$?6_WU?$char_traits@_W@std@@@std@@YAAEAV?$basic_ostream@_WU?$char_traits@_W@std@@@0@AEAV10@_W@Z+133
	DD	01H
	DD	imagerel ??$?6_WU?$char_traits@_W@std@@@std@@YAAEAV?$basic_ostream@_WU?$char_traits@_W@std@@@0@AEAV10@_W@Z+159
	DD	02H
	DD	imagerel ??$?6_WU?$char_traits@_W@std@@@std@@YAAEAV?$basic_ostream@_WU?$char_traits@_W@std@@@0@AEAV10@_W@Z+356
	DD	01H
	DD	imagerel ??$?6_WU?$char_traits@_W@std@@@std@@YAAEAV?$basic_ostream@_WU?$char_traits@_W@std@@@0@AEAV10@_W@Z+413
	DD	04H
	DD	imagerel ??$?6_WU?$char_traits@_W@std@@@std@@YAAEAV?$basic_ostream@_WU?$char_traits@_W@std@@@0@AEAV10@_W@Z+433
	DD	0ffffffffH
	DD	imagerel ?catch$0@?0???$?6_WU?$char_traits@_W@std@@@std@@YAAEAV?$basic_ostream@_WU?$char_traits@_W@std@@@0@AEAV10@_W@Z@4HA
	DD	00H
	DD	imagerel ?catch$0@?0???$?6_WU?$char_traits@_W@std@@@std@@YAAEAV?$basic_ostream@_WU?$char_traits@_W@std@@@0@AEAV10@_W@Z@4HA+15
	DD	03H
	DD	imagerel ?catch$0@?0???$?6_WU?$char_traits@_W@std@@@std@@YAAEAV?$basic_ostream@_WU?$char_traits@_W@std@@@0@AEAV10@_W@Z@4HA+44
	DD	00H
xdata	ENDS
;	COMDAT xdata
xdata	SEGMENT
$unwind$?dtor$2@?0???$?6_WU?$char_traits@_W@std@@@std@@YAAEAV?$basic_ostream@_WU?$char_traits@_W@std@@@0@AEAV10@_W@Z@4HA DD 020601H
	DD	050023206H
xdata	ENDS
;	COMDAT xdata
xdata	SEGMENT
$unwind$?catch$0@?0???$?6_WU?$char_traits@_W@std@@@std@@YAAEAV?$basic_ostream@_WU?$char_traits@_W@std@@@0@AEAV10@_W@Z@4HA DD 030c19H
	DD	0c008420cH
	DD	05006H
	DD	imagerel __CxxFrameHandler3
	DD	imagerel $cppxdata$??$?6_WU?$char_traits@_W@std@@@std@@YAAEAV?$basic_ostream@_WU?$char_traits@_W@std@@@0@AEAV10@_W@Z
xdata	ENDS
;	COMDAT xdata
xdata	SEGMENT
$unwind$?dtor$0@?0???$?6_WU?$char_traits@_W@std@@@std@@YAAEAV?$basic_ostream@_WU?$char_traits@_W@std@@@0@AEAV10@_W@Z@4HA DD 020601H
	DD	050023206H
xdata	ENDS
;	COMDAT xdata
xdata	SEGMENT
$unwind$?dtor$1@?0???$?6_WU?$char_traits@_W@std@@@std@@YAAEAV?$basic_ostream@_WU?$char_traits@_W@std@@@0@AEAV10@_W@Z@4HA DD 020601H
	DD	050023206H
xdata	ENDS
;	COMDAT xdata
xdata	SEGMENT
$unwind$??$?6_WU?$char_traits@_W@std@@@std@@YAAEAV?$basic_ostream@_WU?$char_traits@_W@std@@@0@AEAV10@_W@Z DD 0a2519H
	DD	0116425H
	DD	0f3421H
	DD	0f0107214H
	DD	0d00ce00eH
	DD	07008c00aH
	DD	imagerel __CxxFrameHandler3
	DD	imagerel $cppxdata$??$?6_WU?$char_traits@_W@std@@@std@@YAAEAV?$basic_ostream@_WU?$char_traits@_W@std@@@0@AEAV10@_W@Z
xdata	ENDS
;	COMDAT CONST
CONST	SEGMENT
$cppxdata$??$?6_WU?$char_traits@_W@std@@@std@@YAAEAV?$basic_ostream@_WU?$char_traits@_W@std@@@0@AEAV10@_W@Z DD 019930522H
	DD	05H
	DD	imagerel $stateUnwindMap$??$?6_WU?$char_traits@_W@std@@@std@@YAAEAV?$basic_ostream@_WU?$char_traits@_W@std@@@0@AEAV10@_W@Z
	DD	01H
	DD	imagerel $tryMap$??$?6_WU?$char_traits@_W@std@@@std@@YAAEAV?$basic_ostream@_WU?$char_traits@_W@std@@@0@AEAV10@_W@Z
	DD	0aH
	DD	imagerel $ip2state$??$?6_WU?$char_traits@_W@std@@@std@@YAAEAV?$basic_ostream@_WU?$char_traits@_W@std@@@0@AEAV10@_W@Z
	DD	020H
	DD	00H
	DD	01H
CONST	ENDS
;	COMDAT xdata
xdata	SEGMENT
$tryMap$??$?6_WU?$char_traits@_W@std@@@std@@YAAEAV?$basic_ostream@_WU?$char_traits@_W@std@@@0@AEAV10@_W@Z DD 02H
	DD	02H
	DD	03H
	DD	01H
	DD	imagerel $handlerMap$0$??$?6_WU?$char_traits@_W@std@@@std@@YAAEAV?$basic_ostream@_WU?$char_traits@_W@std@@@0@AEAV10@_W@Z
xdata	ENDS
;	COMDAT xdata
xdata	SEGMENT
$handlerMap$0$??$?6_WU?$char_traits@_W@std@@@std@@YAAEAV?$basic_ostream@_WU?$char_traits@_W@std@@@0@AEAV10@_W@Z DD 040H
	DD	00H
	DD	00H
	DD	imagerel ?catch$0@?0???$?6_WU?$char_traits@_W@std@@@std@@YAAEAV?$basic_ostream@_WU?$char_traits@_W@std@@@0@AEAV10@_W@Z@4HA
	DD	048H
xdata	ENDS
;	COMDAT xdata
xdata	SEGMENT
$stateUnwindMap$??$?6_WU?$char_traits@_W@std@@@std@@YAAEAV?$basic_ostream@_WU?$char_traits@_W@std@@@0@AEAV10@_W@Z DD 0ffffffffH
	DD	imagerel ?dtor$1@?0???$?6_WU?$char_traits@_W@std@@@std@@YAAEAV?$basic_ostream@_WU?$char_traits@_W@std@@@0@AEAV10@_W@Z@4HA
	DD	0ffffffffH
	DD	imagerel ?dtor$0@?0???$?6_WU?$char_traits@_W@std@@@std@@YAAEAV?$basic_ostream@_WU?$char_traits@_W@std@@@0@AEAV10@_W@Z@4HA
	DD	01H
	DD	00H
	DD	01H
	DD	00H
	DD	0ffffffffH
	DD	imagerel ?dtor$2@?0???$?6_WU?$char_traits@_W@std@@@std@@YAAEAV?$basic_ostream@_WU?$char_traits@_W@std@@@0@AEAV10@_W@Z@4HA
; Function compile flags: /Ogtpy
; File c:\program files\microsoft visual studio 9.0\vc\include\ostream
xdata	ENDS
;	COMDAT ??$?6_WU?$char_traits@_W@std@@@std@@YAAEAV?$basic_ostream@_WU?$char_traits@_W@std@@@0@AEAV10@_W@Z
_TEXT	SEGMENT
$T146697 = 32
_Ok$ = 40
_Ostr$ = 112
_Ch$ = 120
_State$ = 128
??$?6_WU?$char_traits@_W@std@@@std@@YAAEAV?$basic_ostream@_WU?$char_traits@_W@std@@@0@AEAV10@_W@Z PROC ; std::operator<<<wchar_t,std::char_traits<wchar_t> >, COMDAT

; 873  : 	{	// insert a character

$LN96:
	mov	rax, rsp
	mov	QWORD PTR [rax+8], rcx
	push	rdi
	push	r12
	push	r13
	push	r14
	push	r15
	sub	rsp, 64					; 00000040H
	mov	QWORD PTR $T146697[rsp], -2
	mov	QWORD PTR [rax+16], rbx
	mov	QWORD PTR [rax+32], rsi
	movzx	r15d, dx
	mov	rdi, rcx

; 874  : 	typedef basic_ostream<_Elem, _Traits> _Myos;
; 875  : 	ios_base::iostate _State = ios_base::goodbit;

	xor	ebx, ebx
	mov	DWORD PTR _State$[rsp], ebx

; 876  : 	const typename _Myos::sentry _Ok(_Ostr);

	mov	r14, rcx
	mov	QWORD PTR [rax-64], rcx
	mov	rax, QWORD PTR [rcx]
	movsxd	r8, DWORD PTR [rax+4]
	mov	rcx, QWORD PTR [r8+rcx+72]
	test	rcx, rcx
	je	SHORT $LN26@operator
	call	QWORD PTR __imp_?_Lock@?$basic_streambuf@_WU?$char_traits@_W@std@@@std@@QEAAXXZ
	npad	1
$LN26@operator:
	mov	rax, QWORD PTR [rdi]
	movsxd	rcx, DWORD PTR [rax+4]
	cmp	DWORD PTR [rcx+rdi+16], 0
	jne	SHORT $LN22@operator
	mov	rcx, QWORD PTR [rcx+rdi+80]
	test	rcx, rcx
	je	SHORT $LN22@operator
	call	QWORD PTR __imp_?flush@?$basic_ostream@_WU?$char_traits@_W@std@@@std@@QEAAAEAV12@XZ
$LN22@operator:
	mov	rax, QWORD PTR [rdi]
	movsxd	rcx, DWORD PTR [rax+4]
	cmp	DWORD PTR [rcx+rdi+16], 0
	sete	al
	mov	BYTE PTR _Ok$[rsp+8], al

; 877  : 
; 878  : 	if (_Ok)

	test	al, al
	je	$LN20@operator

; 879  : 		{	// state okay, insert
; 880  : 		streamsize _Pad = _Ostr.width() <= 1 ? 0 : _Ostr.width() - 1;

	mov	rsi, QWORD PTR [rcx+rdi+40]
	cmp	rsi, 1
	jg	SHORT $LN15@operator
	xor	esi, esi
	jmp	SHORT $LN16@operator
$LN15@operator:
	dec	rsi
$LN16@operator:

; 881  : 
; 882  : 		_TRY_IO_BEGIN
; 883  : 		if ((_Ostr.flags() & ios_base::adjustfield) != ios_base::left)

	mov	eax, DWORD PTR [rcx+rdi+24]
	and	eax, 448				; 000001c0H
	cmp	eax, 64					; 00000040H
	je	SHORT $LN94@operator
	mov	r12d, 4
	mov	r13d, 65535				; 0000ffffH
	npad	7
$LL9@operator:

; 884  : 			for (; _State == ios_base::goodbit && 0 < _Pad;
; 885  : 				--_Pad)	// pad on left

	test	ebx, ebx
	jne	$LN2@operator
	test	rsi, rsi
	jle	SHORT $LN91@operator

; 886  : 				if (_Traits::eq_int_type(_Traits::eof(),
; 887  : 					_Ostr.rdbuf()->sputc(_Ostr.fill())))

	mov	rax, QWORD PTR [rdi]
	movsxd	rcx, DWORD PTR [rax+4]
	movzx	edx, WORD PTR [rcx+rdi+88]
	mov	rcx, QWORD PTR [rcx+rdi+72]
	call	QWORD PTR __imp_?sputc@?$basic_streambuf@_WU?$char_traits@_W@std@@@std@@QEAAG_W@Z
	cmp	r13w, ax
	cmove	ebx, r12d
	mov	DWORD PTR _State$[rsp], ebx

; 884  : 			for (; _State == ios_base::goodbit && 0 < _Pad;
; 885  : 				--_Pad)	// pad on left

	dec	rsi
	jmp	SHORT $LL9@operator
$LN94@operator:
	mov	r12d, 4
	mov	r13d, 65535				; 0000ffffH
$LN91@operator:

; 888  : 					_State |= ios_base::badbit;
; 889  : 
; 890  : 		if (_State == ios_base::goodbit
; 891  : 			&& _Traits::eq_int_type(_Traits::eof(),
; 892  : 				_Ostr.rdbuf()->sputc(_Ch)))

	mov	rax, QWORD PTR [rdi]
	movsxd	rcx, DWORD PTR [rax+4]
	movzx	edx, r15w
	mov	rcx, QWORD PTR [rcx+rdi+72]
	call	QWORD PTR __imp_?sputc@?$basic_streambuf@_WU?$char_traits@_W@std@@@std@@QEAAG_W@Z
	cmp	r13w, ax
	cmove	ebx, r12d
	mov	DWORD PTR _State$[rsp], ebx
	npad	7
$LL92@operator:

; 893  : 			_State |= ios_base::badbit;
; 894  : 
; 895  : 		for (; _State == ios_base::goodbit && 0 < _Pad;
; 896  : 			--_Pad)	// pad on right

	test	ebx, ebx
	jne	SHORT $LN2@operator
	test	rsi, rsi
	jle	SHORT $LN2@operator

; 897  : 			if (_Traits::eq_int_type(_Traits::eof(),
; 898  : 				_Ostr.rdbuf()->sputc(_Ostr.fill())))

	mov	rax, QWORD PTR [rdi]
	movsxd	rcx, DWORD PTR [rax+4]
	movzx	edx, WORD PTR [rcx+rdi+88]
	mov	rcx, QWORD PTR [rcx+rdi+72]
	call	QWORD PTR __imp_?sputc@?$basic_streambuf@_WU?$char_traits@_W@std@@@std@@QEAAG_W@Z
	cmp	r13w, ax
	cmove	ebx, r12d
	mov	DWORD PTR _State$[rsp], ebx

; 893  : 			_State |= ios_base::badbit;
; 894  : 
; 895  : 		for (; _State == ios_base::goodbit && 0 < _Pad;
; 896  : 			--_Pad)	// pad on right

	dec	rsi
	jmp	SHORT $LL92@operator
$LN2@operator:
	jmp	SHORT $LN20@operator
$LN21@operator:

; 899  : 				_State |= ios_base::badbit;
; 900  : 		_CATCH_IO_(_Ostr)

	mov	rdi, QWORD PTR _Ostr$[rsp]
	mov	ebx, DWORD PTR _State$[rsp]
	mov	r14, QWORD PTR _Ok$[rsp]
$LN20@operator:

; 901  : 		}
; 902  : 
; 903  : 	_Ostr.width(0);

	mov	rax, QWORD PTR [rdi]
	movsxd	rcx, DWORD PTR [rax+4]
	mov	QWORD PTR [rcx+rdi+40], 0

; 904  : 	_Ostr.setstate(_State);

	mov	rax, QWORD PTR [rdi]
	movsxd	rcx, DWORD PTR [rax+4]
	add	rcx, rdi
	xor	r8d, r8d
	mov	edx, ebx
	call	QWORD PTR __imp_?setstate@?$basic_ios@_WU?$char_traits@_W@std@@@std@@QEAAXH_N@Z
	npad	1

; 905  : 	return (_Ostr);

	call	QWORD PTR __imp_?uncaught_exception@std@@YA_NXZ
	test	al, al
	jne	SHORT $LN77@operator
	mov	rcx, r14
	call	QWORD PTR __imp_?_Osfx@?$basic_ostream@_WU?$char_traits@_W@std@@@std@@QEAAXXZ
	npad	1
$LN77@operator:
	mov	rax, QWORD PTR [r14]
	movsxd	rcx, DWORD PTR [rax+4]
	mov	rcx, QWORD PTR [rcx+r14+72]
	test	rcx, rcx
	je	SHORT $LN93@operator
	call	QWORD PTR __imp_?_Unlock@?$basic_streambuf@_WU?$char_traits@_W@std@@@std@@QEAAXXZ
	mov	rax, rdi
	jmp	SHORT $LN81@operator
$LN93@operator:
	mov	rax, rdi
$LN81@operator:

; 906  : 	}

	mov	rbx, QWORD PTR [rsp+120]
	mov	rsi, QWORD PTR [rsp+136]
	add	rsp, 64					; 00000040H
	pop	r15
	pop	r14
	pop	r13
	pop	r12
	pop	rdi
	ret	0
??$?6_WU?$char_traits@_W@std@@@std@@YAAEAV?$basic_ostream@_WU?$char_traits@_W@std@@@0@AEAV10@_W@Z ENDP ; std::operator<<<wchar_t,std::char_traits<wchar_t> >
; Function compile flags: /Ogtpy
_TEXT	ENDS
;	COMDAT text$x
text$x	SEGMENT
$T146697 = 32
_Ok$ = 40
_Ostr$ = 112
_Ch$ = 120
_State$ = 128
?dtor$1@?0???$?6_WU?$char_traits@_W@std@@@std@@YAAEAV?$basic_ostream@_WU?$char_traits@_W@std@@@0@AEAV10@_W@Z@4HA PROC ; `std::operator<<<wchar_t,std::char_traits<wchar_t> >'::`1'::dtor$1
	push	rbp
	sub	rsp, 32					; 00000020H
	mov	rbp, rdx
	lea	rcx, QWORD PTR _Ok$[rbp]
	call	??1_Sentry_base@?$basic_ostream@_WU?$char_traits@_W@std@@@std@@QEAA@XZ ; std::basic_ostream<wchar_t,std::char_traits<wchar_t> >::_Sentry_base::~_Sentry_base
	add	rsp, 32					; 00000020H
	pop	rbp
	ret	0
?dtor$1@?0???$?6_WU?$char_traits@_W@std@@@std@@YAAEAV?$basic_ostream@_WU?$char_traits@_W@std@@@0@AEAV10@_W@Z@4HA ENDP ; `std::operator<<<wchar_t,std::char_traits<wchar_t> >'::`1'::dtor$1
; Function compile flags: /Ogtpy
$T146697 = 32
_Ok$ = 40
_Ostr$ = 112
_Ch$ = 120
_State$ = 128
?dtor$0@?0???$?6_WU?$char_traits@_W@std@@@std@@YAAEAV?$basic_ostream@_WU?$char_traits@_W@std@@@0@AEAV10@_W@Z@4HA PROC ; `std::operator<<<wchar_t,std::char_traits<wchar_t> >'::`1'::dtor$0
	push	rbp
	sub	rsp, 32					; 00000020H
	mov	rbp, rdx
	lea	rcx, QWORD PTR _Ok$[rbp]
	call	??1sentry@?$basic_ostream@_WU?$char_traits@_W@std@@@std@@QEAA@XZ ; std::basic_ostream<wchar_t,std::char_traits<wchar_t> >::sentry::~sentry
	add	rsp, 32					; 00000020H
	pop	rbp
	ret	0
?dtor$0@?0???$?6_WU?$char_traits@_W@std@@@std@@YAAEAV?$basic_ostream@_WU?$char_traits@_W@std@@@0@AEAV10@_W@Z@4HA ENDP ; `std::operator<<<wchar_t,std::char_traits<wchar_t> >'::`1'::dtor$0
; Function compile flags: /Ogtpy
$T146697 = 32
_Ok$ = 40
_Ostr$ = 112
_Ch$ = 120
_State$ = 128
?catch$0@?0???$?6_WU?$char_traits@_W@std@@@std@@YAAEAV?$basic_ostream@_WU?$char_traits@_W@std@@@0@AEAV10@_W@Z@4HA PROC ; `std::operator<<<wchar_t,std::char_traits<wchar_t> >'::`1'::catch$0

; 900  : 		_CATCH_IO_(_Ostr)

	mov	QWORD PTR [rsp+16], rdx
	push	rbp
	push	r12
	sub	rsp, 40					; 00000028H
	mov	rbp, rdx
__catch$??$?6_WU?$char_traits@_W@std@@@std@@YAAEAV?$basic_ostream@_WU?$char_traits@_W@std@@@0@AEAV10@_W@Z$0:
	mov	rdx, QWORD PTR _Ostr$[rbp]
	mov	rax, QWORD PTR [rdx]
	movsxd	rcx, DWORD PTR [rax+4]
	add	rcx, rdx
	mov	r8b, 1
	mov	edx, 4
	call	QWORD PTR __imp_?setstate@?$basic_ios@_WU?$char_traits@_W@std@@@std@@QEAAXH_N@Z
	npad	1
	lea	rax, $LN21@catch$0
	jmp	SHORT $LN95@catch$0
$LN95@catch$0:
	add	rsp, 40					; 00000028H
	pop	r12
	pop	rbp
	ret	0
	int	3
?catch$0@?0???$?6_WU?$char_traits@_W@std@@@std@@YAAEAV?$basic_ostream@_WU?$char_traits@_W@std@@@0@AEAV10@_W@Z@4HA ENDP ; `std::operator<<<wchar_t,std::char_traits<wchar_t> >'::`1'::catch$0
; Function compile flags: /Ogtpy
$T146697 = 32
_Ok$ = 40
_Ostr$ = 112
_Ch$ = 120
_State$ = 128
?dtor$2@?0???$?6_WU?$char_traits@_W@std@@@std@@YAAEAV?$basic_ostream@_WU?$char_traits@_W@std@@@0@AEAV10@_W@Z@4HA PROC ; `std::operator<<<wchar_t,std::char_traits<wchar_t> >'::`1'::dtor$2
	push	rbp
	sub	rsp, 32					; 00000020H

; 873  : 	{	// insert a character

	mov	rbp, rdx
	lea	rcx, QWORD PTR _Ok$[rbp]
	call	??1_Sentry_base@?$basic_ostream@_WU?$char_traits@_W@std@@@std@@QEAA@XZ ; std::basic_ostream<wchar_t,std::char_traits<wchar_t> >::_Sentry_base::~_Sentry_base
	add	rsp, 32					; 00000020H
	pop	rbp
	ret	0
?dtor$2@?0???$?6_WU?$char_traits@_W@std@@@std@@YAAEAV?$basic_ostream@_WU?$char_traits@_W@std@@@0@AEAV10@_W@Z@4HA ENDP ; `std::operator<<<wchar_t,std::char_traits<wchar_t> >'::`1'::dtor$2
text$x	ENDS
;	COMDAT pdata
; File c:\program files\microsoft visual studio 9.0\vc\include\ios
pdata	SEGMENT
$pdata$??$?6_WU?$char_traits@_W@std@@@std@@YAAEAV?$basic_ostream@_WU?$char_traits@_W@std@@@0@AEAV10@PEB_W@Z DD imagerel $LN99
	DD	imagerel $LN99+507
	DD	imagerel $unwind$??$?6_WU?$char_traits@_W@std@@@std@@YAAEAV?$basic_ostream@_WU?$char_traits@_W@std@@@0@AEAV10@PEB_W@Z
pdata	ENDS
;	COMDAT pdata
pdata	SEGMENT
$pdata$?dtor$1@?0???$?6_WU?$char_traits@_W@std@@@std@@YAAEAV?$basic_ostream@_WU?$char_traits@_W@std@@@0@AEAV10@PEB_W@Z@4HA DD imagerel ?dtor$1@?0???$?6_WU?$char_traits@_W@std@@@std@@YAAEAV?$basic_ostream@_WU?$char_traits@_W@std@@@0@AEAV10@PEB_W@Z@4HA
	DD	imagerel ?dtor$1@?0???$?6_WU?$char_traits@_W@std@@@std@@YAAEAV?$basic_ostream@_WU?$char_traits@_W@std@@@0@AEAV10@PEB_W@Z@4HA+24
	DD	imagerel $unwind$?dtor$1@?0???$?6_WU?$char_traits@_W@std@@@std@@YAAEAV?$basic_ostream@_WU?$char_traits@_W@std@@@0@AEAV10@PEB_W@Z@4HA
pdata	ENDS
;	COMDAT pdata
pdata	SEGMENT
$pdata$?dtor$0@?0???$?6_WU?$char_traits@_W@std@@@std@@YAAEAV?$basic_ostream@_WU?$char_traits@_W@std@@@0@AEAV10@PEB_W@Z@4HA DD imagerel ?dtor$0@?0???$?6_WU?$char_traits@_W@std@@@std@@YAAEAV?$basic_ostream@_WU?$char_traits@_W@std@@@0@AEAV10@PEB_W@Z@4HA
	DD	imagerel ?dtor$0@?0???$?6_WU?$char_traits@_W@std@@@std@@YAAEAV?$basic_ostream@_WU?$char_traits@_W@std@@@0@AEAV10@PEB_W@Z@4HA+24
	DD	imagerel $unwind$?dtor$0@?0???$?6_WU?$char_traits@_W@std@@@std@@YAAEAV?$basic_ostream@_WU?$char_traits@_W@std@@@0@AEAV10@PEB_W@Z@4HA
pdata	ENDS
;	COMDAT pdata
pdata	SEGMENT
$pdata$?catch$0@?0???$?6_WU?$char_traits@_W@std@@@std@@YAAEAV?$basic_ostream@_WU?$char_traits@_W@std@@@0@AEAV10@PEB_W@Z@4HA DD imagerel ?catch$0@?0???$?6_WU?$char_traits@_W@std@@@std@@YAAEAV?$basic_ostream@_WU?$char_traits@_W@std@@@0@AEAV10@PEB_W@Z@4HA
	DD	imagerel ?catch$0@?0???$?6_WU?$char_traits@_W@std@@@std@@YAAEAV?$basic_ostream@_WU?$char_traits@_W@std@@@0@AEAV10@PEB_W@Z@4HA+60
	DD	imagerel $unwind$?catch$0@?0???$?6_WU?$char_traits@_W@std@@@std@@YAAEAV?$basic_ostream@_WU?$char_traits@_W@std@@@0@AEAV10@PEB_W@Z@4HA
pdata	ENDS
;	COMDAT pdata
pdata	SEGMENT
$pdata$?dtor$2@?0???$?6_WU?$char_traits@_W@std@@@std@@YAAEAV?$basic_ostream@_WU?$char_traits@_W@std@@@0@AEAV10@PEB_W@Z@4HA DD imagerel ?dtor$2@?0???$?6_WU?$char_traits@_W@std@@@std@@YAAEAV?$basic_ostream@_WU?$char_traits@_W@std@@@0@AEAV10@PEB_W@Z@4HA
	DD	imagerel ?dtor$2@?0???$?6_WU?$char_traits@_W@std@@@std@@YAAEAV?$basic_ostream@_WU?$char_traits@_W@std@@@0@AEAV10@PEB_W@Z@4HA+24
	DD	imagerel $unwind$?dtor$2@?0???$?6_WU?$char_traits@_W@std@@@std@@YAAEAV?$basic_ostream@_WU?$char_traits@_W@std@@@0@AEAV10@PEB_W@Z@4HA
pdata	ENDS
;	COMDAT xdata
xdata	SEGMENT
$ip2state$??$?6_WU?$char_traits@_W@std@@@std@@YAAEAV?$basic_ostream@_WU?$char_traits@_W@std@@@0@AEAV10@PEB_W@Z DD imagerel ??$?6_WU?$char_traits@_W@std@@@std@@YAAEAV?$basic_ostream@_WU?$char_traits@_W@std@@@0@AEAV10@PEB_W@Z
	DD	0ffffffffH
	DD	imagerel ??$?6_WU?$char_traits@_W@std@@@std@@YAAEAV?$basic_ostream@_WU?$char_traits@_W@std@@@0@AEAV10@PEB_W@Z+128
	DD	00H
	DD	imagerel ??$?6_WU?$char_traits@_W@std@@@std@@YAAEAV?$basic_ostream@_WU?$char_traits@_W@std@@@0@AEAV10@PEB_W@Z+177
	DD	01H
	DD	imagerel ??$?6_WU?$char_traits@_W@std@@@std@@YAAEAV?$basic_ostream@_WU?$char_traits@_W@std@@@0@AEAV10@PEB_W@Z+191
	DD	02H
	DD	imagerel ??$?6_WU?$char_traits@_W@std@@@std@@YAAEAV?$basic_ostream@_WU?$char_traits@_W@std@@@0@AEAV10@PEB_W@Z+387
	DD	01H
	DD	imagerel ??$?6_WU?$char_traits@_W@std@@@std@@YAAEAV?$basic_ostream@_WU?$char_traits@_W@std@@@0@AEAV10@PEB_W@Z+428
	DD	04H
	DD	imagerel ??$?6_WU?$char_traits@_W@std@@@std@@YAAEAV?$basic_ostream@_WU?$char_traits@_W@std@@@0@AEAV10@PEB_W@Z+448
	DD	0ffffffffH
	DD	imagerel ?catch$0@?0???$?6_WU?$char_traits@_W@std@@@std@@YAAEAV?$basic_ostream@_WU?$char_traits@_W@std@@@0@AEAV10@PEB_W@Z@4HA
	DD	00H
	DD	imagerel ?catch$0@?0???$?6_WU?$char_traits@_W@std@@@std@@YAAEAV?$basic_ostream@_WU?$char_traits@_W@std@@@0@AEAV10@PEB_W@Z@4HA+14
	DD	03H
	DD	imagerel ?catch$0@?0???$?6_WU?$char_traits@_W@std@@@std@@YAAEAV?$basic_ostream@_WU?$char_traits@_W@std@@@0@AEAV10@PEB_W@Z@4HA+43
	DD	00H
xdata	ENDS
;	COMDAT xdata
xdata	SEGMENT
$unwind$?dtor$2@?0???$?6_WU?$char_traits@_W@std@@@std@@YAAEAV?$basic_ostream@_WU?$char_traits@_W@std@@@0@AEAV10@PEB_W@Z@4HA DD 020601H
	DD	050023206H
xdata	ENDS
;	COMDAT xdata
xdata	SEGMENT
$unwind$?catch$0@?0???$?6_WU?$char_traits@_W@std@@@std@@YAAEAV?$basic_ostream@_WU?$char_traits@_W@std@@@0@AEAV10@PEB_W@Z@4HA DD 030b19H
	DD	05007420bH
	DD	03006H
	DD	imagerel __CxxFrameHandler3
	DD	imagerel $cppxdata$??$?6_WU?$char_traits@_W@std@@@std@@YAAEAV?$basic_ostream@_WU?$char_traits@_W@std@@@0@AEAV10@PEB_W@Z
xdata	ENDS
;	COMDAT xdata
xdata	SEGMENT
$unwind$?dtor$0@?0???$?6_WU?$char_traits@_W@std@@@std@@YAAEAV?$basic_ostream@_WU?$char_traits@_W@std@@@0@AEAV10@PEB_W@Z@4HA DD 020601H
	DD	050023206H
xdata	ENDS
;	COMDAT xdata
xdata	SEGMENT
$unwind$?dtor$1@?0???$?6_WU?$char_traits@_W@std@@@std@@YAAEAV?$basic_ostream@_WU?$char_traits@_W@std@@@0@AEAV10@PEB_W@Z@4HA DD 020601H
	DD	050023206H
xdata	ENDS
;	COMDAT xdata
xdata	SEGMENT
$unwind$??$?6_WU?$char_traits@_W@std@@@std@@YAAEAV?$basic_ostream@_WU?$char_traits@_W@std@@@0@AEAV10@PEB_W@Z DD 0a2819H
	DD	0116428H
	DD	0f3420H
	DD	0f00e7212H
	DD	0d00ae00cH
	DD	07006c008H
	DD	imagerel __CxxFrameHandler3
	DD	imagerel $cppxdata$??$?6_WU?$char_traits@_W@std@@@std@@YAAEAV?$basic_ostream@_WU?$char_traits@_W@std@@@0@AEAV10@PEB_W@Z
xdata	ENDS
;	COMDAT CONST
CONST	SEGMENT
$cppxdata$??$?6_WU?$char_traits@_W@std@@@std@@YAAEAV?$basic_ostream@_WU?$char_traits@_W@std@@@0@AEAV10@PEB_W@Z DD 019930522H
	DD	05H
	DD	imagerel $stateUnwindMap$??$?6_WU?$char_traits@_W@std@@@std@@YAAEAV?$basic_ostream@_WU?$char_traits@_W@std@@@0@AEAV10@PEB_W@Z
	DD	01H
	DD	imagerel $tryMap$??$?6_WU?$char_traits@_W@std@@@std@@YAAEAV?$basic_ostream@_WU?$char_traits@_W@std@@@0@AEAV10@PEB_W@Z
	DD	0aH
	DD	imagerel $ip2state$??$?6_WU?$char_traits@_W@std@@@std@@YAAEAV?$basic_ostream@_WU?$char_traits@_W@std@@@0@AEAV10@PEB_W@Z
	DD	020H
	DD	00H
	DD	01H
CONST	ENDS
;	COMDAT xdata
xdata	SEGMENT
$tryMap$??$?6_WU?$char_traits@_W@std@@@std@@YAAEAV?$basic_ostream@_WU?$char_traits@_W@std@@@0@AEAV10@PEB_W@Z DD 02H
	DD	02H
	DD	03H
	DD	01H
	DD	imagerel $handlerMap$0$??$?6_WU?$char_traits@_W@std@@@std@@YAAEAV?$basic_ostream@_WU?$char_traits@_W@std@@@0@AEAV10@PEB_W@Z
xdata	ENDS
;	COMDAT xdata
xdata	SEGMENT
$handlerMap$0$??$?6_WU?$char_traits@_W@std@@@std@@YAAEAV?$basic_ostream@_WU?$char_traits@_W@std@@@0@AEAV10@PEB_W@Z DD 040H
	DD	00H
	DD	00H
	DD	imagerel ?catch$0@?0???$?6_WU?$char_traits@_W@std@@@std@@YAAEAV?$basic_ostream@_WU?$char_traits@_W@std@@@0@AEAV10@PEB_W@Z@4HA
	DD	048H
xdata	ENDS
;	COMDAT xdata
xdata	SEGMENT
$stateUnwindMap$??$?6_WU?$char_traits@_W@std@@@std@@YAAEAV?$basic_ostream@_WU?$char_traits@_W@std@@@0@AEAV10@PEB_W@Z DD 0ffffffffH
	DD	imagerel ?dtor$1@?0???$?6_WU?$char_traits@_W@std@@@std@@YAAEAV?$basic_ostream@_WU?$char_traits@_W@std@@@0@AEAV10@PEB_W@Z@4HA
	DD	0ffffffffH
	DD	imagerel ?dtor$0@?0???$?6_WU?$char_traits@_W@std@@@std@@YAAEAV?$basic_ostream@_WU?$char_traits@_W@std@@@0@AEAV10@PEB_W@Z@4HA
	DD	01H
	DD	00H
	DD	01H
	DD	00H
	DD	0ffffffffH
	DD	imagerel ?dtor$2@?0???$?6_WU?$char_traits@_W@std@@@std@@YAAEAV?$basic_ostream@_WU?$char_traits@_W@std@@@0@AEAV10@PEB_W@Z@4HA
; Function compile flags: /Ogtpy
; File c:\program files\microsoft visual studio 9.0\vc\include\ostream
xdata	ENDS
;	COMDAT ??$?6_WU?$char_traits@_W@std@@@std@@YAAEAV?$basic_ostream@_WU?$char_traits@_W@std@@@0@AEAV10@PEB_W@Z
_TEXT	SEGMENT
$T146939 = 32
_Ok$ = 40
_Ostr$ = 112
_Val$ = 120
_State$ = 128
??$?6_WU?$char_traits@_W@std@@@std@@YAAEAV?$basic_ostream@_WU?$char_traits@_W@std@@@0@AEAV10@PEB_W@Z PROC ; std::operator<<<wchar_t,std::char_traits<wchar_t> >, COMDAT

; 827  : 	{	// insert NTCS

$LN99:
	mov	QWORD PTR [rsp+8], rcx
	push	rdi
	push	r12
	push	r13
	push	r14
	push	r15
	sub	rsp, 64					; 00000040H
	mov	QWORD PTR $T146939[rsp], -2
	mov	QWORD PTR [rsp+120], rbx
	mov	QWORD PTR [rsp+136], rsi
	mov	r15, rdx
	mov	rsi, rcx

; 828  : 	typedef basic_ostream<_Elem, _Traits> _Myos;
; 829  : 	ios_base::iostate _State = ios_base::goodbit;

	xor	ebx, ebx
	mov	DWORD PTR _State$[rsp], ebx

; 830  : 	streamsize _Count = (streamsize)_Traits::length(_Val);	// may overflow

	xor	eax, eax
	or	rcx, -1
	mov	rdi, rdx
	repne scasw
	not	rcx
	lea	r14, QWORD PTR [rcx-1]

; 831  : 	streamsize _Pad = _Ostr.width() <= 0 || _Ostr.width() <= _Count
; 832  : 		? 0 : _Ostr.width() - _Count;

	mov	rax, QWORD PTR [rsi]
	movsxd	rcx, DWORD PTR [rax+4]
	mov	rdi, QWORD PTR [rcx+rsi+40]
	test	rdi, rdi
	jle	SHORT $LN17@operator@2
	cmp	rdi, r14
	jle	SHORT $LN17@operator@2
	sub	rdi, r14
	jmp	SHORT $LN18@operator@2
$LN17@operator@2:
	xor	edi, edi
$LN18@operator@2:

; 833  : 	const typename _Myos::sentry _Ok(_Ostr);

	mov	r13, rsi
	mov	QWORD PTR _Ok$[rsp], rsi
	mov	rcx, QWORD PTR [rcx+rsi+72]
	test	rcx, rcx
	je	SHORT $LN36@operator@2
	call	QWORD PTR __imp_?_Lock@?$basic_streambuf@_WU?$char_traits@_W@std@@@std@@QEAAXXZ
	npad	1
$LN36@operator@2:
	mov	rax, QWORD PTR [rsi]
	movsxd	rcx, DWORD PTR [rax+4]
	cmp	DWORD PTR [rcx+rsi+16], 0
	jne	SHORT $LN32@operator@2
	mov	rcx, QWORD PTR [rcx+rsi+80]
	test	rcx, rcx
	je	SHORT $LN32@operator@2
	call	QWORD PTR __imp_?flush@?$basic_ostream@_WU?$char_traits@_W@std@@@std@@QEAAAEAV12@XZ
$LN32@operator@2:
	mov	rax, QWORD PTR [rsi]
	movsxd	rcx, DWORD PTR [rax+4]
	cmp	DWORD PTR [rcx+rsi+16], 0
	sete	al
	mov	BYTE PTR _Ok$[rsp+8], al

; 834  : 
; 835  : 	if (!_Ok)

	test	al, al
	jne	SHORT $LN14@operator@2

; 836  : 		_State |= ios_base::badbit;

	mov	ebx, 4

; 837  : 	else

	jmp	$LN22@operator@2
$LN14@operator@2:

; 838  : 		{	// state okay, insert
; 839  : 		_TRY_IO_BEGIN
; 840  : 		if ((_Ostr.flags() & ios_base::adjustfield) != ios_base::left)

	mov	eax, DWORD PTR [rcx+rsi+24]
	and	eax, 448				; 000001c0H
	cmp	eax, 64					; 00000040H
	je	SHORT $LN96@operator@2
	mov	r12d, 65535				; 0000ffffH
$LL10@operator@2:

; 841  : 			for (; 0 < _Pad; --_Pad)	// pad on left

	test	rdi, rdi
	jle	SHORT $LN8@operator@2

; 842  : 				if (_Traits::eq_int_type(_Traits::eof(),
; 843  : 					_Ostr.rdbuf()->sputc(_Ostr.fill())))

	mov	rax, QWORD PTR [rsi]
	movsxd	rcx, DWORD PTR [rax+4]
	movzx	edx, WORD PTR [rcx+rsi+88]
	mov	rcx, QWORD PTR [rcx+rsi+72]
	call	QWORD PTR __imp_?sputc@?$basic_streambuf@_WU?$char_traits@_W@std@@@std@@QEAAG_W@Z
	cmp	r12w, ax
	jne	SHORT $LN9@operator@2

; 844  : 					{	// insertion failed, quit
; 845  : 					_State |= ios_base::badbit;

	or	ebx, 4
	mov	DWORD PTR _State$[rsp], ebx

; 846  : 					break;

	jmp	SHORT $LN8@operator@2
$LN9@operator@2:

; 841  : 			for (; 0 < _Pad; --_Pad)	// pad on left

	dec	rdi
	jmp	SHORT $LL10@operator@2
$LN8@operator@2:

; 847  : 					}
; 848  : 
; 849  : 		if (_State == ios_base::goodbit
; 850  : 			&& _Ostr.rdbuf()->sputn(_Val, _Count) != _Count)

	test	ebx, ebx
	jne	SHORT $LN2@operator@2
	jmp	SHORT $LN92@operator@2
$LN96@operator@2:
	mov	r12d, 65535				; 0000ffffH
$LN92@operator@2:
	mov	rax, QWORD PTR [rsi]
	movsxd	rcx, DWORD PTR [rax+4]
	mov	r8, r14
	mov	rdx, r15
	mov	rcx, QWORD PTR [rcx+rsi+72]
	call	QWORD PTR __imp_?sputn@?$basic_streambuf@_WU?$char_traits@_W@std@@@std@@QEAA_JPEB_W_J@Z
	cmp	rax, r14
	je	SHORT $LL94@operator@2

; 851  : 			_State |= ios_base::badbit;

	mov	ebx, 4
	mov	DWORD PTR _State$[rsp], ebx

; 852  : 
; 853  : 		if (_State == ios_base::goodbit)

	jmp	SHORT $LN2@operator@2
	npad	3
$LL94@operator@2:

; 854  : 			for (; 0 < _Pad; --_Pad)	// pad on right

	test	rdi, rdi
	jle	SHORT $LN2@operator@2

; 855  : 				if (_Traits::eq_int_type(_Traits::eof(),
; 856  : 					_Ostr.rdbuf()->sputc(_Ostr.fill())))

	mov	rax, QWORD PTR [rsi]
	movsxd	rcx, DWORD PTR [rax+4]
	movzx	edx, WORD PTR [rcx+rsi+88]
	mov	rcx, QWORD PTR [rcx+rsi+72]
	call	QWORD PTR __imp_?sputc@?$basic_streambuf@_WU?$char_traits@_W@std@@@std@@QEAAG_W@Z
	cmp	r12w, ax
	jne	SHORT $LN3@operator@2

; 857  : 					{	// insertion failed, quit
; 858  : 					_State |= ios_base::badbit;

	or	ebx, 4
	mov	DWORD PTR _State$[rsp], ebx

; 859  : 					break;

	jmp	SHORT $LN2@operator@2
$LN3@operator@2:

; 854  : 			for (; 0 < _Pad; --_Pad)	// pad on right

	dec	rdi
	jmp	SHORT $LL94@operator@2
$LN2@operator@2:

; 860  : 					}
; 861  : 		_Ostr.width(0);

	mov	rax, QWORD PTR [rsi]
	movsxd	rcx, DWORD PTR [rax+4]
	mov	QWORD PTR [rcx+rsi+40], 0
	jmp	SHORT $LN22@operator@2
$LN23@operator@2:

; 862  : 		_CATCH_IO_(_Ostr)

	mov	rsi, QWORD PTR _Ostr$[rsp]
	mov	ebx, DWORD PTR _State$[rsp]
	mov	r13, QWORD PTR _Ok$[rsp]
$LN22@operator@2:

; 863  : 		}
; 864  : 
; 865  : 	_Ostr.setstate(_State);

	mov	rax, QWORD PTR [rsi]
	movsxd	rcx, DWORD PTR [rax+4]
	add	rcx, rsi
	xor	r8d, r8d
	mov	edx, ebx
	call	QWORD PTR __imp_?setstate@?$basic_ios@_WU?$char_traits@_W@std@@@std@@QEAAXH_N@Z
	npad	1

; 866  : 	return (_Ostr);

	call	QWORD PTR __imp_?uncaught_exception@std@@YA_NXZ
	test	al, al
	jne	SHORT $LN79@operator@2
	mov	rcx, r13
	call	QWORD PTR __imp_?_Osfx@?$basic_ostream@_WU?$char_traits@_W@std@@@std@@QEAAXXZ
	npad	1
$LN79@operator@2:
	mov	rax, QWORD PTR [r13]
	movsxd	rcx, DWORD PTR [rax+4]
	mov	rcx, QWORD PTR [rcx+r13+72]
	test	rcx, rcx
	je	SHORT $LN95@operator@2
	call	QWORD PTR __imp_?_Unlock@?$basic_streambuf@_WU?$char_traits@_W@std@@@std@@QEAAXXZ
	mov	rax, rsi
	jmp	SHORT $LN83@operator@2
$LN95@operator@2:
	mov	rax, rsi
$LN83@operator@2:

; 867  : 	}

	mov	rbx, QWORD PTR [rsp+120]
	mov	rsi, QWORD PTR [rsp+136]
	add	rsp, 64					; 00000040H
	pop	r15
	pop	r14
	pop	r13
	pop	r12
	pop	rdi
	ret	0
??$?6_WU?$char_traits@_W@std@@@std@@YAAEAV?$basic_ostream@_WU?$char_traits@_W@std@@@0@AEAV10@PEB_W@Z ENDP ; std::operator<<<wchar_t,std::char_traits<wchar_t> >
; Function compile flags: /Ogtpy
_TEXT	ENDS
;	COMDAT text$x
text$x	SEGMENT
$T146939 = 32
_Ok$ = 40
_Ostr$ = 112
_Val$ = 120
_State$ = 128
?dtor$1@?0???$?6_WU?$char_traits@_W@std@@@std@@YAAEAV?$basic_ostream@_WU?$char_traits@_W@std@@@0@AEAV10@PEB_W@Z@4HA PROC ; `std::operator<<<wchar_t,std::char_traits<wchar_t> >'::`1'::dtor$1
	push	rbp
	sub	rsp, 32					; 00000020H
	mov	rbp, rdx
	lea	rcx, QWORD PTR _Ok$[rbp]
	call	??1_Sentry_base@?$basic_ostream@_WU?$char_traits@_W@std@@@std@@QEAA@XZ ; std::basic_ostream<wchar_t,std::char_traits<wchar_t> >::_Sentry_base::~_Sentry_base
	add	rsp, 32					; 00000020H
	pop	rbp
	ret	0
?dtor$1@?0???$?6_WU?$char_traits@_W@std@@@std@@YAAEAV?$basic_ostream@_WU?$char_traits@_W@std@@@0@AEAV10@PEB_W@Z@4HA ENDP ; `std::operator<<<wchar_t,std::char_traits<wchar_t> >'::`1'::dtor$1
; Function compile flags: /Ogtpy
$T146939 = 32
_Ok$ = 40
_Ostr$ = 112
_Val$ = 120
_State$ = 128
?dtor$0@?0???$?6_WU?$char_traits@_W@std@@@std@@YAAEAV?$basic_ostream@_WU?$char_traits@_W@std@@@0@AEAV10@PEB_W@Z@4HA PROC ; `std::operator<<<wchar_t,std::char_traits<wchar_t> >'::`1'::dtor$0
	push	rbp
	sub	rsp, 32					; 00000020H
	mov	rbp, rdx
	lea	rcx, QWORD PTR _Ok$[rbp]
	call	??1sentry@?$basic_ostream@_WU?$char_traits@_W@std@@@std@@QEAA@XZ ; std::basic_ostream<wchar_t,std::char_traits<wchar_t> >::sentry::~sentry
	add	rsp, 32					; 00000020H
	pop	rbp
	ret	0
?dtor$0@?0???$?6_WU?$char_traits@_W@std@@@std@@YAAEAV?$basic_ostream@_WU?$char_traits@_W@std@@@0@AEAV10@PEB_W@Z@4HA ENDP ; `std::operator<<<wchar_t,std::char_traits<wchar_t> >'::`1'::dtor$0
; Function compile flags: /Ogtpy
$T146939 = 32
_Ok$ = 40
_Ostr$ = 112
_Val$ = 120
_State$ = 128
?catch$0@?0???$?6_WU?$char_traits@_W@std@@@std@@YAAEAV?$basic_ostream@_WU?$char_traits@_W@std@@@0@AEAV10@PEB_W@Z@4HA PROC ; `std::operator<<<wchar_t,std::char_traits<wchar_t> >'::`1'::catch$0

; 862  : 		_CATCH_IO_(_Ostr)

	mov	QWORD PTR [rsp+16], rdx
	push	rbx
	push	rbp
	sub	rsp, 40					; 00000028H
	mov	rbp, rdx
__catch$??$?6_WU?$char_traits@_W@std@@@std@@YAAEAV?$basic_ostream@_WU?$char_traits@_W@std@@@0@AEAV10@PEB_W@Z$0:
	mov	rdx, QWORD PTR _Ostr$[rbp]
	mov	rax, QWORD PTR [rdx]
	movsxd	rcx, DWORD PTR [rax+4]
	add	rcx, rdx
	mov	r8b, 1
	mov	edx, 4
	call	QWORD PTR __imp_?setstate@?$basic_ios@_WU?$char_traits@_W@std@@@std@@QEAAXH_N@Z
	npad	1
	lea	rax, $LN23@catch$0@2
	jmp	SHORT $LN98@catch$0@2
$LN98@catch$0@2:
	add	rsp, 40					; 00000028H
	pop	rbp
	pop	rbx
	ret	0
	int	3
?catch$0@?0???$?6_WU?$char_traits@_W@std@@@std@@YAAEAV?$basic_ostream@_WU?$char_traits@_W@std@@@0@AEAV10@PEB_W@Z@4HA ENDP ; `std::operator<<<wchar_t,std::char_traits<wchar_t> >'::`1'::catch$0
; Function compile flags: /Ogtpy
$T146939 = 32
_Ok$ = 40
_Ostr$ = 112
_Val$ = 120
_State$ = 128
?dtor$2@?0???$?6_WU?$char_traits@_W@std@@@std@@YAAEAV?$basic_ostream@_WU?$char_traits@_W@std@@@0@AEAV10@PEB_W@Z@4HA PROC ; `std::operator<<<wchar_t,std::char_traits<wchar_t> >'::`1'::dtor$2
	push	rbp
	sub	rsp, 32					; 00000020H

; 827  : 	{	// insert NTCS

	mov	rbp, rdx
	lea	rcx, QWORD PTR _Ok$[rbp]
	call	??1_Sentry_base@?$basic_ostream@_WU?$char_traits@_W@std@@@std@@QEAA@XZ ; std::basic_ostream<wchar_t,std::char_traits<wchar_t> >::_Sentry_base::~_Sentry_base
	add	rsp, 32					; 00000020H
	pop	rbp
	ret	0
?dtor$2@?0???$?6_WU?$char_traits@_W@std@@@std@@YAAEAV?$basic_ostream@_WU?$char_traits@_W@std@@@0@AEAV10@PEB_W@Z@4HA ENDP ; `std::operator<<<wchar_t,std::char_traits<wchar_t> >'::`1'::dtor$2
text$x	ENDS
;	COMDAT pdata
; File c:\program files\microsoft visual studio 9.0\vc\include\xlocale
pdata	SEGMENT
$pdata$??$use_facet@V?$ctype@_W@std@@@std@@YAAEBV?$ctype@_W@0@AEBVlocale@0@@Z DD imagerel $LN17
	DD	imagerel $LN17+203
	DD	imagerel $unwind$??$use_facet@V?$ctype@_W@std@@@std@@YAAEBV?$ctype@_W@0@AEBVlocale@0@@Z
pdata	ENDS
;	COMDAT pdata
pdata	SEGMENT
$pdata$?dtor$0@?0???$use_facet@V?$ctype@_W@std@@@std@@YAAEBV?$ctype@_W@0@AEBVlocale@0@@Z@4HA DD imagerel ?dtor$0@?0???$use_facet@V?$ctype@_W@std@@@std@@YAAEBV?$ctype@_W@0@AEBVlocale@0@@Z@4HA
	DD	imagerel ?dtor$0@?0???$use_facet@V?$ctype@_W@std@@@std@@YAAEBV?$ctype@_W@0@AEBVlocale@0@@Z@4HA+25
	DD	imagerel $unwind$?dtor$0@?0???$use_facet@V?$ctype@_W@std@@@std@@YAAEBV?$ctype@_W@0@AEBVlocale@0@@Z@4HA
pdata	ENDS
;	COMDAT xdata
xdata	SEGMENT
$ip2state$??$use_facet@V?$ctype@_W@std@@@std@@YAAEBV?$ctype@_W@0@AEBVlocale@0@@Z DD imagerel ??$use_facet@V?$ctype@_W@std@@@std@@YAAEBV?$ctype@_W@0@AEBVlocale@0@@Z
	DD	0ffffffffH
	DD	imagerel ??$use_facet@V?$ctype@_W@std@@@std@@YAAEBV?$ctype@_W@0@AEBVlocale@0@@Z+37
	DD	00H
	DD	imagerel ??$use_facet@V?$ctype@_W@std@@@std@@YAAEBV?$ctype@_W@0@AEBVlocale@0@@Z+178
	DD	0ffffffffH
xdata	ENDS
;	COMDAT xdata
xdata	SEGMENT
$unwind$?dtor$0@?0???$use_facet@V?$ctype@_W@std@@@std@@YAAEBV?$ctype@_W@0@AEBVlocale@0@@Z@4HA DD 020601H
	DD	050023206H
xdata	ENDS
;	COMDAT xdata
xdata	SEGMENT
$unwind$??$use_facet@V?$ctype@_W@std@@@std@@YAAEBV?$ctype@_W@0@AEBVlocale@0@@Z DD 041411H
	DD	0a3414H
	DD	070027206H
	DD	imagerel __CxxFrameHandler3
	DD	imagerel $cppxdata$??$use_facet@V?$ctype@_W@std@@@std@@YAAEBV?$ctype@_W@0@AEBVlocale@0@@Z
xdata	ENDS
;	COMDAT CONST
CONST	SEGMENT
$cppxdata$??$use_facet@V?$ctype@_W@std@@@std@@YAAEBV?$ctype@_W@0@AEBVlocale@0@@Z DD 019930522H
	DD	01H
	DD	imagerel $stateUnwindMap$??$use_facet@V?$ctype@_W@std@@@std@@YAAEBV?$ctype@_W@0@AEBVlocale@0@@Z
	DD	00H
	DD	00H
	DD	03H
	DD	imagerel $ip2state$??$use_facet@V?$ctype@_W@std@@@std@@YAAEBV?$ctype@_W@0@AEBVlocale@0@@Z
	DD	020H
	DD	00H
	DD	01H
CONST	ENDS
;	COMDAT xdata
xdata	SEGMENT
$stateUnwindMap$??$use_facet@V?$ctype@_W@std@@@std@@YAAEBV?$ctype@_W@0@AEBVlocale@0@@Z DD 0ffffffffH
	DD	imagerel ?dtor$0@?0???$use_facet@V?$ctype@_W@std@@@std@@YAAEBV?$ctype@_W@0@AEBVlocale@0@@Z@4HA
; Function compile flags: /Ogtpy
xdata	ENDS
;	COMDAT ??$use_facet@V?$ctype@_W@std@@@std@@YAAEBV?$ctype@_W@0@AEBVlocale@0@@Z
_TEXT	SEGMENT
$T146996 = 32
$T146977 = 40
_Loc$ = 80
_Lock$124022 = 88
_Psave$124023 = 96
??$use_facet@V?$ctype@_W@std@@@std@@YAAEBV?$ctype@_W@0@AEBVlocale@0@@Z PROC ; std::use_facet<std::ctype<wchar_t> >, COMDAT

; 486  : {	// get facet reference from locale

$LN17:
	push	rdi
	sub	rsp, 64					; 00000040H
	mov	QWORD PTR $T146996[rsp], -2
	mov	QWORD PTR [rsp+80], rbx
	mov	rdi, rcx

; 487  : 	_BEGIN_LOCK(_LOCK_LOCALE)	// the thread lock, make get atomic

	xor	edx, edx
	lea	rcx, QWORD PTR _Lock$124022[rsp]
	call	QWORD PTR __imp_??0_Lockit@std@@QEAA@H@Z
	npad	1

; 488  : 		const locale::facet *_Psave =
; 489  : 			_Facetptr<_Facet>::_Psave;	// static pointer to lazy facet

	mov	rax, QWORD PTR ?_Psave@?$_Facetptr@V?$ctype@_W@std@@@std@@2PEBVfacet@locale@2@EB ; std::_Facetptr<std::ctype<wchar_t> >::_Psave
	mov	QWORD PTR _Psave$124023[rsp], rax

; 490  : 
; 491  : 		size_t _Id = _Facet::id;

	mov	rcx, QWORD PTR __imp_?id@?$ctype@_W@std@@2V0locale@2@A
	call	QWORD PTR __imp_??Bid@locale@std@@QEAA_KXZ

; 492  : 		const locale::facet *_Pf = _Loc._Getfacet(_Id);

	mov	rdx, rax
	mov	rcx, rdi
	call	QWORD PTR __imp_?_Getfacet@locale@std@@QEBAPEBVfacet@12@_K@Z
	mov	rbx, rax

; 493  : 
; 494  : 		if (_Pf != 0)

	test	rax, rax
	jne	SHORT $LN14@use_facet

; 495  : 			;	// got facet from locale
; 496  : 		else if (_Psave != 0)

	mov	rbx, QWORD PTR _Psave$124023[rsp]
	test	rbx, rbx

; 497  : 			_Pf = _Psave;	// lazy facet already allocated

	jne	SHORT $LN14@use_facet

; 498  : 		else if (_Facet::_Getcat(&_Psave, &_Loc) == (size_t)(-1))

	mov	rdx, rdi
	lea	rcx, QWORD PTR _Psave$124023[rsp]
	call	QWORD PTR __imp_?_Getcat@?$ctype@_W@std@@SA_KPEAPEBVfacet@locale@2@PEBV42@@Z
	cmp	rax, -1
	jne	SHORT $LN2@use_facet

; 499  : 
; 500  :  #if _HAS_EXCEPTIONS
; 501  : 		_THROW_NCEE(bad_cast, _EMPTY_ARGUMENT);	// lazy disallowed

	lea	rdx, OFFSET FLAT:??_C@_08EPJLHIJG@bad?5cast?$AA@
	lea	rcx, QWORD PTR $T146977[rsp]
	call	QWORD PTR __imp_??0bad_cast@std@@QEAA@PEBD@Z
	lea	rdx, OFFSET FLAT:_TI2?AVbad_cast@std@@
	lea	rcx, QWORD PTR $T146977[rsp]
	call	_CxxThrowException
	int	3
$LN2@use_facet:

; 502  : 
; 503  : 	#else /* _HAS_EXCEPTIONS */
; 504  : 			abort();	// lazy disallowed
; 505  : 	#endif /* _HAS_EXCEPTIONS */
; 506  : 
; 507  : 		else
; 508  : 			{	// queue up lazy facet for destruction
; 509  : 			_Pf = _Psave;

	mov	rbx, QWORD PTR _Psave$124023[rsp]

; 510  : 			_Facetptr<_Facet>::_Psave = _Psave;

	mov	QWORD PTR ?_Psave@?$_Facetptr@V?$ctype@_W@std@@@std@@2PEBVfacet@locale@2@EB, rbx ; std::_Facetptr<std::ctype<wchar_t> >::_Psave

; 511  : 
; 512  : 			locale::facet *_Pfmod = (_Facet *)_Psave;
; 513  : 			_Pfmod->_Incref();

	mov	rcx, rbx
	call	QWORD PTR __imp_?_Incref@facet@locale@std@@QEAAXXZ

; 514  : 			_Pfmod->_Register();

	mov	rcx, rbx
	call	?facet_Register@facet@locale@std@@CAXPEAV123@@Z ; std::locale::facet::facet_Register
	npad	1
$LN14@use_facet:

; 515  : 			}
; 516  : 
; 517  : 		return ((const _Facet&)(*_Pf));	// should be dynamic_cast

	lea	rcx, QWORD PTR _Lock$124022[rsp]
	call	QWORD PTR __imp_??1_Lockit@std@@QEAA@XZ
	mov	rax, rbx

; 518  : 	_END_LOCK()
; 519  : 	}

	mov	rbx, QWORD PTR [rsp+80]
	add	rsp, 64					; 00000040H
	pop	rdi
	ret	0
$LN16@use_facet:
??$use_facet@V?$ctype@_W@std@@@std@@YAAEBV?$ctype@_W@0@AEBVlocale@0@@Z ENDP ; std::use_facet<std::ctype<wchar_t> >
; Function compile flags: /Ogtpy
_TEXT	ENDS
;	COMDAT text$x
text$x	SEGMENT
$T146996 = 32
$T146977 = 40
_Loc$ = 80
_Lock$124022 = 88
_Psave$124023 = 96
?dtor$0@?0???$use_facet@V?$ctype@_W@std@@@std@@YAAEBV?$ctype@_W@0@AEBVlocale@0@@Z@4HA PROC ; `std::use_facet<std::ctype<wchar_t> >'::`1'::dtor$0
	push	rbp
	sub	rsp, 32					; 00000020H
	mov	rbp, rdx
	lea	rcx, QWORD PTR _Lock$124022[rbp]
	call	QWORD PTR __imp_??1_Lockit@std@@QEAA@XZ
	add	rsp, 32					; 00000020H
	pop	rbp
	ret	0
?dtor$0@?0???$use_facet@V?$ctype@_W@std@@@std@@YAAEBV?$ctype@_W@0@AEBVlocale@0@@Z@4HA ENDP ; `std::use_facet<std::ctype<wchar_t> >'::`1'::dtor$0
; Function compile flags: /Ogtpy
text$x	ENDS
;	COMDAT ??0?$_Iterator_with_base@Urandom_access_iterator_tag@std@@V?$basic_string@_WU?$char_traits@_W@std@@V?$allocator@_W@2@@2@_JPEBV32@AEBV32@V_Iterator_base_aux@2@@std@@QEAA@XZ
_TEXT	SEGMENT
this$ = 8
??0?$_Iterator_with_base@Urandom_access_iterator_tag@std@@V?$basic_string@_WU?$char_traits@_W@std@@V?$allocator@_W@2@@2@_JPEBV32@AEBV32@V_Iterator_base_aux@2@@std@@QEAA@XZ PROC ; std::_Iterator_with_base<std::random_access_iterator_tag,std::basic_string<wchar_t,std::char_traits<wchar_t>,std::allocator<wchar_t> >,__int64,std::basic_string<wchar_t,std::char_traits<wchar_t>,std::allocator<wchar_t> > const * __ptr64,std::basic_string<wchar_t,std::char_traits<wchar_t>,std::allocator<wchar_t> > const & __ptr64,std::_Iterator_base_aux>::_Iterator_with_base<std::random_access_iterator_tag,std::basic_string<wchar_t,std::char_traits<wchar_t>,std::allocator<wchar_t> >,__int64,std::basic_string<wchar_t,std::char_traits<wchar_t>,std::allocator<wchar_t> > const * __ptr64,std::basic_string<wchar_t,std::char_traits<wchar_t>,std::allocator<wchar_t> > const & __ptr64,std::_Iterator_base_aux>, COMDAT
	mov	QWORD PTR [rcx], 0
	mov	rax, rcx
	ret	0
??0?$_Iterator_with_base@Urandom_access_iterator_tag@std@@V?$basic_string@_WU?$char_traits@_W@std@@V?$allocator@_W@2@@2@_JPEBV32@AEBV32@V_Iterator_base_aux@2@@std@@QEAA@XZ ENDP ; std::_Iterator_with_base<std::random_access_iterator_tag,std::basic_string<wchar_t,std::char_traits<wchar_t>,std::allocator<wchar_t> >,__int64,std::basic_string<wchar_t,std::char_traits<wchar_t>,std::allocator<wchar_t> > const * __ptr64,std::basic_string<wchar_t,std::char_traits<wchar_t>,std::allocator<wchar_t> > const & __ptr64,std::_Iterator_base_aux>::_Iterator_with_base<std::random_access_iterator_tag,std::basic_string<wchar_t,std::char_traits<wchar_t>,std::allocator<wchar_t> >,__int64,std::basic_string<wchar_t,std::char_traits<wchar_t>,std::allocator<wchar_t> > const * __ptr64,std::basic_string<wchar_t,std::char_traits<wchar_t>,std::allocator<wchar_t> > const & __ptr64,std::_Iterator_base_aux>
; Function compile flags: /Ogtpy
_TEXT	ENDS
;	COMDAT ??0?$_Iterator_with_base@Urandom_access_iterator_tag@std@@_W_JPEB_WAEB_WV_Iterator_base_aux@2@@std@@QEAA@XZ
_TEXT	SEGMENT
this$ = 8
??0?$_Iterator_with_base@Urandom_access_iterator_tag@std@@_W_JPEB_WAEB_WV_Iterator_base_aux@2@@std@@QEAA@XZ PROC ; std::_Iterator_with_base<std::random_access_iterator_tag,wchar_t,__int64,wchar_t const * __ptr64,wchar_t const & __ptr64,std::_Iterator_base_aux>::_Iterator_with_base<std::random_access_iterator_tag,wchar_t,__int64,wchar_t const * __ptr64,wchar_t const & __ptr64,std::_Iterator_base_aux>, COMDAT
	mov	QWORD PTR [rcx], 0
	mov	rax, rcx
	ret	0
??0?$_Iterator_with_base@Urandom_access_iterator_tag@std@@_W_JPEB_WAEB_WV_Iterator_base_aux@2@@std@@QEAA@XZ ENDP ; std::_Iterator_with_base<std::random_access_iterator_tag,wchar_t,__int64,wchar_t const * __ptr64,wchar_t const & __ptr64,std::_Iterator_base_aux>::_Iterator_with_base<std::random_access_iterator_tag,wchar_t,__int64,wchar_t const * __ptr64,wchar_t const & __ptr64,std::_Iterator_base_aux>
; Function compile flags: /Ogtpy
_TEXT	ENDS
;	COMDAT ??0?$_Ranit@V?$basic_string@_WU?$char_traits@_W@std@@V?$allocator@_W@2@@std@@_JPEBV12@AEBV12@@std@@QEAA@XZ
_TEXT	SEGMENT
this$ = 8
??0?$_Ranit@V?$basic_string@_WU?$char_traits@_W@std@@V?$allocator@_W@2@@std@@_JPEBV12@AEBV12@@std@@QEAA@XZ PROC ; std::_Ranit<std::basic_string<wchar_t,std::char_traits<wchar_t>,std::allocator<wchar_t> >,__int64,std::basic_string<wchar_t,std::char_traits<wchar_t>,std::allocator<wchar_t> > const * __ptr64,std::basic_string<wchar_t,std::char_traits<wchar_t>,std::allocator<wchar_t> > const & __ptr64>::_Ranit<std::basic_string<wchar_t,std::char_traits<wchar_t>,std::allocator<wchar_t> >,__int64,std::basic_string<wchar_t,std::char_traits<wchar_t>,std::allocator<wchar_t> > const * __ptr64,std::basic_string<wchar_t,std::char_traits<wchar_t>,std::allocator<wchar_t> > const & __ptr64>, COMDAT
	mov	QWORD PTR [rcx], 0
	mov	rax, rcx
	ret	0
??0?$_Ranit@V?$basic_string@_WU?$char_traits@_W@std@@V?$allocator@_W@2@@std@@_JPEBV12@AEBV12@@std@@QEAA@XZ ENDP ; std::_Ranit<std::basic_string<wchar_t,std::char_traits<wchar_t>,std::allocator<wchar_t> >,__int64,std::basic_string<wchar_t,std::char_traits<wchar_t>,std::allocator<wchar_t> > const * __ptr64,std::basic_string<wchar_t,std::char_traits<wchar_t>,std::allocator<wchar_t> > const & __ptr64>::_Ranit<std::basic_string<wchar_t,std::char_traits<wchar_t>,std::allocator<wchar_t> >,__int64,std::basic_string<wchar_t,std::char_traits<wchar_t>,std::allocator<wchar_t> > const * __ptr64,std::basic_string<wchar_t,std::char_traits<wchar_t>,std::allocator<wchar_t> > const & __ptr64>
; Function compile flags: /Ogtpy
_TEXT	ENDS
;	COMDAT ??0?$_Ranit@_W_JPEB_WAEB_W@std@@QEAA@XZ
_TEXT	SEGMENT
this$ = 8
??0?$_Ranit@_W_JPEB_WAEB_W@std@@QEAA@XZ PROC		; std::_Ranit<wchar_t,__int64,wchar_t const * __ptr64,wchar_t const & __ptr64>::_Ranit<wchar_t,__int64,wchar_t const * __ptr64,wchar_t const & __ptr64>, COMDAT
	mov	QWORD PTR [rcx], 0
	mov	rax, rcx
	ret	0
??0?$_Ranit@_W_JPEB_WAEB_W@std@@QEAA@XZ ENDP		; std::_Ranit<wchar_t,__int64,wchar_t const * __ptr64,wchar_t const & __ptr64>::_Ranit<wchar_t,__int64,wchar_t const * __ptr64,wchar_t const & __ptr64>
_TEXT	ENDS
;	COMDAT pdata
; File c:\program files\microsoft visual studio 9.0\vc\include\xutility
pdata	SEGMENT
$pdata$??0?$_Deque_const_iterator@V?$basic_string@_WU?$char_traits@_W@std@@V?$allocator@_W@2@@std@@V?$allocator@V?$basic_string@_WU?$char_traits@_W@std@@V?$allocator@_W@2@@std@@@2@$00@std@@QEAA@_KPEBV_Container_base_aux@1@@Z DD imagerel $LN17
	DD	imagerel $LN17+93
	DD	imagerel $unwind$??0?$_Deque_const_iterator@V?$basic_string@_WU?$char_traits@_W@std@@V?$allocator@_W@2@@std@@V?$allocator@V?$basic_string@_WU?$char_traits@_W@std@@V?$allocator@_W@2@@std@@@2@$00@std@@QEAA@_KPEBV_Container_base_aux@1@@Z
pdata	ENDS
;	COMDAT xdata
xdata	SEGMENT
$unwind$??0?$_Deque_const_iterator@V?$basic_string@_WU?$char_traits@_W@std@@V?$allocator@_W@2@@std@@V?$allocator@V?$basic_string@_WU?$char_traits@_W@std@@V?$allocator@_W@2@@std@@@2@$00@std@@QEAA@_KPEBV_Container_base_aux@1@@Z DD 060f01H
	DD	07640fH
	DD	06340fH
	DD	0700b320fH
; Function compile flags: /Ogtpy
; File c:\program files\microsoft visual studio 9.0\vc\include\deque
xdata	ENDS
;	COMDAT ??0?$_Deque_const_iterator@V?$basic_string@_WU?$char_traits@_W@std@@V?$allocator@_W@2@@std@@V?$allocator@V?$basic_string@_WU?$char_traits@_W@std@@V?$allocator@_W@2@@std@@@2@$00@std@@QEAA@_KPEBV_Container_base_aux@1@@Z
_TEXT	SEGMENT
this$ = 48
_Off$ = 56
_Pdeque$ = 64
??0?$_Deque_const_iterator@V?$basic_string@_WU?$char_traits@_W@std@@V?$allocator@_W@2@@std@@V?$allocator@V?$basic_string@_WU?$char_traits@_W@std@@V?$allocator@_W@2@@std@@@2@$00@std@@QEAA@_KPEBV_Container_base_aux@1@@Z PROC ; std::_Deque_const_iterator<std::basic_string<wchar_t,std::char_traits<wchar_t>,std::allocator<wchar_t> >,std::allocator<std::basic_string<wchar_t,std::char_traits<wchar_t>,std::allocator<wchar_t> > >,1>::_Deque_const_iterator<std::basic_string<wchar_t,std::char_traits<wchar_t>,std::allocator<wchar_t> >,std::allocator<std::basic_string<wchar_t,std::char_traits<wchar_t>,std::allocator<wchar_t> > >,1>, COMDAT

; 125  : 		_Deque_const_iterator(size_type _Off, const _Mydequebase *_Pdeque)

$LN17:
	mov	QWORD PTR [rsp+8], rbx
	mov	QWORD PTR [rsp+16], rsi
	push	rdi
	sub	rsp, 32					; 00000020H
	mov	rdi, r8
	mov	rsi, rdx
	mov	rbx, rcx
	mov	QWORD PTR [rcx], 0

; 126  : 			{	// construct with offset _Off in *_Pdeque
; 127  : 			_SCL_SECURE_TRAITS_VALIDATE(
; 128  : 				_Pdeque != NULL &&
; 129  : 				((_Mydeque *)_Pdeque)->_Myoff <= _Off && _Off <= (((_Mydeque *)_Pdeque)->_Myoff + ((_Mydeque *)_Pdeque)->_Mysize));

	test	r8, r8
	je	SHORT $LN4@Deque_cons
	mov	rcx, QWORD PTR [r8+48]
	cmp	rcx, rdx
	ja	SHORT $LN4@Deque_cons
	mov	rax, QWORD PTR [r8+56]
	lea	r9, QWORD PTR [rcx+rax]
	cmp	rdx, r9
	jbe	SHORT $LN3@Deque_cons
$LN4@Deque_cons:
	call	QWORD PTR __imp__invalid_parameter_noinfo
$LN3@Deque_cons:

; 130  : 				
; 131  : 			this->_Set_container(_Pdeque);

	mov	rax, QWORD PTR [rdi]

; 132  : 			_Myoff = _Off;

	mov	QWORD PTR [rbx+8], rsi

; 133  : 			}

	mov	rsi, QWORD PTR [rsp+56]
	mov	QWORD PTR [rbx], rax
	mov	rax, rbx
	mov	rbx, QWORD PTR [rsp+48]
	add	rsp, 32					; 00000020H
	pop	rdi
	ret	0
??0?$_Deque_const_iterator@V?$basic_string@_WU?$char_traits@_W@std@@V?$allocator@_W@2@@std@@V?$allocator@V?$basic_string@_WU?$char_traits@_W@std@@V?$allocator@_W@2@@std@@@2@$00@std@@QEAA@_KPEBV_Container_base_aux@1@@Z ENDP ; std::_Deque_const_iterator<std::basic_string<wchar_t,std::char_traits<wchar_t>,std::allocator<wchar_t> >,std::allocator<std::basic_string<wchar_t,std::char_traits<wchar_t>,std::allocator<wchar_t> > >,1>::_Deque_const_iterator<std::basic_string<wchar_t,std::char_traits<wchar_t>,std::allocator<wchar_t> >,std::allocator<std::basic_string<wchar_t,std::char_traits<wchar_t>,std::allocator<wchar_t> > >,1>
_TEXT	ENDS
;	COMDAT pdata
; File c:\program files\microsoft visual studio 9.0\vc\include\xutility
pdata	SEGMENT
$pdata$??0?$_Deque_const_iterator@_WV?$allocator@_W@std@@$00@std@@QEAA@_KPEBV_Container_base_aux@1@@Z DD imagerel $LN17
	DD	imagerel $LN17+93
	DD	imagerel $unwind$??0?$_Deque_const_iterator@_WV?$allocator@_W@std@@$00@std@@QEAA@_KPEBV_Container_base_aux@1@@Z
pdata	ENDS
;	COMDAT xdata
xdata	SEGMENT
$unwind$??0?$_Deque_const_iterator@_WV?$allocator@_W@std@@$00@std@@QEAA@_KPEBV_Container_base_aux@1@@Z DD 060f01H
	DD	07640fH
	DD	06340fH
	DD	0700b320fH
; Function compile flags: /Ogtpy
; File c:\program files\microsoft visual studio 9.0\vc\include\deque
xdata	ENDS
;	COMDAT ??0?$_Deque_const_iterator@_WV?$allocator@_W@std@@$00@std@@QEAA@_KPEBV_Container_base_aux@1@@Z
_TEXT	SEGMENT
this$ = 48
_Off$ = 56
_Pdeque$ = 64
??0?$_Deque_const_iterator@_WV?$allocator@_W@std@@$00@std@@QEAA@_KPEBV_Container_base_aux@1@@Z PROC ; std::_Deque_const_iterator<wchar_t,std::allocator<wchar_t>,1>::_Deque_const_iterator<wchar_t,std::allocator<wchar_t>,1>, COMDAT

; 125  : 		_Deque_const_iterator(size_type _Off, const _Mydequebase *_Pdeque)

$LN17:
	mov	QWORD PTR [rsp+8], rbx
	mov	QWORD PTR [rsp+16], rsi
	push	rdi
	sub	rsp, 32					; 00000020H
	mov	rdi, r8
	mov	rsi, rdx
	mov	rbx, rcx
	mov	QWORD PTR [rcx], 0

; 126  : 			{	// construct with offset _Off in *_Pdeque
; 127  : 			_SCL_SECURE_TRAITS_VALIDATE(
; 128  : 				_Pdeque != NULL &&
; 129  : 				((_Mydeque *)_Pdeque)->_Myoff <= _Off && _Off <= (((_Mydeque *)_Pdeque)->_Myoff + ((_Mydeque *)_Pdeque)->_Mysize));

	test	r8, r8
	je	SHORT $LN4@Deque_cons@2
	mov	rcx, QWORD PTR [r8+48]
	cmp	rcx, rdx
	ja	SHORT $LN4@Deque_cons@2
	mov	rax, QWORD PTR [r8+56]
	lea	r9, QWORD PTR [rcx+rax]
	cmp	rdx, r9
	jbe	SHORT $LN3@Deque_cons@2
$LN4@Deque_cons@2:
	call	QWORD PTR __imp__invalid_parameter_noinfo
$LN3@Deque_cons@2:

; 130  : 				
; 131  : 			this->_Set_container(_Pdeque);

	mov	rax, QWORD PTR [rdi]

; 132  : 			_Myoff = _Off;

	mov	QWORD PTR [rbx+8], rsi

; 133  : 			}

	mov	rsi, QWORD PTR [rsp+56]
	mov	QWORD PTR [rbx], rax
	mov	rax, rbx
	mov	rbx, QWORD PTR [rsp+48]
	add	rsp, 32					; 00000020H
	pop	rdi
	ret	0
??0?$_Deque_const_iterator@_WV?$allocator@_W@std@@$00@std@@QEAA@_KPEBV_Container_base_aux@1@@Z ENDP ; std::_Deque_const_iterator<wchar_t,std::allocator<wchar_t>,1>::_Deque_const_iterator<wchar_t,std::allocator<wchar_t>,1>
_TEXT	ENDS
;	COMDAT pdata
; File c:\program files\microsoft visual studio 9.0\vc\include\xutility
pdata	SEGMENT
$pdata$??0?$_Deque_iterator@V?$basic_string@_WU?$char_traits@_W@std@@V?$allocator@_W@2@@std@@V?$allocator@V?$basic_string@_WU?$char_traits@_W@std@@V?$allocator@_W@2@@std@@@2@$00@std@@QEAA@_KPEBV_Container_base_aux@1@@Z DD imagerel $LN19
	DD	imagerel $LN19+93
	DD	imagerel $unwind$??0?$_Deque_iterator@V?$basic_string@_WU?$char_traits@_W@std@@V?$allocator@_W@2@@std@@V?$allocator@V?$basic_string@_WU?$char_traits@_W@std@@V?$allocator@_W@2@@std@@@2@$00@std@@QEAA@_KPEBV_Container_base_aux@1@@Z
pdata	ENDS
;	COMDAT xdata
xdata	SEGMENT
$unwind$??0?$_Deque_iterator@V?$basic_string@_WU?$char_traits@_W@std@@V?$allocator@_W@2@@std@@V?$allocator@V?$basic_string@_WU?$char_traits@_W@std@@V?$allocator@_W@2@@std@@@2@$00@std@@QEAA@_KPEBV_Container_base_aux@1@@Z DD 060f01H
	DD	07640fH
	DD	06340fH
	DD	0700b320fH
; Function compile flags: /Ogtpy
; File c:\program files\microsoft visual studio 9.0\vc\include\deque
xdata	ENDS
;	COMDAT ??0?$_Deque_iterator@V?$basic_string@_WU?$char_traits@_W@std@@V?$allocator@_W@2@@std@@V?$allocator@V?$basic_string@_WU?$char_traits@_W@std@@V?$allocator@_W@2@@std@@@2@$00@std@@QEAA@_KPEBV_Container_base_aux@1@@Z
_TEXT	SEGMENT
this$ = 48
_Off$ = 56
_Pdeque$ = 64
??0?$_Deque_iterator@V?$basic_string@_WU?$char_traits@_W@std@@V?$allocator@_W@2@@std@@V?$allocator@V?$basic_string@_WU?$char_traits@_W@std@@V?$allocator@_W@2@@std@@@2@$00@std@@QEAA@_KPEBV_Container_base_aux@1@@Z PROC ; std::_Deque_iterator<std::basic_string<wchar_t,std::char_traits<wchar_t>,std::allocator<wchar_t> >,std::allocator<std::basic_string<wchar_t,std::char_traits<wchar_t>,std::allocator<wchar_t> > >,1>::_Deque_iterator<std::basic_string<wchar_t,std::char_traits<wchar_t>,std::allocator<wchar_t> >,std::allocator<std::basic_string<wchar_t,std::char_traits<wchar_t>,std::allocator<wchar_t> > >,1>, COMDAT

; 381  : 		{	// construct with offset _Off in *_Pdeque

$LN19:
	mov	QWORD PTR [rsp+8], rbx
	mov	QWORD PTR [rsp+16], rsi
	push	rdi
	sub	rsp, 32					; 00000020H
	mov	rdi, r8
	mov	rsi, rdx
	mov	rbx, rcx
	mov	QWORD PTR [rcx], 0
	test	r8, r8
	je	SHORT $LN6@Deque_iter
	mov	rcx, QWORD PTR [r8+48]
	cmp	rcx, rdx
	ja	SHORT $LN6@Deque_iter
	mov	rax, QWORD PTR [r8+56]
	lea	r9, QWORD PTR [rcx+rax]
	cmp	rdx, r9
	jbe	SHORT $LN5@Deque_iter
$LN6@Deque_iter:
	call	QWORD PTR __imp__invalid_parameter_noinfo
$LN5@Deque_iter:
	mov	rax, QWORD PTR [rdi]
	mov	QWORD PTR [rbx+8], rsi

; 382  : 		}

	mov	rsi, QWORD PTR [rsp+56]
	mov	QWORD PTR [rbx], rax
	mov	rax, rbx
	mov	rbx, QWORD PTR [rsp+48]
	add	rsp, 32					; 00000020H
	pop	rdi
	ret	0
??0?$_Deque_iterator@V?$basic_string@_WU?$char_traits@_W@std@@V?$allocator@_W@2@@std@@V?$allocator@V?$basic_string@_WU?$char_traits@_W@std@@V?$allocator@_W@2@@std@@@2@$00@std@@QEAA@_KPEBV_Container_base_aux@1@@Z ENDP ; std::_Deque_iterator<std::basic_string<wchar_t,std::char_traits<wchar_t>,std::allocator<wchar_t> >,std::allocator<std::basic_string<wchar_t,std::char_traits<wchar_t>,std::allocator<wchar_t> > >,1>::_Deque_iterator<std::basic_string<wchar_t,std::char_traits<wchar_t>,std::allocator<wchar_t> >,std::allocator<std::basic_string<wchar_t,std::char_traits<wchar_t>,std::allocator<wchar_t> > >,1>
_TEXT	ENDS
;	COMDAT pdata
; File c:\program files\microsoft visual studio 9.0\vc\include\xutility
pdata	SEGMENT
$pdata$??0?$_Deque_iterator@_WV?$allocator@_W@std@@$00@std@@QEAA@_KPEBV_Container_base_aux@1@@Z DD imagerel $LN19
	DD	imagerel $LN19+93
	DD	imagerel $unwind$??0?$_Deque_iterator@_WV?$allocator@_W@std@@$00@std@@QEAA@_KPEBV_Container_base_aux@1@@Z
pdata	ENDS
;	COMDAT xdata
xdata	SEGMENT
$unwind$??0?$_Deque_iterator@_WV?$allocator@_W@std@@$00@std@@QEAA@_KPEBV_Container_base_aux@1@@Z DD 060f01H
	DD	07640fH
	DD	06340fH
	DD	0700b320fH
; Function compile flags: /Ogtpy
; File c:\program files\microsoft visual studio 9.0\vc\include\deque
xdata	ENDS
;	COMDAT ??0?$_Deque_iterator@_WV?$allocator@_W@std@@$00@std@@QEAA@_KPEBV_Container_base_aux@1@@Z
_TEXT	SEGMENT
this$ = 48
_Off$ = 56
_Pdeque$ = 64
??0?$_Deque_iterator@_WV?$allocator@_W@std@@$00@std@@QEAA@_KPEBV_Container_base_aux@1@@Z PROC ; std::_Deque_iterator<wchar_t,std::allocator<wchar_t>,1>::_Deque_iterator<wchar_t,std::allocator<wchar_t>,1>, COMDAT

; 381  : 		{	// construct with offset _Off in *_Pdeque

$LN19:
	mov	QWORD PTR [rsp+8], rbx
	mov	QWORD PTR [rsp+16], rsi
	push	rdi
	sub	rsp, 32					; 00000020H
	mov	rdi, r8
	mov	rsi, rdx
	mov	rbx, rcx
	mov	QWORD PTR [rcx], 0
	test	r8, r8
	je	SHORT $LN6@Deque_iter@2
	mov	rcx, QWORD PTR [r8+48]
	cmp	rcx, rdx
	ja	SHORT $LN6@Deque_iter@2
	mov	rax, QWORD PTR [r8+56]
	lea	r9, QWORD PTR [rcx+rax]
	cmp	rdx, r9
	jbe	SHORT $LN5@Deque_iter@2
$LN6@Deque_iter@2:
	call	QWORD PTR __imp__invalid_parameter_noinfo
$LN5@Deque_iter@2:
	mov	rax, QWORD PTR [rdi]
	mov	QWORD PTR [rbx+8], rsi

; 382  : 		}

	mov	rsi, QWORD PTR [rsp+56]
	mov	QWORD PTR [rbx], rax
	mov	rax, rbx
	mov	rbx, QWORD PTR [rsp+48]
	add	rsp, 32					; 00000020H
	pop	rdi
	ret	0
??0?$_Deque_iterator@_WV?$allocator@_W@std@@$00@std@@QEAA@_KPEBV_Container_base_aux@1@@Z ENDP ; std::_Deque_iterator<wchar_t,std::allocator<wchar_t>,1>::_Deque_iterator<wchar_t,std::allocator<wchar_t>,1>
_TEXT	ENDS
;	COMDAT pdata
; File c:\program files\microsoft visual studio 9.0\vc\include\exception
pdata	SEGMENT
$pdata$?allocate@?$allocator@PEAV?$basic_string@_WU?$char_traits@_W@std@@V?$allocator@_W@2@@std@@@std@@QEAAPEAPEAV?$basic_string@_WU?$char_traits@_W@std@@V?$allocator@_W@2@@2@_K@Z DD imagerel $LN12
	DD	imagerel $LN12+99
	DD	imagerel $unwind$?allocate@?$allocator@PEAV?$basic_string@_WU?$char_traits@_W@std@@V?$allocator@_W@2@@std@@@std@@QEAAPEAPEAV?$basic_string@_WU?$char_traits@_W@std@@V?$allocator@_W@2@@2@_K@Z
pdata	ENDS
;	COMDAT xdata
xdata	SEGMENT
$unwind$?allocate@?$allocator@PEAV?$basic_string@_WU?$char_traits@_W@std@@V?$allocator@_W@2@@std@@@std@@QEAAPEAPEAV?$basic_string@_WU?$char_traits@_W@std@@V?$allocator@_W@2@@2@_K@Z DD 010401H
	DD	08204H
; Function compile flags: /Ogtpy
; File c:\program files\microsoft visual studio 9.0\vc\include\xmemory
xdata	ENDS
;	COMDAT ?allocate@?$allocator@PEAV?$basic_string@_WU?$char_traits@_W@std@@V?$allocator@_W@2@@std@@@std@@QEAAPEAPEAV?$basic_string@_WU?$char_traits@_W@std@@V?$allocator@_W@2@@2@_K@Z
_TEXT	SEGMENT
$T147221 = 32
this$ = 80
$T147219 = 88
_Count$ = 88
?allocate@?$allocator@PEAV?$basic_string@_WU?$char_traits@_W@std@@V?$allocator@_W@2@@std@@@std@@QEAAPEAPEAV?$basic_string@_WU?$char_traits@_W@std@@V?$allocator@_W@2@@2@_K@Z PROC ; std::allocator<std::basic_string<wchar_t,std::char_traits<wchar_t>,std::allocator<wchar_t> > * __ptr64>::allocate, COMDAT

; 144  : 		{	// allocate array of _Count elements

$LN12:
	sub	rsp, 72					; 00000048H
	mov	r8, rdx

; 145  : 		return (_Allocate(_Count, (pointer)0));

	test	rdx, rdx
	jne	SHORT $LN5@allocate
$LN3@allocate:
	lea	rcx, QWORD PTR [r8*8]
	call	??2@YAPEAX_K@Z				; operator new

; 146  : 		}

	add	rsp, 72					; 00000048H
	ret	0

; 145  : 		return (_Allocate(_Count, (pointer)0));

$LN5@allocate:
	xor	edx, edx
	or	rax, -1
	div	r8
	cmp	rax, 8
	jae	SHORT $LN3@allocate
	xor	r8d, r8d
	lea	rdx, QWORD PTR $T147219[rsp]
	lea	rcx, QWORD PTR $T147221[rsp]
	mov	QWORD PTR $T147219[rsp], r8
	call	QWORD PTR __imp_??0exception@std@@QEAA@AEBQEBD@Z
	lea	r11, OFFSET FLAT:??_7bad_alloc@std@@6B@
	lea	rdx, OFFSET FLAT:_TI2?AVbad_alloc@std@@
	lea	rcx, QWORD PTR $T147221[rsp]
	mov	QWORD PTR $T147221[rsp], r11
	call	_CxxThrowException
	int	3
$LN11@allocate:
?allocate@?$allocator@PEAV?$basic_string@_WU?$char_traits@_W@std@@V?$allocator@_W@2@@std@@@std@@QEAAPEAPEAV?$basic_string@_WU?$char_traits@_W@std@@V?$allocator@_W@2@@2@_K@Z ENDP ; std::allocator<std::basic_string<wchar_t,std::char_traits<wchar_t>,std::allocator<wchar_t> > * __ptr64>::allocate
_TEXT	ENDS
;	COMDAT pdata
; File c:\program files\microsoft visual studio 9.0\vc\include\exception
pdata	SEGMENT
$pdata$?allocate@?$allocator@PEA_W@std@@QEAAPEAPEA_W_K@Z DD imagerel $LN12
	DD	imagerel $LN12+99
	DD	imagerel $unwind$?allocate@?$allocator@PEA_W@std@@QEAAPEAPEA_W_K@Z
pdata	ENDS
;	COMDAT xdata
xdata	SEGMENT
$unwind$?allocate@?$allocator@PEA_W@std@@QEAAPEAPEA_W_K@Z DD 010401H
	DD	08204H
; Function compile flags: /Ogtpy
; File c:\program files\microsoft visual studio 9.0\vc\include\xmemory
xdata	ENDS
;	COMDAT ?allocate@?$allocator@PEA_W@std@@QEAAPEAPEA_W_K@Z
_TEXT	SEGMENT
$T147250 = 32
this$ = 80
$T147248 = 88
_Count$ = 88
?allocate@?$allocator@PEA_W@std@@QEAAPEAPEA_W_K@Z PROC	; std::allocator<wchar_t * __ptr64>::allocate, COMDAT

; 144  : 		{	// allocate array of _Count elements

$LN12:
	sub	rsp, 72					; 00000048H
	mov	r8, rdx

; 145  : 		return (_Allocate(_Count, (pointer)0));

	test	rdx, rdx
	jne	SHORT $LN5@allocate@2
$LN3@allocate@2:
	lea	rcx, QWORD PTR [r8*8]
	call	??2@YAPEAX_K@Z				; operator new

; 146  : 		}

	add	rsp, 72					; 00000048H
	ret	0

; 145  : 		return (_Allocate(_Count, (pointer)0));

$LN5@allocate@2:
	xor	edx, edx
	or	rax, -1
	div	r8
	cmp	rax, 8
	jae	SHORT $LN3@allocate@2
	xor	r8d, r8d
	lea	rdx, QWORD PTR $T147248[rsp]
	lea	rcx, QWORD PTR $T147250[rsp]
	mov	QWORD PTR $T147248[rsp], r8
	call	QWORD PTR __imp_??0exception@std@@QEAA@AEBQEBD@Z
	lea	r11, OFFSET FLAT:??_7bad_alloc@std@@6B@
	lea	rdx, OFFSET FLAT:_TI2?AVbad_alloc@std@@
	lea	rcx, QWORD PTR $T147250[rsp]
	mov	QWORD PTR $T147250[rsp], r11
	call	_CxxThrowException
	int	3
$LN11@allocate@2:
?allocate@?$allocator@PEA_W@std@@QEAAPEAPEA_W_K@Z ENDP	; std::allocator<wchar_t * __ptr64>::allocate
_TEXT	ENDS
;	COMDAT pdata
; File c:\program files\microsoft visual studio 9.0\vc\include\new
pdata	SEGMENT
$pdata$?construct@?$allocator@V?$basic_string@_WU?$char_traits@_W@std@@V?$allocator@_W@2@@std@@@std@@QEAAXPEAV?$basic_string@_WU?$char_traits@_W@std@@V?$allocator@_W@2@@2@AEBV32@@Z DD imagerel $LN11
	DD	imagerel $LN11+51
	DD	imagerel $unwind$?construct@?$allocator@V?$basic_string@_WU?$char_traits@_W@std@@V?$allocator@_W@2@@std@@@std@@QEAAXPEAV?$basic_string@_WU?$char_traits@_W@std@@V?$allocator@_W@2@@2@AEBV32@@Z
pdata	ENDS
;	COMDAT pdata
pdata	SEGMENT
$pdata$?dtor$0@?0??construct@?$allocator@V?$basic_string@_WU?$char_traits@_W@std@@V?$allocator@_W@2@@std@@@std@@QEAAXPEAV?$basic_string@_WU?$char_traits@_W@std@@V?$allocator@_W@2@@2@AEBV32@@Z@4HA DD imagerel ?dtor$0@?0??construct@?$allocator@V?$basic_string@_WU?$char_traits@_W@std@@V?$allocator@_W@2@@std@@@std@@QEAAXPEAV?$basic_string@_WU?$char_traits@_W@std@@V?$allocator@_W@2@@2@AEBV32@@Z@4HA
	DD	imagerel ?dtor$0@?0??construct@?$allocator@V?$basic_string@_WU?$char_traits@_W@std@@V?$allocator@_W@2@@std@@@std@@QEAAXPEAV?$basic_string@_WU?$char_traits@_W@std@@V?$allocator@_W@2@@2@AEBV32@@Z@4HA+28
	DD	imagerel $unwind$?dtor$0@?0??construct@?$allocator@V?$basic_string@_WU?$char_traits@_W@std@@V?$allocator@_W@2@@std@@@std@@QEAAXPEAV?$basic_string@_WU?$char_traits@_W@std@@V?$allocator@_W@2@@2@AEBV32@@Z@4HA
pdata	ENDS
;	COMDAT xdata
xdata	SEGMENT
$ip2state$?construct@?$allocator@V?$basic_string@_WU?$char_traits@_W@std@@V?$allocator@_W@2@@std@@@std@@QEAAXPEAV?$basic_string@_WU?$char_traits@_W@std@@V?$allocator@_W@2@@2@AEBV32@@Z DD imagerel ?construct@?$allocator@V?$basic_string@_WU?$char_traits@_W@std@@V?$allocator@_W@2@@std@@@std@@QEAAXPEAV?$basic_string@_WU?$char_traits@_W@std@@V?$allocator@_W@2@@2@AEBV32@@Z
	DD	0ffffffffH
	DD	imagerel ?construct@?$allocator@V?$basic_string@_WU?$char_traits@_W@std@@V?$allocator@_W@2@@std@@@std@@QEAAXPEAV?$basic_string@_WU?$char_traits@_W@std@@V?$allocator@_W@2@@2@AEBV32@@Z+26
	DD	00H
	DD	imagerel ?construct@?$allocator@V?$basic_string@_WU?$char_traits@_W@std@@V?$allocator@_W@2@@std@@@std@@QEAAXPEAV?$basic_string@_WU?$char_traits@_W@std@@V?$allocator@_W@2@@2@AEBV32@@Z+44
	DD	0ffffffffH
xdata	ENDS
;	COMDAT xdata
xdata	SEGMENT
$unwind$?dtor$0@?0??construct@?$allocator@V?$basic_string@_WU?$char_traits@_W@std@@V?$allocator@_W@2@@std@@@std@@QEAAXPEAV?$basic_string@_WU?$char_traits@_W@std@@V?$allocator@_W@2@@2@AEBV32@@Z@4HA DD 020601H
	DD	050023206H
xdata	ENDS
;	COMDAT xdata
xdata	SEGMENT
$unwind$?construct@?$allocator@V?$basic_string@_WU?$char_traits@_W@std@@V?$allocator@_W@2@@std@@@std@@QEAAXPEAV?$basic_string@_WU?$char_traits@_W@std@@V?$allocator@_W@2@@2@AEBV32@@Z DD 010d11H
	DD	06204H
	DD	imagerel __CxxFrameHandler3
	DD	imagerel $cppxdata$?construct@?$allocator@V?$basic_string@_WU?$char_traits@_W@std@@V?$allocator@_W@2@@std@@@std@@QEAAXPEAV?$basic_string@_WU?$char_traits@_W@std@@V?$allocator@_W@2@@2@AEBV32@@Z
xdata	ENDS
;	COMDAT CONST
CONST	SEGMENT
$cppxdata$?construct@?$allocator@V?$basic_string@_WU?$char_traits@_W@std@@V?$allocator@_W@2@@std@@@std@@QEAAXPEAV?$basic_string@_WU?$char_traits@_W@std@@V?$allocator@_W@2@@2@AEBV32@@Z DD 019930522H
	DD	01H
	DD	imagerel $stateUnwindMap$?construct@?$allocator@V?$basic_string@_WU?$char_traits@_W@std@@V?$allocator@_W@2@@std@@@std@@QEAAXPEAV?$basic_string@_WU?$char_traits@_W@std@@V?$allocator@_W@2@@2@AEBV32@@Z
	DD	00H
	DD	00H
	DD	03H
	DD	imagerel $ip2state$?construct@?$allocator@V?$basic_string@_WU?$char_traits@_W@std@@V?$allocator@_W@2@@std@@@std@@QEAAXPEAV?$basic_string@_WU?$char_traits@_W@std@@V?$allocator@_W@2@@2@AEBV32@@Z
	DD	020H
	DD	00H
	DD	01H
CONST	ENDS
;	COMDAT xdata
xdata	SEGMENT
$stateUnwindMap$?construct@?$allocator@V?$basic_string@_WU?$char_traits@_W@std@@V?$allocator@_W@2@@std@@@std@@QEAAXPEAV?$basic_string@_WU?$char_traits@_W@std@@V?$allocator@_W@2@@2@AEBV32@@Z DD 0ffffffffH
	DD	imagerel ?dtor$0@?0??construct@?$allocator@V?$basic_string@_WU?$char_traits@_W@std@@V?$allocator@_W@2@@std@@@std@@QEAAXPEAV?$basic_string@_WU?$char_traits@_W@std@@V?$allocator@_W@2@@2@AEBV32@@Z@4HA
; Function compile flags: /Ogtpy
; File c:\program files\microsoft visual studio 9.0\vc\include\xmemory
xdata	ENDS
;	COMDAT ?construct@?$allocator@V?$basic_string@_WU?$char_traits@_W@std@@V?$allocator@_W@2@@std@@@std@@QEAAXPEAV?$basic_string@_WU?$char_traits@_W@std@@V?$allocator@_W@2@@2@AEBV32@@Z
_TEXT	SEGMENT
$T147297 = 32
this$ = 64
_Vptr$147292 = 72
_Ptr$ = 72
_Val$ = 80
$T147286 = 88
?construct@?$allocator@V?$basic_string@_WU?$char_traits@_W@std@@V?$allocator@_W@2@@std@@@std@@QEAAXPEAV?$basic_string@_WU?$char_traits@_W@std@@V?$allocator@_W@2@@2@AEBV32@@Z PROC ; std::allocator<std::basic_string<wchar_t,std::char_traits<wchar_t>,std::allocator<wchar_t> > >::construct, COMDAT

; 154  : 		{	// construct object at _Ptr with value _Val

$LN11:
	sub	rsp, 56					; 00000038H
	mov	QWORD PTR $T147297[rsp], -2
	mov	rax, rdx

; 155  : 		_Construct(_Ptr, _Val);

	mov	QWORD PTR _Vptr$147292[rsp], rdx
	mov	QWORD PTR $T147286[rsp], rdx
	test	rdx, rdx
	je	SHORT $LN10@construct
	mov	rdx, r8
	mov	rcx, rax
	call	QWORD PTR __imp_??0?$basic_string@_WU?$char_traits@_W@std@@V?$allocator@_W@2@@std@@QEAA@AEBV01@@Z
	npad	1
	jmp	SHORT $LN5@construct
$LN10@construct:
$LN5@construct:

; 156  : 		}

	add	rsp, 56					; 00000038H
	ret	0
?construct@?$allocator@V?$basic_string@_WU?$char_traits@_W@std@@V?$allocator@_W@2@@std@@@std@@QEAAXPEAV?$basic_string@_WU?$char_traits@_W@std@@V?$allocator@_W@2@@2@AEBV32@@Z ENDP ; std::allocator<std::basic_string<wchar_t,std::char_traits<wchar_t>,std::allocator<wchar_t> > >::construct
; Function compile flags: /Ogtpy
_TEXT	ENDS
;	COMDAT text$x
text$x	SEGMENT
$T147297 = 32
this$ = 64
_Vptr$147292 = 72
_Ptr$ = 72
_Val$ = 80
$T147286 = 88
?dtor$0@?0??construct@?$allocator@V?$basic_string@_WU?$char_traits@_W@std@@V?$allocator@_W@2@@std@@@std@@QEAAXPEAV?$basic_string@_WU?$char_traits@_W@std@@V?$allocator@_W@2@@2@AEBV32@@Z@4HA PROC ; `std::allocator<std::basic_string<wchar_t,std::char_traits<wchar_t>,std::allocator<wchar_t> > >::construct'::`1'::dtor$0
	push	rbp
	sub	rsp, 32					; 00000020H
	mov	rbp, rdx
	mov	rdx, QWORD PTR _Vptr$147292[rbp]
	mov	rcx, QWORD PTR $T147286[rbp]
	call	??3@YAXPEAX0@Z				; operator delete
	add	rsp, 32					; 00000020H
	pop	rbp
	ret	0
?dtor$0@?0??construct@?$allocator@V?$basic_string@_WU?$char_traits@_W@std@@V?$allocator@_W@2@@std@@@std@@QEAAXPEAV?$basic_string@_WU?$char_traits@_W@std@@V?$allocator@_W@2@@2@AEBV32@@Z@4HA ENDP ; `std::allocator<std::basic_string<wchar_t,std::char_traits<wchar_t>,std::allocator<wchar_t> > >::construct'::`1'::dtor$0
text$x	ENDS
;	COMDAT pdata
; File c:\program files\microsoft visual studio 9.0\vc\include\exception
pdata	SEGMENT
$pdata$?allocate@?$allocator@V?$basic_string@_WU?$char_traits@_W@std@@V?$allocator@_W@2@@std@@@std@@QEAAPEAV?$basic_string@_WU?$char_traits@_W@std@@V?$allocator@_W@2@@2@_K@Z DD imagerel $LN11
	DD	imagerel $LN11+19
	DD	imagerel $unwind$?allocate@?$allocator@V?$basic_string@_WU?$char_traits@_W@std@@V?$allocator@_W@2@@std@@@std@@QEAAPEAV?$basic_string@_WU?$char_traits@_W@std@@V?$allocator@_W@2@@2@_K@Z
pdata	ENDS
;	COMDAT xdata
xdata	SEGMENT
$unwind$?allocate@?$allocator@V?$basic_string@_WU?$char_traits@_W@std@@V?$allocator@_W@2@@std@@@std@@QEAAPEAV?$basic_string@_WU?$char_traits@_W@std@@V?$allocator@_W@2@@2@_K@Z DD 010401H
	DD	04204H
; Function compile flags: /Ogtpy
; File c:\program files\microsoft visual studio 9.0\vc\include\xmemory
xdata	ENDS
;	COMDAT ?allocate@?$allocator@V?$basic_string@_WU?$char_traits@_W@std@@V?$allocator@_W@2@@std@@@std@@QEAAPEAV?$basic_string@_WU?$char_traits@_W@std@@V?$allocator@_W@2@@2@_K@Z
_TEXT	SEGMENT
this$ = 48
_Count$ = 56
?allocate@?$allocator@V?$basic_string@_WU?$char_traits@_W@std@@V?$allocator@_W@2@@std@@@std@@QEAAPEAV?$basic_string@_WU?$char_traits@_W@std@@V?$allocator@_W@2@@2@_K@Z PROC ; std::allocator<std::basic_string<wchar_t,std::char_traits<wchar_t>,std::allocator<wchar_t> > >::allocate, COMDAT

; 144  : 		{	// allocate array of _Count elements

$LN11:
	sub	rsp, 40					; 00000028H

; 145  : 		return (_Allocate(_Count, (pointer)0));

	mov	ecx, 40					; 00000028H
	call	??2@YAPEAX_K@Z				; operator new

; 146  : 		}

	add	rsp, 40					; 00000028H
	ret	0
?allocate@?$allocator@V?$basic_string@_WU?$char_traits@_W@std@@V?$allocator@_W@2@@std@@@std@@QEAAPEAV?$basic_string@_WU?$char_traits@_W@std@@V?$allocator@_W@2@@2@_K@Z ENDP ; std::allocator<std::basic_string<wchar_t,std::char_traits<wchar_t>,std::allocator<wchar_t> > >::allocate
_TEXT	ENDS
;	COMDAT pdata
; File c:\program files\microsoft visual studio 9.0\vc\include\xutility
pdata	SEGMENT
$pdata$?end@?$deque@V?$basic_string@_WU?$char_traits@_W@std@@V?$allocator@_W@2@@std@@V?$allocator@V?$basic_string@_WU?$char_traits@_W@std@@V?$allocator@_W@2@@std@@@2@@std@@QEAA?AV?$_Deque_iterator@V?$basic_string@_WU?$char_traits@_W@std@@V?$allocator@_W@2@@std@@V?$allocator@V?$basic_string@_WU?$char_traits@_W@std@@V?$allocator@_W@2@@std@@@2@$00@2@XZ DD imagerel $LN21
	DD	imagerel $LN21+80
	DD	imagerel $unwind$?end@?$deque@V?$basic_string@_WU?$char_traits@_W@std@@V?$allocator@_W@2@@std@@V?$allocator@V?$basic_string@_WU?$char_traits@_W@std@@V?$allocator@_W@2@@std@@@2@@std@@QEAA?AV?$_Deque_iterator@V?$basic_string@_WU?$char_traits@_W@std@@V?$allocator@_W@2@@std@@V?$allocator@V?$basic_string@_WU?$char_traits@_W@std@@V?$allocator@_W@2@@std@@@2@$00@2@XZ
pdata	ENDS
;	COMDAT xdata
xdata	SEGMENT
$unwind$?end@?$deque@V?$basic_string@_WU?$char_traits@_W@std@@V?$allocator@_W@2@@std@@V?$allocator@V?$basic_string@_WU?$char_traits@_W@std@@V?$allocator@_W@2@@std@@@2@@std@@QEAA?AV?$_Deque_iterator@V?$basic_string@_WU?$char_traits@_W@std@@V?$allocator@_W@2@@std@@V?$allocator@V?$basic_string@_WU?$char_traits@_W@std@@V?$allocator@_W@2@@std@@@2@$00@2@XZ DD 060f01H
	DD	07640fH
	DD	06340fH
	DD	0700b320fH
; Function compile flags: /Ogtpy
; File c:\program files\microsoft visual studio 9.0\vc\include\deque
xdata	ENDS
;	COMDAT ?end@?$deque@V?$basic_string@_WU?$char_traits@_W@std@@V?$allocator@_W@2@@std@@V?$allocator@V?$basic_string@_WU?$char_traits@_W@std@@V?$allocator@_W@2@@std@@@2@@std@@QEAA?AV?$_Deque_iterator@V?$basic_string@_WU?$char_traits@_W@std@@V?$allocator@_W@2@@std@@V?$allocator@V?$basic_string@_WU?$char_traits@_W@std@@V?$allocator@_W@2@@std@@@2@$00@2@XZ
_TEXT	SEGMENT
this$ = 48
__$ReturnUdt$ = 56
?end@?$deque@V?$basic_string@_WU?$char_traits@_W@std@@V?$allocator@_W@2@@std@@V?$allocator@V?$basic_string@_WU?$char_traits@_W@std@@V?$allocator@_W@2@@std@@@2@@std@@QEAA?AV?$_Deque_iterator@V?$basic_string@_WU?$char_traits@_W@std@@V?$allocator@_W@2@@std@@V?$allocator@V?$basic_string@_WU?$char_traits@_W@std@@V?$allocator@_W@2@@std@@@2@$00@2@XZ PROC ; std::deque<std::basic_string<wchar_t,std::char_traits<wchar_t>,std::allocator<wchar_t> >,std::allocator<std::basic_string<wchar_t,std::char_traits<wchar_t>,std::allocator<wchar_t> > > >::end, COMDAT

; 675  : 		{	// return iterator for end of mutable sequence

$LN21:
	mov	QWORD PTR [rsp+8], rbx
	mov	QWORD PTR [rsp+16], rsi
	push	rdi
	sub	rsp, 32					; 00000020H

; 676  : 		return (iterator(_Myoff + _Mysize, this));

	mov	r8, QWORD PTR [rcx+48]
	mov	rax, QWORD PTR [rcx+56]
	mov	rbx, rdx
	lea	rsi, QWORD PTR [r8+rax]
	mov	rdi, rcx
	mov	QWORD PTR [rdx], 0
	cmp	r8, rsi
	jbe	SHORT $LN7@end
	call	QWORD PTR __imp__invalid_parameter_noinfo
$LN7@end:
	mov	rax, QWORD PTR [rdi]
	mov	QWORD PTR [rbx+8], rsi

; 677  : 		}

	mov	rsi, QWORD PTR [rsp+56]
	mov	QWORD PTR [rbx], rax
	mov	rax, rbx
	mov	rbx, QWORD PTR [rsp+48]
	add	rsp, 32					; 00000020H
	pop	rdi
	ret	0
?end@?$deque@V?$basic_string@_WU?$char_traits@_W@std@@V?$allocator@_W@2@@std@@V?$allocator@V?$basic_string@_WU?$char_traits@_W@std@@V?$allocator@_W@2@@std@@@2@@std@@QEAA?AV?$_Deque_iterator@V?$basic_string@_WU?$char_traits@_W@std@@V?$allocator@_W@2@@std@@V?$allocator@V?$basic_string@_WU?$char_traits@_W@std@@V?$allocator@_W@2@@std@@@2@$00@2@XZ ENDP ; std::deque<std::basic_string<wchar_t,std::char_traits<wchar_t>,std::allocator<wchar_t> >,std::allocator<std::basic_string<wchar_t,std::char_traits<wchar_t>,std::allocator<wchar_t> > > >::end
_TEXT	ENDS
;	COMDAT pdata
; File c:\program files\microsoft visual studio 9.0\vc\include\xutility
pdata	SEGMENT
$pdata$?end@?$deque@_WV?$allocator@_W@std@@@std@@QEAA?AV?$_Deque_iterator@_WV?$allocator@_W@std@@$00@2@XZ DD imagerel $LN21
	DD	imagerel $LN21+80
	DD	imagerel $unwind$?end@?$deque@_WV?$allocator@_W@std@@@std@@QEAA?AV?$_Deque_iterator@_WV?$allocator@_W@std@@$00@2@XZ
pdata	ENDS
;	COMDAT xdata
xdata	SEGMENT
$unwind$?end@?$deque@_WV?$allocator@_W@std@@@std@@QEAA?AV?$_Deque_iterator@_WV?$allocator@_W@std@@$00@2@XZ DD 060f01H
	DD	07640fH
	DD	06340fH
	DD	0700b320fH
; Function compile flags: /Ogtpy
; File c:\program files\microsoft visual studio 9.0\vc\include\deque
xdata	ENDS
;	COMDAT ?end@?$deque@_WV?$allocator@_W@std@@@std@@QEAA?AV?$_Deque_iterator@_WV?$allocator@_W@std@@$00@2@XZ
_TEXT	SEGMENT
this$ = 48
__$ReturnUdt$ = 56
?end@?$deque@_WV?$allocator@_W@std@@@std@@QEAA?AV?$_Deque_iterator@_WV?$allocator@_W@std@@$00@2@XZ PROC ; std::deque<wchar_t,std::allocator<wchar_t> >::end, COMDAT

; 675  : 		{	// return iterator for end of mutable sequence

$LN21:
	mov	QWORD PTR [rsp+8], rbx
	mov	QWORD PTR [rsp+16], rsi
	push	rdi
	sub	rsp, 32					; 00000020H

; 676  : 		return (iterator(_Myoff + _Mysize, this));

	mov	r8, QWORD PTR [rcx+48]
	mov	rax, QWORD PTR [rcx+56]
	mov	rbx, rdx
	lea	rsi, QWORD PTR [r8+rax]
	mov	rdi, rcx
	mov	QWORD PTR [rdx], 0
	cmp	r8, rsi
	jbe	SHORT $LN7@end@2
	call	QWORD PTR __imp__invalid_parameter_noinfo
$LN7@end@2:
	mov	rax, QWORD PTR [rdi]
	mov	QWORD PTR [rbx+8], rsi

; 677  : 		}

	mov	rsi, QWORD PTR [rsp+56]
	mov	QWORD PTR [rbx], rax
	mov	rax, rbx
	mov	rbx, QWORD PTR [rsp+48]
	add	rsp, 32					; 00000020H
	pop	rdi
	ret	0
?end@?$deque@_WV?$allocator@_W@std@@@std@@QEAA?AV?$_Deque_iterator@_WV?$allocator@_W@std@@$00@2@XZ ENDP ; std::deque<wchar_t,std::allocator<wchar_t> >::end
; Function compile flags: /Ogtpy
; File c:\program files\microsoft visual studio 9.0\vc\include\xutility
_TEXT	ENDS
;	COMDAT ??1?$_Container_base_aux_alloc_real@V?$allocator@V?$basic_string@_WU?$char_traits@_W@std@@V?$allocator@_W@2@@std@@@std@@@std@@IEAA@XZ
_TEXT	SEGMENT
this$ = 8
??1?$_Container_base_aux_alloc_real@V?$allocator@V?$basic_string@_WU?$char_traits@_W@std@@V?$allocator@_W@2@@std@@@std@@@std@@IEAA@XZ PROC ; std::_Container_base_aux_alloc_real<std::allocator<std::basic_string<wchar_t,std::char_traits<wchar_t>,std::allocator<wchar_t> > > >::~_Container_base_aux_alloc_real<std::allocator<std::basic_string<wchar_t,std::char_traits<wchar_t>,std::allocator<wchar_t> > > >, COMDAT

; 437  : 		_Myownedaux->~_Aux_cont();
; 438  : 
; 439  : 		_Alaux.deallocate(_Myownedaux, 1);

	mov	rcx, QWORD PTR [rcx]

; 440  : 		}

	jmp	??3@YAXPEAX@Z				; operator delete
??1?$_Container_base_aux_alloc_real@V?$allocator@V?$basic_string@_WU?$char_traits@_W@std@@V?$allocator@_W@2@@std@@@std@@@std@@IEAA@XZ ENDP ; std::_Container_base_aux_alloc_real<std::allocator<std::basic_string<wchar_t,std::char_traits<wchar_t>,std::allocator<wchar_t> > > >::~_Container_base_aux_alloc_real<std::allocator<std::basic_string<wchar_t,std::char_traits<wchar_t>,std::allocator<wchar_t> > > >
_TEXT	ENDS
;	COMDAT pdata
; File c:\program files\microsoft visual studio 9.0\vc\include\xmemory
pdata	SEGMENT
$pdata$?pop_back@?$deque@V?$basic_string@_WU?$char_traits@_W@std@@V?$allocator@_W@2@@std@@V?$allocator@V?$basic_string@_WU?$char_traits@_W@std@@V?$allocator@_W@2@@std@@@2@@std@@QEAAXXZ DD imagerel $LN15
	DD	imagerel $LN15+74
	DD	imagerel $unwind$?pop_back@?$deque@V?$basic_string@_WU?$char_traits@_W@std@@V?$allocator@_W@2@@std@@V?$allocator@V?$basic_string@_WU?$char_traits@_W@std@@V?$allocator@_W@2@@std@@@2@@std@@QEAAXXZ
pdata	ENDS
;	COMDAT xdata
xdata	SEGMENT
$unwind$?pop_back@?$deque@V?$basic_string@_WU?$char_traits@_W@std@@V?$allocator@_W@2@@std@@V?$allocator@V?$basic_string@_WU?$char_traits@_W@std@@V?$allocator@_W@2@@std@@@2@@std@@QEAAXXZ DD 020601H
	DD	030023206H
; Function compile flags: /Ogtpy
; File c:\program files\microsoft visual studio 9.0\vc\include\deque
xdata	ENDS
;	COMDAT ?pop_back@?$deque@V?$basic_string@_WU?$char_traits@_W@std@@V?$allocator@_W@2@@std@@V?$allocator@V?$basic_string@_WU?$char_traits@_W@std@@V?$allocator@_W@2@@std@@@2@@std@@QEAAXXZ
_TEXT	SEGMENT
this$ = 48
?pop_back@?$deque@V?$basic_string@_WU?$char_traits@_W@std@@V?$allocator@_W@2@@std@@V?$allocator@V?$basic_string@_WU?$char_traits@_W@std@@V?$allocator@_W@2@@std@@@2@@std@@QEAAXXZ PROC ; std::deque<std::basic_string<wchar_t,std::char_traits<wchar_t>,std::allocator<wchar_t> >,std::allocator<std::basic_string<wchar_t,std::char_traits<wchar_t>,std::allocator<wchar_t> > > >::pop_back, COMDAT

; 863  : 		{	// erase element at end

$LN15:
	push	rbx
	sub	rsp, 32					; 00000020H
	mov	rbx, rcx

; 864  : 
; 865  :  #if _HAS_ITERATOR_DEBUGGING
; 866  : 		if (empty())
; 867  : 			_DEBUG_ERROR("deque empty before pop");
; 868  : 		else
; 869  : 			{	// something to erase, do it
; 870  : 			_Orphan_off(_Myoff + _Mysize - 1);
; 871  : 
; 872  :  #else /* _HAS_ITERATOR_DEBUGGING */
; 873  : 		if (!empty())

	mov	rcx, QWORD PTR [rcx+56]
	test	rcx, rcx
	je	SHORT $LN1@pop_back

; 874  : 			{	// something to erase, do it
; 875  :  #endif /* _HAS_ITERATOR_DEBUGGING */
; 876  : 
; 877  : 			size_type _Newoff = _Mysize + _Myoff - 1;
; 878  : 			size_type _Block = _Newoff / _DEQUESIZ;

	mov	rax, QWORD PTR [rbx+48]
	lea	rdx, QWORD PTR [rcx+rax-1]

; 879  : 			if (_Mapsize <= _Block)

	mov	rax, QWORD PTR [rbx+40]
	cmp	rax, rdx
	ja	SHORT $LN2@pop_back

; 880  : 				_Block -= _Mapsize;

	sub	rdx, rax
$LN2@pop_back:

; 881  : 			this->_Alval.destroy(_Map[_Block] + _Newoff % _DEQUESIZ);

	mov	rcx, QWORD PTR [rbx+32]
	mov	rcx, QWORD PTR [rcx+rdx*8]
	call	QWORD PTR __imp_??1?$basic_string@_WU?$char_traits@_W@std@@V?$allocator@_W@2@@std@@QEAA@XZ

; 882  : 			if (--_Mysize == 0)

	add	QWORD PTR [rbx+56], -1
	jne	SHORT $LN1@pop_back

; 883  : 				_Myoff = 0;

	mov	QWORD PTR [rbx+48], 0
$LN1@pop_back:

; 884  : 			}
; 885  : 			}

	add	rsp, 32					; 00000020H
	pop	rbx
	ret	0
?pop_back@?$deque@V?$basic_string@_WU?$char_traits@_W@std@@V?$allocator@_W@2@@std@@V?$allocator@V?$basic_string@_WU?$char_traits@_W@std@@V?$allocator@_W@2@@std@@@2@@std@@QEAAXXZ ENDP ; std::deque<std::basic_string<wchar_t,std::char_traits<wchar_t>,std::allocator<wchar_t> >,std::allocator<std::basic_string<wchar_t,std::char_traits<wchar_t>,std::allocator<wchar_t> > > >::pop_back
; Function compile flags: /Ogtpy
; File c:\program files\microsoft visual studio 9.0\vc\include\xutility
_TEXT	ENDS
;	COMDAT ??1?$_Container_base_aux_alloc_real@V?$allocator@_W@std@@@std@@IEAA@XZ
_TEXT	SEGMENT
this$ = 8
??1?$_Container_base_aux_alloc_real@V?$allocator@_W@std@@@std@@IEAA@XZ PROC ; std::_Container_base_aux_alloc_real<std::allocator<wchar_t> >::~_Container_base_aux_alloc_real<std::allocator<wchar_t> >, COMDAT

; 437  : 		_Myownedaux->~_Aux_cont();
; 438  : 
; 439  : 		_Alaux.deallocate(_Myownedaux, 1);

	mov	rcx, QWORD PTR [rcx]

; 440  : 		}

	jmp	??3@YAXPEAX@Z				; operator delete
??1?$_Container_base_aux_alloc_real@V?$allocator@_W@std@@@std@@IEAA@XZ ENDP ; std::_Container_base_aux_alloc_real<std::allocator<wchar_t> >::~_Container_base_aux_alloc_real<std::allocator<wchar_t> >
_TEXT	ENDS
;	COMDAT pdata
; File c:\program files\microsoft visual studio 9.0\vc\include\deque
pdata	SEGMENT
$pdata$?pop_back@?$deque@_WV?$allocator@_W@std@@@std@@QEAAXXZ DD imagerel $LN8
	DD	imagerel $LN8+92
	DD	imagerel $unwind$?pop_back@?$deque@_WV?$allocator@_W@std@@@std@@QEAAXXZ
pdata	ENDS
;	COMDAT xdata
xdata	SEGMENT
$unwind$?pop_back@?$deque@_WV?$allocator@_W@std@@@std@@QEAAXXZ DD 020601H
	DD	030023206H
; Function compile flags: /Ogtpy
xdata	ENDS
;	COMDAT ?pop_back@?$deque@_WV?$allocator@_W@std@@@std@@QEAAXXZ
_TEXT	SEGMENT
this$ = 48
?pop_back@?$deque@_WV?$allocator@_W@std@@@std@@QEAAXXZ PROC ; std::deque<wchar_t,std::allocator<wchar_t> >::pop_back, COMDAT

; 863  : 		{	// erase element at end

$LN8:
	push	rbx
	sub	rsp, 32					; 00000020H
	mov	rbx, rcx

; 864  : 
; 865  :  #if _HAS_ITERATOR_DEBUGGING
; 866  : 		if (empty())
; 867  : 			_DEBUG_ERROR("deque empty before pop");
; 868  : 		else
; 869  : 			{	// something to erase, do it
; 870  : 			_Orphan_off(_Myoff + _Mysize - 1);
; 871  : 
; 872  :  #else /* _HAS_ITERATOR_DEBUGGING */
; 873  : 		if (!empty())

	mov	rcx, QWORD PTR [rcx+56]
	test	rcx, rcx
	je	SHORT $LN1@pop_back@2

; 874  : 			{	// something to erase, do it
; 875  :  #endif /* _HAS_ITERATOR_DEBUGGING */
; 876  : 
; 877  : 			size_type _Newoff = _Mysize + _Myoff - 1;

	mov	rax, QWORD PTR [rbx+48]
	lea	rdx, QWORD PTR [rcx+rax-1]

; 878  : 			size_type _Block = _Newoff / _DEQUESIZ;
; 879  : 			if (_Mapsize <= _Block)

	mov	rax, QWORD PTR [rbx+40]
	mov	rcx, rdx
	shr	rcx, 3
	cmp	rax, rcx
	ja	SHORT $LN2@pop_back@2

; 880  : 				_Block -= _Mapsize;

	sub	rcx, rax
$LN2@pop_back@2:

; 881  : 			this->_Alval.destroy(_Map[_Block] + _Newoff % _DEQUESIZ);

	mov	rax, QWORD PTR [rbx+32]
	and	edx, 7
	mov	rax, QWORD PTR [rax+rcx*8]
	lea	rcx, QWORD PTR [rbx+24]
	lea	rdx, QWORD PTR [rax+rdx*2]
	call	QWORD PTR __imp_?destroy@?$allocator@_W@std@@QEAAXPEA_W@Z

; 882  : 			if (--_Mysize == 0)

	add	QWORD PTR [rbx+56], -1
	jne	SHORT $LN1@pop_back@2

; 883  : 				_Myoff = 0;

	mov	QWORD PTR [rbx+48], 0
$LN1@pop_back@2:

; 884  : 			}
; 885  : 			}

	add	rsp, 32					; 00000020H
	pop	rbx
	ret	0
?pop_back@?$deque@_WV?$allocator@_W@std@@@std@@QEAAXXZ ENDP ; std::deque<wchar_t,std::allocator<wchar_t> >::pop_back
; Function compile flags: /Ogtpy
_TEXT	ENDS
;	COMDAT ??1?$_Deque_map@V?$basic_string@_WU?$char_traits@_W@std@@V?$allocator@_W@2@@std@@V?$allocator@V?$basic_string@_WU?$char_traits@_W@std@@V?$allocator@_W@2@@std@@@2@@std@@QEAA@XZ
_TEXT	SEGMENT
this$ = 8
??1?$_Deque_map@V?$basic_string@_WU?$char_traits@_W@std@@V?$allocator@_W@2@@std@@V?$allocator@V?$basic_string@_WU?$char_traits@_W@std@@V?$allocator@_W@2@@std@@@2@@std@@QEAA@XZ PROC ; std::_Deque_map<std::basic_string<wchar_t,std::char_traits<wchar_t>,std::allocator<wchar_t> >,std::allocator<std::basic_string<wchar_t,std::char_traits<wchar_t>,std::allocator<wchar_t> > > >::~_Deque_map<std::basic_string<wchar_t,std::char_traits<wchar_t>,std::allocator<wchar_t> >,std::allocator<std::basic_string<wchar_t,std::char_traits<wchar_t>,std::allocator<wchar_t> > > >, COMDAT
	mov	rcx, QWORD PTR [rcx]
	jmp	??3@YAXPEAX@Z				; operator delete
??1?$_Deque_map@V?$basic_string@_WU?$char_traits@_W@std@@V?$allocator@_W@2@@std@@V?$allocator@V?$basic_string@_WU?$char_traits@_W@std@@V?$allocator@_W@2@@std@@@2@@std@@QEAA@XZ ENDP ; std::_Deque_map<std::basic_string<wchar_t,std::char_traits<wchar_t>,std::allocator<wchar_t> >,std::allocator<std::basic_string<wchar_t,std::char_traits<wchar_t>,std::allocator<wchar_t> > > >::~_Deque_map<std::basic_string<wchar_t,std::char_traits<wchar_t>,std::allocator<wchar_t> >,std::allocator<std::basic_string<wchar_t,std::char_traits<wchar_t>,std::allocator<wchar_t> > > >
; Function compile flags: /Ogtpy
_TEXT	ENDS
;	COMDAT ??1?$_Deque_map@_WV?$allocator@_W@std@@@std@@QEAA@XZ
_TEXT	SEGMENT
this$ = 8
??1?$_Deque_map@_WV?$allocator@_W@std@@@std@@QEAA@XZ PROC ; std::_Deque_map<wchar_t,std::allocator<wchar_t> >::~_Deque_map<wchar_t,std::allocator<wchar_t> >, COMDAT
	mov	rcx, QWORD PTR [rcx]
	jmp	??3@YAXPEAX@Z				; operator delete
??1?$_Deque_map@_WV?$allocator@_W@std@@@std@@QEAA@XZ ENDP ; std::_Deque_map<wchar_t,std::allocator<wchar_t> >::~_Deque_map<wchar_t,std::allocator<wchar_t> >
; Function compile flags: /Ogtpy
_TEXT	ENDS
;	COMDAT ??1?$_Deque_val@V?$basic_string@_WU?$char_traits@_W@std@@V?$allocator@_W@2@@std@@V?$allocator@V?$basic_string@_WU?$char_traits@_W@std@@V?$allocator@_W@2@@std@@@2@@std@@QEAA@XZ
_TEXT	SEGMENT
this$ = 8
??1?$_Deque_val@V?$basic_string@_WU?$char_traits@_W@std@@V?$allocator@_W@2@@std@@V?$allocator@V?$basic_string@_WU?$char_traits@_W@std@@V?$allocator@_W@2@@std@@@2@@std@@QEAA@XZ PROC ; std::_Deque_val<std::basic_string<wchar_t,std::char_traits<wchar_t>,std::allocator<wchar_t> >,std::allocator<std::basic_string<wchar_t,std::char_traits<wchar_t>,std::allocator<wchar_t> > > >::~_Deque_val<std::basic_string<wchar_t,std::char_traits<wchar_t>,std::allocator<wchar_t> >,std::allocator<std::basic_string<wchar_t,std::char_traits<wchar_t>,std::allocator<wchar_t> > > >, COMDAT
	mov	rcx, QWORD PTR [rcx]
	jmp	??3@YAXPEAX@Z				; operator delete
??1?$_Deque_val@V?$basic_string@_WU?$char_traits@_W@std@@V?$allocator@_W@2@@std@@V?$allocator@V?$basic_string@_WU?$char_traits@_W@std@@V?$allocator@_W@2@@std@@@2@@std@@QEAA@XZ ENDP ; std::_Deque_val<std::basic_string<wchar_t,std::char_traits<wchar_t>,std::allocator<wchar_t> >,std::allocator<std::basic_string<wchar_t,std::char_traits<wchar_t>,std::allocator<wchar_t> > > >::~_Deque_val<std::basic_string<wchar_t,std::char_traits<wchar_t>,std::allocator<wchar_t> >,std::allocator<std::basic_string<wchar_t,std::char_traits<wchar_t>,std::allocator<wchar_t> > > >
; Function compile flags: /Ogtpy
_TEXT	ENDS
;	COMDAT ??1?$_Deque_val@_WV?$allocator@_W@std@@@std@@QEAA@XZ
_TEXT	SEGMENT
this$ = 8
??1?$_Deque_val@_WV?$allocator@_W@std@@@std@@QEAA@XZ PROC ; std::_Deque_val<wchar_t,std::allocator<wchar_t> >::~_Deque_val<wchar_t,std::allocator<wchar_t> >, COMDAT
	mov	rcx, QWORD PTR [rcx]
	jmp	??3@YAXPEAX@Z				; operator delete
??1?$_Deque_val@_WV?$allocator@_W@std@@@std@@QEAA@XZ ENDP ; std::_Deque_val<wchar_t,std::allocator<wchar_t> >::~_Deque_val<wchar_t,std::allocator<wchar_t> >
_TEXT	ENDS
;	COMDAT pdata
; File c:\program files\microsoft visual studio 9.0\vc\include\xmemory
pdata	SEGMENT
$pdata$?pop@?$stack@V?$basic_string@_WU?$char_traits@_W@std@@V?$allocator@_W@2@@std@@V?$deque@V?$basic_string@_WU?$char_traits@_W@std@@V?$allocator@_W@2@@std@@V?$allocator@V?$basic_string@_WU?$char_traits@_W@std@@V?$allocator@_W@2@@std@@@2@@2@@std@@QEAAXXZ DD imagerel $LN17
	DD	imagerel $LN17+74
	DD	imagerel $unwind$?pop@?$stack@V?$basic_string@_WU?$char_traits@_W@std@@V?$allocator@_W@2@@std@@V?$deque@V?$basic_string@_WU?$char_traits@_W@std@@V?$allocator@_W@2@@std@@V?$allocator@V?$basic_string@_WU?$char_traits@_W@std@@V?$allocator@_W@2@@std@@@2@@2@@std@@QEAAXXZ
pdata	ENDS
;	COMDAT xdata
xdata	SEGMENT
$unwind$?pop@?$stack@V?$basic_string@_WU?$char_traits@_W@std@@V?$allocator@_W@2@@std@@V?$deque@V?$basic_string@_WU?$char_traits@_W@std@@V?$allocator@_W@2@@std@@V?$allocator@V?$basic_string@_WU?$char_traits@_W@std@@V?$allocator@_W@2@@std@@@2@@2@@std@@QEAAXXZ DD 020601H
	DD	030023206H
; Function compile flags: /Ogtpy
; File c:\program files\microsoft visual studio 9.0\vc\include\stack
xdata	ENDS
;	COMDAT ?pop@?$stack@V?$basic_string@_WU?$char_traits@_W@std@@V?$allocator@_W@2@@std@@V?$deque@V?$basic_string@_WU?$char_traits@_W@std@@V?$allocator@_W@2@@std@@V?$allocator@V?$basic_string@_WU?$char_traits@_W@std@@V?$allocator@_W@2@@std@@@2@@2@@std@@QEAAXXZ
_TEXT	SEGMENT
this$ = 48
?pop@?$stack@V?$basic_string@_WU?$char_traits@_W@std@@V?$allocator@_W@2@@std@@V?$deque@V?$basic_string@_WU?$char_traits@_W@std@@V?$allocator@_W@2@@std@@V?$allocator@V?$basic_string@_WU?$char_traits@_W@std@@V?$allocator@_W@2@@std@@@2@@2@@std@@QEAAXXZ PROC ; std::stack<std::basic_string<wchar_t,std::char_traits<wchar_t>,std::allocator<wchar_t> >,std::deque<std::basic_string<wchar_t,std::char_traits<wchar_t>,std::allocator<wchar_t> >,std::allocator<std::basic_string<wchar_t,std::char_traits<wchar_t>,std::allocator<wchar_t> > > > >::pop, COMDAT

; 62   : 		{	// erase last element

$LN17:
	push	rbx
	sub	rsp, 32					; 00000020H
	mov	rbx, rcx

; 63   : 		c.pop_back();

	mov	rcx, QWORD PTR [rcx+56]
	test	rcx, rcx
	je	SHORT $LN3@pop
	mov	rax, QWORD PTR [rbx+48]
	lea	rdx, QWORD PTR [rcx+rax-1]
	mov	rax, QWORD PTR [rbx+40]
	cmp	rax, rdx
	ja	SHORT $LN4@pop
	sub	rdx, rax
$LN4@pop:
	mov	rcx, QWORD PTR [rbx+32]
	mov	rcx, QWORD PTR [rcx+rdx*8]
	call	QWORD PTR __imp_??1?$basic_string@_WU?$char_traits@_W@std@@V?$allocator@_W@2@@std@@QEAA@XZ
	add	QWORD PTR [rbx+56], -1
	jne	SHORT $LN3@pop
	mov	QWORD PTR [rbx+48], 0
$LN3@pop:

; 64   : 		}

	add	rsp, 32					; 00000020H
	pop	rbx
	ret	0
?pop@?$stack@V?$basic_string@_WU?$char_traits@_W@std@@V?$allocator@_W@2@@std@@V?$deque@V?$basic_string@_WU?$char_traits@_W@std@@V?$allocator@_W@2@@std@@V?$allocator@V?$basic_string@_WU?$char_traits@_W@std@@V?$allocator@_W@2@@std@@@2@@2@@std@@QEAAXXZ ENDP ; std::stack<std::basic_string<wchar_t,std::char_traits<wchar_t>,std::allocator<wchar_t> >,std::deque<std::basic_string<wchar_t,std::char_traits<wchar_t>,std::allocator<wchar_t> >,std::allocator<std::basic_string<wchar_t,std::char_traits<wchar_t>,std::allocator<wchar_t> > > > >::pop
_TEXT	ENDS
;	COMDAT pdata
; File c:\program files\microsoft visual studio 9.0\vc\include\deque
pdata	SEGMENT
$pdata$?pop@?$stack@_WV?$deque@_WV?$allocator@_W@std@@@std@@@std@@QEAAXXZ DD imagerel $LN10
	DD	imagerel $LN10+92
	DD	imagerel $unwind$?pop@?$stack@_WV?$deque@_WV?$allocator@_W@std@@@std@@@std@@QEAAXXZ
pdata	ENDS
;	COMDAT xdata
xdata	SEGMENT
$unwind$?pop@?$stack@_WV?$deque@_WV?$allocator@_W@std@@@std@@@std@@QEAAXXZ DD 020601H
	DD	030023206H
; Function compile flags: /Ogtpy
; File c:\program files\microsoft visual studio 9.0\vc\include\stack
xdata	ENDS
;	COMDAT ?pop@?$stack@_WV?$deque@_WV?$allocator@_W@std@@@std@@@std@@QEAAXXZ
_TEXT	SEGMENT
this$ = 48
?pop@?$stack@_WV?$deque@_WV?$allocator@_W@std@@@std@@@std@@QEAAXXZ PROC ; std::stack<wchar_t,std::deque<wchar_t,std::allocator<wchar_t> > >::pop, COMDAT

; 62   : 		{	// erase last element

$LN10:
	push	rbx
	sub	rsp, 32					; 00000020H
	mov	rbx, rcx

; 63   : 		c.pop_back();

	mov	rcx, QWORD PTR [rcx+56]
	test	rcx, rcx
	je	SHORT $LN3@pop@2
	mov	rax, QWORD PTR [rbx+48]
	lea	rdx, QWORD PTR [rcx+rax-1]
	mov	rax, QWORD PTR [rbx+40]
	mov	rcx, rdx
	shr	rcx, 3
	cmp	rax, rcx
	ja	SHORT $LN4@pop@2
	sub	rcx, rax
$LN4@pop@2:
	mov	rax, QWORD PTR [rbx+32]
	and	edx, 7
	mov	rax, QWORD PTR [rax+rcx*8]
	lea	rcx, QWORD PTR [rbx+24]
	lea	rdx, QWORD PTR [rax+rdx*2]
	call	QWORD PTR __imp_?destroy@?$allocator@_W@std@@QEAAXPEA_W@Z
	add	QWORD PTR [rbx+56], -1
	jne	SHORT $LN3@pop@2
	mov	QWORD PTR [rbx+48], 0
$LN3@pop@2:

; 64   : 		}

	add	rsp, 32					; 00000020H
	pop	rbx
	ret	0
?pop@?$stack@_WV?$deque@_WV?$allocator@_W@std@@@std@@@std@@QEAAXXZ ENDP ; std::stack<wchar_t,std::deque<wchar_t,std::allocator<wchar_t> > >::pop
_TEXT	ENDS
PUBLIC	?ReadCompressedInt@SignatureReader@@AEAA_NPEAH@Z ; SignatureReader::ReadCompressedInt
;	COMDAT pdata
; File c:\local\sharpdevelop_3.2.0.5777_source\src\addins\misc\profiler\hook\profilermetadata.cpp
pdata	SEGMENT
$pdata$?ReadCompressedInt@SignatureReader@@AEAA_NPEAH@Z DD imagerel $LN28
	DD	imagerel $LN28+126
	DD	imagerel $unwind$?ReadCompressedInt@SignatureReader@@AEAA_NPEAH@Z
pdata	ENDS
;	COMDAT pdata
pdata	SEGMENT
$pdata$0$?ReadCompressedInt@SignatureReader@@AEAA_NPEAH@Z DD imagerel $LN28+126
	DD	imagerel $LN28+198
	DD	imagerel $chain$0$?ReadCompressedInt@SignatureReader@@AEAA_NPEAH@Z
pdata	ENDS
;	COMDAT pdata
pdata	SEGMENT
$pdata$2$?ReadCompressedInt@SignatureReader@@AEAA_NPEAH@Z DD imagerel $LN28+198
	DD	imagerel $LN28+209
	DD	imagerel $chain$2$?ReadCompressedInt@SignatureReader@@AEAA_NPEAH@Z
pdata	ENDS
;	COMDAT xdata
xdata	SEGMENT
$chain$2$?ReadCompressedInt@SignatureReader@@AEAA_NPEAH@Z DD 020021H
	DD	03400H
	DD	imagerel $LN28
	DD	imagerel $LN28+126
	DD	imagerel $unwind$?ReadCompressedInt@SignatureReader@@AEAA_NPEAH@Z
xdata	ENDS
;	COMDAT xdata
xdata	SEGMENT
$chain$0$?ReadCompressedInt@SignatureReader@@AEAA_NPEAH@Z DD 020421H
	DD	03404H
	DD	imagerel $LN28
	DD	imagerel $LN28+126
	DD	imagerel $unwind$?ReadCompressedInt@SignatureReader@@AEAA_NPEAH@Z
xdata	ENDS
;	COMDAT xdata
xdata	SEGMENT
$unwind$?ReadCompressedInt@SignatureReader@@AEAA_NPEAH@Z DD 010401H
	DD	0204H
; Function compile flags: /Ogtpy
xdata	ENDS
;	COMDAT ?ReadCompressedInt@SignatureReader@@AEAA_NPEAH@Z
_TEXT	SEGMENT
this$ = 16
out$ = 24
?ReadCompressedInt@SignatureReader@@AEAA_NPEAH@Z PROC	; SignatureReader::ReadCompressedInt, COMDAT

; 496  : {

$LN28:
	sub	rsp, 8

; 497  :     byte byte1 = 0, byte2 = 0, byte3 = 0, byte4 = 0;
; 498  :         
; 499  :     if (!ReadByte(&byte1))

	mov	rax, QWORD PTR [rcx+24]
	mov	r9, rcx
	mov	rcx, QWORD PTR [rcx+40]
	mov	r10, rdx
	cmp	rax, rcx
	jae	SHORT $LN14@ReadCompre
	movzx	r8d, BYTE PTR [rax]
	inc	rax
	mov	QWORD PTR [r9+24], rax

; 500  :         return false;
; 501  : 
; 502  :     if (byte1 == 0xff) // = nullptr -> error

	cmp	r8b, 255				; 000000ffH
	jne	SHORT $LN7@ReadCompre

; 508  :     }
; 509  : 
; 510  :     if (!ReadByte(&byte2))

$LN14@ReadCompre:

; 503  : 		return false;

	xor	al, al

; 529  : }

	add	rsp, 8
	ret	0
$LN7@ReadCompre:

; 504  : 
; 505  :     if ((byte1 & 0x80) == 0) {

	test	r8b, r8b
	js	SHORT $LN6@ReadCompre

; 506  :         *out = (int)byte1;

	movzx	eax, r8b
	mov	DWORD PTR [rdx], eax

; 507  :         return true;

	mov	al, 1

; 529  : }

	add	rsp, 8
	ret	0
$LN6@ReadCompre:

; 508  :     }
; 509  : 
; 510  :     if (!ReadByte(&byte2))

	cmp	rax, rcx
	jae	SHORT $LN14@ReadCompre
	movzx	r11d, BYTE PTR [rax]
	inc	rax
	mov	QWORD PTR [r9+24], rax

; 511  :         return false;
; 512  : 
; 513  :     if ((byte1 & 0x40) == 0) {

	test	r8b, 64					; 00000040H
	jne	SHORT $LN4@ReadCompre

; 514  :         *out = (((byte1 & 0x3f) << 8) | byte2);

	movzx	eax, r11b
	movzx	ecx, r8b
	and	ecx, 63					; 0000003fH
	shl	ecx, 8
	or	ecx, eax

; 515  :         return true;

	mov	al, 1
	mov	DWORD PTR [rdx], ecx

; 529  : }

	add	rsp, 8
	ret	0
$LN4@ReadCompre:

; 516  :     }
; 517  : 
; 518  :     if ((byte1 & 0x20) != 0)        

	test	r8b, 32					; 00000020H

; 519  :         return false;

	jne	SHORT $LN14@ReadCompre

; 520  : 
; 521  :     if (!ReadByte(&byte3))

	cmp	rax, rcx
	jae	SHORT $LN14@ReadCompre
	inc	rax
	mov	QWORD PTR [rsp], rbx
	movzx	ebx, BYTE PTR [rax-1]
	mov	QWORD PTR [r9+24], rax

; 522  :         return false;
; 523  :     
; 524  :     if (!ReadByte(&byte4))

	cmp	rax, rcx
	jae	SHORT $LN20@ReadCompre
	movzx	ecx, BYTE PTR [rax]
	inc	rax

; 526  : 
; 527  :     *out = ((byte1 & 0x1f) << 24) | (byte2 << 16) | (byte3 << 8) | byte4;

	movzx	edx, r8b
	and	edx, 31
	mov	QWORD PTR [r9+24], rax
	movzx	eax, r11b
	shl	edx, 8
	or	edx, eax
	movzx	eax, bl
	mov	rbx, QWORD PTR [rsp]
	shl	edx, 8
	or	edx, eax
	mov	eax, ecx

; 528  :     return true;

	mov	al, 1
	shl	edx, 8
	or	edx, ecx
	mov	DWORD PTR [r10], edx

; 529  : }

	add	rsp, 8
	ret	0

; 522  :         return false;
; 523  :     
; 524  :     if (!ReadByte(&byte4))

$LN20@ReadCompre:

; 525  :         return false;

	xor	al, al
	mov	rbx, QWORD PTR [rsp]

; 529  : }

	add	rsp, 8
	ret	0
?ReadCompressedInt@SignatureReader@@AEAA_NPEAH@Z ENDP	; SignatureReader::ReadCompressedInt
; Function compile flags: /Ogtpy
; File c:\program files\microsoft sdks\windows\v7.0\include\cor.h
_TEXT	ENDS
;	COMDAT ?CorSigUncompressData@@YAKPEBEPEAK@Z
_TEXT	SEGMENT
pData$ = 8
pDataOut$ = 16
?CorSigUncompressData@@YAKPEBEPEAK@Z PROC		; CorSigUncompressData, COMDAT

; 2355 : 
; 2356 :     ULONG dwSizeOfData = 0;
; 2357 : 
; 2358 :     // We don't know how big the signature is, so we'll just say that it's big enough
; 2359 :     if (FAILED(CorSigUncompressData(pData, 0xff, pDataOut, &dwSizeOfData)))

	movzx	r8d, BYTE PTR [rcx]
	mov	r9, rcx
	test	r8b, r8b
	js	SHORT $LN15@CorSigUnco@2
	movzx	eax, r8b
	mov	DWORD PTR [rdx], eax
	mov	eax, 1

; 2361 : 
; 2362 : 
; 2363 :     return dwSizeOfData;
; 2364 : }

	ret	0

; 2355 : 
; 2356 :     ULONG dwSizeOfData = 0;
; 2357 : 
; 2358 :     // We don't know how big the signature is, so we'll just say that it's big enough
; 2359 :     if (FAILED(CorSigUncompressData(pData, 0xff, pDataOut, &dwSizeOfData)))

$LN15@CorSigUnco@2:
	movzx	eax, r8b
	and	al, 192					; 000000c0H
	cmp	al, 128					; 00000080H
	jne	SHORT $LN11@CorSigUnco@2
	movzx	eax, BYTE PTR [r9+1]
	movzx	ecx, r8b
	and	ecx, 63					; 0000003fH
	shl	ecx, 8
	or	ecx, eax
	mov	eax, 2
	mov	DWORD PTR [rdx], ecx

; 2361 : 
; 2362 : 
; 2363 :     return dwSizeOfData;
; 2364 : }

	ret	0

; 2355 : 
; 2356 :     ULONG dwSizeOfData = 0;
; 2357 : 
; 2358 :     // We don't know how big the signature is, so we'll just say that it's big enough
; 2359 :     if (FAILED(CorSigUncompressData(pData, 0xff, pDataOut, &dwSizeOfData)))

$LN11@CorSigUnco@2:
	movzx	eax, r8b
	and	al, 224					; 000000e0H
	cmp	al, 192					; 000000c0H
	jne	SHORT $LN7@CorSigUnco@2
	movzx	eax, BYTE PTR [r9+1]
	movzx	ecx, r8b
	and	ecx, 31
	shl	ecx, 8
	or	ecx, eax
	movzx	eax, BYTE PTR [r9+2]
	shl	ecx, 8
	or	ecx, eax
	movzx	eax, BYTE PTR [r9+3]
	shl	ecx, 8
	or	ecx, eax
	mov	eax, 4
	mov	DWORD PTR [rdx], ecx

; 2361 : 
; 2362 : 
; 2363 :     return dwSizeOfData;
; 2364 : }

	ret	0

; 2355 : 
; 2356 :     ULONG dwSizeOfData = 0;
; 2357 : 
; 2358 :     // We don't know how big the signature is, so we'll just say that it's big enough
; 2359 :     if (FAILED(CorSigUncompressData(pData, 0xff, pDataOut, &dwSizeOfData)))

$LN7@CorSigUnco@2:
	mov	DWORD PTR [rdx], 0

; 2360 :         return (ULONG)-1;

	or	eax, -1					; ffffffffH

; 2361 : 
; 2362 : 
; 2363 :     return dwSizeOfData;
; 2364 : }

	ret	0
?CorSigUncompressData@@YAKPEBEPEAK@Z ENDP		; CorSigUncompressData
;	COMDAT pdata
; File c:\program files\microsoft visual studio 9.0\vc\include\ios
pdata	SEGMENT
$pdata$??$?6_WU?$char_traits@_W@std@@@std@@YAAEAV?$basic_ostream@_WU?$char_traits@_W@std@@@0@AEAV10@PEBD@Z DD imagerel $LN110
	DD	imagerel $LN110+600
	DD	imagerel $unwind$??$?6_WU?$char_traits@_W@std@@@std@@YAAEAV?$basic_ostream@_WU?$char_traits@_W@std@@@0@AEAV10@PEBD@Z
pdata	ENDS
;	COMDAT pdata
pdata	SEGMENT
$pdata$?dtor$2@?0???$?6_WU?$char_traits@_W@std@@@std@@YAAEAV?$basic_ostream@_WU?$char_traits@_W@std@@@0@AEAV10@PEBD@Z@4HA DD imagerel ?dtor$2@?0???$?6_WU?$char_traits@_W@std@@@std@@YAAEAV?$basic_ostream@_WU?$char_traits@_W@std@@@0@AEAV10@PEBD@Z@4HA
	DD	imagerel ?dtor$2@?0???$?6_WU?$char_traits@_W@std@@@std@@YAAEAV?$basic_ostream@_WU?$char_traits@_W@std@@@0@AEAV10@PEBD@Z@4HA+24
	DD	imagerel $unwind$?dtor$2@?0???$?6_WU?$char_traits@_W@std@@@std@@YAAEAV?$basic_ostream@_WU?$char_traits@_W@std@@@0@AEAV10@PEBD@Z@4HA
pdata	ENDS
;	COMDAT pdata
pdata	SEGMENT
$pdata$?dtor$0@?0???$?6_WU?$char_traits@_W@std@@@std@@YAAEAV?$basic_ostream@_WU?$char_traits@_W@std@@@0@AEAV10@PEBD@Z@4HA DD imagerel ?dtor$0@?0???$?6_WU?$char_traits@_W@std@@@std@@YAAEAV?$basic_ostream@_WU?$char_traits@_W@std@@@0@AEAV10@PEBD@Z@4HA
	DD	imagerel ?dtor$0@?0???$?6_WU?$char_traits@_W@std@@@std@@YAAEAV?$basic_ostream@_WU?$char_traits@_W@std@@@0@AEAV10@PEBD@Z@4HA+24
	DD	imagerel $unwind$?dtor$0@?0???$?6_WU?$char_traits@_W@std@@@std@@YAAEAV?$basic_ostream@_WU?$char_traits@_W@std@@@0@AEAV10@PEBD@Z@4HA
pdata	ENDS
;	COMDAT pdata
pdata	SEGMENT
$pdata$?dtor$1@?0???$?6_WU?$char_traits@_W@std@@@std@@YAAEAV?$basic_ostream@_WU?$char_traits@_W@std@@@0@AEAV10@PEBD@Z@4HA DD imagerel ?dtor$1@?0???$?6_WU?$char_traits@_W@std@@@std@@YAAEAV?$basic_ostream@_WU?$char_traits@_W@std@@@0@AEAV10@PEBD@Z@4HA
	DD	imagerel ?dtor$1@?0???$?6_WU?$char_traits@_W@std@@@std@@YAAEAV?$basic_ostream@_WU?$char_traits@_W@std@@@0@AEAV10@PEBD@Z@4HA+25
