; Listing generated by Microsoft (R) Optimizing Compiler Version 15.00.30729.01 

include listing.inc

INCLUDELIB OLDNAMES

PUBLIC	??$?0_W@?$allocator@V_Aux_cont@std@@@std@@QEAA@AEBV?$allocator@_W@1@@Z ; std::allocator<std::_Aux_cont>::allocator<std::_Aux_cont><wchar_t>
PUBLIC	??0?$_Container_base_aux_alloc_real@V?$allocator@_W@std@@@std@@IEAA@V?$allocator@_W@1@@Z ; std::_Container_base_aux_alloc_real<std::allocator<wchar_t> >::_Container_base_aux_alloc_real<std::allocator<wchar_t> >
PUBLIC	??$?0_W@?$allocator@PEA_W@std@@QEAA@AEBV?$allocator@_W@1@@Z ; std::allocator<wchar_t * __ptr64>::allocator<wchar_t * __ptr64><wchar_t>
PUBLIC	??0?$_Deque_map@_WV?$allocator@_W@std@@@std@@IEAA@V?$allocator@_W@1@@Z ; std::_Deque_map<wchar_t,std::allocator<wchar_t> >::_Deque_map<wchar_t,std::allocator<wchar_t> >
PUBLIC	??0?$_Deque_val@_WV?$allocator@_W@std@@@std@@IEAA@V?$allocator@_W@1@@Z ; std::_Deque_val<wchar_t,std::allocator<wchar_t> >::_Deque_val<wchar_t,std::allocator<wchar_t> >
PUBLIC	??0?$deque@_WV?$allocator@_W@std@@@std@@QEAA@XZ	; std::deque<wchar_t,std::allocator<wchar_t> >::deque<wchar_t,std::allocator<wchar_t> >
PUBLIC	??0?$stack@_WV?$deque@_WV?$allocator@_W@std@@@std@@@std@@QEAA@XZ ; std::stack<wchar_t,std::deque<wchar_t,std::allocator<wchar_t> > >::stack<wchar_t,std::deque<wchar_t,std::allocator<wchar_t> > >
PUBLIC	??1?$_Container_base_aux_alloc_real@V?$allocator@_W@std@@@std@@IEAA@XZ ; std::_Container_base_aux_alloc_real<std::allocator<wchar_t> >::~_Container_base_aux_alloc_real<std::allocator<wchar_t> >
PUBLIC	??1?$_Deque_map@_WV?$allocator@_W@std@@@std@@QEAA@XZ ; std::_Deque_map<wchar_t,std::allocator<wchar_t> >::~_Deque_map<wchar_t,std::allocator<wchar_t> >
PUBLIC	??1?$_Deque_val@_WV?$allocator@_W@std@@@std@@QEAA@XZ ; std::_Deque_val<wchar_t,std::allocator<wchar_t> >::~_Deque_val<wchar_t,std::allocator<wchar_t> >
PUBLIC	??$_Destroy@PEA_W@std@@YAXPEAPEA_W@Z		; std::_Destroy<wchar_t * __ptr64>
PUBLIC	?destroy@?$allocator@PEA_W@std@@QEAAXPEAPEA_W@Z	; std::allocator<wchar_t * __ptr64>::destroy
PUBLIC	?_Tidy@?$deque@_WV?$allocator@_W@std@@@std@@IEAAXXZ ; std::deque<wchar_t,std::allocator<wchar_t> >::_Tidy
PUBLIC	??1?$deque@_WV?$allocator@_W@std@@@std@@QEAA@XZ	; std::deque<wchar_t,std::allocator<wchar_t> >::~deque<wchar_t,std::allocator<wchar_t> >
PUBLIC	??1?$stack@_WV?$deque@_WV?$allocator@_W@std@@@std@@@std@@QEAA@XZ ; std::stack<wchar_t,std::deque<wchar_t,std::allocator<wchar_t> > >::~stack<wchar_t,std::deque<wchar_t,std::allocator<wchar_t> > >
PUBLIC	??0?$allocator@V?$basic_string@_WU?$char_traits@_W@std@@V?$allocator@_W@2@@std@@@std@@QEAA@XZ ; std::allocator<std::basic_string<wchar_t,std::char_traits<wchar_t>,std::allocator<wchar_t> > >::allocator<std::basic_string<wchar_t,std::char_traits<wchar_t>,std::allocator<wchar_t> > >
PUBLIC	??$?0V?$basic_string@_WU?$char_traits@_W@std@@V?$allocator@_W@2@@std@@@?$allocator@V_Aux_cont@std@@@std@@QEAA@AEBV?$allocator@V?$basic_string@_WU?$char_traits@_W@std@@V?$allocator@_W@2@@std@@@1@@Z ; std::allocator<std::_Aux_cont>::allocator<std::_Aux_cont><std::basic_string<wchar_t,std::char_traits<wchar_t>,std::allocator<wchar_t> > >
PUBLIC	??0?$_Container_base_aux_alloc_real@V?$allocator@V?$basic_string@_WU?$char_traits@_W@std@@V?$allocator@_W@2@@std@@@std@@@std@@IEAA@V?$allocator@V?$basic_string@_WU?$char_traits@_W@std@@V?$allocator@_W@2@@std@@@1@@Z ; std::_Container_base_aux_alloc_real<std::allocator<std::basic_string<wchar_t,std::char_traits<wchar_t>,std::allocator<wchar_t> > > >::_Container_base_aux_alloc_real<std::allocator<std::basic_string<wchar_t,std::char_traits<wchar_t>,std::allocator<wchar_t> > > >
PUBLIC	??0?$allocator@V?$basic_string@_WU?$char_traits@_W@std@@V?$allocator@_W@2@@std@@@std@@QEAA@AEBV01@@Z ; std::allocator<std::basic_string<wchar_t,std::char_traits<wchar_t>,std::allocator<wchar_t> > >::allocator<std::basic_string<wchar_t,std::char_traits<wchar_t>,std::allocator<wchar_t> > >
PUBLIC	??$?0V?$basic_string@_WU?$char_traits@_W@std@@V?$allocator@_W@2@@std@@@?$allocator@PEAV?$basic_string@_WU?$char_traits@_W@std@@V?$allocator@_W@2@@std@@@std@@QEAA@AEBV?$allocator@V?$basic_string@_WU?$char_traits@_W@std@@V?$allocator@_W@2@@std@@@1@@Z ; std::allocator<std::basic_string<wchar_t,std::char_traits<wchar_t>,std::allocator<wchar_t> > * __ptr64>::allocator<std::basic_string<wchar_t,std::char_traits<wchar_t>,std::allocator<wchar_t> > * __ptr64><std::basic_string<wchar_t,std::char_traits<wchar_t>,std::allocator<wchar_t> > >
PUBLIC	??0?$_Deque_map@V?$basic_string@_WU?$char_traits@_W@std@@V?$allocator@_W@2@@std@@V?$allocator@V?$basic_string@_WU?$char_traits@_W@std@@V?$allocator@_W@2@@std@@@2@@std@@IEAA@V?$allocator@V?$basic_string@_WU?$char_traits@_W@std@@V?$allocator@_W@2@@std@@@1@@Z ; std::_Deque_map<std::basic_string<wchar_t,std::char_traits<wchar_t>,std::allocator<wchar_t> >,std::allocator<std::basic_string<wchar_t,std::char_traits<wchar_t>,std::allocator<wchar_t> > > >::_Deque_map<std::basic_string<wchar_t,std::char_traits<wchar_t>,std::allocator<wchar_t> >,std::allocator<std::basic_string<wchar_t,std::char_traits<wchar_t>,std::allocator<wchar_t> > > >
PUBLIC	??0?$_Deque_val@V?$basic_string@_WU?$char_traits@_W@std@@V?$allocator@_W@2@@std@@V?$allocator@V?$basic_string@_WU?$char_traits@_W@std@@V?$allocator@_W@2@@std@@@2@@std@@IEAA@V?$allocator@V?$basic_string@_WU?$char_traits@_W@std@@V?$allocator@_W@2@@std@@@1@@Z ; std::_Deque_val<std::basic_string<wchar_t,std::char_traits<wchar_t>,std::allocator<wchar_t> >,std::allocator<std::basic_string<wchar_t,std::char_traits<wchar_t>,std::allocator<wchar_t> > > >::_Deque_val<std::basic_string<wchar_t,std::char_traits<wchar_t>,std::allocator<wchar_t> >,std::allocator<std::basic_string<wchar_t,std::char_traits<wchar_t>,std::allocator<wchar_t> > > >
PUBLIC	??0?$deque@V?$basic_string@_WU?$char_traits@_W@std@@V?$allocator@_W@2@@std@@V?$allocator@V?$basic_string@_WU?$char_traits@_W@std@@V?$allocator@_W@2@@std@@@2@@std@@QEAA@XZ ; std::deque<std::basic_string<wchar_t,std::char_traits<wchar_t>,std::allocator<wchar_t> >,std::allocator<std::basic_string<wchar_t,std::char_traits<wchar_t>,std::allocator<wchar_t> > > >::deque<std::basic_string<wchar_t,std::char_traits<wchar_t>,std::allocator<wchar_t> >,std::allocator<std::basic_string<wchar_t,std::char_traits<wchar_t>,std::allocator<wchar_t> > > >
PUBLIC	??0?$stack@V?$basic_string@_WU?$char_traits@_W@std@@V?$allocator@_W@2@@std@@V?$deque@V?$basic_string@_WU?$char_traits@_W@std@@V?$allocator@_W@2@@std@@V?$allocator@V?$basic_string@_WU?$char_traits@_W@std@@V?$allocator@_W@2@@std@@@2@@2@@std@@QEAA@XZ ; std::stack<std::basic_string<wchar_t,std::char_traits<wchar_t>,std::allocator<wchar_t> >,std::deque<std::basic_string<wchar_t,std::char_traits<wchar_t>,std::allocator<wchar_t> >,std::allocator<std::basic_string<wchar_t,std::char_traits<wchar_t>,std::allocator<wchar_t> > > > >::stack<std::basic_string<wchar_t,std::char_traits<wchar_t>,std::allocator<wchar_t> >,std::deque<std::basic_string<wchar_t,std::char_traits<wchar_t>,std::allocator<wchar_t> >,std::allocator<std::basic_string<wchar_t,std::char_traits<wchar_t>,std::allocator<wchar_t> > > > >
PUBLIC	?empty@?$stack@V?$basic_string@_WU?$char_traits@_W@std@@V?$allocator@_W@2@@std@@V?$deque@V?$basic_string@_WU?$char_traits@_W@std@@V?$allocator@_W@2@@std@@V?$allocator@V?$basic_string@_WU?$char_traits@_W@std@@V?$allocator@_W@2@@std@@@2@@2@@std@@QEBA_NXZ ; std::stack<std::basic_string<wchar_t,std::char_traits<wchar_t>,std::allocator<wchar_t> >,std::deque<std::basic_string<wchar_t,std::char_traits<wchar_t>,std::allocator<wchar_t> >,std::allocator<std::basic_string<wchar_t,std::char_traits<wchar_t>,std::allocator<wchar_t> > > > >::empty
PUBLIC	??0?$_Iterator_with_base@Urandom_access_iterator_tag@std@@V?$basic_string@_WU?$char_traits@_W@std@@V?$allocator@_W@2@@2@_JPEBV32@AEBV32@V_Iterator_base_aux@2@@std@@QEAA@XZ ; std::_Iterator_with_base<std::random_access_iterator_tag,std::basic_string<wchar_t,std::char_traits<wchar_t>,std::allocator<wchar_t> >,__int64,std::basic_string<wchar_t,std::char_traits<wchar_t>,std::allocator<wchar_t> > const * __ptr64,std::basic_string<wchar_t,std::char_traits<wchar_t>,std::allocator<wchar_t> > const & __ptr64,std::_Iterator_base_aux>::_Iterator_with_base<std::random_access_iterator_tag,std::basic_string<wchar_t,std::char_traits<wchar_t>,std::allocator<wchar_t> >,__int64,std::basic_string<wchar_t,std::char_traits<wchar_t>,std::allocator<wchar_t> > const * __ptr64,std::basic_string<wchar_t,std::char_traits<wchar_t>,std::allocator<wchar_t> > const & __ptr64,std::_Iterator_base_aux>
PUBLIC	??0?$_Ranit@V?$basic_string@_WU?$char_traits@_W@std@@V?$allocator@_W@2@@std@@_JPEBV12@AEBV12@@std@@QEAA@XZ ; std::_Ranit<std::basic_string<wchar_t,std::char_traits<wchar_t>,std::allocator<wchar_t> >,__int64,std::basic_string<wchar_t,std::char_traits<wchar_t>,std::allocator<wchar_t> > const * __ptr64,std::basic_string<wchar_t,std::char_traits<wchar_t>,std::allocator<wchar_t> > const & __ptr64>::_Ranit<std::basic_string<wchar_t,std::char_traits<wchar_t>,std::allocator<wchar_t> >,__int64,std::basic_string<wchar_t,std::char_traits<wchar_t>,std::allocator<wchar_t> > const * __ptr64,std::basic_string<wchar_t,std::char_traits<wchar_t>,std::allocator<wchar_t> > const & __ptr64>
PUBLIC	??0?$_Deque_const_iterator@V?$basic_string@_WU?$char_traits@_W@std@@V?$allocator@_W@2@@std@@V?$allocator@V?$basic_string@_WU?$char_traits@_W@std@@V?$allocator@_W@2@@std@@@2@$00@std@@QEAA@_KPEBV_Container_base_aux@1@@Z ; std::_Deque_const_iterator<std::basic_string<wchar_t,std::char_traits<wchar_t>,std::allocator<wchar_t> >,std::allocator<std::basic_string<wchar_t,std::char_traits<wchar_t>,std::allocator<wchar_t> > >,1>::_Deque_const_iterator<std::basic_string<wchar_t,std::char_traits<wchar_t>,std::allocator<wchar_t> >,std::allocator<std::basic_string<wchar_t,std::char_traits<wchar_t>,std::allocator<wchar_t> > >,1>
PUBLIC	??0?$_Deque_iterator@V?$basic_string@_WU?$char_traits@_W@std@@V?$allocator@_W@2@@std@@V?$allocator@V?$basic_string@_WU?$char_traits@_W@std@@V?$allocator@_W@2@@std@@@2@$00@std@@QEAA@_KPEBV_Container_base_aux@1@@Z ; std::_Deque_iterator<std::basic_string<wchar_t,std::char_traits<wchar_t>,std::allocator<wchar_t> >,std::allocator<std::basic_string<wchar_t,std::char_traits<wchar_t>,std::allocator<wchar_t> > >,1>::_Deque_iterator<std::basic_string<wchar_t,std::char_traits<wchar_t>,std::allocator<wchar_t> >,std::allocator<std::basic_string<wchar_t,std::char_traits<wchar_t>,std::allocator<wchar_t> > >,1>
PUBLIC	?end@?$deque@V?$basic_string@_WU?$char_traits@_W@std@@V?$allocator@_W@2@@std@@V?$allocator@V?$basic_string@_WU?$char_traits@_W@std@@V?$allocator@_W@2@@std@@@2@@std@@QEAA?AV?$_Deque_iterator@V?$basic_string@_WU?$char_traits@_W@std@@V?$allocator@_W@2@@std@@V?$allocator@V?$basic_string@_WU?$char_traits@_W@std@@V?$allocator@_W@2@@std@@@2@$00@2@XZ ; std::deque<std::basic_string<wchar_t,std::char_traits<wchar_t>,std::allocator<wchar_t> >,std::allocator<std::basic_string<wchar_t,std::char_traits<wchar_t>,std::allocator<wchar_t> > > >::end
PUBLIC	??D?$_Deque_const_iterator@V?$basic_string@_WU?$char_traits@_W@std@@V?$allocator@_W@2@@std@@V?$allocator@V?$basic_string@_WU?$char_traits@_W@std@@V?$allocator@_W@2@@std@@@2@$00@std@@QEBAAEBV?$basic_string@_WU?$char_traits@_W@std@@V?$allocator@_W@2@@1@XZ ; std::_Deque_const_iterator<std::basic_string<wchar_t,std::char_traits<wchar_t>,std::allocator<wchar_t> >,std::allocator<std::basic_string<wchar_t,std::char_traits<wchar_t>,std::allocator<wchar_t> > >,1>::operator*
PUBLIC	??D?$_Deque_iterator@V?$basic_string@_WU?$char_traits@_W@std@@V?$allocator@_W@2@@std@@V?$allocator@V?$basic_string@_WU?$char_traits@_W@std@@V?$allocator@_W@2@@std@@@2@$00@std@@QEBAAEAV?$basic_string@_WU?$char_traits@_W@std@@V?$allocator@_W@2@@1@XZ ; std::_Deque_iterator<std::basic_string<wchar_t,std::char_traits<wchar_t>,std::allocator<wchar_t> >,std::allocator<std::basic_string<wchar_t,std::char_traits<wchar_t>,std::allocator<wchar_t> > >,1>::operator*
PUBLIC	??Y?$_Deque_const_iterator@V?$basic_string@_WU?$char_traits@_W@std@@V?$allocator@_W@2@@std@@V?$allocator@V?$basic_string@_WU?$char_traits@_W@std@@V?$allocator@_W@2@@std@@@2@$00@std@@QEAAAEAV01@_J@Z ; std::_Deque_const_iterator<std::basic_string<wchar_t,std::char_traits<wchar_t>,std::allocator<wchar_t> >,std::allocator<std::basic_string<wchar_t,std::char_traits<wchar_t>,std::allocator<wchar_t> > >,1>::operator+=
PUBLIC	??Y?$_Deque_iterator@V?$basic_string@_WU?$char_traits@_W@std@@V?$allocator@_W@2@@std@@V?$allocator@V?$basic_string@_WU?$char_traits@_W@std@@V?$allocator@_W@2@@std@@@2@$00@std@@QEAAAEAV01@_J@Z ; std::_Deque_iterator<std::basic_string<wchar_t,std::char_traits<wchar_t>,std::allocator<wchar_t> >,std::allocator<std::basic_string<wchar_t,std::char_traits<wchar_t>,std::allocator<wchar_t> > >,1>::operator+=
PUBLIC	??Z?$_Deque_iterator@V?$basic_string@_WU?$char_traits@_W@std@@V?$allocator@_W@2@@std@@V?$allocator@V?$basic_string@_WU?$char_traits@_W@std@@V?$allocator@_W@2@@std@@@2@$00@std@@QEAAAEAV01@_J@Z ; std::_Deque_iterator<std::basic_string<wchar_t,std::char_traits<wchar_t>,std::allocator<wchar_t> >,std::allocator<std::basic_string<wchar_t,std::char_traits<wchar_t>,std::allocator<wchar_t> > >,1>::operator-=
PUBLIC	??G?$_Deque_iterator@V?$basic_string@_WU?$char_traits@_W@std@@V?$allocator@_W@2@@std@@V?$allocator@V?$basic_string@_WU?$char_traits@_W@std@@V?$allocator@_W@2@@std@@@2@$00@std@@QEBA?AV01@_J@Z ; std::_Deque_iterator<std::basic_string<wchar_t,std::char_traits<wchar_t>,std::allocator<wchar_t> >,std::allocator<std::basic_string<wchar_t,std::char_traits<wchar_t>,std::allocator<wchar_t> > >,1>::operator-
PUBLIC	?back@?$deque@V?$basic_string@_WU?$char_traits@_W@std@@V?$allocator@_W@2@@std@@V?$allocator@V?$basic_string@_WU?$char_traits@_W@std@@V?$allocator@_W@2@@std@@@2@@std@@QEAAAEAV?$basic_string@_WU?$char_traits@_W@std@@V?$allocator@_W@2@@2@XZ ; std::deque<std::basic_string<wchar_t,std::char_traits<wchar_t>,std::allocator<wchar_t> >,std::allocator<std::basic_string<wchar_t,std::char_traits<wchar_t>,std::allocator<wchar_t> > > >::back
PUBLIC	?top@?$stack@V?$basic_string@_WU?$char_traits@_W@std@@V?$allocator@_W@2@@std@@V?$deque@V?$basic_string@_WU?$char_traits@_W@std@@V?$allocator@_W@2@@std@@V?$allocator@V?$basic_string@_WU?$char_traits@_W@std@@V?$allocator@_W@2@@std@@@2@@2@@std@@QEAAAEAV?$basic_string@_WU?$char_traits@_W@std@@V?$allocator@_W@2@@2@XZ ; std::stack<std::basic_string<wchar_t,std::char_traits<wchar_t>,std::allocator<wchar_t> >,std::deque<std::basic_string<wchar_t,std::char_traits<wchar_t>,std::allocator<wchar_t> >,std::allocator<std::basic_string<wchar_t,std::char_traits<wchar_t>,std::allocator<wchar_t> > > > >::top
PUBLIC	??$_Allocate@V?$basic_string@_WU?$char_traits@_W@std@@V?$allocator@_W@2@@std@@@std@@YAPEAV?$basic_string@_WU?$char_traits@_W@std@@V?$allocator@_W@2@@0@_KPEAV10@@Z ; std::_Allocate<std::basic_string<wchar_t,std::char_traits<wchar_t>,std::allocator<wchar_t> > >
PUBLIC	?allocate@?$allocator@V?$basic_string@_WU?$char_traits@_W@std@@V?$allocator@_W@2@@std@@@std@@QEAAPEAV?$basic_string@_WU?$char_traits@_W@std@@V?$allocator@_W@2@@2@_K@Z ; std::allocator<std::basic_string<wchar_t,std::char_traits<wchar_t>,std::allocator<wchar_t> > >::allocate
PUBLIC	??$_Construct@V?$basic_string@_WU?$char_traits@_W@std@@V?$allocator@_W@2@@std@@V12@@std@@YAXPEAV?$basic_string@_WU?$char_traits@_W@std@@V?$allocator@_W@2@@0@AEBV10@@Z ; std::_Construct<std::basic_string<wchar_t,std::char_traits<wchar_t>,std::allocator<wchar_t> >,std::basic_string<wchar_t,std::char_traits<wchar_t>,std::allocator<wchar_t> > >
PUBLIC	?construct@?$allocator@V?$basic_string@_WU?$char_traits@_W@std@@V?$allocator@_W@2@@std@@@std@@QEAAXPEAV?$basic_string@_WU?$char_traits@_W@std@@V?$allocator@_W@2@@2@AEBV32@@Z ; std::allocator<std::basic_string<wchar_t,std::char_traits<wchar_t>,std::allocator<wchar_t> > >::construct
PUBLIC	??$_Allocate@PEAV?$basic_string@_WU?$char_traits@_W@std@@V?$allocator@_W@2@@std@@@std@@YAPEAPEAV?$basic_string@_WU?$char_traits@_W@std@@V?$allocator@_W@2@@0@_KPEAPEAV10@@Z ; std::_Allocate<std::basic_string<wchar_t,std::char_traits<wchar_t>,std::allocator<wchar_t> > * __ptr64>
PUBLIC	?allocate@?$allocator@PEAV?$basic_string@_WU?$char_traits@_W@std@@V?$allocator@_W@2@@std@@@std@@QEAAPEAPEAV?$basic_string@_WU?$char_traits@_W@std@@V?$allocator@_W@2@@2@_K@Z ; std::allocator<std::basic_string<wchar_t,std::char_traits<wchar_t>,std::allocator<wchar_t> > * __ptr64>::allocate
PUBLIC	?max_size@?$allocator@V?$basic_string@_WU?$char_traits@_W@std@@V?$allocator@_W@2@@std@@@std@@QEBA_KXZ ; std::allocator<std::basic_string<wchar_t,std::char_traits<wchar_t>,std::allocator<wchar_t> > >::max_size
PUBLIC	?max_size@?$deque@V?$basic_string@_WU?$char_traits@_W@std@@V?$allocator@_W@2@@std@@V?$allocator@V?$basic_string@_WU?$char_traits@_W@std@@V?$allocator@_W@2@@std@@@2@@std@@QEBA_KXZ ; std::deque<std::basic_string<wchar_t,std::char_traits<wchar_t>,std::allocator<wchar_t> >,std::allocator<std::basic_string<wchar_t,std::char_traits<wchar_t>,std::allocator<wchar_t> > > >::max_size
PUBLIC	?_Xlen@?$deque@V?$basic_string@_WU?$char_traits@_W@std@@V?$allocator@_W@2@@std@@V?$allocator@V?$basic_string@_WU?$char_traits@_W@std@@V?$allocator@_W@2@@std@@@2@@std@@KAXXZ ; std::deque<std::basic_string<wchar_t,std::char_traits<wchar_t>,std::allocator<wchar_t> >,std::allocator<std::basic_string<wchar_t,std::char_traits<wchar_t>,std::allocator<wchar_t> > > >::_Xlen
PUBLIC	??$_Uninit_copy@PEAPEAV?$basic_string@_WU?$char_traits@_W@std@@V?$allocator@_W@2@@std@@PEAPEAV12@V?$allocator@PEAV?$basic_string@_WU?$char_traits@_W@std@@V?$allocator@_W@2@@std@@@2@@std@@YAPEAPEAV?$basic_string@_WU?$char_traits@_W@std@@V?$allocator@_W@2@@0@PEAPEAV10@00AEAV?$allocator@PEAV?$basic_string@_WU?$char_traits@_W@std@@V?$allocator@_W@2@@std@@@0@U_Scalar_ptr_iterator_tag@0@U_Range_checked_iterator_tag@0@@Z ; std::_Uninit_copy<std::basic_string<wchar_t,std::char_traits<wchar_t>,std::allocator<wchar_t> > * __ptr64 * __ptr64,std::basic_string<wchar_t,std::char_traits<wchar_t>,std::allocator<wchar_t> > * __ptr64 * __ptr64,std::allocator<std::basic_string<wchar_t,std::char_traits<wchar_t>,std::allocator<wchar_t> > * __ptr64> >
PUBLIC	??$unchecked_uninitialized_copy@PEAPEAV?$basic_string@_WU?$char_traits@_W@std@@V?$allocator@_W@2@@std@@PEAPEAV12@V?$allocator@PEAV?$basic_string@_WU?$char_traits@_W@std@@V?$allocator@_W@2@@std@@@2@@stdext@@YAPEAPEAV?$basic_string@_WU?$char_traits@_W@std@@V?$allocator@_W@2@@std@@PEAPEAV12@00AEAV?$allocator@PEAV?$basic_string@_WU?$char_traits@_W@std@@V?$allocator@_W@2@@std@@@2@@Z ; stdext::unchecked_uninitialized_copy<std::basic_string<wchar_t,std::char_traits<wchar_t>,std::allocator<wchar_t> > * __ptr64 * __ptr64,std::basic_string<wchar_t,std::char_traits<wchar_t>,std::allocator<wchar_t> > * __ptr64 * __ptr64,std::allocator<std::basic_string<wchar_t,std::char_traits<wchar_t>,std::allocator<wchar_t> > * __ptr64> >
PUBLIC	??$_Iter_cat@PEAPEAV?$basic_string@_WU?$char_traits@_W@std@@V?$allocator@_W@2@@std@@@std@@YA?AUrandom_access_iterator_tag@0@AEBQEAPEAV?$basic_string@_WU?$char_traits@_W@std@@V?$allocator@_W@2@@0@@Z ; std::_Iter_cat<std::basic_string<wchar_t,std::char_traits<wchar_t>,std::allocator<wchar_t> > * __ptr64 * __ptr64>
PUBLIC	??$_Checked_base@PEAPEAV?$basic_string@_WU?$char_traits@_W@std@@V?$allocator@_W@2@@std@@@std@@YAPEAPEAV?$basic_string@_WU?$char_traits@_W@std@@V?$allocator@_W@2@@0@AEAPEAPEAV10@U_Unchanged_checked_iterator_base_type_tag@0@@Z ; std::_Checked_base<std::basic_string<wchar_t,std::char_traits<wchar_t>,std::allocator<wchar_t> > * __ptr64 * __ptr64>
PUBLIC	??$_Checked_base@PEAPEAV?$basic_string@_WU?$char_traits@_W@std@@V?$allocator@_W@2@@std@@@std@@YAPEAPEAV?$basic_string@_WU?$char_traits@_W@std@@V?$allocator@_W@2@@0@AEAPEAPEAV10@@Z ; std::_Checked_base<std::basic_string<wchar_t,std::char_traits<wchar_t>,std::allocator<wchar_t> > * __ptr64 * __ptr64>
PUBLIC	??$_Fill_n@PEAPEAV?$basic_string@_WU?$char_traits@_W@std@@V?$allocator@_W@2@@std@@_KPEAV12@@std@@YAXPEAPEAV?$basic_string@_WU?$char_traits@_W@std@@V?$allocator@_W@2@@0@_KAEBQEAV10@U_Range_checked_iterator_tag@0@@Z ; std::_Fill_n<std::basic_string<wchar_t,std::char_traits<wchar_t>,std::allocator<wchar_t> > * __ptr64 * __ptr64,unsigned __int64,std::basic_string<wchar_t,std::char_traits<wchar_t>,std::allocator<wchar_t> > * __ptr64>
PUBLIC	??$_Fill_n@PEAPEAV?$basic_string@_WU?$char_traits@_W@std@@V?$allocator@_W@2@@std@@_KPEAV12@@std@@YAXPEAPEAV?$basic_string@_WU?$char_traits@_W@std@@V?$allocator@_W@2@@0@_KAEBQEAV10@Urandom_access_iterator_tag@0@U_Range_checked_iterator_tag@0@@Z ; std::_Fill_n<std::basic_string<wchar_t,std::char_traits<wchar_t>,std::allocator<wchar_t> > * __ptr64 * __ptr64,unsigned __int64,std::basic_string<wchar_t,std::char_traits<wchar_t>,std::allocator<wchar_t> > * __ptr64>
PUBLIC	??$unchecked_fill_n@PEAPEAV?$basic_string@_WU?$char_traits@_W@std@@V?$allocator@_W@2@@std@@_KPEAV12@@stdext@@YAXPEAPEAV?$basic_string@_WU?$char_traits@_W@std@@V?$allocator@_W@2@@std@@_KAEBQEAV12@@Z ; stdext::unchecked_fill_n<std::basic_string<wchar_t,std::char_traits<wchar_t>,std::allocator<wchar_t> > * __ptr64 * __ptr64,unsigned __int64,std::basic_string<wchar_t,std::char_traits<wchar_t>,std::allocator<wchar_t> > * __ptr64>
PUBLIC	??$_Uninit_fill_n@PEAPEAV?$basic_string@_WU?$char_traits@_W@std@@V?$allocator@_W@2@@std@@_KPEAV12@V?$allocator@PEAV?$basic_string@_WU?$char_traits@_W@std@@V?$allocator@_W@2@@std@@@2@@std@@YAXPEAPEAV?$basic_string@_WU?$char_traits@_W@std@@V?$allocator@_W@2@@0@_KAEBQEAV10@AEAV?$allocator@PEAV?$basic_string@_WU?$char_traits@_W@std@@V?$allocator@_W@2@@std@@@0@U_Scalar_ptr_iterator_tag@0@U_Range_checked_iterator_tag@0@@Z ; std::_Uninit_fill_n<std::basic_string<wchar_t,std::char_traits<wchar_t>,std::allocator<wchar_t> > * __ptr64 * __ptr64,unsigned __int64,std::basic_string<wchar_t,std::char_traits<wchar_t>,std::allocator<wchar_t> > * __ptr64,std::allocator<std::basic_string<wchar_t,std::char_traits<wchar_t>,std::allocator<wchar_t> > * __ptr64> >
PUBLIC	??$unchecked_uninitialized_fill_n@PEAPEAV?$basic_string@_WU?$char_traits@_W@std@@V?$allocator@_W@2@@std@@_KPEAV12@V?$allocator@PEAV?$basic_string@_WU?$char_traits@_W@std@@V?$allocator@_W@2@@std@@@2@@stdext@@YAXPEAPEAV?$basic_string@_WU?$char_traits@_W@std@@V?$allocator@_W@2@@std@@_KAEBQEAV12@AEAV?$allocator@PEAV?$basic_string@_WU?$char_traits@_W@std@@V?$allocator@_W@2@@std@@@2@@Z ; stdext::unchecked_uninitialized_fill_n<std::basic_string<wchar_t,std::char_traits<wchar_t>,std::allocator<wchar_t> > * __ptr64 * __ptr64,unsigned __int64,std::basic_string<wchar_t,std::char_traits<wchar_t>,std::allocator<wchar_t> > * __ptr64,std::allocator<std::basic_string<wchar_t,std::char_traits<wchar_t>,std::allocator<wchar_t> > * __ptr64> >
PUBLIC	??$_Ptr_cat@PEAPEAV?$basic_string@_WU?$char_traits@_W@std@@V?$allocator@_W@2@@std@@PEAPEAV12@@std@@YA?AU_Scalar_ptr_iterator_tag@0@AEAPEAPEAV?$basic_string@_WU?$char_traits@_W@std@@V?$allocator@_W@2@@0@0@Z ; std::_Ptr_cat<std::basic_string<wchar_t,std::char_traits<wchar_t>,std::allocator<wchar_t> > * __ptr64 * __ptr64,std::basic_string<wchar_t,std::char_traits<wchar_t>,std::allocator<wchar_t> > * __ptr64 * __ptr64>
PUBLIC	??$_Destroy_range@V?$allocator@PEAV?$basic_string@_WU?$char_traits@_W@std@@V?$allocator@_W@2@@std@@@std@@@std@@YAXPEAPEAV?$basic_string@_WU?$char_traits@_W@std@@V?$allocator@_W@2@@0@0AEAV?$allocator@PEAV?$basic_string@_WU?$char_traits@_W@std@@V?$allocator@_W@2@@std@@@0@U_Scalar_ptr_iterator_tag@0@@Z ; std::_Destroy_range<std::allocator<std::basic_string<wchar_t,std::char_traits<wchar_t>,std::allocator<wchar_t> > * __ptr64> >
PUBLIC	??$_Destroy_range@V?$allocator@PEAV?$basic_string@_WU?$char_traits@_W@std@@V?$allocator@_W@2@@std@@@std@@@std@@YAXPEAPEAV?$basic_string@_WU?$char_traits@_W@std@@V?$allocator@_W@2@@0@0AEAV?$allocator@PEAV?$basic_string@_WU?$char_traits@_W@std@@V?$allocator@_W@2@@std@@@0@@Z ; std::_Destroy_range<std::allocator<std::basic_string<wchar_t,std::char_traits<wchar_t>,std::allocator<wchar_t> > * __ptr64> >
PUBLIC	?_Growmap@?$deque@V?$basic_string@_WU?$char_traits@_W@std@@V?$allocator@_W@2@@std@@V?$allocator@V?$basic_string@_WU?$char_traits@_W@std@@V?$allocator@_W@2@@std@@@2@@std@@IEAAX_K@Z ; std::deque<std::basic_string<wchar_t,std::char_traits<wchar_t>,std::allocator<wchar_t> >,std::allocator<std::basic_string<wchar_t,std::char_traits<wchar_t>,std::allocator<wchar_t> > > >::_Growmap
PUBLIC	?push_back@?$deque@V?$basic_string@_WU?$char_traits@_W@std@@V?$allocator@_W@2@@std@@V?$allocator@V?$basic_string@_WU?$char_traits@_W@std@@V?$allocator@_W@2@@std@@@2@@std@@QEAAXAEBV?$basic_string@_WU?$char_traits@_W@std@@V?$allocator@_W@2@@2@@Z ; std::deque<std::basic_string<wchar_t,std::char_traits<wchar_t>,std::allocator<wchar_t> >,std::allocator<std::basic_string<wchar_t,std::char_traits<wchar_t>,std::allocator<wchar_t> > > >::push_back
PUBLIC	?push@?$stack@V?$basic_string@_WU?$char_traits@_W@std@@V?$allocator@_W@2@@std@@V?$deque@V?$basic_string@_WU?$char_traits@_W@std@@V?$allocator@_W@2@@std@@V?$allocator@V?$basic_string@_WU?$char_traits@_W@std@@V?$allocator@_W@2@@std@@@2@@2@@std@@QEAAXAEBV?$basic_string@_WU?$char_traits@_W@std@@V?$allocator@_W@2@@2@@Z ; std::stack<std::basic_string<wchar_t,std::char_traits<wchar_t>,std::allocator<wchar_t> >,std::deque<std::basic_string<wchar_t,std::char_traits<wchar_t>,std::allocator<wchar_t> >,std::allocator<std::basic_string<wchar_t,std::char_traits<wchar_t>,std::allocator<wchar_t> > > > >::push
PUBLIC	?pop@?$stack@V?$basic_string@_WU?$char_traits@_W@std@@V?$allocator@_W@2@@std@@V?$deque@V?$basic_string@_WU?$char_traits@_W@std@@V?$allocator@_W@2@@std@@V?$allocator@V?$basic_string@_WU?$char_traits@_W@std@@V?$allocator@_W@2@@std@@@2@@2@@std@@QEAAXXZ ; std::stack<std::basic_string<wchar_t,std::char_traits<wchar_t>,std::allocator<wchar_t> >,std::deque<std::basic_string<wchar_t,std::char_traits<wchar_t>,std::allocator<wchar_t> >,std::allocator<std::basic_string<wchar_t,std::char_traits<wchar_t>,std::allocator<wchar_t> > > > >::pop
PUBLIC	??1?$_Container_base_aux_alloc_real@V?$allocator@V?$basic_string@_WU?$char_traits@_W@std@@V?$allocator@_W@2@@std@@@std@@@std@@IEAA@XZ ; std::_Container_base_aux_alloc_real<std::allocator<std::basic_string<wchar_t,std::char_traits<wchar_t>,std::allocator<wchar_t> > > >::~_Container_base_aux_alloc_real<std::allocator<std::basic_string<wchar_t,std::char_traits<wchar_t>,std::allocator<wchar_t> > > >
PUBLIC	??1?$_Deque_map@V?$basic_string@_WU?$char_traits@_W@std@@V?$allocator@_W@2@@std@@V?$allocator@V?$basic_string@_WU?$char_traits@_W@std@@V?$allocator@_W@2@@std@@@2@@std@@QEAA@XZ ; std::_Deque_map<std::basic_string<wchar_t,std::char_traits<wchar_t>,std::allocator<wchar_t> >,std::allocator<std::basic_string<wchar_t,std::char_traits<wchar_t>,std::allocator<wchar_t> > > >::~_Deque_map<std::basic_string<wchar_t,std::char_traits<wchar_t>,std::allocator<wchar_t> >,std::allocator<std::basic_string<wchar_t,std::char_traits<wchar_t>,std::allocator<wchar_t> > > >
PUBLIC	??1?$_Deque_val@V?$basic_string@_WU?$char_traits@_W@std@@V?$allocator@_W@2@@std@@V?$allocator@V?$basic_string@_WU?$char_traits@_W@std@@V?$allocator@_W@2@@std@@@2@@std@@QEAA@XZ ; std::_Deque_val<std::basic_string<wchar_t,std::char_traits<wchar_t>,std::allocator<wchar_t> >,std::allocator<std::basic_string<wchar_t,std::char_traits<wchar_t>,std::allocator<wchar_t> > > >::~_Deque_val<std::basic_string<wchar_t,std::char_traits<wchar_t>,std::allocator<wchar_t> >,std::allocator<std::basic_string<wchar_t,std::char_traits<wchar_t>,std::allocator<wchar_t> > > >
PUBLIC	?deallocate@?$allocator@V?$basic_string@_WU?$char_traits@_W@std@@V?$allocator@_W@2@@std@@@std@@QEAAXPEAV?$basic_string@_WU?$char_traits@_W@std@@V?$allocator@_W@2@@2@_K@Z ; std::allocator<std::basic_string<wchar_t,std::char_traits<wchar_t>,std::allocator<wchar_t> > >::deallocate
PUBLIC	?deallocate@?$allocator@PEAV?$basic_string@_WU?$char_traits@_W@std@@V?$allocator@_W@2@@std@@@std@@QEAAXPEAPEAV?$basic_string@_WU?$char_traits@_W@std@@V?$allocator@_W@2@@2@_K@Z ; std::allocator<std::basic_string<wchar_t,std::char_traits<wchar_t>,std::allocator<wchar_t> > * __ptr64>::deallocate
PUBLIC	??$_Destroy@PEAV?$basic_string@_WU?$char_traits@_W@std@@V?$allocator@_W@2@@std@@@std@@YAXPEAPEAV?$basic_string@_WU?$char_traits@_W@std@@V?$allocator@_W@2@@0@@Z ; std::_Destroy<std::basic_string<wchar_t,std::char_traits<wchar_t>,std::allocator<wchar_t> > * __ptr64>
PUBLIC	?destroy@?$allocator@PEAV?$basic_string@_WU?$char_traits@_W@std@@V?$allocator@_W@2@@std@@@std@@QEAAXPEAPEAV?$basic_string@_WU?$char_traits@_W@std@@V?$allocator@_W@2@@2@@Z ; std::allocator<std::basic_string<wchar_t,std::char_traits<wchar_t>,std::allocator<wchar_t> > * __ptr64>::destroy
PUBLIC	??_G?$basic_string@_WU?$char_traits@_W@std@@V?$allocator@_W@2@@std@@QEAAPEAXI@Z ; std::basic_string<wchar_t,std::char_traits<wchar_t>,std::allocator<wchar_t> >::`scalar deleting destructor'
PUBLIC	??$_Destroy@V?$basic_string@_WU?$char_traits@_W@std@@V?$allocator@_W@2@@std@@@std@@YAXPEAV?$basic_string@_WU?$char_traits@_W@std@@V?$allocator@_W@2@@0@@Z ; std::_Destroy<std::basic_string<wchar_t,std::char_traits<wchar_t>,std::allocator<wchar_t> > >
PUBLIC	?destroy@?$allocator@V?$basic_string@_WU?$char_traits@_W@std@@V?$allocator@_W@2@@std@@@std@@QEAAXPEAV?$basic_string@_WU?$char_traits@_W@std@@V?$allocator@_W@2@@2@@Z ; std::allocator<std::basic_string<wchar_t,std::char_traits<wchar_t>,std::allocator<wchar_t> > >::destroy
PUBLIC	?empty@?$deque@V?$basic_string@_WU?$char_traits@_W@std@@V?$allocator@_W@2@@std@@V?$allocator@V?$basic_string@_WU?$char_traits@_W@std@@V?$allocator@_W@2@@std@@@2@@std@@QEBA_NXZ ; std::deque<std::basic_string<wchar_t,std::char_traits<wchar_t>,std::allocator<wchar_t> >,std::allocator<std::basic_string<wchar_t,std::char_traits<wchar_t>,std::allocator<wchar_t> > > >::empty
PUBLIC	?pop_back@?$deque@V?$basic_string@_WU?$char_traits@_W@std@@V?$allocator@_W@2@@std@@V?$allocator@V?$basic_string@_WU?$char_traits@_W@std@@V?$allocator@_W@2@@std@@@2@@std@@QEAAXXZ ; std::deque<std::basic_string<wchar_t,std::char_traits<wchar_t>,std::allocator<wchar_t> >,std::allocator<std::basic_string<wchar_t,std::char_traits<wchar_t>,std::allocator<wchar_t> > > >::pop_back
PUBLIC	?_Tidy@?$deque@V?$basic_string@_WU?$char_traits@_W@std@@V?$allocator@_W@2@@std@@V?$allocator@V?$basic_string@_WU?$char_traits@_W@std@@V?$allocator@_W@2@@std@@@2@@std@@IEAAXXZ ; std::deque<std::basic_string<wchar_t,std::char_traits<wchar_t>,std::allocator<wchar_t> >,std::allocator<std::basic_string<wchar_t,std::char_traits<wchar_t>,std::allocator<wchar_t> > > >::_Tidy
PUBLIC	??1?$deque@V?$basic_string@_WU?$char_traits@_W@std@@V?$allocator@_W@2@@std@@V?$allocator@V?$basic_string@_WU?$char_traits@_W@std@@V?$allocator@_W@2@@std@@@2@@std@@QEAA@XZ ; std::deque<std::basic_string<wchar_t,std::char_traits<wchar_t>,std::allocator<wchar_t> >,std::allocator<std::basic_string<wchar_t,std::char_traits<wchar_t>,std::allocator<wchar_t> > > >::~deque<std::basic_string<wchar_t,std::char_traits<wchar_t>,std::allocator<wchar_t> >,std::allocator<std::basic_string<wchar_t,std::char_traits<wchar_t>,std::allocator<wchar_t> > > >
PUBLIC	??1?$stack@V?$basic_string@_WU?$char_traits@_W@std@@V?$allocator@_W@2@@std@@V?$deque@V?$basic_string@_WU?$char_traits@_W@std@@V?$allocator@_W@2@@std@@V?$allocator@V?$basic_string@_WU?$char_traits@_W@std@@V?$allocator@_W@2@@std@@@2@@2@@std@@QEAA@XZ ; std::stack<std::basic_string<wchar_t,std::char_traits<wchar_t>,std::allocator<wchar_t> >,std::deque<std::basic_string<wchar_t,std::char_traits<wchar_t>,std::allocator<wchar_t> >,std::allocator<std::basic_string<wchar_t,std::char_traits<wchar_t>,std::allocator<wchar_t> > > > >::~stack<std::basic_string<wchar_t,std::char_traits<wchar_t>,std::allocator<wchar_t> >,std::deque<std::basic_string<wchar_t,std::char_traits<wchar_t>,std::allocator<wchar_t> >,std::allocator<std::basic_string<wchar_t,std::char_traits<wchar_t>,std::allocator<wchar_t> > > > >
PUBLIC	??$?6_WU?$char_traits@_W@std@@@std@@YAAEAV?$basic_ostream@_WU?$char_traits@_W@std@@@0@AEAV10@D@Z ; std::operator<<<wchar_t,std::char_traits<wchar_t> >
PUBLIC	?CorSigUncompressData@@YAJPEBEKPEAK1@Z		; CorSigUncompressData
PUBLIC	?CorSigUncompressData@@YAKPEBEPEAK@Z		; CorSigUncompressData
PUBLIC	?CorSigUncompressToken@@YAKPEBEPEAI@Z		; CorSigUncompressToken
PUBLIC	??$?6_WU?$char_traits@_W@std@@@std@@YAAEAV?$basic_ostream@_WU?$char_traits@_W@std@@@0@AEAV10@PEB_W@Z ; std::operator<<<wchar_t,std::char_traits<wchar_t> >
PUBLIC	?deallocate@?$allocator@PEA_W@std@@QEAAXPEAPEA_W_K@Z ; std::allocator<wchar_t * __ptr64>::deallocate
PUBLIC	??$_Allocate@PEA_W@std@@YAPEAPEA_W_KPEAPEA_W@Z	; std::_Allocate<wchar_t * __ptr64>
PUBLIC	?allocate@?$allocator@PEA_W@std@@QEAAPEAPEA_W_K@Z ; std::allocator<wchar_t * __ptr64>::allocate
PUBLIC	?max_size@?$deque@_WV?$allocator@_W@std@@@std@@QEBA_KXZ ; std::deque<wchar_t,std::allocator<wchar_t> >::max_size
PUBLIC	?_Xlen@?$deque@_WV?$allocator@_W@std@@@std@@KAXXZ ; std::deque<wchar_t,std::allocator<wchar_t> >::_Xlen
PUBLIC	??$_Uninit_copy@PEAPEA_WPEAPEA_WV?$allocator@PEA_W@std@@@std@@YAPEAPEA_WPEAPEA_W00AEAV?$allocator@PEA_W@0@U_Scalar_ptr_iterator_tag@0@U_Range_checked_iterator_tag@0@@Z ; std::_Uninit_copy<wchar_t * __ptr64 * __ptr64,wchar_t * __ptr64 * __ptr64,std::allocator<wchar_t * __ptr64> >
PUBLIC	??$unchecked_uninitialized_copy@PEAPEA_WPEAPEA_WV?$allocator@PEA_W@std@@@stdext@@YAPEAPEA_WPEAPEA_W00AEAV?$allocator@PEA_W@std@@@Z ; stdext::unchecked_uninitialized_copy<wchar_t * __ptr64 * __ptr64,wchar_t * __ptr64 * __ptr64,std::allocator<wchar_t * __ptr64> >
PUBLIC	??$_Iter_cat@PEAPEA_W@std@@YA?AUrandom_access_iterator_tag@0@AEBQEAPEA_W@Z ; std::_Iter_cat<wchar_t * __ptr64 * __ptr64>
PUBLIC	??$_Checked_base@PEAPEA_W@std@@YAPEAPEA_WAEAPEAPEA_WU_Unchanged_checked_iterator_base_type_tag@0@@Z ; std::_Checked_base<wchar_t * __ptr64 * __ptr64>
PUBLIC	??$_Checked_base@PEAPEA_W@std@@YAPEAPEA_WAEAPEAPEA_W@Z ; std::_Checked_base<wchar_t * __ptr64 * __ptr64>
PUBLIC	??$_Fill_n@PEAPEA_W_KPEA_W@std@@YAXPEAPEA_W_KAEBQEA_WU_Range_checked_iterator_tag@0@@Z ; std::_Fill_n<wchar_t * __ptr64 * __ptr64,unsigned __int64,wchar_t * __ptr64>
PUBLIC	??$_Fill_n@PEAPEA_W_KPEA_W@std@@YAXPEAPEA_W_KAEBQEA_WUrandom_access_iterator_tag@0@U_Range_checked_iterator_tag@0@@Z ; std::_Fill_n<wchar_t * __ptr64 * __ptr64,unsigned __int64,wchar_t * __ptr64>
PUBLIC	??$unchecked_fill_n@PEAPEA_W_KPEA_W@stdext@@YAXPEAPEA_W_KAEBQEA_W@Z ; stdext::unchecked_fill_n<wchar_t * __ptr64 * __ptr64,unsigned __int64,wchar_t * __ptr64>
PUBLIC	??$_Uninit_fill_n@PEAPEA_W_KPEA_WV?$allocator@PEA_W@std@@@std@@YAXPEAPEA_W_KAEBQEA_WAEAV?$allocator@PEA_W@0@U_Scalar_ptr_iterator_tag@0@U_Range_checked_iterator_tag@0@@Z ; std::_Uninit_fill_n<wchar_t * __ptr64 * __ptr64,unsigned __int64,wchar_t * __ptr64,std::allocator<wchar_t * __ptr64> >
PUBLIC	??$unchecked_uninitialized_fill_n@PEAPEA_W_KPEA_WV?$allocator@PEA_W@std@@@stdext@@YAXPEAPEA_W_KAEBQEA_WAEAV?$allocator@PEA_W@std@@@Z ; stdext::unchecked_uninitialized_fill_n<wchar_t * __ptr64 * __ptr64,unsigned __int64,wchar_t * __ptr64,std::allocator<wchar_t * __ptr64> >
PUBLIC	??$_Ptr_cat@PEAPEA_WPEAPEA_W@std@@YA?AU_Scalar_ptr_iterator_tag@0@AEAPEAPEA_W0@Z ; std::_Ptr_cat<wchar_t * __ptr64 * __ptr64,wchar_t * __ptr64 * __ptr64>
PUBLIC	??$_Destroy_range@V?$allocator@PEA_W@std@@@std@@YAXPEAPEA_W0AEAV?$allocator@PEA_W@0@U_Scalar_ptr_iterator_tag@0@@Z ; std::_Destroy_range<std::allocator<wchar_t * __ptr64> >
PUBLIC	??$_Destroy_range@V?$allocator@PEA_W@std@@@std@@YAXPEAPEA_W0AEAV?$allocator@PEA_W@0@@Z ; std::_Destroy_range<std::allocator<wchar_t * __ptr64> >
PUBLIC	?_Growmap@?$deque@_WV?$allocator@_W@std@@@std@@IEAAX_K@Z ; std::deque<wchar_t,std::allocator<wchar_t> >::_Growmap
PUBLIC	?push_back@?$deque@_WV?$allocator@_W@std@@@std@@QEAAXAEB_W@Z ; std::deque<wchar_t,std::allocator<wchar_t> >::push_back
PUBLIC	?push@?$stack@_WV?$deque@_WV?$allocator@_W@std@@@std@@@std@@QEAAXAEB_W@Z ; std::stack<wchar_t,std::deque<wchar_t,std::allocator<wchar_t> > >::push
PUBLIC	?empty@?$stack@_WV?$deque@_WV?$allocator@_W@std@@@std@@@std@@QEBA_NXZ ; std::stack<wchar_t,std::deque<wchar_t,std::allocator<wchar_t> > >::empty
PUBLIC	??0?$_Iterator_with_base@Urandom_access_iterator_tag@std@@_W_JPEB_WAEB_WV_Iterator_base_aux@2@@std@@QEAA@XZ ; std::_Iterator_with_base<std::random_access_iterator_tag,wchar_t,__int64,wchar_t const * __ptr64,wchar_t const & __ptr64,std::_Iterator_base_aux>::_Iterator_with_base<std::random_access_iterator_tag,wchar_t,__int64,wchar_t const * __ptr64,wchar_t const & __ptr64,std::_Iterator_base_aux>
PUBLIC	??0?$_Ranit@_W_JPEB_WAEB_W@std@@QEAA@XZ		; std::_Ranit<wchar_t,__int64,wchar_t const * __ptr64,wchar_t const & __ptr64>::_Ranit<wchar_t,__int64,wchar_t const * __ptr64,wchar_t const & __ptr64>
PUBLIC	??0?$_Deque_const_iterator@_WV?$allocator@_W@std@@$00@std@@QEAA@_KPEBV_Container_base_aux@1@@Z ; std::_Deque_const_iterator<wchar_t,std::allocator<wchar_t>,1>::_Deque_const_iterator<wchar_t,std::allocator<wchar_t>,1>
PUBLIC	??0?$_Deque_iterator@_WV?$allocator@_W@std@@$00@std@@QEAA@_KPEBV_Container_base_aux@1@@Z ; std::_Deque_iterator<wchar_t,std::allocator<wchar_t>,1>::_Deque_iterator<wchar_t,std::allocator<wchar_t>,1>
PUBLIC	?end@?$deque@_WV?$allocator@_W@std@@@std@@QEAA?AV?$_Deque_iterator@_WV?$allocator@_W@std@@$00@2@XZ ; std::deque<wchar_t,std::allocator<wchar_t> >::end
PUBLIC	??D?$_Deque_const_iterator@_WV?$allocator@_W@std@@$00@std@@QEBAAEB_WXZ ; std::_Deque_const_iterator<wchar_t,std::allocator<wchar_t>,1>::operator*
PUBLIC	??D?$_Deque_iterator@_WV?$allocator@_W@std@@$00@std@@QEBAAEA_WXZ ; std::_Deque_iterator<wchar_t,std::allocator<wchar_t>,1>::operator*
PUBLIC	??Y?$_Deque_const_iterator@_WV?$allocator@_W@std@@$00@std@@QEAAAEAV01@_J@Z ; std::_Deque_const_iterator<wchar_t,std::allocator<wchar_t>,1>::operator+=
PUBLIC	??Y?$_Deque_iterator@_WV?$allocator@_W@std@@$00@std@@QEAAAEAV01@_J@Z ; std::_Deque_iterator<wchar_t,std::allocator<wchar_t>,1>::operator+=
PUBLIC	??Z?$_Deque_iterator@_WV?$allocator@_W@std@@$00@std@@QEAAAEAV01@_J@Z ; std::_Deque_iterator<wchar_t,std::allocator<wchar_t>,1>::operator-=
PUBLIC	??G?$_Deque_iterator@_WV?$allocator@_W@std@@$00@std@@QEBA?AV01@_J@Z ; std::_Deque_iterator<wchar_t,std::allocator<wchar_t>,1>::operator-
PUBLIC	?back@?$deque@_WV?$allocator@_W@std@@@std@@QEAAAEA_WXZ ; std::deque<wchar_t,std::allocator<wchar_t> >::back
PUBLIC	?top@?$stack@_WV?$deque@_WV?$allocator@_W@std@@@std@@@std@@QEAAAEA_WXZ ; std::stack<wchar_t,std::deque<wchar_t,std::allocator<wchar_t> > >::top
PUBLIC	?empty@?$deque@_WV?$allocator@_W@std@@@std@@QEBA_NXZ ; std::deque<wchar_t,std::allocator<wchar_t> >::empty
PUBLIC	?pop_back@?$deque@_WV?$allocator@_W@std@@@std@@QEAAXXZ ; std::deque<wchar_t,std::allocator<wchar_t> >::pop_back
PUBLIC	?pop@?$stack@_WV?$deque@_WV?$allocator@_W@std@@@std@@@std@@QEAAXXZ ; std::stack<wchar_t,std::deque<wchar_t,std::allocator<wchar_t> > >::pop
PUBLIC	?_Register@facet@locale@std@@QEAAXXZ		; std::locale::facet::_Register
PUBLIC	??$use_facet@V?$ctype@_W@std@@@std@@YAAEBV?$ctype@_W@0@AEBVlocale@0@@Z ; std::use_facet<std::ctype<wchar_t> >
PUBLIC	??$?6_WU?$char_traits@_W@std@@@std@@YAAEAV?$basic_ostream@_WU?$char_traits@_W@std@@@0@AEAV10@PEBD@Z ; std::operator<<<wchar_t,std::char_traits<wchar_t> >
PUBLIC	??0_Sentry_base@?$basic_ostream@_WU?$char_traits@_W@std@@@std@@QEAA@AEAV12@@Z ; std::basic_ostream<wchar_t,std::char_traits<wchar_t> >::_Sentry_base::_Sentry_base
PUBLIC	??0sentry@?$basic_ostream@_WU?$char_traits@_W@std@@@std@@QEAA@AEAV12@@Z ; std::basic_ostream<wchar_t,std::char_traits<wchar_t> >::sentry::sentry
PUBLIC	??1_Sentry_base@?$basic_ostream@_WU?$char_traits@_W@std@@@std@@QEAA@XZ ; std::basic_ostream<wchar_t,std::char_traits<wchar_t> >::_Sentry_base::~_Sentry_base
PUBLIC	??1sentry@?$basic_ostream@_WU?$char_traits@_W@std@@@std@@QEAA@XZ ; std::basic_ostream<wchar_t,std::char_traits<wchar_t> >::sentry::~sentry
PUBLIC	??Bsentry@?$basic_ostream@_WU?$char_traits@_W@std@@@std@@QEBA_NXZ ; std::basic_ostream<wchar_t,std::char_traits<wchar_t> >::sentry::operator bool
PUBLIC	??$?6_WU?$char_traits@_W@std@@@std@@YAAEAV?$basic_ostream@_WU?$char_traits@_W@std@@@0@AEAV10@_W@Z ; std::operator<<<wchar_t,std::char_traits<wchar_t> >
PUBLIC	??_C@_11LOCGONAA@?$AA?$AA@			; `string'
PUBLIC	??_C@_13KJIIAINM@?$AA?$CL?$AA?$AA@		; `string'
PUBLIC	??_C@_19HFFGOOIH@?$AAv?$AAo?$AAi?$AAd?$AA?$AA@	; `string'
PUBLIC	??_C@_13HOIJIPNN@?$AA?5?$AA?$AA@		; `string'
PUBLIC	??_C@_13JOFGPIOO@?$AA?4?$AA?$AA@		; `string'
PUBLIC	??_C@_17CMKEDJDI@?$AAo?$AAu?$AAt?$AA?$AA@	; `string'
PUBLIC	??_C@_17DCNMIAEN@?$AAr?$AAe?$AAf?$AA?$AA@	; `string'
PUBLIC	??_C@_19EIPOAEOH@?$AAb?$AAo?$AAo?$AAl?$AA?$AA@	; `string'
PUBLIC	??_C@_19CHDFCHBM@?$AAc?$AAh?$AAa?$AAr?$AA?$AA@	; `string'
PUBLIC	??_C@_1O@PLMJMAHL@?$AAI?$AAn?$AAt?$AAP?$AAt?$AAr?$AA?$AA@ ; `string'
PUBLIC	??_C@_1BA@HEMJOHJL@?$AAU?$AAI?$AAn?$AAt?$AAP?$AAt?$AAr?$AA?$AA@ ; `string'
PUBLIC	??_C@_1M@CNLIHMIE@?$AAs?$AAb?$AAy?$AAt?$AAe?$AA?$AA@ ; `string'
PUBLIC	??_C@_19OGDDIBJJ@?$AAb?$AAy?$AAt?$AAe?$AA?$AA@	; `string'
PUBLIC	??_C@_1M@LOLCAHAG@?$AAs?$AAh?$AAo?$AAr?$AAt?$AA?$AA@ ; `string'
PUBLIC	??_C@_1O@HKBAGFIG@?$AAu?$AAs?$AAh?$AAo?$AAr?$AAt?$AA?$AA@ ; `string'
PUBLIC	??_C@_17IDNKMCOH@?$AAi?$AAn?$AAt?$AA?$AA@	; `string'
PUBLIC	??_C@_19BFBCDLCE@?$AAu?$AAi?$AAn?$AAt?$AA?$AA@	; `string'
PUBLIC	??_C@_19EKGKGAPA@?$AAl?$AAo?$AAn?$AAg?$AA?$AA@	; `string'
PUBLIC	??_C@_1M@GONMDIAN@?$AAu?$AAl?$AAo?$AAn?$AAg?$AA?$AA@ ; `string'
PUBLIC	??_C@_1M@KGKAENKF@?$AAf?$AAl?$AAo?$AAa?$AAt?$AA?$AA@ ; `string'
PUBLIC	??_C@_1O@BAJDFEHJ@?$AAd?$AAo?$AAu?$AAb?$AAl?$AAe?$AA?$AA@ ; `string'
PUBLIC	??_C@_1O@DGBBOFII@?$AAs?$AAt?$AAr?$AAi?$AAn?$AAg?$AA?$AA@ ; `string'
PUBLIC	??_C@_1O@EJHDPCJ@?$AAo?$AAb?$AAj?$AAe?$AAc?$AAt?$AA?$AA@ ; `string'
PUBLIC	??_C@_13HGPDMIBE@?$AA?$DP?$AA?$AA@		; `string'
PUBLIC	??_C@_19CAKNEAEL@?$AAc?$AAm?$AAo?$AAd?$AA?$AA@	; `string'
PUBLIC	??_C@_1M@HBLOHCOL@?$AAf?$AAn?$AAp?$AAt?$AAr?$AA?$AA@ ; `string'
PUBLIC	??_C@_13BBDEGPLJ@?$AA?$CK?$AA?$AA@		; `string'
PUBLIC	??_C@_13GEEGGHPK@?$AA?$DM?$AA?$AA@		; `string'
PUBLIC	??_C@_13DEFPDAGF@?$AA?0?$AA?$AA@		; `string'
PUBLIC	??_C@_13MOEPKPHB@?$AA?$DO?$AA?$AA@		; `string'
PUBLIC	??_C@_13MGDFOILI@?$AA?$CB?$AA?$AA@		; `string'
PUBLIC	??_C@_02JMMFPCED@?$CC?$CC?$AA@			; `string'
PUBLIC	??_C@_0BC@KBDMBKEH@deque?$DMT?$DO?5too?5long?$AA@ ; `string'
PUBLIC	??_C@_08EPJLHIJG@bad?5cast?$AA@			; `string'
PUBLIC	??_R0?AVbad_cast@std@@@8			; std::bad_cast `RTTI Type Descriptor'
PUBLIC	_CT??_R0?AVbad_cast@std@@@8??0bad_cast@std@@QEAA@AEBV01@@Z24
PUBLIC	_CTA2?AVbad_cast@std@@
PUBLIC	_TI2?AVbad_cast@std@@
PUBLIC	?_Psave@?$_Facetptr@V?$ctype@_W@std@@@std@@2PEBVfacet@locale@2@EB ; std::_Facetptr<std::ctype<wchar_t> >::_Psave
EXTRN	??1bad_cast@std@@UEAA@XZ:PROC			; std::bad_cast::~bad_cast
EXTRN	??0bad_cast@std@@QEAA@AEBV01@@Z:PROC		; std::bad_cast::bad_cast
EXTRN	__imp_??0?$basic_ostringstream@_WU?$char_traits@_W@std@@V?$allocator@_W@2@@std@@QEAA@H@Z:PROC
EXTRN	__imp_??_D?$basic_ostringstream@_WU?$char_traits@_W@std@@V?$allocator@_W@2@@std@@QEAAXXZ:PROC
EXTRN	__imp_??0?$allocator@_W@std@@QEAA@XZ:PROC
EXTRN	__imp_??0?$allocator@_W@std@@QEAA@AEBV01@@Z:PROC
EXTRN	__imp_?deallocate@?$allocator@_W@std@@QEAAXPEA_W_K@Z:PROC
EXTRN	__imp_??0?$basic_string@_WU?$char_traits@_W@std@@V?$allocator@_W@2@@std@@QEAA@PEB_W@Z:PROC
EXTRN	__imp_??$?6_WU?$char_traits@_W@std@@V?$allocator@_W@1@@std@@YAAEAV?$basic_ostream@_WU?$char_traits@_W@std@@@0@AEAV10@AEBV?$basic_string@_WU?$char_traits@_W@std@@V?$allocator@_W@2@@0@@Z:PROC
EXTRN	__imp_?str@?$basic_ostringstream@_WU?$char_traits@_W@std@@V?$allocator@_W@2@@std@@QEAAXAEBV?$basic_string@_WU?$char_traits@_W@std@@V?$allocator@_W@2@@2@@Z:PROC
EXTRN	__imp_??0?$basic_string@_WU?$char_traits@_W@std@@V?$allocator@_W@2@@std@@QEAA@AEBV01@@Z:PROC
EXTRN	__imp_?str@?$basic_ostringstream@_WU?$char_traits@_W@std@@V?$allocator@_W@2@@std@@QEBA?AV?$basic_string@_WU?$char_traits@_W@std@@V?$allocator@_W@2@@2@XZ:PROC
EXTRN	__imp_??6?$basic_ostream@_WU?$char_traits@_W@std@@@std@@QEAAAEAV01@H@Z:PROC
EXTRN	__imp_?length@?$char_traits@_W@std@@SA_KPEB_W@Z:PROC
EXTRN	__imp_?sputn@?$basic_streambuf@_WU?$char_traits@_W@std@@@std@@QEAA_JPEB_W_J@Z:PROC
EXTRN	__imp_?allocate@?$allocator@_W@std@@QEAAPEA_W_K@Z:PROC
EXTRN	__imp_?construct@?$allocator@_W@std@@QEAAXPEA_WAEB_W@Z:PROC
EXTRN	__imp_?max_size@?$allocator@_W@std@@QEBA_KXZ:PROC
EXTRN	__imp_memmove_s:PROC
EXTRN	__imp_?destroy@?$allocator@_W@std@@QEAAXPEA_W@Z:PROC
EXTRN	__imp_??1locale@std@@QEAA@XZ:PROC
EXTRN	__imp_?widen@?$ctype@_W@std@@QEBA_WD@Z:PROC
EXTRN	__imp_?getloc@ios_base@std@@QEBA?AVlocale@2@XZ:PROC
EXTRN	__imp_??0_Lockit@std@@QEAA@H@Z:PROC
EXTRN	__imp_??1_Lockit@std@@QEAA@XZ:PROC
EXTRN	__imp_??0bad_cast@std@@QEAA@PEBD@Z:PROC
EXTRN	__imp_??Bid@locale@std@@QEAA_KXZ:PROC
EXTRN	__imp_?_Incref@facet@locale@std@@QEAAXXZ:PROC
EXTRN	?facet_Register@facet@locale@std@@CAXPEAV123@@Z:PROC ; std::locale::facet::facet_Register
EXTRN	__imp_?_Getfacet@locale@std@@QEBAPEBVfacet@12@_K@Z:PROC
EXTRN	__imp_?id@?$ctype@_W@std@@2V0locale@2@A:QWORD
EXTRN	__imp_?_Getcat@?$ctype@_W@std@@SA_KPEAPEBVfacet@locale@2@PEBV42@@Z:PROC
EXTRN	__imp_??1bad_cast@std@@UEAA@XZ:PROC
EXTRN	__imp_??0bad_cast@std@@QEAA@AEBV01@@Z:PROC
EXTRN	__imp_?eq_int_type@?$char_traits@_W@std@@SA_NAEBG0@Z:PROC
EXTRN	__imp_?eof@?$char_traits@_W@std@@SAGXZ:PROC
EXTRN	__imp_?flags@ios_base@std@@QEBAHXZ:PROC
EXTRN	__imp_?width@ios_base@std@@QEBA_JXZ:PROC
EXTRN	__imp_?width@ios_base@std@@QEAA_J_J@Z:PROC
EXTRN	__imp_?sputc@?$basic_streambuf@_WU?$char_traits@_W@std@@@std@@QEAAG_W@Z:PROC
EXTRN	__imp_?setstate@?$basic_ios@_WU?$char_traits@_W@std@@@std@@QEAAXH_N@Z:PROC
EXTRN	__imp_?fill@?$basic_ios@_WU?$char_traits@_W@std@@@std@@QEBA_WXZ:PROC
EXTRN	__imp_?rdstate@ios_base@std@@QEBAHXZ:PROC
EXTRN	__imp_?good@ios_base@std@@QEBA_NXZ:PROC
EXTRN	__imp_?tie@?$basic_ios@_WU?$char_traits@_W@std@@@std@@QEBAPEAV?$basic_ostream@_WU?$char_traits@_W@std@@@2@XZ:PROC
EXTRN	__imp_?flush@?$basic_ostream@_WU?$char_traits@_W@std@@@std@@QEAAAEAV12@XZ:PROC
EXTRN	__imp_?_Lock@?$basic_streambuf@_WU?$char_traits@_W@std@@@std@@QEAAXXZ:PROC
EXTRN	__imp_?uncaught_exception@std@@YA_NXZ:PROC
EXTRN	__imp_?_Osfx@?$basic_ostream@_WU?$char_traits@_W@std@@@std@@QEAAXXZ:PROC
EXTRN	__imp_?_Unlock@?$basic_streambuf@_WU?$char_traits@_W@std@@@std@@QEAAXXZ:PROC
EXTRN	__imp_?rdbuf@?$basic_ios@_WU?$char_traits@_W@std@@@std@@QEBAPEAV?$basic_streambuf@_WU?$char_traits@_W@std@@@2@XZ:PROC
;	COMDAT ?_Psave@?$_Facetptr@V?$ctype@_W@std@@@std@@2PEBVfacet@locale@2@EB
_BSS	SEGMENT
?_Psave@?$_Facetptr@V?$ctype@_W@std@@@std@@2PEBVfacet@locale@2@EB DQ 01H DUP (?) ; std::_Facetptr<std::ctype<wchar_t> >::_Psave
;	COMDAT _TI2?AVbad_cast@std@@
xdata$x	SEGMENT
_TI2?AVbad_cast@std@@ DD 00H
	DD	imagerel __imp_??1bad_cast@std@@UEAA@XZ
	DD	00H
	DD	imagerel _CTA2?AVbad_cast@std@@
xdata$x	ENDS
;	COMDAT _CTA2?AVbad_cast@std@@
xdata$x	SEGMENT
_CTA2?AVbad_cast@std@@ DD 02H
	DD	imagerel _CT??_R0?AVbad_cast@std@@@8??0bad_cast@std@@QEAA@AEBV01@@Z24
	DD	imagerel _CT??_R0?AVexception@std@@@8??0exception@std@@QEAA@AEBV01@@Z24
xdata$x	ENDS
;	COMDAT _CT??_R0?AVbad_cast@std@@@8??0bad_cast@std@@QEAA@AEBV01@@Z24
xdata$x	SEGMENT
_CT??_R0?AVbad_cast@std@@@8??0bad_cast@std@@QEAA@AEBV01@@Z24 DD 00H
	DD	imagerel ??_R0?AVbad_cast@std@@@8
	DD	00H
	DD	0ffffffffH
	ORG $+4
	DD	018H
	DD	imagerel __imp_??0bad_cast@std@@QEAA@AEBV01@@Z
xdata$x	ENDS
;	COMDAT ??_R0?AVbad_cast@std@@@8
_DATA	SEGMENT
??_R0?AVbad_cast@std@@@8 DQ FLAT:??_7type_info@@6B@	; std::bad_cast `RTTI Type Descriptor'
	DQ	0000000000000000H
	DB	'.?AVbad_cast@std@@', 00H
_DATA	ENDS
;	COMDAT ??_C@_08EPJLHIJG@bad?5cast?$AA@
CONST	SEGMENT
??_C@_08EPJLHIJG@bad?5cast?$AA@ DB 'bad cast', 00H	; `string'
CONST	ENDS
;	COMDAT ??_C@_0BC@KBDMBKEH@deque?$DMT?$DO?5too?5long?$AA@
CONST	SEGMENT
??_C@_0BC@KBDMBKEH@deque?$DMT?$DO?5too?5long?$AA@ DB 'deque<T> too long', 00H ; `string'
CONST	ENDS
;	COMDAT ??_C@_02JMMFPCED@?$CC?$CC?$AA@
CONST	SEGMENT
??_C@_02JMMFPCED@?$CC?$CC?$AA@ DB '""', 00H		; `string'
mscorlibkey DB	00H
	DB	00H
	DB	00H
	DB	00H
	DB	00H
	DB	00H
	DB	00H
	DB	00H
	DB	04H
	DB	00H
	DB	00H
	DB	00H
	DB	00H
	DB	00H
	DB	00H
	DB	00H
systemdrawingkey DB 00H
	DB	024H
	DB	00H
	DB	00H
	DB	04H
	DB	080H
	DB	00H
	DB	00H
	DB	094H
	DB	00H
	DB	00H
	DB	00H
	DB	06H
	DB	02H
	DB	00H
	DB	00H
	DB	00H
	DB	024H
	DB	00H
	DB	00H
	DB	052H
	DB	053H
	DB	041H
	DB	031H
	DB	00H
	DB	04H
	DB	00H
	DB	00H
	DB	01H
	DB	00H
	DB	01H
	DB	00H
	DB	07H
	DB	0d1H
	DB	0faH
	DB	057H
	DB	0c4H
	DB	0aeH
	DB	0d9H
	DB	0f0H
	DB	0a3H
	DB	02eH
	DB	084H
	DB	0aaH
	DB	0fH
	DB	0aeH
	DB	0fdH
	DB	0dH
	DB	0e9H
	DB	0e8H
	DB	0fdH
	DB	06aH
	DB	0ecH
	DB	08fH
	DB	087H
	DB	0fbH
	DB	03H
	DB	076H
	DB	06cH
	DB	083H
	DB	04cH
	DB	099H
	DB	092H
	DB	01eH
	DB	0b2H
	DB	03bH
	DB	0e7H
	DB	09aH
	DB	0d9H
	DB	0d5H
	DB	0dcH
	DB	0c1H
	DB	0ddH
	DB	09aH
	DB	0d2H
	DB	036H
	DB	013H
	DB	021H
	DB	02H
	DB	090H
	DB	0bH
	DB	072H
	DB	03cH
	DB	0f9H
	DB	080H
	DB	095H
	DB	07fH
	DB	0c4H
	DB	0e1H
	DB	077H
	DB	010H
	DB	08fH
	DB	0c6H
	DB	07H
	DB	077H
	DB	04fH
	DB	029H
	DB	0e8H
	DB	032H
	DB	0eH
	DB	092H
	DB	0eaH
	DB	05H
	DB	0ecH
	DB	0e4H
	DB	0e8H
	DB	021H
	DB	0c0H
	DB	0a5H
	DB	0efH
	DB	0e8H
	DB	0f1H
	DB	064H
	DB	05cH
	DB	04cH
	DB	0cH
	DB	093H
	DB	0c1H
	DB	0abH
	DB	099H
	DB	028H
	DB	05dH
	DB	062H
	DB	02cH
	DB	0aaH
	DB	065H
	DB	02cH
	DB	01dH
	DB	0faH
	DB	0d6H
	DB	03dH
	DB	074H
	DB	05dH
	DB	06fH
	DB	02dH
	DB	0e5H
	DB	0f1H
	DB	07eH
	DB	05eH
	DB	0afH
	DB	0fH
	DB	0c4H
	DB	096H
	DB	03dH
	DB	026H
	DB	01cH
	DB	08aH
	DB	012H
	DB	043H
	DB	065H
	DB	018H
	DB	020H
	DB	06dH
	DB	0c0H
	DB	093H
	DB	034H
	DB	04dH
	DB	05aH
	DB	0d2H
	DB	093H
wpfassemblieskey DB 00H
	DB	024H
	DB	00H
	DB	00H
	DB	04H
	DB	080H
	DB	00H
	DB	00H
	DB	094H
	DB	00H
	DB	00H
	DB	00H
	DB	06H
	DB	02H
	DB	00H
	DB	00H
	DB	00H
	DB	024H
	DB	00H
	DB	00H
	DB	052H
	DB	053H
	DB	041H
	DB	031H
	DB	00H
	DB	04H
	DB	00H
	DB	00H
	DB	01H
	DB	00H
	DB	01H
	DB	00H
	DB	0b5H
	DB	0fcH
	DB	090H
	DB	0e7H
	DB	02H
	DB	07fH
	DB	067H
	DB	087H
	DB	01eH
	DB	077H
	DB	03aH
	DB	08fH
	DB	0deH
	DB	089H
	DB	038H
	DB	0c8H
	DB	01dH
	DB	0d4H
	DB	02H
	DB	0baH
	DB	065H
	DB	0b9H
	DB	020H
	DB	01dH
	DB	060H
	DB	059H
	DB	03eH
	DB	096H
	DB	0c4H
	DB	092H
	DB	065H
	DB	01eH
	DB	088H
	DB	09cH
	DB	0c1H
	DB	03fH
	DB	014H
	DB	015H
	DB	0ebH
	DB	0b5H
	DB	03fH
	DB	0acH
	DB	011H
	DB	031H
	DB	0aeH
	DB	0bH
	DB	0d3H
	DB	033H
	DB	0c5H
	DB	0eeH
	DB	060H
	DB	021H
	DB	067H
	DB	02dH
	DB	097H
	DB	018H
	DB	0eaH
	DB	031H
	DB	0a8H
	DB	0aeH
	DB	0bdH
	DB	0dH
	DB	0a0H
	DB	07H
	DB	02fH
	DB	025H
	DB	0d8H
	DB	07dH
	DB	0baH
	DB	06fH
	DB	0c9H
	DB	0fH
	DB	0fdH
	DB	059H
	DB	08eH
	DB	0d4H
	DB	0daH
	DB	035H
	DB	0e4H
	DB	04cH
	DB	039H
	DB	08cH
	DB	045H
	DB	043H
	DB	07H
	DB	0e8H
	DB	0e3H
	DB	03bH
	DB	084H
	DB	026H
	DB	014H
	DB	03dH
	DB	0aeH
	DB	0c9H
	DB	0f5H
	DB	096H
	DB	083H
	DB	06fH
	DB	097H
	DB	0c8H
	DB	0f7H
	DB	047H
	DB	050H
	DB	0e5H
	DB	097H
	DB	05cH
	DB	064H
	DB	0e2H
	DB	018H
	DB	09fH
	DB	045H
	DB	0deH
	DB	0f4H
	DB	06bH
	DB	02aH
	DB	02bH
	DB	012H
	DB	047H
	DB	0adH
	DB	0c3H
	DB	065H
	DB	02bH
	DB	0f5H
	DB	0c3H
	DB	08H
	DB	05H
	DB	05dH
	DB	0a9H
;	COMDAT ??_C@_13MGDFOILI@?$AA?$CB?$AA?$AA@
CONST	SEGMENT
??_C@_13MGDFOILI@?$AA?$CB?$AA?$AA@ DB '!', 00H, 00H, 00H ; `string'
CONST	ENDS
;	COMDAT ??_C@_13MOEPKPHB@?$AA?$DO?$AA?$AA@
CONST	SEGMENT
??_C@_13MOEPKPHB@?$AA?$DO?$AA?$AA@ DB '>', 00H, 00H, 00H ; `string'
CONST	ENDS
;	COMDAT ??_C@_13DEFPDAGF@?$AA?0?$AA?$AA@
CONST	SEGMENT
??_C@_13DEFPDAGF@?$AA?0?$AA?$AA@ DB ',', 00H, 00H, 00H	; `string'
CONST	ENDS
;	COMDAT ??_C@_13GEEGGHPK@?$AA?$DM?$AA?$AA@
CONST	SEGMENT
??_C@_13GEEGGHPK@?$AA?$DM?$AA?$AA@ DB '<', 00H, 00H, 00H ; `string'
CONST	ENDS
;	COMDAT ??_C@_13BBDEGPLJ@?$AA?$CK?$AA?$AA@
CONST	SEGMENT
??_C@_13BBDEGPLJ@?$AA?$CK?$AA?$AA@ DB '*', 00H, 00H, 00H ; `string'
CONST	ENDS
;	COMDAT ??_C@_1M@HBLOHCOL@?$AAf?$AAn?$AAp?$AAt?$AAr?$AA?$AA@
CONST	SEGMENT
??_C@_1M@HBLOHCOL@?$AAf?$AAn?$AAp?$AAt?$AAr?$AA?$AA@ DB 'f', 00H, 'n', 00H
	DB	'p', 00H, 't', 00H, 'r', 00H, 00H, 00H	; `string'
CONST	ENDS
;	COMDAT ??_C@_19CAKNEAEL@?$AAc?$AAm?$AAo?$AAd?$AA?$AA@
CONST	SEGMENT
??_C@_19CAKNEAEL@?$AAc?$AAm?$AAo?$AAd?$AA?$AA@ DB 'c', 00H, 'm', 00H, 'o', 00H
	DB	'd', 00H, 00H, 00H				; `string'
CONST	ENDS
;	COMDAT ??_C@_13HGPDMIBE@?$AA?$DP?$AA?$AA@
CONST	SEGMENT
??_C@_13HGPDMIBE@?$AA?$DP?$AA?$AA@ DB '?', 00H, 00H, 00H ; `string'
CONST	ENDS
;	COMDAT ??_C@_1O@EJHDPCJ@?$AAo?$AAb?$AAj?$AAe?$AAc?$AAt?$AA?$AA@
CONST	SEGMENT
??_C@_1O@EJHDPCJ@?$AAo?$AAb?$AAj?$AAe?$AAc?$AAt?$AA?$AA@ DB 'o', 00H, 'b', 00H
	DB	'j', 00H, 'e', 00H, 'c', 00H, 't', 00H, 00H, 00H ; `string'
CONST	ENDS
;	COMDAT ??_C@_1O@DGBBOFII@?$AAs?$AAt?$AAr?$AAi?$AAn?$AAg?$AA?$AA@
CONST	SEGMENT
??_C@_1O@DGBBOFII@?$AAs?$AAt?$AAr?$AAi?$AAn?$AAg?$AA?$AA@ DB 's', 00H, 't'
	DB	00H, 'r', 00H, 'i', 00H, 'n', 00H, 'g', 00H, 00H, 00H ; `string'
CONST	ENDS
;	COMDAT ??_C@_1O@BAJDFEHJ@?$AAd?$AAo?$AAu?$AAb?$AAl?$AAe?$AA?$AA@
CONST	SEGMENT
??_C@_1O@BAJDFEHJ@?$AAd?$AAo?$AAu?$AAb?$AAl?$AAe?$AA?$AA@ DB 'd', 00H, 'o'
	DB	00H, 'u', 00H, 'b', 00H, 'l', 00H, 'e', 00H, 00H, 00H ; `string'
CONST	ENDS
;	COMDAT ??_C@_1M@KGKAENKF@?$AAf?$AAl?$AAo?$AAa?$AAt?$AA?$AA@
CONST	SEGMENT
??_C@_1M@KGKAENKF@?$AAf?$AAl?$AAo?$AAa?$AAt?$AA?$AA@ DB 'f', 00H, 'l', 00H
	DB	'o', 00H, 'a', 00H, 't', 00H, 00H, 00H	; `string'
CONST	ENDS
;	COMDAT ??_C@_1M@GONMDIAN@?$AAu?$AAl?$AAo?$AAn?$AAg?$AA?$AA@
CONST	SEGMENT
??_C@_1M@GONMDIAN@?$AAu?$AAl?$AAo?$AAn?$AAg?$AA?$AA@ DB 'u', 00H, 'l', 00H
	DB	'o', 00H, 'n', 00H, 'g', 00H, 00H, 00H	; `string'
CONST	ENDS
;	COMDAT ??_C@_19EKGKGAPA@?$AAl?$AAo?$AAn?$AAg?$AA?$AA@
CONST	SEGMENT
??_C@_19EKGKGAPA@?$AAl?$AAo?$AAn?$AAg?$AA?$AA@ DB 'l', 00H, 'o', 00H, 'n', 00H
	DB	'g', 00H, 00H, 00H				; `string'
CONST	ENDS
;	COMDAT ??_C@_19BFBCDLCE@?$AAu?$AAi?$AAn?$AAt?$AA?$AA@
CONST	SEGMENT
??_C@_19BFBCDLCE@?$AAu?$AAi?$AAn?$AAt?$AA?$AA@ DB 'u', 00H, 'i', 00H, 'n', 00H
	DB	't', 00H, 00H, 00H				; `string'
CONST	ENDS
;	COMDAT ??_C@_17IDNKMCOH@?$AAi?$AAn?$AAt?$AA?$AA@
CONST	SEGMENT
??_C@_17IDNKMCOH@?$AAi?$AAn?$AAt?$AA?$AA@ DB 'i', 00H, 'n', 00H, 't', 00H
	DB	00H, 00H					; `string'
CONST	ENDS
;	COMDAT ??_C@_1O@HKBAGFIG@?$AAu?$AAs?$AAh?$AAo?$AAr?$AAt?$AA?$AA@
CONST	SEGMENT
??_C@_1O@HKBAGFIG@?$AAu?$AAs?$AAh?$AAo?$AAr?$AAt?$AA?$AA@ DB 'u', 00H, 's'
	DB	00H, 'h', 00H, 'o', 00H, 'r', 00H, 't', 00H, 00H, 00H ; `string'
CONST	ENDS
;	COMDAT ??_C@_1M@LOLCAHAG@?$AAs?$AAh?$AAo?$AAr?$AAt?$AA?$AA@
CONST	SEGMENT
??_C@_1M@LOLCAHAG@?$AAs?$AAh?$AAo?$AAr?$AAt?$AA?$AA@ DB 's', 00H, 'h', 00H
	DB	'o', 00H, 'r', 00H, 't', 00H, 00H, 00H	; `string'
CONST	ENDS
;	COMDAT ??_C@_19OGDDIBJJ@?$AAb?$AAy?$AAt?$AAe?$AA?$AA@
CONST	SEGMENT
??_C@_19OGDDIBJJ@?$AAb?$AAy?$AAt?$AAe?$AA?$AA@ DB 'b', 00H, 'y', 00H, 't', 00H
	DB	'e', 00H, 00H, 00H				; `string'
CONST	ENDS
;	COMDAT ??_C@_1M@CNLIHMIE@?$AAs?$AAb?$AAy?$AAt?$AAe?$AA?$AA@
CONST	SEGMENT
??_C@_1M@CNLIHMIE@?$AAs?$AAb?$AAy?$AAt?$AAe?$AA?$AA@ DB 's', 00H, 'b', 00H
	DB	'y', 00H, 't', 00H, 'e', 00H, 00H, 00H	; `string'
CONST	ENDS
;	COMDAT ??_C@_1BA@HEMJOHJL@?$AAU?$AAI?$AAn?$AAt?$AAP?$AAt?$AAr?$AA?$AA@
CONST	SEGMENT
??_C@_1BA@HEMJOHJL@?$AAU?$AAI?$AAn?$AAt?$AAP?$AAt?$AAr?$AA?$AA@ DB 'U', 00H
	DB	'I', 00H, 'n', 00H, 't', 00H, 'P', 00H, 't', 00H, 'r', 00H, 00H
	DB	00H						; `string'
CONST	ENDS
;	COMDAT ??_C@_1O@PLMJMAHL@?$AAI?$AAn?$AAt?$AAP?$AAt?$AAr?$AA?$AA@
CONST	SEGMENT
??_C@_1O@PLMJMAHL@?$AAI?$AAn?$AAt?$AAP?$AAt?$AAr?$AA?$AA@ DB 'I', 00H, 'n'
	DB	00H, 't', 00H, 'P', 00H, 't', 00H, 'r', 00H, 00H, 00H ; `string'
CONST	ENDS
;	COMDAT ??_C@_19CHDFCHBM@?$AAc?$AAh?$AAa?$AAr?$AA?$AA@
CONST	SEGMENT
??_C@_19CHDFCHBM@?$AAc?$AAh?$AAa?$AAr?$AA?$AA@ DB 'c', 00H, 'h', 00H, 'a', 00H
	DB	'r', 00H, 00H, 00H				; `string'
CONST	ENDS
;	COMDAT ??_C@_19EIPOAEOH@?$AAb?$AAo?$AAo?$AAl?$AA?$AA@
CONST	SEGMENT
??_C@_19EIPOAEOH@?$AAb?$AAo?$AAo?$AAl?$AA?$AA@ DB 'b', 00H, 'o', 00H, 'o', 00H
	DB	'l', 00H, 00H, 00H				; `string'
CONST	ENDS
;	COMDAT ??_C@_17DCNMIAEN@?$AAr?$AAe?$AAf?$AA?$AA@
CONST	SEGMENT
??_C@_17DCNMIAEN@?$AAr?$AAe?$AAf?$AA?$AA@ DB 'r', 00H, 'e', 00H, 'f', 00H
	DB	00H, 00H					; `string'
CONST	ENDS
;	COMDAT ??_C@_17CMKEDJDI@?$AAo?$AAu?$AAt?$AA?$AA@
CONST	SEGMENT
??_C@_17CMKEDJDI@?$AAo?$AAu?$AAt?$AA?$AA@ DB 'o', 00H, 'u', 00H, 't', 00H
	DB	00H, 00H					; `string'
CONST	ENDS
;	COMDAT ??_C@_13JOFGPIOO@?$AA?4?$AA?$AA@
CONST	SEGMENT
??_C@_13JOFGPIOO@?$AA?4?$AA?$AA@ DB '.', 00H, 00H, 00H	; `string'
CONST	ENDS
;	COMDAT ??_C@_13HOIJIPNN@?$AA?5?$AA?$AA@
CONST	SEGMENT
??_C@_13HOIJIPNN@?$AA?5?$AA?$AA@ DB ' ', 00H, 00H, 00H	; `string'
CONST	ENDS
;	COMDAT ??_C@_19HFFGOOIH@?$AAv?$AAo?$AAi?$AAd?$AA?$AA@
CONST	SEGMENT
??_C@_19HFFGOOIH@?$AAv?$AAo?$AAi?$AAd?$AA?$AA@ DB 'v', 00H, 'o', 00H, 'i', 00H
	DB	'd', 00H, 00H, 00H				; `string'
CONST	ENDS
;	COMDAT ??_C@_13KJIIAINM@?$AA?$CL?$AA?$AA@
CONST	SEGMENT
??_C@_13KJIIAINM@?$AA?$CL?$AA?$AA@ DB '+', 00H, 00H, 00H ; `string'
CONST	ENDS
;	COMDAT ??_C@_11LOCGONAA@?$AA?$AA@
CONST	SEGMENT
??_C@_11LOCGONAA@?$AA?$AA@ DB 00H, 00H			; `string'
_bad_alloc_Message DQ FLAT:??_C@_0P@GHFPNOJB@bad?5allocation?$AA@
; Function compile flags: /Ogtpy
; File c:\program files\microsoft visual studio 9.0\vc\include\xutility
;	COMDAT ??$_Fill_n@PEAPEAV?$basic_string@_WU?$char_traits@_W@std@@V?$allocator@_W@2@@std@@_KPEAV12@@std@@YAXPEAPEAV?$basic_string@_WU?$char_traits@_W@std@@V?$allocator@_W@2@@0@_KAEBQEAV10@U_Range_checked_iterator_tag@0@@Z
_TEXT	SEGMENT
_First$ = 8
_Count$ = 16
_Val$ = 24
__formal$ = 32
??$_Fill_n@PEAPEAV?$basic_string@_WU?$char_traits@_W@std@@V?$allocator@_W@2@@std@@_KPEAV12@@std@@YAXPEAPEAV?$basic_string@_WU?$char_traits@_W@std@@V?$allocator@_W@2@@0@_KAEBQEAV10@U_Range_checked_iterator_tag@0@@Z PROC ; std::_Fill_n<std::basic_string<wchar_t,std::char_traits<wchar_t>,std::allocator<wchar_t> > * __ptr64 * __ptr64,unsigned __int64,std::basic_string<wchar_t,std::char_traits<wchar_t>,std::allocator<wchar_t> > * __ptr64>, COMDAT

; 3197 : 	for (; 0 < _Count; --_Count, ++_First)

	test	rdx, rdx
	je	SHORT $LN1@Fill_n
	npad	11
$LL3@Fill_n:

; 3198 : 		*_First = _Val;

	mov	rax, QWORD PTR [r8]
	add	rcx, 8
	sub	rdx, 1
	mov	QWORD PTR [rcx-8], rax
	jne	SHORT $LL3@Fill_n
$LN1@Fill_n:

; 3199 : 	}

	fatret	0
??$_Fill_n@PEAPEAV?$basic_string@_WU?$char_traits@_W@std@@V?$allocator@_W@2@@std@@_KPEAV12@@std@@YAXPEAPEAV?$basic_string@_WU?$char_traits@_W@std@@V?$allocator@_W@2@@0@_KAEBQEAV10@U_Range_checked_iterator_tag@0@@Z ENDP ; std::_Fill_n<std::basic_string<wchar_t,std::char_traits<wchar_t>,std::allocator<wchar_t> > * __ptr64 * __ptr64,unsigned __int64,std::basic_string<wchar_t,std::char_traits<wchar_t>,std::allocator<wchar_t> > * __ptr64>
; Function compile flags: /Ogtpy
_TEXT	ENDS
;	COMDAT ??$_Fill_n@PEAPEA_W_KPEA_W@std@@YAXPEAPEA_W_KAEBQEA_WU_Range_checked_iterator_tag@0@@Z
_TEXT	SEGMENT
_First$ = 8
_Count$ = 16
_Val$ = 24
__formal$ = 32
??$_Fill_n@PEAPEA_W_KPEA_W@std@@YAXPEAPEA_W_KAEBQEA_WU_Range_checked_iterator_tag@0@@Z PROC ; std::_Fill_n<wchar_t * __ptr64 * __ptr64,unsigned __int64,wchar_t * __ptr64>, COMDAT

; 3197 : 	for (; 0 < _Count; --_Count, ++_First)

	test	rdx, rdx
	je	SHORT $LN1@Fill_n@2
	npad	11
$LL3@Fill_n@2:

; 3198 : 		*_First = _Val;

	mov	rax, QWORD PTR [r8]
	add	rcx, 8
	sub	rdx, 1
	mov	QWORD PTR [rcx-8], rax
	jne	SHORT $LL3@Fill_n@2
$LN1@Fill_n@2:

; 3199 : 	}

	fatret	0
??$_Fill_n@PEAPEA_W_KPEA_W@std@@YAXPEAPEA_W_KAEBQEA_WU_Range_checked_iterator_tag@0@@Z ENDP ; std::_Fill_n<wchar_t * __ptr64 * __ptr64,unsigned __int64,wchar_t * __ptr64>
; Function compile flags: /Ogtpy
_TEXT	ENDS
;	COMDAT ??$_Iter_cat@PEAPEAV?$basic_string@_WU?$char_traits@_W@std@@V?$allocator@_W@2@@std@@@std@@YA?AUrandom_access_iterator_tag@0@AEBQEAPEAV?$basic_string@_WU?$char_traits@_W@std@@V?$allocator@_W@2@@0@@Z
_TEXT	SEGMENT
__$ReturnUdt$ = 8
__formal$ = 16
??$_Iter_cat@PEAPEAV?$basic_string@_WU?$char_traits@_W@std@@V?$allocator@_W@2@@std@@@std@@YA?AUrandom_access_iterator_tag@0@AEBQEAPEAV?$basic_string@_WU?$char_traits@_W@std@@V?$allocator@_W@2@@0@@Z PROC ; std::_Iter_cat<std::basic_string<wchar_t,std::char_traits<wchar_t>,std::allocator<wchar_t> > * __ptr64 * __ptr64>, COMDAT

; 953  : 	typename iterator_traits<_Iter>::iterator_category _Cat;
; 954  : 	return (_Cat);

	mov	rax, rcx

; 955  : 	}

	ret	0
??$_Iter_cat@PEAPEAV?$basic_string@_WU?$char_traits@_W@std@@V?$allocator@_W@2@@std@@@std@@YA?AUrandom_access_iterator_tag@0@AEBQEAPEAV?$basic_string@_WU?$char_traits@_W@std@@V?$allocator@_W@2@@0@@Z ENDP ; std::_Iter_cat<std::basic_string<wchar_t,std::char_traits<wchar_t>,std::allocator<wchar_t> > * __ptr64 * __ptr64>
; Function compile flags: /Ogtpy
_TEXT	ENDS
;	COMDAT ??$_Iter_cat@PEAPEA_W@std@@YA?AUrandom_access_iterator_tag@0@AEBQEAPEA_W@Z
_TEXT	SEGMENT
__$ReturnUdt$ = 8
__formal$ = 16
??$_Iter_cat@PEAPEA_W@std@@YA?AUrandom_access_iterator_tag@0@AEBQEAPEA_W@Z PROC ; std::_Iter_cat<wchar_t * __ptr64 * __ptr64>, COMDAT

; 953  : 	typename iterator_traits<_Iter>::iterator_category _Cat;
; 954  : 	return (_Cat);

	mov	rax, rcx

; 955  : 	}

	ret	0
??$_Iter_cat@PEAPEA_W@std@@YA?AUrandom_access_iterator_tag@0@AEBQEAPEA_W@Z ENDP ; std::_Iter_cat<wchar_t * __ptr64 * __ptr64>
; Function compile flags: /Ogtpy
_TEXT	ENDS
;	COMDAT ??$_Checked_base@PEAPEAV?$basic_string@_WU?$char_traits@_W@std@@V?$allocator@_W@2@@std@@@std@@YAPEAPEAV?$basic_string@_WU?$char_traits@_W@std@@V?$allocator@_W@2@@0@AEAPEAPEAV10@U_Unchanged_checked_iterator_base_type_tag@0@@Z
_TEXT	SEGMENT
_It$ = 8
__formal$ = 16
??$_Checked_base@PEAPEAV?$basic_string@_WU?$char_traits@_W@std@@V?$allocator@_W@2@@std@@@std@@YAPEAPEAV?$basic_string@_WU?$char_traits@_W@std@@V?$allocator@_W@2@@0@AEAPEAPEAV10@U_Unchanged_checked_iterator_base_type_tag@0@@Z PROC ; std::_Checked_base<std::basic_string<wchar_t,std::char_traits<wchar_t>,std::allocator<wchar_t> > * __ptr64 * __ptr64>, COMDAT

; 1147 : 		return _It;

	mov	rax, QWORD PTR [rcx]

; 1148 : 	}

	ret	0
??$_Checked_base@PEAPEAV?$basic_string@_WU?$char_traits@_W@std@@V?$allocator@_W@2@@std@@@std@@YAPEAPEAV?$basic_string@_WU?$char_traits@_W@std@@V?$allocator@_W@2@@0@AEAPEAPEAV10@U_Unchanged_checked_iterator_base_type_tag@0@@Z ENDP ; std::_Checked_base<std::basic_string<wchar_t,std::char_traits<wchar_t>,std::allocator<wchar_t> > * __ptr64 * __ptr64>
; Function compile flags: /Ogtpy
_TEXT	ENDS
;	COMDAT ??$_Checked_base@PEAPEA_W@std@@YAPEAPEA_WAEAPEAPEA_WU_Unchanged_checked_iterator_base_type_tag@0@@Z
_TEXT	SEGMENT
_It$ = 8
__formal$ = 16
??$_Checked_base@PEAPEA_W@std@@YAPEAPEA_WAEAPEAPEA_WU_Unchanged_checked_iterator_base_type_tag@0@@Z PROC ; std::_Checked_base<wchar_t * __ptr64 * __ptr64>, COMDAT

; 1147 : 		return _It;

	mov	rax, QWORD PTR [rcx]

; 1148 : 	}

	ret	0
??$_Checked_base@PEAPEA_W@std@@YAPEAPEA_WAEAPEAPEA_WU_Unchanged_checked_iterator_base_type_tag@0@@Z ENDP ; std::_Checked_base<wchar_t * __ptr64 * __ptr64>
; Function compile flags: /Ogtpy
; File c:\program files\microsoft visual studio 9.0\vc\include\xmemory
_TEXT	ENDS
;	COMDAT ??$_Destroy_range@V?$allocator@PEAV?$basic_string@_WU?$char_traits@_W@std@@V?$allocator@_W@2@@std@@@std@@@std@@YAXPEAPEAV?$basic_string@_WU?$char_traits@_W@std@@V?$allocator@_W@2@@0@0AEAV?$allocator@PEAV?$basic_string@_WU?$char_traits@_W@std@@V?$allocator@_W@2@@std@@@0@U_Scalar_ptr_iterator_tag@0@@Z
_TEXT	SEGMENT
_First$ = 8
_Last$ = 16
_Al$ = 24
__formal$ = 32
??$_Destroy_range@V?$allocator@PEAV?$basic_string@_WU?$char_traits@_W@std@@V?$allocator@_W@2@@std@@@std@@@std@@YAXPEAPEAV?$basic_string@_WU?$char_traits@_W@std@@V?$allocator@_W@2@@0@0AEAV?$allocator@PEAV?$basic_string@_WU?$char_traits@_W@std@@V?$allocator@_W@2@@std@@@0@U_Scalar_ptr_iterator_tag@0@@Z PROC ; std::_Destroy_range<std::allocator<std::basic_string<wchar_t,std::char_traits<wchar_t>,std::allocator<wchar_t> > * __ptr64> >, COMDAT

; 242  : 	}

	ret	0
??$_Destroy_range@V?$allocator@PEAV?$basic_string@_WU?$char_traits@_W@std@@V?$allocator@_W@2@@std@@@std@@@std@@YAXPEAPEAV?$basic_string@_WU?$char_traits@_W@std@@V?$allocator@_W@2@@0@0AEAV?$allocator@PEAV?$basic_string@_WU?$char_traits@_W@std@@V?$allocator@_W@2@@std@@@0@U_Scalar_ptr_iterator_tag@0@@Z ENDP ; std::_Destroy_range<std::allocator<std::basic_string<wchar_t,std::char_traits<wchar_t>,std::allocator<wchar_t> > * __ptr64> >
_TEXT	ENDS
;	COMDAT pdata
; File c:\program files\microsoft visual studio 9.0\vc\include\memory
pdata	SEGMENT
$pdata$??$_Uninit_copy@PEAPEAV?$basic_string@_WU?$char_traits@_W@std@@V?$allocator@_W@2@@std@@PEAPEAV12@V?$allocator@PEAV?$basic_string@_WU?$char_traits@_W@std@@V?$allocator@_W@2@@std@@@2@@std@@YAPEAPEAV?$basic_string@_WU?$char_traits@_W@std@@V?$allocator@_W@2@@0@PEAPEAV10@00AEAV?$allocator@PEAV?$basic_string@_WU?$char_traits@_W@std@@V?$allocator@_W@2@@std@@@0@U_Scalar_ptr_iterator_tag@0@U_Range_checked_iterator_tag@0@@Z DD imagerel $LN5
	DD	imagerel $LN5+60
	DD	imagerel $unwind$??$_Uninit_copy@PEAPEAV?$basic_string@_WU?$char_traits@_W@std@@V?$allocator@_W@2@@std@@PEAPEAV12@V?$allocator@PEAV?$basic_string@_WU?$char_traits@_W@std@@V?$allocator@_W@2@@std@@@2@@std@@YAPEAPEAV?$basic_string@_WU?$char_traits@_W@std@@V?$allocator@_W@2@@0@PEAPEAV10@00AEAV?$allocator@PEAV?$basic_string@_WU?$char_traits@_W@std@@V?$allocator@_W@2@@std@@@0@U_Scalar_ptr_iterator_tag@0@U_Range_checked_iterator_tag@0@@Z
pdata	ENDS
;	COMDAT xdata
xdata	SEGMENT
$unwind$??$_Uninit_copy@PEAPEAV?$basic_string@_WU?$char_traits@_W@std@@V?$allocator@_W@2@@std@@PEAPEAV12@V?$allocator@PEAV?$basic_string@_WU?$char_traits@_W@std@@V?$allocator@_W@2@@std@@@2@@std@@YAPEAPEAV?$basic_string@_WU?$char_traits@_W@std@@V?$allocator@_W@2@@0@PEAPEAV10@00AEAV?$allocator@PEAV?$basic_string@_WU?$char_traits@_W@std@@V?$allocator@_W@2@@std@@@0@U_Scalar_ptr_iterator_tag@0@U_Range_checked_iterator_tag@0@@Z DD 020601H
	DD	030023206H
; Function compile flags: /Ogtpy
xdata	ENDS
;	COMDAT ??$_Uninit_copy@PEAPEAV?$basic_string@_WU?$char_traits@_W@std@@V?$allocator@_W@2@@std@@PEAPEAV12@V?$allocator@PEAV?$basic_string@_WU?$char_traits@_W@std@@V?$allocator@_W@2@@std@@@2@@std@@YAPEAPEAV?$basic_string@_WU?$char_traits@_W@std@@V?$allocator@_W@2@@0@PEAPEAV10@00AEAV?$allocator@PEAV?$basic_string@_WU?$char_traits@_W@std@@V?$allocator@_W@2@@std@@@0@U_Scalar_ptr_iterator_tag@0@U_Range_checked_iterator_tag@0@@Z
_TEXT	SEGMENT
_First$ = 48
_Last$ = 56
_Dest$ = 64
__formal$ = 72
__formal$ = 80
__formal$ = 88
??$_Uninit_copy@PEAPEAV?$basic_string@_WU?$char_traits@_W@std@@V?$allocator@_W@2@@std@@PEAPEAV12@V?$allocator@PEAV?$basic_string@_WU?$char_traits@_W@std@@V?$allocator@_W@2@@std@@@2@@std@@YAPEAPEAV?$basic_string@_WU?$char_traits@_W@std@@V?$allocator@_W@2@@0@PEAPEAV10@00AEAV?$allocator@PEAV?$basic_string@_WU?$char_traits@_W@std@@V?$allocator@_W@2@@std@@@0@U_Scalar_ptr_iterator_tag@0@U_Range_checked_iterator_tag@0@@Z PROC ; std::_Uninit_copy<std::basic_string<wchar_t,std::char_traits<wchar_t>,std::allocator<wchar_t> > * __ptr64 * __ptr64,std::basic_string<wchar_t,std::char_traits<wchar_t>,std::allocator<wchar_t> > * __ptr64 * __ptr64,std::allocator<std::basic_string<wchar_t,std::char_traits<wchar_t>,std::allocator<wchar_t> > * __ptr64> >, COMDAT

; 145  : 	{	// copy [_First, _Last) to raw _Dest, scalar type

$LN5:
	push	rbx
	sub	rsp, 32					; 00000020H

; 146  : 	_DEBUG_RANGE(_First, _Last);
; 147  : 	_DEBUG_POINTER(_Dest);
; 148  : 	size_t _Count = (size_t)(_Last - _First);

	sub	rdx, rcx
	mov	r10, r8
	sar	rdx, 3

; 149  : 	_FwdIt _Result = _Dest + _Count;

	lea	rax, QWORD PTR [rdx*8]
	lea	rbx, QWORD PTR [rax+r8]

; 150  : 	if (_Count > 0)

	test	rdx, rdx
	je	SHORT $LN4@Uninit_cop

; 151  : 		_CRT_SECURE_MEMMOVE(&*_Dest, _Count * sizeof (*_First), &*_First, _Count * sizeof (*_First));	// NB: non-overlapping move

	mov	r8, rcx
	mov	r9, rax
	mov	rdx, rax
	mov	rcx, r10
	call	QWORD PTR __imp_memmove_s
$LN4@Uninit_cop:

; 152  : 	return (_Result);

	mov	rax, rbx

; 153  : 	}

	add	rsp, 32					; 00000020H
	pop	rbx
	ret	0
??$_Uninit_copy@PEAPEAV?$basic_string@_WU?$char_traits@_W@std@@V?$allocator@_W@2@@std@@PEAPEAV12@V?$allocator@PEAV?$basic_string@_WU?$char_traits@_W@std@@V?$allocator@_W@2@@std@@@2@@std@@YAPEAPEAV?$basic_string@_WU?$char_traits@_W@std@@V?$allocator@_W@2@@0@PEAPEAV10@00AEAV?$allocator@PEAV?$basic_string@_WU?$char_traits@_W@std@@V?$allocator@_W@2@@std@@@0@U_Scalar_ptr_iterator_tag@0@U_Range_checked_iterator_tag@0@@Z ENDP ; std::_Uninit_copy<std::basic_string<wchar_t,std::char_traits<wchar_t>,std::allocator<wchar_t> > * __ptr64 * __ptr64,std::basic_string<wchar_t,std::char_traits<wchar_t>,std::allocator<wchar_t> > * __ptr64 * __ptr64,std::allocator<std::basic_string<wchar_t,std::char_traits<wchar_t>,std::allocator<wchar_t> > * __ptr64> >
; Function compile flags: /Ogtpy
; File c:\program files\microsoft visual studio 9.0\vc\include\xutility
_TEXT	ENDS
;	COMDAT ??$_Ptr_cat@PEAPEAV?$basic_string@_WU?$char_traits@_W@std@@V?$allocator@_W@2@@std@@PEAPEAV12@@std@@YA?AU_Scalar_ptr_iterator_tag@0@AEAPEAPEAV?$basic_string@_WU?$char_traits@_W@std@@V?$allocator@_W@2@@0@0@Z
_TEXT	SEGMENT
__formal$ = 8
__formal$ = 16
_Cat$ = 24
??$_Ptr_cat@PEAPEAV?$basic_string@_WU?$char_traits@_W@std@@V?$allocator@_W@2@@std@@PEAPEAV12@@std@@YA?AU_Scalar_ptr_iterator_tag@0@AEAPEAPEAV?$basic_string@_WU?$char_traits@_W@std@@V?$allocator@_W@2@@0@0@Z PROC ; std::_Ptr_cat<std::basic_string<wchar_t,std::char_traits<wchar_t>,std::allocator<wchar_t> > * __ptr64 * __ptr64,std::basic_string<wchar_t,std::char_traits<wchar_t>,std::allocator<wchar_t> > * __ptr64 * __ptr64>, COMDAT

; 1510 : 	typename _Ptr_cat_helper<_T1, _T2>::_Ptr_cat _Cat;
; 1511 : 	return (_Cat);

	mov	al, BYTE PTR _Cat$[rsp]

; 1512 : 	}

	ret	0
??$_Ptr_cat@PEAPEAV?$basic_string@_WU?$char_traits@_W@std@@V?$allocator@_W@2@@std@@PEAPEAV12@@std@@YA?AU_Scalar_ptr_iterator_tag@0@AEAPEAPEAV?$basic_string@_WU?$char_traits@_W@std@@V?$allocator@_W@2@@0@0@Z ENDP ; std::_Ptr_cat<std::basic_string<wchar_t,std::char_traits<wchar_t>,std::allocator<wchar_t> > * __ptr64 * __ptr64,std::basic_string<wchar_t,std::char_traits<wchar_t>,std::allocator<wchar_t> > * __ptr64 * __ptr64>
; Function compile flags: /Ogtpy
_TEXT	ENDS
;	COMDAT ??$_Checked_base@PEAPEAV?$basic_string@_WU?$char_traits@_W@std@@V?$allocator@_W@2@@std@@@std@@YAPEAPEAV?$basic_string@_WU?$char_traits@_W@std@@V?$allocator@_W@2@@0@AEAPEAPEAV10@@Z
_TEXT	SEGMENT
_It$ = 8
??$_Checked_base@PEAPEAV?$basic_string@_WU?$char_traits@_W@std@@V?$allocator@_W@2@@std@@@std@@YAPEAPEAV?$basic_string@_WU?$char_traits@_W@std@@V?$allocator@_W@2@@0@AEAPEAPEAV10@@Z PROC ; std::_Checked_base<std::basic_string<wchar_t,std::char_traits<wchar_t>,std::allocator<wchar_t> > * __ptr64 * __ptr64>, COMDAT

; 1164 : 		typename _Checked_iterator_base_helper<_Iter>::_Checked_iterator_base_type_tag _Base_tag;
; 1165 : 		return _Checked_base(_It, _Base_tag);

	mov	rax, QWORD PTR [rcx]

; 1166 : 	}

	ret	0
??$_Checked_base@PEAPEAV?$basic_string@_WU?$char_traits@_W@std@@V?$allocator@_W@2@@std@@@std@@YAPEAPEAV?$basic_string@_WU?$char_traits@_W@std@@V?$allocator@_W@2@@0@AEAPEAPEAV10@@Z ENDP ; std::_Checked_base<std::basic_string<wchar_t,std::char_traits<wchar_t>,std::allocator<wchar_t> > * __ptr64 * __ptr64>
; Function compile flags: /Ogtpy
; File c:\program files\microsoft visual studio 9.0\vc\include\xmemory
_TEXT	ENDS
;	COMDAT ??$_Destroy_range@V?$allocator@PEA_W@std@@@std@@YAXPEAPEA_W0AEAV?$allocator@PEA_W@0@U_Scalar_ptr_iterator_tag@0@@Z
_TEXT	SEGMENT
_First$ = 8
_Last$ = 16
_Al$ = 24
__formal$ = 32
??$_Destroy_range@V?$allocator@PEA_W@std@@@std@@YAXPEAPEA_W0AEAV?$allocator@PEA_W@0@U_Scalar_ptr_iterator_tag@0@@Z PROC ; std::_Destroy_range<std::allocator<wchar_t * __ptr64> >, COMDAT

; 242  : 	}

	ret	0
??$_Destroy_range@V?$allocator@PEA_W@std@@@std@@YAXPEAPEA_W0AEAV?$allocator@PEA_W@0@U_Scalar_ptr_iterator_tag@0@@Z ENDP ; std::_Destroy_range<std::allocator<wchar_t * __ptr64> >
_TEXT	ENDS
;	COMDAT pdata
; File c:\program files\microsoft visual studio 9.0\vc\include\memory
pdata	SEGMENT
$pdata$??$_Uninit_copy@PEAPEA_WPEAPEA_WV?$allocator@PEA_W@std@@@std@@YAPEAPEA_WPEAPEA_W00AEAV?$allocator@PEA_W@0@U_Scalar_ptr_iterator_tag@0@U_Range_checked_iterator_tag@0@@Z DD imagerel $LN5
	DD	imagerel $LN5+60
	DD	imagerel $unwind$??$_Uninit_copy@PEAPEA_WPEAPEA_WV?$allocator@PEA_W@std@@@std@@YAPEAPEA_WPEAPEA_W00AEAV?$allocator@PEA_W@0@U_Scalar_ptr_iterator_tag@0@U_Range_checked_iterator_tag@0@@Z
pdata	ENDS
;	COMDAT xdata
xdata	SEGMENT
$unwind$??$_Uninit_copy@PEAPEA_WPEAPEA_WV?$allocator@PEA_W@std@@@std@@YAPEAPEA_WPEAPEA_W00AEAV?$allocator@PEA_W@0@U_Scalar_ptr_iterator_tag@0@U_Range_checked_iterator_tag@0@@Z DD 020601H
	DD	030023206H
; Function compile flags: /Ogtpy
xdata	ENDS
;	COMDAT ??$_Uninit_copy@PEAPEA_WPEAPEA_WV?$allocator@PEA_W@std@@@std@@YAPEAPEA_WPEAPEA_W00AEAV?$allocator@PEA_W@0@U_Scalar_ptr_iterator_tag@0@U_Range_checked_iterator_tag@0@@Z
_TEXT	SEGMENT
_First$ = 48
_Last$ = 56
_Dest$ = 64
__formal$ = 72
__formal$ = 80
__formal$ = 88
??$_Uninit_copy@PEAPEA_WPEAPEA_WV?$allocator@PEA_W@std@@@std@@YAPEAPEA_WPEAPEA_W00AEAV?$allocator@PEA_W@0@U_Scalar_ptr_iterator_tag@0@U_Range_checked_iterator_tag@0@@Z PROC ; std::_Uninit_copy<wchar_t * __ptr64 * __ptr64,wchar_t * __ptr64 * __ptr64,std::allocator<wchar_t * __ptr64> >, COMDAT

; 145  : 	{	// copy [_First, _Last) to raw _Dest, scalar type

$LN5:
	push	rbx
	sub	rsp, 32					; 00000020H

; 146  : 	_DEBUG_RANGE(_First, _Last);
; 147  : 	_DEBUG_POINTER(_Dest);
; 148  : 	size_t _Count = (size_t)(_Last - _First);

	sub	rdx, rcx
	mov	r10, r8
	sar	rdx, 3

; 149  : 	_FwdIt _Result = _Dest + _Count;

	lea	rax, QWORD PTR [rdx*8]
	lea	rbx, QWORD PTR [rax+r8]

; 150  : 	if (_Count > 0)

	test	rdx, rdx
	je	SHORT $LN4@Uninit_cop@2

; 151  : 		_CRT_SECURE_MEMMOVE(&*_Dest, _Count * sizeof (*_First), &*_First, _Count * sizeof (*_First));	// NB: non-overlapping move

	mov	r8, rcx
	mov	r9, rax
	mov	rdx, rax
	mov	rcx, r10
	call	QWORD PTR __imp_memmove_s
$LN4@Uninit_cop@2:

; 152  : 	return (_Result);

	mov	rax, rbx

; 153  : 	}

	add	rsp, 32					; 00000020H
	pop	rbx
	ret	0
??$_Uninit_copy@PEAPEA_WPEAPEA_WV?$allocator@PEA_W@std@@@std@@YAPEAPEA_WPEAPEA_W00AEAV?$allocator@PEA_W@0@U_Scalar_ptr_iterator_tag@0@U_Range_checked_iterator_tag@0@@Z ENDP ; std::_Uninit_copy<wchar_t * __ptr64 * __ptr64,wchar_t * __ptr64 * __ptr64,std::allocator<wchar_t * __ptr64> >
; Function compile flags: /Ogtpy
; File c:\program files\microsoft visual studio 9.0\vc\include\xutility
_TEXT	ENDS
;	COMDAT ??$_Ptr_cat@PEAPEA_WPEAPEA_W@std@@YA?AU_Scalar_ptr_iterator_tag@0@AEAPEAPEA_W0@Z
_TEXT	SEGMENT
__formal$ = 8
__formal$ = 16
_Cat$ = 24
??$_Ptr_cat@PEAPEA_WPEAPEA_W@std@@YA?AU_Scalar_ptr_iterator_tag@0@AEAPEAPEA_W0@Z PROC ; std::_Ptr_cat<wchar_t * __ptr64 * __ptr64,wchar_t * __ptr64 * __ptr64>, COMDAT

; 1510 : 	typename _Ptr_cat_helper<_T1, _T2>::_Ptr_cat _Cat;
; 1511 : 	return (_Cat);

	mov	al, BYTE PTR _Cat$[rsp]

; 1512 : 	}

	ret	0
??$_Ptr_cat@PEAPEA_WPEAPEA_W@std@@YA?AU_Scalar_ptr_iterator_tag@0@AEAPEAPEA_W0@Z ENDP ; std::_Ptr_cat<wchar_t * __ptr64 * __ptr64,wchar_t * __ptr64 * __ptr64>
; Function compile flags: /Ogtpy
_TEXT	ENDS
;	COMDAT ??$_Checked_base@PEAPEA_W@std@@YAPEAPEA_WAEAPEAPEA_W@Z
_TEXT	SEGMENT
_It$ = 8
??$_Checked_base@PEAPEA_W@std@@YAPEAPEA_WAEAPEAPEA_W@Z PROC ; std::_Checked_base<wchar_t * __ptr64 * __ptr64>, COMDAT

; 1164 : 		typename _Checked_iterator_base_helper<_Iter>::_Checked_iterator_base_type_tag _Base_tag;
; 1165 : 		return _Checked_base(_It, _Base_tag);

	mov	rax, QWORD PTR [rcx]

; 1166 : 	}

	ret	0
??$_Checked_base@PEAPEA_W@std@@YAPEAPEA_WAEAPEAPEA_W@Z ENDP ; std::_Checked_base<wchar_t * __ptr64 * __ptr64>
_TEXT	ENDS
;	COMDAT pdata
pdata	SEGMENT
$pdata$??_G?$basic_string@_WU?$char_traits@_W@std@@V?$allocator@_W@2@@std@@QEAAPEAXI@Z DD imagerel $LN4
	DD	imagerel $LN4+24
	DD	imagerel $unwind$??_G?$basic_string@_WU?$char_traits@_W@std@@V?$allocator@_W@2@@std@@QEAAPEAXI@Z
pdata	ENDS
;	COMDAT xdata
xdata	SEGMENT
$unwind$??_G?$basic_string@_WU?$char_traits@_W@std@@V?$allocator@_W@2@@std@@QEAAPEAXI@Z DD 020601H
	DD	030023206H
; Function compile flags: /Ogtpy
xdata	ENDS
;	COMDAT ??_G?$basic_string@_WU?$char_traits@_W@std@@V?$allocator@_W@2@@std@@QEAAPEAXI@Z
_TEXT	SEGMENT
this$ = 48
__flags$ = 56
??_G?$basic_string@_WU?$char_traits@_W@std@@V?$allocator@_W@2@@std@@QEAAPEAXI@Z PROC ; std::basic_string<wchar_t,std::char_traits<wchar_t>,std::allocator<wchar_t> >::`scalar deleting destructor', COMDAT
$LN4:
	push	rbx
	sub	rsp, 32					; 00000020H
	mov	rbx, rcx
	call	QWORD PTR __imp_??1?$basic_string@_WU?$char_traits@_W@std@@V?$allocator@_W@2@@std@@QEAA@XZ
	mov	rax, rbx
	add	rsp, 32					; 00000020H
	pop	rbx
	ret	0
??_G?$basic_string@_WU?$char_traits@_W@std@@V?$allocator@_W@2@@std@@QEAAPEAXI@Z ENDP ; std::basic_string<wchar_t,std::char_traits<wchar_t>,std::allocator<wchar_t> >::`scalar deleting destructor'
; Function compile flags: /Ogtpy
; File c:\program files\microsoft visual studio 9.0\vc\include\xmemory
_TEXT	ENDS
;	COMDAT ??$?0V?$basic_string@_WU?$char_traits@_W@std@@V?$allocator@_W@2@@std@@@?$allocator@V_Aux_cont@std@@@std@@QEAA@AEBV?$allocator@V?$basic_string@_WU?$char_traits@_W@std@@V?$allocator@_W@2@@std@@@1@@Z
_TEXT	SEGMENT
this$ = 8
__formal$ = 16
??$?0V?$basic_string@_WU?$char_traits@_W@std@@V?$allocator@_W@2@@std@@@?$allocator@V_Aux_cont@std@@@std@@QEAA@AEBV?$allocator@V?$basic_string@_WU?$char_traits@_W@std@@V?$allocator@_W@2@@std@@@1@@Z PROC ; std::allocator<std::_Aux_cont>::allocator<std::_Aux_cont><std::basic_string<wchar_t,std::char_traits<wchar_t>,std::allocator<wchar_t> > >, COMDAT

; 129  : 		{	// construct from a related allocator (do nothing)
; 130  : 		}

	mov	rax, rcx
	ret	0
??$?0V?$basic_string@_WU?$char_traits@_W@std@@V?$allocator@_W@2@@std@@@?$allocator@V_Aux_cont@std@@@std@@QEAA@AEBV?$allocator@V?$basic_string@_WU?$char_traits@_W@std@@V?$allocator@_W@2@@std@@@1@@Z ENDP ; std::allocator<std::_Aux_cont>::allocator<std::_Aux_cont><std::basic_string<wchar_t,std::char_traits<wchar_t>,std::allocator<wchar_t> > >
; Function compile flags: /Ogtpy
_TEXT	ENDS
;	COMDAT ??$?0_W@?$allocator@V_Aux_cont@std@@@std@@QEAA@AEBV?$allocator@_W@1@@Z
_TEXT	SEGMENT
this$ = 8
__formal$ = 16
??$?0_W@?$allocator@V_Aux_cont@std@@@std@@QEAA@AEBV?$allocator@_W@1@@Z PROC ; std::allocator<std::_Aux_cont>::allocator<std::_Aux_cont><wchar_t>, COMDAT

; 129  : 		{	// construct from a related allocator (do nothing)
; 130  : 		}

	mov	rax, rcx
	ret	0
??$?0_W@?$allocator@V_Aux_cont@std@@@std@@QEAA@AEBV?$allocator@_W@1@@Z ENDP ; std::allocator<std::_Aux_cont>::allocator<std::_Aux_cont><wchar_t>
; Function compile flags: /Ogtpy
_TEXT	ENDS
;	COMDAT ??$?0V?$basic_string@_WU?$char_traits@_W@std@@V?$allocator@_W@2@@std@@@?$allocator@PEAV?$basic_string@_WU?$char_traits@_W@std@@V?$allocator@_W@2@@std@@@std@@QEAA@AEBV?$allocator@V?$basic_string@_WU?$char_traits@_W@std@@V?$allocator@_W@2@@std@@@1@@Z
_TEXT	SEGMENT
this$ = 8
__formal$ = 16
??$?0V?$basic_string@_WU?$char_traits@_W@std@@V?$allocator@_W@2@@std@@@?$allocator@PEAV?$basic_string@_WU?$char_traits@_W@std@@V?$allocator@_W@2@@std@@@std@@QEAA@AEBV?$allocator@V?$basic_string@_WU?$char_traits@_W@std@@V?$allocator@_W@2@@std@@@1@@Z PROC ; std::allocator<std::basic_string<wchar_t,std::char_traits<wchar_t>,std::allocator<wchar_t> > * __ptr64>::allocator<std::basic_string<wchar_t,std::char_traits<wchar_t>,std::allocator<wchar_t> > * __ptr64><std::basic_string<wchar_t,std::char_traits<wchar_t>,std::allocator<wchar_t> > >, COMDAT

; 129  : 		{	// construct from a related allocator (do nothing)
; 130  : 		}

	mov	rax, rcx
	ret	0
??$?0V?$basic_string@_WU?$char_traits@_W@std@@V?$allocator@_W@2@@std@@@?$allocator@PEAV?$basic_string@_WU?$char_traits@_W@std@@V?$allocator@_W@2@@std@@@std@@QEAA@AEBV?$allocator@V?$basic_string@_WU?$char_traits@_W@std@@V?$allocator@_W@2@@std@@@1@@Z ENDP ; std::allocator<std::basic_string<wchar_t,std::char_traits<wchar_t>,std::allocator<wchar_t> > * __ptr64>::allocator<std::basic_string<wchar_t,std::char_traits<wchar_t>,std::allocator<wchar_t> > * __ptr64><std::basic_string<wchar_t,std::char_traits<wchar_t>,std::allocator<wchar_t> > >
; Function compile flags: /Ogtpy
_TEXT	ENDS
;	COMDAT ??$?0_W@?$allocator@PEA_W@std@@QEAA@AEBV?$allocator@_W@1@@Z
_TEXT	SEGMENT
this$ = 8
__formal$ = 16
??$?0_W@?$allocator@PEA_W@std@@QEAA@AEBV?$allocator@_W@1@@Z PROC ; std::allocator<wchar_t * __ptr64>::allocator<wchar_t * __ptr64><wchar_t>, COMDAT

; 129  : 		{	// construct from a related allocator (do nothing)
; 130  : 		}

	mov	rax, rcx
	ret	0
??$?0_W@?$allocator@PEA_W@std@@QEAA@AEBV?$allocator@_W@1@@Z ENDP ; std::allocator<wchar_t * __ptr64>::allocator<wchar_t * __ptr64><wchar_t>
; Function compile flags: /Ogtpy
_TEXT	ENDS
;	COMDAT ??$_Destroy@PEAV?$basic_string@_WU?$char_traits@_W@std@@V?$allocator@_W@2@@std@@@std@@YAXPEAPEAV?$basic_string@_WU?$char_traits@_W@std@@V?$allocator@_W@2@@0@@Z
_TEXT	SEGMENT
_Ptr$ = 8
??$_Destroy@PEAV?$basic_string@_WU?$char_traits@_W@std@@V?$allocator@_W@2@@std@@@std@@YAXPEAPEAV?$basic_string@_WU?$char_traits@_W@std@@V?$allocator@_W@2@@0@@Z PROC ; std::_Destroy<std::basic_string<wchar_t,std::char_traits<wchar_t>,std::allocator<wchar_t> > * __ptr64>, COMDAT

; 59   : 	_DESTRUCTOR(_Ty, _Ptr);
; 60   : 	}

	ret	0
??$_Destroy@PEAV?$basic_string@_WU?$char_traits@_W@std@@V?$allocator@_W@2@@std@@@std@@YAXPEAPEAV?$basic_string@_WU?$char_traits@_W@std@@V?$allocator@_W@2@@0@@Z ENDP ; std::_Destroy<std::basic_string<wchar_t,std::char_traits<wchar_t>,std::allocator<wchar_t> > * __ptr64>
; Function compile flags: /Ogtpy
_TEXT	ENDS
;	COMDAT ??$_Destroy@V?$basic_string@_WU?$char_traits@_W@std@@V?$allocator@_W@2@@std@@@std@@YAXPEAV?$basic_string@_WU?$char_traits@_W@std@@V?$allocator@_W@2@@0@@Z
_TEXT	SEGMENT
_Ptr$ = 8
??$_Destroy@V?$basic_string@_WU?$char_traits@_W@std@@V?$allocator@_W@2@@std@@@std@@YAXPEAV?$basic_string@_WU?$char_traits@_W@std@@V?$allocator@_W@2@@0@@Z PROC ; std::_Destroy<std::basic_string<wchar_t,std::char_traits<wchar_t>,std::allocator<wchar_t> > >, COMDAT

; 59   : 	_DESTRUCTOR(_Ty, _Ptr);
; 60   : 	}

	rex_jmp	QWORD PTR __imp_??1?$basic_string@_WU?$char_traits@_W@std@@V?$allocator@_W@2@@std@@QEAA@XZ
??$_Destroy@V?$basic_string@_WU?$char_traits@_W@std@@V?$allocator@_W@2@@std@@@std@@YAXPEAV?$basic_string@_WU?$char_traits@_W@std@@V?$allocator@_W@2@@0@@Z ENDP ; std::_Destroy<std::basic_string<wchar_t,std::char_traits<wchar_t>,std::allocator<wchar_t> > >
; Function compile flags: /Ogtpy
_TEXT	ENDS
;	COMDAT ??$_Destroy_range@V?$allocator@PEAV?$basic_string@_WU?$char_traits@_W@std@@V?$allocator@_W@2@@std@@@std@@@std@@YAXPEAPEAV?$basic_string@_WU?$char_traits@_W@std@@V?$allocator@_W@2@@0@0AEAV?$allocator@PEAV?$basic_string@_WU?$char_traits@_W@std@@V?$allocator@_W@2@@std@@@0@@Z
_TEXT	SEGMENT
_First$ = 8
_Last$ = 16
_Al$ = 24
??$_Destroy_range@V?$allocator@PEAV?$basic_string@_WU?$char_traits@_W@std@@V?$allocator@_W@2@@std@@@std@@@std@@YAXPEAPEAV?$basic_string@_WU?$char_traits@_W@std@@V?$allocator@_W@2@@0@0AEAV?$allocator@PEAV?$basic_string@_WU?$char_traits@_W@std@@V?$allocator@_W@2@@std@@@0@@Z PROC ; std::_Destroy_range<std::allocator<std::basic_string<wchar_t,std::char_traits<wchar_t>,std::allocator<wchar_t> > * __ptr64> >, COMDAT

; 225  : 	_Destroy_range(_First, _Last, _Al, _Ptr_cat(_First, _Last));
; 226  : 	}

	ret	0
??$_Destroy_range@V?$allocator@PEAV?$basic_string@_WU?$char_traits@_W@std@@V?$allocator@_W@2@@std@@@std@@@std@@YAXPEAPEAV?$basic_string@_WU?$char_traits@_W@std@@V?$allocator@_W@2@@0@0AEAV?$allocator@PEAV?$basic_string@_WU?$char_traits@_W@std@@V?$allocator@_W@2@@std@@@0@@Z ENDP ; std::_Destroy_range<std::allocator<std::basic_string<wchar_t,std::char_traits<wchar_t>,std::allocator<wchar_t> > * __ptr64> >
_TEXT	ENDS
;	COMDAT pdata
; File c:\program files\microsoft visual studio 9.0\vc\include\memory
pdata	SEGMENT
$pdata$??$unchecked_uninitialized_copy@PEAPEAV?$basic_string@_WU?$char_traits@_W@std@@V?$allocator@_W@2@@std@@PEAPEAV12@V?$allocator@PEAV?$basic_string@_WU?$char_traits@_W@std@@V?$allocator@_W@2@@std@@@2@@stdext@@YAPEAPEAV?$basic_string@_WU?$char_traits@_W@std@@V?$allocator@_W@2@@std@@PEAPEAV12@00AEAV?$allocator@PEAV?$basic_string@_WU?$char_traits@_W@std@@V?$allocator@_W@2@@std@@@2@@Z DD imagerel $LN17
	DD	imagerel $LN17+60
	DD	imagerel $unwind$??$unchecked_uninitialized_copy@PEAPEAV?$basic_string@_WU?$char_traits@_W@std@@V?$allocator@_W@2@@std@@PEAPEAV12@V?$allocator@PEAV?$basic_string@_WU?$char_traits@_W@std@@V?$allocator@_W@2@@std@@@2@@stdext@@YAPEAPEAV?$basic_string@_WU?$char_traits@_W@std@@V?$allocator@_W@2@@std@@PEAPEAV12@00AEAV?$allocator@PEAV?$basic_string@_WU?$char_traits@_W@std@@V?$allocator@_W@2@@std@@@2@@Z
pdata	ENDS
;	COMDAT xdata
xdata	SEGMENT
$unwind$??$unchecked_uninitialized_copy@PEAPEAV?$basic_string@_WU?$char_traits@_W@std@@V?$allocator@_W@2@@std@@PEAPEAV12@V?$allocator@PEAV?$basic_string@_WU?$char_traits@_W@std@@V?$allocator@_W@2@@std@@@2@@stdext@@YAPEAPEAV?$basic_string@_WU?$char_traits@_W@std@@V?$allocator@_W@2@@std@@PEAPEAV12@00AEAV?$allocator@PEAV?$basic_string@_WU?$char_traits@_W@std@@V?$allocator@_W@2@@std@@@2@@Z DD 020601H
	DD	030023206H
; Function compile flags: /Ogtpy
xdata	ENDS
;	COMDAT ??$unchecked_uninitialized_copy@PEAPEAV?$basic_string@_WU?$char_traits@_W@std@@V?$allocator@_W@2@@std@@PEAPEAV12@V?$allocator@PEAV?$basic_string@_WU?$char_traits@_W@std@@V?$allocator@_W@2@@std@@@2@@stdext@@YAPEAPEAV?$basic_string@_WU?$char_traits@_W@std@@V?$allocator@_W@2@@std@@PEAPEAV12@00AEAV?$allocator@PEAV?$basic_string@_WU?$char_traits@_W@std@@V?$allocator@_W@2@@std@@@2@@Z
_TEXT	SEGMENT
_First$ = 48
_Last$ = 56
_Dest$ = 64
_Al$ = 72
??$unchecked_uninitialized_copy@PEAPEAV?$basic_string@_WU?$char_traits@_W@std@@V?$allocator@_W@2@@std@@PEAPEAV12@V?$allocator@PEAV?$basic_string@_WU?$char_traits@_W@std@@V?$allocator@_W@2@@std@@@2@@stdext@@YAPEAPEAV?$basic_string@_WU?$char_traits@_W@std@@V?$allocator@_W@2@@std@@PEAPEAV12@00AEAV?$allocator@PEAV?$basic_string@_WU?$char_traits@_W@std@@V?$allocator@_W@2@@std@@@2@@Z PROC ; stdext::unchecked_uninitialized_copy<std::basic_string<wchar_t,std::char_traits<wchar_t>,std::allocator<wchar_t> > * __ptr64 * __ptr64,std::basic_string<wchar_t,std::char_traits<wchar_t>,std::allocator<wchar_t> > * __ptr64 * __ptr64,std::allocator<std::basic_string<wchar_t,std::char_traits<wchar_t>,std::allocator<wchar_t> > * __ptr64> >, COMDAT

; 819  : 	{	// copy [_First, _Last) to raw _Dest, using _Al

$LN17:
	push	rbx
	sub	rsp, 32					; 00000020H

; 820  : 	return (_STD _Uninit_copy(_CHECKED_BASE(_First),
; 821  : 		_CHECKED_BASE(_Last), _Dest, _Al,
; 822  : 		_STD _Ptr_cat(_First, _Dest), _STD _Range_checked_iterator_tag()));

	sub	rdx, rcx
	mov	r10, r8
	sar	rdx, 3
	lea	rax, QWORD PTR [rdx*8]
	lea	rbx, QWORD PTR [rax+r8]
	test	rdx, rdx
	je	SHORT $LN16@unchecked_
	mov	r8, rcx
	mov	r9, rax
	mov	rdx, rax
	mov	rcx, r10
	call	QWORD PTR __imp_memmove_s
$LN16@unchecked_:
	mov	rax, rbx

; 823  : 	}

	add	rsp, 32					; 00000020H
	pop	rbx
	ret	0
??$unchecked_uninitialized_copy@PEAPEAV?$basic_string@_WU?$char_traits@_W@std@@V?$allocator@_W@2@@std@@PEAPEAV12@V?$allocator@PEAV?$basic_string@_WU?$char_traits@_W@std@@V?$allocator@_W@2@@std@@@2@@stdext@@YAPEAPEAV?$basic_string@_WU?$char_traits@_W@std@@V?$allocator@_W@2@@std@@PEAPEAV12@00AEAV?$allocator@PEAV?$basic_string@_WU?$char_traits@_W@std@@V?$allocator@_W@2@@std@@@2@@Z ENDP ; stdext::unchecked_uninitialized_copy<std::basic_string<wchar_t,std::char_traits<wchar_t>,std::allocator<wchar_t> > * __ptr64 * __ptr64,std::basic_string<wchar_t,std::char_traits<wchar_t>,std::allocator<wchar_t> > * __ptr64 * __ptr64,std::allocator<std::basic_string<wchar_t,std::char_traits<wchar_t>,std::allocator<wchar_t> > * __ptr64> >
; Function compile flags: /Ogtpy
; File c:\program files\microsoft visual studio 9.0\vc\include\xmemory
_TEXT	ENDS
;	COMDAT ??$_Destroy@PEA_W@std@@YAXPEAPEA_W@Z
_TEXT	SEGMENT
_Ptr$ = 8
??$_Destroy@PEA_W@std@@YAXPEAPEA_W@Z PROC		; std::_Destroy<wchar_t * __ptr64>, COMDAT

; 59   : 	_DESTRUCTOR(_Ty, _Ptr);
; 60   : 	}

	ret	0
??$_Destroy@PEA_W@std@@YAXPEAPEA_W@Z ENDP		; std::_Destroy<wchar_t * __ptr64>
; Function compile flags: /Ogtpy
_TEXT	ENDS
;	COMDAT ??$_Destroy_range@V?$allocator@PEA_W@std@@@std@@YAXPEAPEA_W0AEAV?$allocator@PEA_W@0@@Z
_TEXT	SEGMENT
_First$ = 8
_Last$ = 16
_Al$ = 24
??$_Destroy_range@V?$allocator@PEA_W@std@@@std@@YAXPEAPEA_W0AEAV?$allocator@PEA_W@0@@Z PROC ; std::_Destroy_range<std::allocator<wchar_t * __ptr64> >, COMDAT

; 225  : 	_Destroy_range(_First, _Last, _Al, _Ptr_cat(_First, _Last));
; 226  : 	}

	ret	0
??$_Destroy_range@V?$allocator@PEA_W@std@@@std@@YAXPEAPEA_W0AEAV?$allocator@PEA_W@0@@Z ENDP ; std::_Destroy_range<std::allocator<wchar_t * __ptr64> >
_TEXT	ENDS
;	COMDAT pdata
; File c:\program files\microsoft visual studio 9.0\vc\include\memory
pdata	SEGMENT
$pdata$??$unchecked_uninitialized_copy@PEAPEA_WPEAPEA_WV?$allocator@PEA_W@std@@@stdext@@YAPEAPEA_WPEAPEA_W00AEAV?$allocator@PEA_W@std@@@Z DD imagerel $LN17
	DD	imagerel $LN17+60
	DD	imagerel $unwind$??$unchecked_uninitialized_copy@PEAPEA_WPEAPEA_WV?$allocator@PEA_W@std@@@stdext@@YAPEAPEA_WPEAPEA_W00AEAV?$allocator@PEA_W@std@@@Z
pdata	ENDS
;	COMDAT xdata
xdata	SEGMENT
$unwind$??$unchecked_uninitialized_copy@PEAPEA_WPEAPEA_WV?$allocator@PEA_W@std@@@stdext@@YAPEAPEA_WPEAPEA_W00AEAV?$allocator@PEA_W@std@@@Z DD 020601H
	DD	030023206H
; Function compile flags: /Ogtpy
xdata	ENDS
;	COMDAT ??$unchecked_uninitialized_copy@PEAPEA_WPEAPEA_WV?$allocator@PEA_W@std@@@stdext@@YAPEAPEA_WPEAPEA_W00AEAV?$allocator@PEA_W@std@@@Z
_TEXT	SEGMENT
_First$ = 48
_Last$ = 56
_Dest$ = 64
_Al$ = 72
??$unchecked_uninitialized_copy@PEAPEA_WPEAPEA_WV?$allocator@PEA_W@std@@@stdext@@YAPEAPEA_WPEAPEA_W00AEAV?$allocator@PEA_W@std@@@Z PROC ; stdext::unchecked_uninitialized_copy<wchar_t * __ptr64 * __ptr64,wchar_t * __ptr64 * __ptr64,std::allocator<wchar_t * __ptr64> >, COMDAT

; 819  : 	{	// copy [_First, _Last) to raw _Dest, using _Al

$LN17:
	push	rbx
	sub	rsp, 32					; 00000020H

; 820  : 	return (_STD _Uninit_copy(_CHECKED_BASE(_First),
; 821  : 		_CHECKED_BASE(_Last), _Dest, _Al,
; 822  : 		_STD _Ptr_cat(_First, _Dest), _STD _Range_checked_iterator_tag()));

	sub	rdx, rcx
	mov	r10, r8
	sar	rdx, 3
	lea	rax, QWORD PTR [rdx*8]
	lea	rbx, QWORD PTR [rax+r8]
	test	rdx, rdx
	je	SHORT $LN16@unchecked_@2
	mov	r8, rcx
	mov	r9, rax
	mov	rdx, rax
	mov	rcx, r10
	call	QWORD PTR __imp_memmove_s
$LN16@unchecked_@2:
	mov	rax, rbx

; 823  : 	}

	add	rsp, 32					; 00000020H
	pop	rbx
	ret	0
??$unchecked_uninitialized_copy@PEAPEA_WPEAPEA_WV?$allocator@PEA_W@std@@@stdext@@YAPEAPEA_WPEAPEA_W00AEAV?$allocator@PEA_W@std@@@Z ENDP ; stdext::unchecked_uninitialized_copy<wchar_t * __ptr64 * __ptr64,wchar_t * __ptr64 * __ptr64,std::allocator<wchar_t * __ptr64> >
; Function compile flags: /Ogtpy
; File c:\program files\microsoft visual studio 9.0\vc\include\xmemory
_TEXT	ENDS
;	COMDAT ?max_size@?$allocator@V?$basic_string@_WU?$char_traits@_W@std@@V?$allocator@_W@2@@std@@@std@@QEBA_KXZ
_TEXT	SEGMENT
this$ = 8
?max_size@?$allocator@V?$basic_string@_WU?$char_traits@_W@std@@V?$allocator@_W@2@@std@@@std@@QEBA_KXZ PROC ; std::allocator<std::basic_string<wchar_t,std::char_traits<wchar_t>,std::allocator<wchar_t> > >::max_size, COMDAT

; 165  : 		_SIZT _Count = (_SIZT)(-1) / sizeof (_Ty);
; 166  : 		return (0 < _Count ? _Count : 1);

	mov	rax, 461168601842738790			; 0666666666666666H

; 167  : 		}

	ret	0
?max_size@?$allocator@V?$basic_string@_WU?$char_traits@_W@std@@V?$allocator@_W@2@@std@@@std@@QEBA_KXZ ENDP ; std::allocator<std::basic_string<wchar_t,std::char_traits<wchar_t>,std::allocator<wchar_t> > >::max_size
; Function compile flags: /Ogtpy
_TEXT	ENDS
;	COMDAT ??0?$allocator@V?$basic_string@_WU?$char_traits@_W@std@@V?$allocator@_W@2@@std@@@std@@QEAA@AEBV01@@Z
_TEXT	SEGMENT
this$ = 8
__formal$ = 16
??0?$allocator@V?$basic_string@_WU?$char_traits@_W@std@@V?$allocator@_W@2@@std@@@std@@QEAA@AEBV01@@Z PROC ; std::allocator<std::basic_string<wchar_t,std::char_traits<wchar_t>,std::allocator<wchar_t> > >::allocator<std::basic_string<wchar_t,std::char_traits<wchar_t>,std::allocator<wchar_t> > >, COMDAT

; 124  : 		{	// construct by copying (do nothing)
; 125  : 		}

	mov	rax, rcx
	ret	0
??0?$allocator@V?$basic_string@_WU?$char_traits@_W@std@@V?$allocator@_W@2@@std@@@std@@QEAA@AEBV01@@Z ENDP ; std::allocator<std::basic_string<wchar_t,std::char_traits<wchar_t>,std::allocator<wchar_t> > >::allocator<std::basic_string<wchar_t,std::char_traits<wchar_t>,std::allocator<wchar_t> > >
; Function compile flags: /Ogtpy
; File c:\program files\microsoft visual studio 9.0\vc\include\deque
_TEXT	ENDS
;	COMDAT ?max_size@?$deque@V?$basic_string@_WU?$char_traits@_W@std@@V?$allocator@_W@2@@std@@V?$allocator@V?$basic_string@_WU?$char_traits@_W@std@@V?$allocator@_W@2@@std@@@2@@std@@QEBA_KXZ
_TEXT	SEGMENT
this$ = 8
?max_size@?$deque@V?$basic_string@_WU?$char_traits@_W@std@@V?$allocator@_W@2@@std@@V?$allocator@V?$basic_string@_WU?$char_traits@_W@std@@V?$allocator@_W@2@@std@@@2@@std@@QEBA_KXZ PROC ; std::deque<std::basic_string<wchar_t,std::char_traits<wchar_t>,std::allocator<wchar_t> >,std::allocator<std::basic_string<wchar_t,std::char_traits<wchar_t>,std::allocator<wchar_t> > > >::max_size, COMDAT

; 729  : 		return (this->_Alval.max_size());

	mov	rax, 461168601842738790			; 0666666666666666H

; 730  : 		}

	ret	0
?max_size@?$deque@V?$basic_string@_WU?$char_traits@_W@std@@V?$allocator@_W@2@@std@@V?$allocator@V?$basic_string@_WU?$char_traits@_W@std@@V?$allocator@_W@2@@std@@@2@@std@@QEBA_KXZ ENDP ; std::deque<std::basic_string<wchar_t,std::char_traits<wchar_t>,std::allocator<wchar_t> >,std::allocator<std::basic_string<wchar_t,std::char_traits<wchar_t>,std::allocator<wchar_t> > > >::max_size
; Function compile flags: /Ogtpy
_TEXT	ENDS
;	COMDAT ?max_size@?$deque@_WV?$allocator@_W@std@@@std@@QEBA_KXZ
_TEXT	SEGMENT
this$ = 8
?max_size@?$deque@_WV?$allocator@_W@std@@@std@@QEBA_KXZ PROC ; std::deque<wchar_t,std::allocator<wchar_t> >::max_size, COMDAT

; 729  : 		return (this->_Alval.max_size());

	mov	rax, 9223372036854775807		; 7fffffffffffffffH

; 730  : 		}

	ret	0
?max_size@?$deque@_WV?$allocator@_W@std@@@std@@QEBA_KXZ ENDP ; std::deque<wchar_t,std::allocator<wchar_t> >::max_size
_TEXT	ENDS
;	COMDAT pdata
; File c:\program files\microsoft visual studio 9.0\vc\include\ios
pdata	SEGMENT
$pdata$??1_Sentry_base@?$basic_ostream@_WU?$char_traits@_W@std@@@std@@QEAA@XZ DD imagerel $LN8
	DD	imagerel $LN8+35
	DD	imagerel $unwind$??1_Sentry_base@?$basic_ostream@_WU?$char_traits@_W@std@@@std@@QEAA@XZ
pdata	ENDS
;	COMDAT xdata
xdata	SEGMENT
$unwind$??1_Sentry_base@?$basic_ostream@_WU?$char_traits@_W@std@@@std@@QEAA@XZ DD 010401H
	DD	04204H
; Function compile flags: /Ogtpy
; File c:\program files\microsoft visual studio 9.0\vc\include\ostream
xdata	ENDS
;	COMDAT ??1_Sentry_base@?$basic_ostream@_WU?$char_traits@_W@std@@@std@@QEAA@XZ
_TEXT	SEGMENT
this$ = 48
??1_Sentry_base@?$basic_ostream@_WU?$char_traits@_W@std@@@std@@QEAA@XZ PROC ; std::basic_ostream<wchar_t,std::char_traits<wchar_t> >::_Sentry_base::~_Sentry_base, COMDAT

; 81   : 			{	// destroy after unlocking

$LN8:
	sub	rsp, 40					; 00000028H

; 82   : 			if (_Myostr.rdbuf() != 0)

	mov	rdx, QWORD PTR [rcx]
	mov	rax, QWORD PTR [rdx]
	movsxd	rcx, DWORD PTR [rax+4]
	mov	rcx, QWORD PTR [rcx+rdx+72]
	test	rcx, rcx
	je	SHORT $LN1@Sentry_bas

; 83   : 				_Myostr.rdbuf()->_Unlock();

	call	QWORD PTR __imp_?_Unlock@?$basic_streambuf@_WU?$char_traits@_W@std@@@std@@QEAAXXZ
$LN1@Sentry_bas:

; 84   : 			}

	add	rsp, 40					; 00000028H
	ret	0
??1_Sentry_base@?$basic_ostream@_WU?$char_traits@_W@std@@@std@@QEAA@XZ ENDP ; std::basic_ostream<wchar_t,std::char_traits<wchar_t> >::_Sentry_base::~_Sentry_base
_TEXT	ENDS
;	COMDAT pdata
; File c:\program files\microsoft visual studio 9.0\vc\include\ios
pdata	SEGMENT
$pdata$??0_Sentry_base@?$basic_ostream@_WU?$char_traits@_W@std@@@std@@QEAA@AEAV12@@Z DD imagerel $LN9
	DD	imagerel $LN9+44
	DD	imagerel $unwind$??0_Sentry_base@?$basic_ostream@_WU?$char_traits@_W@std@@@std@@QEAA@AEAV12@@Z
pdata	ENDS
;	COMDAT xdata
xdata	SEGMENT
$unwind$??0_Sentry_base@?$basic_ostream@_WU?$char_traits@_W@std@@@std@@QEAA@AEAV12@@Z DD 020601H
	DD	030023206H
; Function compile flags: /Ogtpy
; File c:\program files\microsoft visual studio 9.0\vc\include\ostream
xdata	ENDS
;	COMDAT ??0_Sentry_base@?$basic_ostream@_WU?$char_traits@_W@std@@@std@@QEAA@AEAV12@@Z
_TEXT	SEGMENT
this$ = 48
_Ostr$ = 56
??0_Sentry_base@?$basic_ostream@_WU?$char_traits@_W@std@@@std@@QEAA@AEAV12@@Z PROC ; std::basic_ostream<wchar_t,std::char_traits<wchar_t> >::_Sentry_base::_Sentry_base, COMDAT

; 75   : 			{	// lock the stream buffer, if there

$LN9:
	push	rbx
	sub	rsp, 32					; 00000020H
	mov	QWORD PTR [rcx], rdx

; 76   : 			if (_Myostr.rdbuf() != 0)

	mov	rax, QWORD PTR [rdx]
	mov	rbx, rcx
	movsxd	r8, DWORD PTR [rax+4]
	mov	rcx, QWORD PTR [r8+rdx+72]
	test	rcx, rcx
	je	SHORT $LN8@Sentry_bas@2

; 77   : 				_Myostr.rdbuf()->_Lock();

	call	QWORD PTR __imp_?_Lock@?$basic_streambuf@_WU?$char_traits@_W@std@@@std@@QEAAXXZ
$LN8@Sentry_bas@2:

; 78   : 			}

	mov	rax, rbx
	add	rsp, 32					; 00000020H
	pop	rbx
	ret	0
??0_Sentry_base@?$basic_ostream@_WU?$char_traits@_W@std@@@std@@QEAA@AEAV12@@Z ENDP ; std::basic_ostream<wchar_t,std::char_traits<wchar_t> >::_Sentry_base::_Sentry_base
; Function compile flags: /Ogtpy
; File c:\program files\microsoft visual studio 9.0\vc\include\xmemory
_TEXT	ENDS
;	COMDAT ?destroy@?$allocator@PEAV?$basic_string@_WU?$char_traits@_W@std@@V?$allocator@_W@2@@std@@@std@@QEAAXPEAPEAV?$basic_string@_WU?$char_traits@_W@std@@V?$allocator@_W@2@@2@@Z
_TEXT	SEGMENT
this$ = 8
_Ptr$ = 16
?destroy@?$allocator@PEAV?$basic_string@_WU?$char_traits@_W@std@@V?$allocator@_W@2@@std@@@std@@QEAAXPEAPEAV?$basic_string@_WU?$char_traits@_W@std@@V?$allocator@_W@2@@2@@Z PROC ; std::allocator<std::basic_string<wchar_t,std::char_traits<wchar_t>,std::allocator<wchar_t> > * __ptr64>::destroy, COMDAT

; 160  : 		_Destroy(_Ptr);
; 161  : 		}

	ret	0
?destroy@?$allocator@PEAV?$basic_string@_WU?$char_traits@_W@std@@V?$allocator@_W@2@@std@@@std@@QEAAXPEAPEAV?$basic_string@_WU?$char_traits@_W@std@@V?$allocator@_W@2@@2@@Z ENDP ; std::allocator<std::basic_string<wchar_t,std::char_traits<wchar_t>,std::allocator<wchar_t> > * __ptr64>::destroy
; Function compile flags: /Ogtpy
_TEXT	ENDS
;	COMDAT ?deallocate@?$allocator@PEAV?$basic_string@_WU?$char_traits@_W@std@@V?$allocator@_W@2@@std@@@std@@QEAAXPEAPEAV?$basic_string@_WU?$char_traits@_W@std@@V?$allocator@_W@2@@2@_K@Z
_TEXT	SEGMENT
this$ = 8
_Ptr$ = 16
__formal$ = 24
?deallocate@?$allocator@PEAV?$basic_string@_WU?$char_traits@_W@std@@V?$allocator@_W@2@@std@@@std@@QEAAXPEAPEAV?$basic_string@_WU?$char_traits@_W@std@@V?$allocator@_W@2@@2@_K@Z PROC ; std::allocator<std::basic_string<wchar_t,std::char_traits<wchar_t>,std::allocator<wchar_t> > * __ptr64>::deallocate, COMDAT

; 140  : 		::operator delete(_Ptr);

	mov	rcx, rdx

; 141  : 		}

	jmp	??3@YAXPEAX@Z				; operator delete
?deallocate@?$allocator@PEAV?$basic_string@_WU?$char_traits@_W@std@@V?$allocator@_W@2@@std@@@std@@QEAAXPEAPEAV?$basic_string@_WU?$char_traits@_W@std@@V?$allocator@_W@2@@2@_K@Z ENDP ; std::allocator<std::basic_string<wchar_t,std::char_traits<wchar_t>,std::allocator<wchar_t> > * __ptr64>::deallocate
; Function compile flags: /Ogtpy
_TEXT	ENDS
;	COMDAT ?destroy@?$allocator@V?$basic_string@_WU?$char_traits@_W@std@@V?$allocator@_W@2@@std@@@std@@QEAAXPEAV?$basic_string@_WU?$char_traits@_W@std@@V?$allocator@_W@2@@2@@Z
_TEXT	SEGMENT
this$ = 8
_Ptr$ = 16
?destroy@?$allocator@V?$basic_string@_WU?$char_traits@_W@std@@V?$allocator@_W@2@@std@@@std@@QEAAXPEAV?$basic_string@_WU?$char_traits@_W@std@@V?$allocator@_W@2@@2@@Z PROC ; std::allocator<std::basic_string<wchar_t,std::char_traits<wchar_t>,std::allocator<wchar_t> > >::destroy, COMDAT

; 160  : 		_Destroy(_Ptr);

	mov	rcx, rdx

; 161  : 		}

	rex_jmp	QWORD PTR __imp_??1?$basic_string@_WU?$char_traits@_W@std@@V?$allocator@_W@2@@std@@QEAA@XZ
?destroy@?$allocator@V?$basic_string@_WU?$char_traits@_W@std@@V?$allocator@_W@2@@std@@@std@@QEAAXPEAV?$basic_string@_WU?$char_traits@_W@std@@V?$allocator@_W@2@@2@@Z ENDP ; std::allocator<std::basic_string<wchar_t,std::char_traits<wchar_t>,std::allocator<wchar_t> > >::destroy
; Function compile flags: /Ogtpy
_TEXT	ENDS
;	COMDAT ?deallocate@?$allocator@V?$basic_string@_WU?$char_traits@_W@std@@V?$allocator@_W@2@@std@@@std@@QEAAXPEAV?$basic_string@_WU?$char_traits@_W@std@@V?$allocator@_W@2@@2@_K@Z
_TEXT	SEGMENT
this$ = 8
_Ptr$ = 16
__formal$ = 24
?deallocate@?$allocator@V?$basic_string@_WU?$char_traits@_W@std@@V?$allocator@_W@2@@std@@@std@@QEAAXPEAV?$basic_string@_WU?$char_traits@_W@std@@V?$allocator@_W@2@@2@_K@Z PROC ; std::allocator<std::basic_string<wchar_t,std::char_traits<wchar_t>,std::allocator<wchar_t> > >::deallocate, COMDAT

; 140  : 		::operator delete(_Ptr);

	mov	rcx, rdx

; 141  : 		}

	jmp	??3@YAXPEAX@Z				; operator delete
?deallocate@?$allocator@V?$basic_string@_WU?$char_traits@_W@std@@V?$allocator@_W@2@@std@@@std@@QEAAXPEAV?$basic_string@_WU?$char_traits@_W@std@@V?$allocator@_W@2@@2@_K@Z ENDP ; std::allocator<std::basic_string<wchar_t,std::char_traits<wchar_t>,std::allocator<wchar_t> > >::deallocate
; Function compile flags: /Ogtpy
_TEXT	ENDS
;	COMDAT ??0?$allocator@V?$basic_string@_WU?$char_traits@_W@std@@V?$allocator@_W@2@@std@@@std@@QEAA@XZ
_TEXT	SEGMENT
this$ = 8
??0?$allocator@V?$basic_string@_WU?$char_traits@_W@std@@V?$allocator@_W@2@@std@@@std@@QEAA@XZ PROC ; std::allocator<std::basic_string<wchar_t,std::char_traits<wchar_t>,std::allocator<wchar_t> > >::allocator<std::basic_string<wchar_t,std::char_traits<wchar_t>,std::allocator<wchar_t> > >, COMDAT

; 120  : 		{	// construct default allocator (do nothing)
; 121  : 		}

	mov	rax, rcx
	ret	0
??0?$allocator@V?$basic_string@_WU?$char_traits@_W@std@@V?$allocator@_W@2@@std@@@std@@QEAA@XZ ENDP ; std::allocator<std::basic_string<wchar_t,std::char_traits<wchar_t>,std::allocator<wchar_t> > >::allocator<std::basic_string<wchar_t,std::char_traits<wchar_t>,std::allocator<wchar_t> > >
; Function compile flags: /Ogtpy
_TEXT	ENDS
;	COMDAT ?destroy@?$allocator@PEA_W@std@@QEAAXPEAPEA_W@Z
_TEXT	SEGMENT
this$ = 8
_Ptr$ = 16
?destroy@?$allocator@PEA_W@std@@QEAAXPEAPEA_W@Z PROC	; std::allocator<wchar_t * __ptr64>::destroy, COMDAT

; 160  : 		_Destroy(_Ptr);
; 161  : 		}

	ret	0
?destroy@?$allocator@PEA_W@std@@QEAAXPEAPEA_W@Z ENDP	; std::allocator<wchar_t * __ptr64>::destroy
; Function compile flags: /Ogtpy
_TEXT	ENDS
;	COMDAT ?deallocate@?$allocator@PEA_W@std@@QEAAXPEAPEA_W_K@Z
_TEXT	SEGMENT
this$ = 8
_Ptr$ = 16
__formal$ = 24
?deallocate@?$allocator@PEA_W@std@@QEAAXPEAPEA_W_K@Z PROC ; std::allocator<wchar_t * __ptr64>::deallocate, COMDAT

; 140  : 		::operator delete(_Ptr);

	mov	rcx, rdx

; 141  : 		}

	jmp	??3@YAXPEAX@Z				; operator delete
?deallocate@?$allocator@PEA_W@std@@QEAAXPEAPEA_W_K@Z ENDP ; std::allocator<wchar_t * __ptr64>::deallocate
; Function compile flags: /Ogtpy
; File c:\program files\microsoft visual studio 9.0\vc\include\ostream
_TEXT	ENDS
;	COMDAT ??Bsentry@?$basic_ostream@_WU?$char_traits@_W@std@@@std@@QEBA_NXZ
_TEXT	SEGMENT
this$ = 8
??Bsentry@?$basic_ostream@_WU?$char_traits@_W@std@@@std@@QEBA_NXZ PROC ; std::basic_ostream<wchar_t,std::char_traits<wchar_t> >::sentry::operator bool, COMDAT

; 116  : 			return (_Ok);

	mov	al, BYTE PTR [rcx+8]

; 117  : 			}

	ret	0
??Bsentry@?$basic_ostream@_WU?$char_traits@_W@std@@@std@@QEBA_NXZ ENDP ; std::basic_ostream<wchar_t,std::char_traits<wchar_t> >::sentry::operator bool
_TEXT	ENDS
EXTRN	__CxxFrameHandler3:PROC
;	COMDAT pdata
; File c:\program files\microsoft visual studio 9.0\vc\include\ios
pdata	SEGMENT
$pdata$??1sentry@?$basic_ostream@_WU?$char_traits@_W@std@@@std@@QEAA@XZ DD imagerel $LN12
	DD	imagerel $LN12+74
	DD	imagerel $unwind$??1sentry@?$basic_ostream@_WU?$char_traits@_W@std@@@std@@QEAA@XZ
pdata	ENDS
;	COMDAT pdata
pdata	SEGMENT
$pdata$?dtor$0@?0???1sentry@?$basic_ostream@_WU?$char_traits@_W@std@@@std@@QEAA@XZ@4HA DD imagerel ?dtor$0@?0???1sentry@?$basic_ostream@_WU?$char_traits@_W@std@@@std@@QEAA@XZ@4HA
	DD	imagerel ?dtor$0@?0???1sentry@?$basic_ostream@_WU?$char_traits@_W@std@@@std@@QEAA@XZ@4HA+24
	DD	imagerel $unwind$?dtor$0@?0???1sentry@?$basic_ostream@_WU?$char_traits@_W@std@@@std@@QEAA@XZ@4HA
pdata	ENDS
;	COMDAT xdata
xdata	SEGMENT
$ip2state$??1sentry@?$basic_ostream@_WU?$char_traits@_W@std@@@std@@QEAA@XZ DD imagerel ??1sentry@?$basic_ostream@_WU?$char_traits@_W@std@@@std@@QEAA@XZ
	DD	0ffffffffH
	DD	imagerel ??1sentry@?$basic_ostream@_WU?$char_traits@_W@std@@@std@@QEAA@XZ+22
	DD	00H
	DD	imagerel ??1sentry@?$basic_ostream@_WU?$char_traits@_W@std@@@std@@QEAA@XZ+42
	DD	0ffffffffH
xdata	ENDS
;	COMDAT xdata
xdata	SEGMENT
$unwind$?dtor$0@?0???1sentry@?$basic_ostream@_WU?$char_traits@_W@std@@@std@@QEAA@XZ@4HA DD 020601H
	DD	050023206H
xdata	ENDS
;	COMDAT xdata
xdata	SEGMENT
$unwind$??1sentry@?$basic_ostream@_WU?$char_traits@_W@std@@@std@@QEAA@XZ DD 021311H
	DD	03006520aH
	DD	imagerel __CxxFrameHandler3
	DD	imagerel $cppxdata$??1sentry@?$basic_ostream@_WU?$char_traits@_W@std@@@std@@QEAA@XZ
xdata	ENDS
;	COMDAT CONST
CONST	SEGMENT
$cppxdata$??1sentry@?$basic_ostream@_WU?$char_traits@_W@std@@@std@@QEAA@XZ DD 019930522H
	DD	01H
	DD	imagerel $stateUnwindMap$??1sentry@?$basic_ostream@_WU?$char_traits@_W@std@@@std@@QEAA@XZ
	DD	00H
	DD	00H
	DD	03H
	DD	imagerel $ip2state$??1sentry@?$basic_ostream@_WU?$char_traits@_W@std@@@std@@QEAA@XZ
	DD	020H
	DD	00H
	DD	01H
CONST	ENDS
;	COMDAT xdata
xdata	SEGMENT
$stateUnwindMap$??1sentry@?$basic_ostream@_WU?$char_traits@_W@std@@@std@@QEAA@XZ DD 0ffffffffH
	DD	imagerel ?dtor$0@?0???1sentry@?$basic_ostream@_WU?$char_traits@_W@std@@@std@@QEAA@XZ@4HA
; Function compile flags: /Ogtpy
; File c:\program files\microsoft visual studio 9.0\vc\include\ostream
xdata	ENDS
;	COMDAT ??1sentry@?$basic_ostream@_WU?$char_traits@_W@std@@@std@@QEAA@XZ
_TEXT	SEGMENT
$T144332 = 32
this$ = 64
??1sentry@?$basic_ostream@_WU?$char_traits@_W@std@@@std@@QEAA@XZ PROC ; std::basic_ostream<wchar_t,std::char_traits<wchar_t> >::sentry::~sentry, COMDAT

; 102  : 			{	// destroy the object

$LN12:
	mov	QWORD PTR [rsp+8], rcx
	push	rbx
	sub	rsp, 48					; 00000030H
	mov	QWORD PTR $T144332[rsp], -2
	mov	rbx, rcx

; 103  : 
; 104  :  #if _HAS_EXCEPTIONS
; 105  : 			if (!_XSTD uncaught_exception())

	call	QWORD PTR __imp_?uncaught_exception@std@@YA_NXZ
	test	al, al
	jne	SHORT $LN1@sentry

; 106  : 				this->_Myostr._Osfx();

	mov	rcx, QWORD PTR [rbx]
	call	QWORD PTR __imp_?_Osfx@?$basic_ostream@_WU?$char_traits@_W@std@@@std@@QEAAXXZ
	npad	1
$LN1@sentry:

; 107  : 			}

	mov	rdx, QWORD PTR [rbx]
	mov	rax, QWORD PTR [rdx]
	movsxd	rcx, DWORD PTR [rax+4]
	mov	rcx, QWORD PTR [rcx+rdx+72]
	test	rcx, rcx
	je	SHORT $LN5@sentry
	call	QWORD PTR __imp_?_Unlock@?$basic_streambuf@_WU?$char_traits@_W@std@@@std@@QEAAXXZ
$LN5@sentry:
	add	rsp, 48					; 00000030H
	pop	rbx
	ret	0
??1sentry@?$basic_ostream@_WU?$char_traits@_W@std@@@std@@QEAA@XZ ENDP ; std::basic_ostream<wchar_t,std::char_traits<wchar_t> >::sentry::~sentry
; Function compile flags: /Ogtpy
_TEXT	ENDS
;	COMDAT text$x
text$x	SEGMENT
$T144332 = 32
this$ = 64
?dtor$0@?0???1sentry@?$basic_ostream@_WU?$char_traits@_W@std@@@std@@QEAA@XZ@4HA PROC ; `std::basic_ostream<wchar_t,std::char_traits<wchar_t> >::sentry::~sentry'::`1'::dtor$0
	push	rbp
	sub	rsp, 32					; 00000020H
	mov	rbp, rdx
	mov	rcx, QWORD PTR this$[rbp]
	call	??1_Sentry_base@?$basic_ostream@_WU?$char_traits@_W@std@@@std@@QEAA@XZ ; std::basic_ostream<wchar_t,std::char_traits<wchar_t> >::_Sentry_base::~_Sentry_base
	add	rsp, 32					; 00000020H
	pop	rbp
	ret	0
?dtor$0@?0???1sentry@?$basic_ostream@_WU?$char_traits@_W@std@@@std@@QEAA@XZ@4HA ENDP ; `std::basic_ostream<wchar_t,std::char_traits<wchar_t> >::sentry::~sentry'::`1'::dtor$0
text$x	ENDS
;	COMDAT pdata
; File c:\program files\microsoft visual studio 9.0\vc\include\xiosbase
pdata	SEGMENT
$pdata$??0sentry@?$basic_ostream@_WU?$char_traits@_W@std@@@std@@QEAA@AEAV12@@Z DD imagerel $LN24
	DD	imagerel $LN24+119
	DD	imagerel $unwind$??0sentry@?$basic_ostream@_WU?$char_traits@_W@std@@@std@@QEAA@AEAV12@@Z
pdata	ENDS
;	COMDAT pdata
pdata	SEGMENT
$pdata$?dtor$0@?0???0sentry@?$basic_ostream@_WU?$char_traits@_W@std@@@std@@QEAA@AEAV12@@Z@4HA DD imagerel ?dtor$0@?0???0sentry@?$basic_ostream@_WU?$char_traits@_W@std@@@std@@QEAA@AEAV12@@Z@4HA
	DD	imagerel ?dtor$0@?0???0sentry@?$basic_ostream@_WU?$char_traits@_W@std@@@std@@QEAA@AEAV12@@Z@4HA+24
	DD	imagerel $unwind$?dtor$0@?0???0sentry@?$basic_ostream@_WU?$char_traits@_W@std@@@std@@QEAA@AEAV12@@Z@4HA
pdata	ENDS
;	COMDAT xdata
xdata	SEGMENT
$ip2state$??0sentry@?$basic_ostream@_WU?$char_traits@_W@std@@@std@@QEAA@AEAV12@@Z DD imagerel ??0sentry@?$basic_ostream@_WU?$char_traits@_W@std@@@std@@QEAA@AEAV12@@Z
	DD	0ffffffffH
	DD	imagerel ??0sentry@?$basic_ostream@_WU?$char_traits@_W@std@@@std@@QEAA@AEAV12@@Z+57
	DD	00H
	DD	imagerel ??0sentry@?$basic_ostream@_WU?$char_traits@_W@std@@@std@@QEAA@AEAV12@@Z+105
	DD	0ffffffffH
xdata	ENDS
;	COMDAT xdata
xdata	SEGMENT
$unwind$?dtor$0@?0???0sentry@?$basic_ostream@_WU?$char_traits@_W@std@@@std@@QEAA@AEAV12@@Z@4HA DD 020601H
	DD	050023206H
xdata	ENDS
;	COMDAT xdata
xdata	SEGMENT
$unwind$??0sentry@?$basic_ostream@_WU?$char_traits@_W@std@@@std@@QEAA@AEAV12@@Z DD 041811H
	DD	093418H
	DD	07006520aH
	DD	imagerel __CxxFrameHandler3
	DD	imagerel $cppxdata$??0sentry@?$basic_ostream@_WU?$char_traits@_W@std@@@std@@QEAA@AEAV12@@Z
xdata	ENDS
;	COMDAT CONST
CONST	SEGMENT
$cppxdata$??0sentry@?$basic_ostream@_WU?$char_traits@_W@std@@@std@@QEAA@AEAV12@@Z DD 019930522H
	DD	01H
	DD	imagerel $stateUnwindMap$??0sentry@?$basic_ostream@_WU?$char_traits@_W@std@@@std@@QEAA@AEAV12@@Z
	DD	00H
	DD	00H
	DD	03H
	DD	imagerel $ip2state$??0sentry@?$basic_ostream@_WU?$char_traits@_W@std@@@std@@QEAA@AEAV12@@Z
	DD	020H
	DD	00H
	DD	01H
CONST	ENDS
;	COMDAT xdata
xdata	SEGMENT
$stateUnwindMap$??0sentry@?$basic_ostream@_WU?$char_traits@_W@std@@@std@@QEAA@AEAV12@@Z DD 0ffffffffH
	DD	imagerel ?dtor$0@?0???0sentry@?$basic_ostream@_WU?$char_traits@_W@std@@@std@@QEAA@AEAV12@@Z@4HA
; Function compile flags: /Ogtpy
; File c:\program files\microsoft visual studio 9.0\vc\include\ostream
xdata	ENDS
;	COMDAT ??0sentry@?$basic_ostream@_WU?$char_traits@_W@std@@@std@@QEAA@AEAV12@@Z
_TEXT	SEGMENT
$T144409 = 32
this$ = 64
_Ostr$ = 72
??0sentry@?$basic_ostream@_WU?$char_traits@_W@std@@@std@@QEAA@AEAV12@@Z PROC ; std::basic_ostream<wchar_t,std::char_traits<wchar_t> >::sentry::sentry, COMDAT

; 95   : 			{	// construct locking and testing stream

$LN24:
	mov	QWORD PTR [rsp+8], rcx
	push	rdi
	sub	rsp, 48					; 00000030H
	mov	QWORD PTR $T144409[rsp], -2
	mov	QWORD PTR [rsp+72], rbx
	mov	rbx, rdx
	mov	rdi, rcx
	mov	QWORD PTR [rcx], rdx
	mov	rax, QWORD PTR [rdx]
	movsxd	r8, DWORD PTR [rax+4]
	mov	rcx, QWORD PTR [r8+rdx+72]
	test	rcx, rcx
	je	SHORT $LN5@sentry@2
	call	QWORD PTR __imp_?_Lock@?$basic_streambuf@_WU?$char_traits@_W@std@@@std@@QEAAXXZ
	npad	1
$LN5@sentry@2:

; 96   : 			if (_Ostr.good() && _Ostr.tie() != 0)

	mov	rax, QWORD PTR [rbx]
	movsxd	rcx, DWORD PTR [rax+4]
	cmp	DWORD PTR [rcx+rbx+16], 0
	jne	SHORT $LN1@sentry@2
	mov	rcx, QWORD PTR [rcx+rbx+80]
	test	rcx, rcx
	je	SHORT $LN1@sentry@2

; 97   : 				_Ostr.tie()->flush();

	call	QWORD PTR __imp_?flush@?$basic_ostream@_WU?$char_traits@_W@std@@@std@@QEAAAEAV12@XZ
$LN1@sentry@2:

; 98   : 			_Ok = _Ostr.good();	// store test only after flushing tie

	mov	rax, QWORD PTR [rbx]
	movsxd	rcx, DWORD PTR [rax+4]
	cmp	DWORD PTR [rcx+rbx+16], 0
	sete	al
	mov	BYTE PTR [rdi+8], al

; 99   : 			}

	mov	rax, rdi
	mov	rbx, QWORD PTR [rsp+72]
	add	rsp, 48					; 00000030H
	pop	rdi
	ret	0
??0sentry@?$basic_ostream@_WU?$char_traits@_W@std@@@std@@QEAA@AEAV12@@Z ENDP ; std::basic_ostream<wchar_t,std::char_traits<wchar_t> >::sentry::sentry
; Function compile flags: /Ogtpy
_TEXT	ENDS
;	COMDAT text$x
text$x	SEGMENT
$T144409 = 32
this$ = 64
_Ostr$ = 72
?dtor$0@?0???0sentry@?$basic_ostream@_WU?$char_traits@_W@std@@@std@@QEAA@AEAV12@@Z@4HA PROC ; `std::basic_ostream<wchar_t,std::char_traits<wchar_t> >::sentry::sentry'::`1'::dtor$0
	push	rbp
	sub	rsp, 32					; 00000020H
	mov	rbp, rdx
	mov	rcx, QWORD PTR this$[rbp]
	call	??1_Sentry_base@?$basic_ostream@_WU?$char_traits@_W@std@@@std@@QEAA@XZ ; std::basic_ostream<wchar_t,std::char_traits<wchar_t> >::_Sentry_base::~_Sentry_base
	add	rsp, 32					; 00000020H
	pop	rbp
	ret	0
?dtor$0@?0???0sentry@?$basic_ostream@_WU?$char_traits@_W@std@@@std@@QEAA@AEAV12@@Z@4HA ENDP ; `std::basic_ostream<wchar_t,std::char_traits<wchar_t> >::sentry::sentry'::`1'::dtor$0
; Function compile flags: /Ogtpy
; File c:\program files\microsoft visual studio 9.0\vc\include\deque
text$x	ENDS
;	COMDAT ?empty@?$deque@V?$basic_string@_WU?$char_traits@_W@std@@V?$allocator@_W@2@@std@@V?$allocator@V?$basic_string@_WU?$char_traits@_W@std@@V?$allocator@_W@2@@std@@@2@@std@@QEBA_NXZ
_TEXT	SEGMENT
this$ = 8
?empty@?$deque@V?$basic_string@_WU?$char_traits@_W@std@@V?$allocator@_W@2@@std@@V?$allocator@V?$basic_string@_WU?$char_traits@_W@std@@V?$allocator@_W@2@@std@@@2@@std@@QEBA_NXZ PROC ; std::deque<std::basic_string<wchar_t,std::char_traits<wchar_t>,std::allocator<wchar_t> >,std::allocator<std::basic_string<wchar_t,std::char_traits<wchar_t>,std::allocator<wchar_t> > > >::empty, COMDAT

; 734  : 		return (_Mysize == 0);

	xor	eax, eax
	cmp	QWORD PTR [rcx+56], rax
	sete	al

; 735  : 		}

	ret	0
?empty@?$deque@V?$basic_string@_WU?$char_traits@_W@std@@V?$allocator@_W@2@@std@@V?$allocator@V?$basic_string@_WU?$char_traits@_W@std@@V?$allocator@_W@2@@std@@@2@@std@@QEBA_NXZ ENDP ; std::deque<std::basic_string<wchar_t,std::char_traits<wchar_t>,std::allocator<wchar_t> >,std::allocator<std::basic_string<wchar_t,std::char_traits<wchar_t>,std::allocator<wchar_t> > > >::empty
; Function compile flags: /Ogtpy
_TEXT	ENDS
;	COMDAT ?empty@?$deque@_WV?$allocator@_W@std@@@std@@QEBA_NXZ
_TEXT	SEGMENT
this$ = 8
?empty@?$deque@_WV?$allocator@_W@std@@@std@@QEBA_NXZ PROC ; std::deque<wchar_t,std::allocator<wchar_t> >::empty, COMDAT

; 734  : 		return (_Mysize == 0);

	xor	eax, eax
	cmp	QWORD PTR [rcx+56], rax
	sete	al

; 735  : 		}

	ret	0
?empty@?$deque@_WV?$allocator@_W@std@@@std@@QEBA_NXZ ENDP ; std::deque<wchar_t,std::allocator<wchar_t> >::empty
; Function compile flags: /Ogtpy
; File c:\program files\microsoft visual studio 9.0\vc\include\stack
_TEXT	ENDS
;	COMDAT ?empty@?$stack@V?$basic_string@_WU?$char_traits@_W@std@@V?$allocator@_W@2@@std@@V?$deque@V?$basic_string@_WU?$char_traits@_W@std@@V?$allocator@_W@2@@std@@V?$allocator@V?$basic_string@_WU?$char_traits@_W@std@@V?$allocator@_W@2@@std@@@2@@2@@std@@QEBA_NXZ
_TEXT	SEGMENT
this$ = 8
?empty@?$stack@V?$basic_string@_WU?$char_traits@_W@std@@V?$allocator@_W@2@@std@@V?$deque@V?$basic_string@_WU?$char_traits@_W@std@@V?$allocator@_W@2@@std@@V?$allocator@V?$basic_string@_WU?$char_traits@_W@std@@V?$allocator@_W@2@@std@@@2@@2@@std@@QEBA_NXZ PROC ; std::stack<std::basic_string<wchar_t,std::char_traits<wchar_t>,std::allocator<wchar_t> >,std::deque<std::basic_string<wchar_t,std::char_traits<wchar_t>,std::allocator<wchar_t> >,std::allocator<std::basic_string<wchar_t,std::char_traits<wchar_t>,std::allocator<wchar_t> > > > >::empty, COMDAT

; 38   : 		return (c.empty());

	xor	eax, eax
	cmp	QWORD PTR [rcx+56], rax
	sete	al

; 39   : 		}

	ret	0
?empty@?$stack@V?$basic_string@_WU?$char_traits@_W@std@@V?$allocator@_W@2@@std@@V?$deque@V?$basic_string@_WU?$char_traits@_W@std@@V?$allocator@_W@2@@std@@V?$allocator@V?$basic_string@_WU?$char_traits@_W@std@@V?$allocator@_W@2@@std@@@2@@2@@std@@QEBA_NXZ ENDP ; std::stack<std::basic_string<wchar_t,std::char_traits<wchar_t>,std::allocator<wchar_t> >,std::deque<std::basic_string<wchar_t,std::char_traits<wchar_t>,std::allocator<wchar_t> >,std::allocator<std::basic_string<wchar_t,std::char_traits<wchar_t>,std::allocator<wchar_t> > > > >::empty
; Function compile flags: /Ogtpy
_TEXT	ENDS
;	COMDAT ?empty@?$stack@_WV?$deque@_WV?$allocator@_W@std@@@std@@@std@@QEBA_NXZ
_TEXT	SEGMENT
this$ = 8
?empty@?$stack@_WV?$deque@_WV?$allocator@_W@std@@@std@@@std@@QEBA_NXZ PROC ; std::stack<wchar_t,std::deque<wchar_t,std::allocator<wchar_t> > >::empty, COMDAT

; 38   : 		return (c.empty());

	xor	eax, eax
	cmp	QWORD PTR [rcx+56], rax
	sete	al

; 39   : 		}

	ret	0
?empty@?$stack@_WV?$deque@_WV?$allocator@_W@std@@@std@@@std@@QEBA_NXZ ENDP ; std::stack<wchar_t,std::deque<wchar_t,std::allocator<wchar_t> > >::empty
_TEXT	ENDS
PUBLIC	?IsNetInternal@SignatureReader@@QEAA_N_K@Z	; SignatureReader::IsNetInternal
EXTRN	memcmp:PROC
;	COMDAT pdata
; File c:\local\sharpdevelop_3.2.0.5777_source\src\addins\misc\profiler\hook\profilermetadata.cpp
pdata	SEGMENT
$pdata$?IsNetInternal@SignatureReader@@QEAA_N_K@Z DD imagerel $LN12
	DD	imagerel $LN12+310
	DD	imagerel $unwind$?IsNetInternal@SignatureReader@@QEAA_N_K@Z
pdata	ENDS
;	COMDAT xdata
xdata	SEGMENT
$unwind$?IsNetInternal@SignatureReader@@QEAA_N_K@Z DD 030901H
	DD	010e0109H
	DD	03002H
; Function compile flags: /Ogtpy
xdata	ENDS
;	COMDAT ?IsNetInternal@SignatureReader@@QEAA_N_K@Z
_TEXT	SEGMENT
asmMetaData$ = 80
publicKey$ = 88
assemblyNameLength$119848 = 96
assemblyName$119847 = 112
assembly$119844 = 2176
this$ = 2176
fid$ = 2184
pKLength$ = 2192
funcToken$ = 2200
?IsNetInternal@SignatureReader@@QEAA_N_K@Z PROC		; SignatureReader::IsNetInternal, COMDAT

; 564  : {

$LN12:
	push	rbx
	sub	rsp, 2160				; 00000870H

; 565  : 	mdToken funcToken;
; 566  : 	HRESULT hr = S_OK;
; 567  : 	IMetaDataAssemblyImport *asmMetaData;
; 568  : 	const void *publicKey;
; 569  : 	ULONG pKLength;
; 570  : 
; 571  : 	hr = profilerInfo->GetTokenAndMetaDataFromFunction(fid, IID_IMetaDataAssemblyImport, (LPUNKNOWN *) &asmMetaData, &funcToken);

	mov	rcx, QWORD PTR [rcx]
	lea	r8, QWORD PTR funcToken$[rsp]
	lea	r9, QWORD PTR asmMetaData$[rsp]
	mov	rax, QWORD PTR [rcx]
	mov	QWORD PTR [rsp+32], r8
	lea	r8, OFFSET FLAT:IID_IMetaDataAssemblyImport
	call	QWORD PTR [rax+152]

; 572  : 	if (SUCCEEDED(hr)) {

	test	eax, eax
	js	$LN1@IsNetInter

; 573  : 		mdAssembly assembly;
; 574  : 		hr = asmMetaData->GetAssemblyFromScope(&assembly);

	mov	rcx, QWORD PTR asmMetaData$[rsp]
	lea	rdx, QWORD PTR assembly$119844[rsp]
	mov	rax, QWORD PTR [rcx]
	call	QWORD PTR [rax+96]

; 575  : 		if (SUCCEEDED(hr)) {

	test	eax, eax
	js	$LN1@IsNetInter

; 576  : 			WCHAR assemblyName[NAME_BUFFER_SIZE];
; 577  : 			ULONG assemblyNameLength;
; 578  : 
; 579  : 			hr = asmMetaData->GetAssemblyProps(assembly, &publicKey, &pKLength, nullptr, assemblyName, NAME_BUFFER_SIZE, &assemblyNameLength, nullptr, nullptr);

	mov	rcx, QWORD PTR asmMetaData$[rsp]
	xor	ebx, ebx
	lea	rdx, QWORD PTR assemblyNameLength$119848[rsp]
	mov	rax, QWORD PTR [rcx]
	mov	QWORD PTR [rsp+72], rbx
	mov	QWORD PTR [rsp+64], rbx
	mov	QWORD PTR [rsp+56], rdx
	lea	rdx, QWORD PTR assemblyName$119847[rsp]
	mov	DWORD PTR [rsp+48], 1024		; 00000400H
	mov	QWORD PTR [rsp+40], rdx
	mov	edx, DWORD PTR assembly$119844[rsp]
	lea	r9, QWORD PTR pKLength$[rsp]
	lea	r8, QWORD PTR publicKey$[rsp]
	mov	QWORD PTR [rsp+32], rbx
	call	QWORD PTR [rax+24]

; 580  : 			const byte *b = (const byte *)publicKey;
; 581  : 			
; 582  : 			if (pKLength == sizeof(mscorlibkey) && memcmp(mscorlibkey, b, sizeof(mscorlibkey)) == 0)

	mov	r11d, DWORD PTR pKLength$[rsp]
	cmp	r11d, 16
	jne	SHORT $LN3@IsNetInter
	mov	rcx, QWORD PTR publicKey$[rsp]
	lea	rax, OFFSET FLAT:mscorlibkey
	mov	rdx, QWORD PTR [rax]
	cmp	rdx, QWORD PTR [rcx]
	jne	SHORT $LN9@IsNetInter
	mov	rdx, QWORD PTR [rax+8]
	add	rax, 8
	cmp	rdx, QWORD PTR [rcx+8]
	je	SHORT $LN10@IsNetInter
$LN9@IsNetInter:
	sbb	eax, eax
	sbb	eax, -1
	mov	ebx, eax
$LN10@IsNetInter:
	test	ebx, ebx
	jne	SHORT $LN1@IsNetInter
$LN11@IsNetInter:

; 583  : 				return true;

	mov	al, 1

; 592  : }

	add	rsp, 2160				; 00000870H
	pop	rbx
	ret	0
$LN3@IsNetInter:

; 584  : 			if (pKLength == sizeof(systemdrawingkey) && memcmp(systemdrawingkey, b, sizeof(systemdrawingkey)) == 0)

	cmp	r11d, 160				; 000000a0H
	jne	SHORT $LN1@IsNetInter
	mov	rbx, QWORD PTR publicKey$[rsp]
	lea	rcx, OFFSET FLAT:systemdrawingkey
	mov	r8d, r11d
	mov	rdx, rbx
	call	memcmp
	test	eax, eax

; 585  : 				return true;

	je	SHORT $LN11@IsNetInter

; 586  : 			if (pKLength == sizeof(wpfassemblieskey) && memcmp(wpfassemblieskey, b, sizeof(wpfassemblieskey)) == 0)

	lea	rcx, OFFSET FLAT:wpfassemblieskey
	mov	r8d, 160				; 000000a0H
	mov	rdx, rbx
	call	memcmp
	test	eax, eax
	jne	SHORT $LN1@IsNetInter

; 587  : 				return true;

	mov	al, 1

; 592  : }

	add	rsp, 2160				; 00000870H
	pop	rbx
	ret	0
$LN1@IsNetInter:

; 588  : 		}
; 589  : 	}
; 590  : 	
; 591  : 	return false;

	xor	al, al

; 592  : }

	add	rsp, 2160				; 00000870H
	pop	rbx
	ret	0
?IsNetInternal@SignatureReader@@QEAA_N_K@Z ENDP		; SignatureReader::IsNetInternal
_TEXT	ENDS
PUBLIC	?ReadByte@SignatureReader@@AEAA_NPEAE@Z		; SignatureReader::ReadByte
; Function compile flags: /Ogtpy
;	COMDAT ?ReadByte@SignatureReader@@AEAA_NPEAE@Z
_TEXT	SEGMENT
this$ = 8
out$ = 16
?ReadByte@SignatureReader@@AEAA_NPEAE@Z PROC		; SignatureReader::ReadByte, COMDAT

; 486  : 	if (this->data < this->endPosition) {
; 487  : 		*out = *this->data;

	mov	rax, QWORD PTR [rcx+24]
	movzx	r8d, BYTE PTR [rax]

; 488  : 		this->data++;
; 489  : 		return true;

	mov	al, 1
	mov	BYTE PTR [rdx], r8b
	inc	QWORD PTR [rcx+24]

; 490  : 	}
; 491  : 
; 492  : 	return false;
; 493  : }

	ret	0
?ReadByte@SignatureReader@@AEAA_NPEAE@Z ENDP		; SignatureReader::ReadByte
; Function compile flags: /Ogtpy
; File c:\program files\microsoft sdks\windows\v7.0\include\cor.h
_TEXT	ENDS
;	COMDAT ?CorSigUncompressData@@YAJPEBEKPEAK1@Z
_TEXT	SEGMENT
pData$ = 8
len$ = 16
pDataOut$ = 24
pDataLen$ = 32
?CorSigUncompressData@@YAJPEBEKPEAK1@Z PROC		; CorSigUncompressData, COMDAT

; 2293 :     HRESULT hr = S_OK;        
; 2294 :     BYTE const  *pBytes = reinterpret_cast<BYTE const*>(pData); 
; 2295 : 
; 2296 :     // Smallest.    
; 2297 :     if ((*pBytes & 0x80) == 0x00)       // 0??? ????    

	movzx	edx, BYTE PTR [rcx]
	xor	r11d, r11d
	mov	r10, rcx
	test	dl, dl
	js	SHORT $LN12@CorSigUnco

; 2298 :     {   
; 2299 :         if (len < 1)
; 2300 :         {
; 2301 :             *pDataOut = NULL;
; 2302 :             *pDataLen = 0;
; 2303 :             hr = META_E_BAD_SIGNATURE;
; 2304 :         }
; 2305 :         else
; 2306 :         {
; 2307 :             *pDataOut = *pBytes;    

	movzx	ecx, dl

; 2308 :             *pDataLen = 1; 

	mov	DWORD PTR [r9], 1

; 2344 :         hr = META_E_BAD_SIGNATURE;
; 2345 :     }
; 2346 :     
; 2347 :     return hr;  

	mov	eax, r11d
	mov	DWORD PTR [r8], ecx

; 2348 : 
; 2349 : }

	ret	0
$LN12@CorSigUnco:

; 2309 :         }
; 2310 :     }    
; 2311 :     // Medium.  
; 2312 :     else if ((*pBytes & 0xC0) == 0x80)  // 10?? ????    

	movzx	eax, dl
	and	al, 192					; 000000c0H
	cmp	al, 128					; 00000080H
	jne	SHORT $LN8@CorSigUnco

; 2313 :     {   
; 2314 :         if (len < 2)
; 2315 :         {
; 2316 :             *pDataOut = NULL;
; 2317 :             *pDataLen = 0;
; 2318 :             hr = META_E_BAD_SIGNATURE;
; 2319 :         }
; 2320 :         else
; 2321 :         {
; 2322 :             *pDataOut = (ULONG)(((*pBytes & 0x3f) << 8 | *(pBytes+1)));    

	movzx	eax, BYTE PTR [r10+1]
	movzx	ecx, dl

; 2323 :             *pDataLen = 2; 

	mov	DWORD PTR [r9], 2
	and	ecx, 63					; 0000003fH
	shl	ecx, 8
	or	ecx, eax

; 2344 :         hr = META_E_BAD_SIGNATURE;
; 2345 :     }
; 2346 :     
; 2347 :     return hr;  

	mov	eax, r11d
	mov	DWORD PTR [r8], ecx

; 2348 : 
; 2349 : }

	ret	0
$LN8@CorSigUnco:

; 2324 :         }
; 2325 :     }   
; 2326 :     else if ((*pBytes & 0xE0) == 0xC0)      // 110? ????    

	movzx	eax, dl
	and	al, 224					; 000000e0H
	cmp	al, 192					; 000000c0H
	jne	SHORT $LN4@CorSigUnco

; 2327 :     {   
; 2328 :         if (len < 4)
; 2329 :         {
; 2330 :             *pDataOut = NULL;
; 2331 :             *pDataLen = 0;
; 2332 :             hr = META_E_BAD_SIGNATURE;
; 2333 :         }
; 2334 :         else
; 2335 :         {
; 2336 :             *pDataOut = (ULONG)(((*pBytes & 0x1f) << 24 | *(pBytes+1) << 16 | *(pBytes+2) << 8 | *(pBytes+3)));  

	movzx	eax, BYTE PTR [r10+1]
	movzx	ecx, dl

; 2337 :             *pDataLen = 4; 

	mov	DWORD PTR [r9], 4
	and	ecx, 31
	shl	ecx, 8
	or	ecx, eax
	movzx	eax, BYTE PTR [r10+2]
	shl	ecx, 8
	or	ecx, eax
	movzx	eax, BYTE PTR [r10+3]
	shl	ecx, 8
	or	ecx, eax

; 2344 :         hr = META_E_BAD_SIGNATURE;
; 2345 :     }
; 2346 :     
; 2347 :     return hr;  

	mov	eax, r11d
	mov	DWORD PTR [r8], ecx

; 2348 : 
; 2349 : }

	ret	0
$LN4@CorSigUnco:

; 2338 :         }
; 2339 :     }   
; 2340 :     else // We don't recognize this encoding
; 2341 :     {
; 2342 :         *pDataOut = NULL;

	mov	DWORD PTR [r8], r11d

; 2343 :         *pDataLen = 0;

	mov	DWORD PTR [r9], r11d

; 2344 :         hr = META_E_BAD_SIGNATURE;
; 2345 :     }
; 2346 :     
; 2347 :     return hr;  

	mov	eax, -2146233966			; ffffffff80131192H

; 2348 : 
; 2349 : }

	ret	0
?CorSigUncompressData@@YAJPEBEKPEAK1@Z ENDP		; CorSigUncompressData
; Function compile flags: /Ogtpy
; File c:\program files\microsoft visual studio 9.0\vc\include\xlocale
_TEXT	ENDS
;	COMDAT ?_Register@facet@locale@std@@QEAAXXZ
_TEXT	SEGMENT
this$ = 8
?_Register@facet@locale@std@@QEAAXXZ PROC		; std::locale::facet::_Register, COMDAT

; 135  : #if defined(_M_CEE)
; 136  : 			facet_Register_m(this);
; 137  : #else
; 138  : 			facet_Register(this);
; 139  : #endif
; 140  : 			}

	jmp	?facet_Register@facet@locale@std@@CAXPEAV123@@Z ; std::locale::facet::facet_Register
?_Register@facet@locale@std@@QEAAXXZ ENDP		; std::locale::facet::_Register
; Function compile flags: /Ogtpy
; File c:\program files\microsoft visual studio 9.0\vc\include\xutility
;	COMDAT ??$_Fill_n@PEAPEAV?$basic_string@_WU?$char_traits@_W@std@@V?$allocator@_W@2@@std@@_KPEAV12@@std@@YAXPEAPEAV?$basic_string@_WU?$char_traits@_W@std@@V?$allocator@_W@2@@0@_KAEBQEAV10@Urandom_access_iterator_tag@0@U_Range_checked_iterator_tag@0@@Z
_TEXT	SEGMENT
_First$ = 8
_Count$ = 16
_Val$ = 24
__formal$ = 32
__formal$ = 40
??$_Fill_n@PEAPEAV?$basic_string@_WU?$char_traits@_W@std@@V?$allocator@_W@2@@std@@_KPEAV12@@std@@YAXPEAPEAV?$basic_string@_WU?$char_traits@_W@std@@V?$allocator@_W@2@@0@_KAEBQEAV10@Urandom_access_iterator_tag@0@U_Range_checked_iterator_tag@0@@Z PROC ; std::_Fill_n<std::basic_string<wchar_t,std::char_traits<wchar_t>,std::allocator<wchar_t> > * __ptr64 * __ptr64,unsigned __int64,std::basic_string<wchar_t,std::char_traits<wchar_t>,std::allocator<wchar_t> > * __ptr64>, COMDAT

; 3251 : 		// if _OutIt is checked, this will ensure we have enough space
; 3252 : 		_OutIt _Last = _First + _Count; (_Last);
; 3253 : 		_Fill_n(_CHECKED_BASE(_First), _Count, _Val,
; 3254 : 			_Range_checked_iterator_tag());

	test	rdx, rdx
	je	SHORT $LN7@Fill_n@3
	npad	11
$LL9@Fill_n@3:
	mov	rax, QWORD PTR [r8]
	add	rcx, 8
	sub	rdx, 1
	mov	QWORD PTR [rcx-8], rax
	jne	SHORT $LL9@Fill_n@3
$LN7@Fill_n@3:

; 3255 : 	}

	fatret	0
??$_Fill_n@PEAPEAV?$basic_string@_WU?$char_traits@_W@std@@V?$allocator@_W@2@@std@@_KPEAV12@@std@@YAXPEAPEAV?$basic_string@_WU?$char_traits@_W@std@@V?$allocator@_W@2@@0@_KAEBQEAV10@Urandom_access_iterator_tag@0@U_Range_checked_iterator_tag@0@@Z ENDP ; std::_Fill_n<std::basic_string<wchar_t,std::char_traits<wchar_t>,std::allocator<wchar_t> > * __ptr64 * __ptr64,unsigned __int64,std::basic_string<wchar_t,std::char_traits<wchar_t>,std::allocator<wchar_t> > * __ptr64>
; Function compile flags: /Ogtpy
_TEXT	ENDS
;	COMDAT ??$_Fill_n@PEAPEA_W_KPEA_W@std@@YAXPEAPEA_W_KAEBQEA_WUrandom_access_iterator_tag@0@U_Range_checked_iterator_tag@0@@Z
_TEXT	SEGMENT
_First$ = 8
_Count$ = 16
_Val$ = 24
__formal$ = 32
__formal$ = 40
??$_Fill_n@PEAPEA_W_KPEA_W@std@@YAXPEAPEA_W_KAEBQEA_WUrandom_access_iterator_tag@0@U_Range_checked_iterator_tag@0@@Z PROC ; std::_Fill_n<wchar_t * __ptr64 * __ptr64,unsigned __int64,wchar_t * __ptr64>, COMDAT

; 3251 : 		// if _OutIt is checked, this will ensure we have enough space
; 3252 : 		_OutIt _Last = _First + _Count; (_Last);
; 3253 : 		_Fill_n(_CHECKED_BASE(_First), _Count, _Val,
; 3254 : 			_Range_checked_iterator_tag());

	test	rdx, rdx
	je	SHORT $LN7@Fill_n@4
	npad	11
$LL9@Fill_n@4:
	mov	rax, QWORD PTR [r8]
	add	rcx, 8
	sub	rdx, 1
	mov	QWORD PTR [rcx-8], rax
	jne	SHORT $LL9@Fill_n@4
$LN7@Fill_n@4:

; 3255 : 	}

	fatret	0
??$_Fill_n@PEAPEA_W_KPEA_W@std@@YAXPEAPEA_W_KAEBQEA_WUrandom_access_iterator_tag@0@U_Range_checked_iterator_tag@0@@Z ENDP ; std::_Fill_n<wchar_t * __ptr64 * __ptr64,unsigned __int64,wchar_t * __ptr64>
; Function compile flags: /Ogtpy
_TEXT	ENDS
;	COMDAT ??$unchecked_fill_n@PEAPEAV?$basic_string@_WU?$char_traits@_W@std@@V?$allocator@_W@2@@std@@_KPEAV12@@stdext@@YAXPEAPEAV?$basic_string@_WU?$char_traits@_W@std@@V?$allocator@_W@2@@std@@_KAEBQEAV12@@Z
_TEXT	SEGMENT
_First$ = 8
_Count$ = 16
_Val$ = 24
??$unchecked_fill_n@PEAPEAV?$basic_string@_WU?$char_traits@_W@std@@V?$allocator@_W@2@@std@@_KPEAV12@@stdext@@YAXPEAPEAV?$basic_string@_WU?$char_traits@_W@std@@V?$allocator@_W@2@@std@@_KAEBQEAV12@@Z PROC ; stdext::unchecked_fill_n<std::basic_string<wchar_t,std::char_traits<wchar_t>,std::allocator<wchar_t> > * __ptr64 * __ptr64,unsigned __int64,std::basic_string<wchar_t,std::char_traits<wchar_t>,std::allocator<wchar_t> > * __ptr64>, COMDAT

; 3721 : 		_STD _Fill_n(_First, _Count, _Val, _STD _Iter_cat(_First), _STD _Range_checked_iterator_tag());

	test	rdx, rdx
	je	SHORT $LN11@unchecked_@3
	npad	11
$LL13@unchecked_@3:
	mov	rax, QWORD PTR [r8]
	add	rcx, 8
	sub	rdx, 1
	mov	QWORD PTR [rcx-8], rax
	jne	SHORT $LL13@unchecked_@3
$LN11@unchecked_@3:

; 3722 : 	}

	fatret	0
??$unchecked_fill_n@PEAPEAV?$basic_string@_WU?$char_traits@_W@std@@V?$allocator@_W@2@@std@@_KPEAV12@@stdext@@YAXPEAPEAV?$basic_string@_WU?$char_traits@_W@std@@V?$allocator@_W@2@@std@@_KAEBQEAV12@@Z ENDP ; stdext::unchecked_fill_n<std::basic_string<wchar_t,std::char_traits<wchar_t>,std::allocator<wchar_t> > * __ptr64 * __ptr64,unsigned __int64,std::basic_string<wchar_t,std::char_traits<wchar_t>,std::allocator<wchar_t> > * __ptr64>
; Function compile flags: /Ogtpy
_TEXT	ENDS
;	COMDAT ??$unchecked_fill_n@PEAPEA_W_KPEA_W@stdext@@YAXPEAPEA_W_KAEBQEA_W@Z
_TEXT	SEGMENT
_First$ = 8
_Count$ = 16
_Val$ = 24
??$unchecked_fill_n@PEAPEA_W_KPEA_W@stdext@@YAXPEAPEA_W_KAEBQEA_W@Z PROC ; stdext::unchecked_fill_n<wchar_t * __ptr64 * __ptr64,unsigned __int64,wchar_t * __ptr64>, COMDAT

; 3721 : 		_STD _Fill_n(_First, _Count, _Val, _STD _Iter_cat(_First), _STD _Range_checked_iterator_tag());

	test	rdx, rdx
	je	SHORT $LN11@unchecked_@4
	npad	11
$LL13@unchecked_@4:
	mov	rax, QWORD PTR [r8]
	add	rcx, 8
	sub	rdx, 1
	mov	QWORD PTR [rcx-8], rax
	jne	SHORT $LL13@unchecked_@4
$LN11@unchecked_@4:

; 3722 : 	}

	fatret	0
??$unchecked_fill_n@PEAPEA_W_KPEA_W@stdext@@YAXPEAPEA_W_KAEBQEA_W@Z ENDP ; stdext::unchecked_fill_n<wchar_t * __ptr64 * __ptr64,unsigned __int64,wchar_t * __ptr64>
; Function compile flags: /Ogtpy
; File c:\program files\microsoft visual studio 9.0\vc\include\memory
_TEXT	ENDS
;	COMDAT ??$_Uninit_fill_n@PEAPEAV?$basic_string@_WU?$char_traits@_W@std@@V?$allocator@_W@2@@std@@_KPEAV12@V?$allocator@PEAV?$basic_string@_WU?$char_traits@_W@std@@V?$allocator@_W@2@@std@@@2@@std@@YAXPEAPEAV?$basic_string@_WU?$char_traits@_W@std@@V?$allocator@_W@2@@0@_KAEBQEAV10@AEAV?$allocator@PEAV?$basic_string@_WU?$char_traits@_W@std@@V?$allocator@_W@2@@std@@@0@U_Scalar_ptr_iterator_tag@0@U_Range_checked_iterator_tag@0@@Z
_TEXT	SEGMENT
_First$ = 8
_Count$ = 16
_Val$ = 24
__formal$ = 32
__formal$ = 40
__formal$ = 48
??$_Uninit_fill_n@PEAPEAV?$basic_string@_WU?$char_traits@_W@std@@V?$allocator@_W@2@@std@@_KPEAV12@V?$allocator@PEAV?$basic_string@_WU?$char_traits@_W@std@@V?$allocator@_W@2@@std@@@2@@std@@YAXPEAPEAV?$basic_string@_WU?$char_traits@_W@std@@V?$allocator@_W@2@@0@_KAEBQEAV10@AEAV?$allocator@PEAV?$basic_string@_WU?$char_traits@_W@std@@V?$allocator@_W@2@@std@@@0@U_Scalar_ptr_iterator_tag@0@U_Range_checked_iterator_tag@0@@Z PROC ; std::_Uninit_fill_n<std::basic_string<wchar_t,std::char_traits<wchar_t>,std::allocator<wchar_t> > * __ptr64 * __ptr64,unsigned __int64,std::basic_string<wchar_t,std::char_traits<wchar_t>,std::allocator<wchar_t> > * __ptr64,std::allocator<std::basic_string<wchar_t,std::char_traits<wchar_t>,std::allocator<wchar_t> > * __ptr64> >, COMDAT

; 419  : 		_STDEXT unchecked_fill_n(_First, _Count, _Val);

	test	rdx, rdx
	je	SHORT $LN13@Uninit_fil
	npad	11
$LL15@Uninit_fil:
	mov	rax, QWORD PTR [r8]
	add	rcx, 8
	sub	rdx, 1
	mov	QWORD PTR [rcx-8], rax
	jne	SHORT $LL15@Uninit_fil
$LN13@Uninit_fil:

; 420  : 	}

	fatret	0
??$_Uninit_fill_n@PEAPEAV?$basic_string@_WU?$char_traits@_W@std@@V?$allocator@_W@2@@std@@_KPEAV12@V?$allocator@PEAV?$basic_string@_WU?$char_traits@_W@std@@V?$allocator@_W@2@@std@@@2@@std@@YAXPEAPEAV?$basic_string@_WU?$char_traits@_W@std@@V?$allocator@_W@2@@0@_KAEBQEAV10@AEAV?$allocator@PEAV?$basic_string@_WU?$char_traits@_W@std@@V?$allocator@_W@2@@std@@@0@U_Scalar_ptr_iterator_tag@0@U_Range_checked_iterator_tag@0@@Z ENDP ; std::_Uninit_fill_n<std::basic_string<wchar_t,std::char_traits<wchar_t>,std::allocator<wchar_t> > * __ptr64 * __ptr64,unsigned __int64,std::basic_string<wchar_t,std::char_traits<wchar_t>,std::allocator<wchar_t> > * __ptr64,std::allocator<std::basic_string<wchar_t,std::char_traits<wchar_t>,std::allocator<wchar_t> > * __ptr64> >
; Function compile flags: /Ogtpy
_TEXT	ENDS
;	COMDAT ??$_Uninit_fill_n@PEAPEA_W_KPEA_WV?$allocator@PEA_W@std@@@std@@YAXPEAPEA_W_KAEBQEA_WAEAV?$allocator@PEA_W@0@U_Scalar_ptr_iterator_tag@0@U_Range_checked_iterator_tag@0@@Z
_TEXT	SEGMENT
_First$ = 8
_Count$ = 16
_Val$ = 24
__formal$ = 32
__formal$ = 40
__formal$ = 48
??$_Uninit_fill_n@PEAPEA_W_KPEA_WV?$allocator@PEA_W@std@@@std@@YAXPEAPEA_W_KAEBQEA_WAEAV?$allocator@PEA_W@0@U_Scalar_ptr_iterator_tag@0@U_Range_checked_iterator_tag@0@@Z PROC ; std::_Uninit_fill_n<wchar_t * __ptr64 * __ptr64,unsigned __int64,wchar_t * __ptr64,std::allocator<wchar_t * __ptr64> >, COMDAT

; 419  : 		_STDEXT unchecked_fill_n(_First, _Count, _Val);

	test	rdx, rdx
	je	SHORT $LN13@Uninit_fil@2
	npad	11
$LL15@Uninit_fil@2:
	mov	rax, QWORD PTR [r8]
	add	rcx, 8
	sub	rdx, 1
	mov	QWORD PTR [rcx-8], rax
	jne	SHORT $LL15@Uninit_fil@2
$LN13@Uninit_fil@2:

; 420  : 	}

	fatret	0
??$_Uninit_fill_n@PEAPEA_W_KPEA_WV?$allocator@PEA_W@std@@@std@@YAXPEAPEA_W_KAEBQEA_WAEAV?$allocator@PEA_W@0@U_Scalar_ptr_iterator_tag@0@U_Range_checked_iterator_tag@0@@Z ENDP ; std::_Uninit_fill_n<wchar_t * __ptr64 * __ptr64,unsigned __int64,wchar_t * __ptr64,std::allocator<wchar_t * __ptr64> >
_TEXT	ENDS
;	COMDAT pdata
; File c:\program files\microsoft visual studio 9.0\vc\include\exception
pdata	SEGMENT
$pdata$??$_Allocate@PEAV?$basic_string@_WU?$char_traits@_W@std@@V?$allocator@_W@2@@std@@@std@@YAPEAPEAV?$basic_string@_WU?$char_traits@_W@std@@V?$allocator@_W@2@@0@_KPEAPEAV10@@Z DD imagerel $LN13
	DD	imagerel $LN13+87
	DD	imagerel $unwind$??$_Allocate@PEAV?$basic_string@_WU?$char_traits@_W@std@@V?$allocator@_W@2@@std@@@std@@YAPEAPEAV?$basic_string@_WU?$char_traits@_W@std@@V?$allocator@_W@2@@0@_KPEAPEAV10@@Z
pdata	ENDS
;	COMDAT xdata
xdata	SEGMENT
$unwind$??$_Allocate@PEAV?$basic_string@_WU?$char_traits@_W@std@@V?$allocator@_W@2@@std@@@std@@YAPEAPEAV?$basic_string@_WU?$char_traits@_W@std@@V?$allocator@_W@2@@0@_KPEAPEAV10@@Z DD 010401H
	DD	08204H
; Function compile flags: /Ogtpy
; File c:\program files\microsoft visual studio 9.0\vc\include\xmemory
xdata	ENDS
;	COMDAT ??$_Allocate@PEAV?$basic_string@_WU?$char_traits@_W@std@@V?$allocator@_W@2@@std@@@std@@YAPEAPEAV?$basic_string@_WU?$char_traits@_W@std@@V?$allocator@_W@2@@0@_KPEAPEAV10@@Z
_TEXT	SEGMENT
$T146183 = 32
$T146191 = 80
_Count$ = 80
??$_Allocate@PEAV?$basic_string@_WU?$char_traits@_W@std@@V?$allocator@_W@2@@std@@@std@@YAPEAPEAV?$basic_string@_WU?$char_traits@_W@std@@V?$allocator@_W@2@@0@_KPEAPEAV10@@Z PROC ; std::_Allocate<std::basic_string<wchar_t,std::char_traits<wchar_t>,std::allocator<wchar_t> > * __ptr64>, COMDAT

; 36   : 	{	// check for integer overflow

$LN13:
	sub	rsp, 72					; 00000048H

; 37   : 	if (_Count <= 0)
; 38   : 		_Count = 0;
; 39   : 	else if (((_SIZT)(-1) / _Count) < sizeof (_Ty))

	xor	edx, edx
	or	rax, -1
	div	rcx
	cmp	rax, 8
	jae	SHORT $LN1@Allocate

; 40   : 		_THROW_NCEE(std::bad_alloc, NULL);

	lea	rdx, QWORD PTR $T146191[rsp]
	lea	rcx, QWORD PTR $T146183[rsp]
	mov	QWORD PTR $T146191[rsp], 0
	call	QWORD PTR __imp_??0exception@std@@QEAA@AEBQEBD@Z
	lea	r11, OFFSET FLAT:??_7bad_alloc@std@@6B@
	lea	rdx, OFFSET FLAT:_TI2?AVbad_alloc@std@@
	lea	rcx, QWORD PTR $T146183[rsp]
	mov	QWORD PTR $T146183[rsp], r11
	call	_CxxThrowException
	int	3
$LN1@Allocate:

; 41   : 
; 42   : 		// allocate storage for _Count elements of type _Ty
; 43   : 	return ((_Ty _FARQ *)::operator new(_Count * sizeof (_Ty)));

	shl	rcx, 3

; 44   : 	}

	add	rsp, 72					; 00000048H
	jmp	??2@YAPEAX_K@Z				; operator new
$LN12@Allocate:
??$_Allocate@PEAV?$basic_string@_WU?$char_traits@_W@std@@V?$allocator@_W@2@@std@@@std@@YAPEAPEAV?$basic_string@_WU?$char_traits@_W@std@@V?$allocator@_W@2@@0@_KPEAPEAV10@@Z ENDP ; std::_Allocate<std::basic_string<wchar_t,std::char_traits<wchar_t>,std::allocator<wchar_t> > * __ptr64>
_TEXT	ENDS
;	COMDAT pdata
; File c:\program files\microsoft visual studio 9.0\vc\include\exception
pdata	SEGMENT
$pdata$??$_Allocate@PEA_W@std@@YAPEAPEA_W_KPEAPEA_W@Z DD imagerel $LN13
	DD	imagerel $LN13+87
	DD	imagerel $unwind$??$_Allocate@PEA_W@std@@YAPEAPEA_W_KPEAPEA_W@Z
pdata	ENDS
;	COMDAT xdata
xdata	SEGMENT
$unwind$??$_Allocate@PEA_W@std@@YAPEAPEA_W_KPEAPEA_W@Z DD 010401H
	DD	08204H
; Function compile flags: /Ogtpy
; File c:\program files\microsoft visual studio 9.0\vc\include\xmemory
xdata	ENDS
;	COMDAT ??$_Allocate@PEA_W@std@@YAPEAPEA_W_KPEAPEA_W@Z
_TEXT	SEGMENT
$T146204 = 32
$T146212 = 80
_Count$ = 80
??$_Allocate@PEA_W@std@@YAPEAPEA_W_KPEAPEA_W@Z PROC	; std::_Allocate<wchar_t * __ptr64>, COMDAT

; 36   : 	{	// check for integer overflow

$LN13:
	sub	rsp, 72					; 00000048H

; 37   : 	if (_Count <= 0)
; 38   : 		_Count = 0;
; 39   : 	else if (((_SIZT)(-1) / _Count) < sizeof (_Ty))

	xor	edx, edx
	or	rax, -1
	div	rcx
	cmp	rax, 8
	jae	SHORT $LN1@Allocate@2

; 40   : 		_THROW_NCEE(std::bad_alloc, NULL);

	lea	rdx, QWORD PTR $T146212[rsp]
	lea	rcx, QWORD PTR $T146204[rsp]
	mov	QWORD PTR $T146212[rsp], 0
	call	QWORD PTR __imp_??0exception@std@@QEAA@AEBQEBD@Z
	lea	r11, OFFSET FLAT:??_7bad_alloc@std@@6B@
	lea	rdx, OFFSET FLAT:_TI2?AVbad_alloc@std@@
	lea	rcx, QWORD PTR $T146204[rsp]
	mov	QWORD PTR $T146204[rsp], r11
	call	_CxxThrowException
	int	3
$LN1@Allocate@2:

; 41   : 
; 42   : 		// allocate storage for _Count elements of type _Ty
; 43   : 	return ((_Ty _FARQ *)::operator new(_Count * sizeof (_Ty)));

	shl	rcx, 3

; 44   : 	}

	add	rsp, 72					; 00000048H
	jmp	??2@YAPEAX_K@Z				; operator new
$LN12@Allocate@2:
??$_Allocate@PEA_W@std@@YAPEAPEA_W_KPEAPEA_W@Z ENDP	; std::_Allocate<wchar_t * __ptr64>
_TEXT	ENDS
;	COMDAT pdata
; File c:\program files\microsoft visual studio 9.0\vc\include\new
pdata	SEGMENT
$pdata$??$_Construct@V?$basic_string@_WU?$char_traits@_W@std@@V?$allocator@_W@2@@std@@V12@@std@@YAXPEAV?$basic_string@_WU?$char_traits@_W@std@@V?$allocator@_W@2@@0@AEBV10@@Z DD imagerel $LN9
	DD	imagerel $LN9+42
	DD	imagerel $unwind$??$_Construct@V?$basic_string@_WU?$char_traits@_W@std@@V?$allocator@_W@2@@std@@V12@@std@@YAXPEAV?$basic_string@_WU?$char_traits@_W@std@@V?$allocator@_W@2@@0@AEBV10@@Z
pdata	ENDS
;	COMDAT pdata
pdata	SEGMENT
$pdata$?dtor$0@?0???$_Construct@V?$basic_string@_WU?$char_traits@_W@std@@V?$allocator@_W@2@@std@@V12@@std@@YAXPEAV?$basic_string@_WU?$char_traits@_W@std@@V?$allocator@_W@2@@0@AEBV10@@Z@4HA DD imagerel ?dtor$0@?0???$_Construct@V?$basic_string@_WU?$char_traits@_W@std@@V?$allocator@_W@2@@std@@V12@@std@@YAXPEAV?$basic_string@_WU?$char_traits@_W@std@@V?$allocator@_W@2@@0@AEBV10@@Z@4HA
	DD	imagerel ?dtor$0@?0???$_Construct@V?$basic_string@_WU?$char_traits@_W@std@@V?$allocator@_W@2@@std@@V12@@std@@YAXPEAV?$basic_string@_WU?$char_traits@_W@std@@V?$allocator@_W@2@@0@AEBV10@@Z@4HA+28
	DD	imagerel $unwind$?dtor$0@?0???$_Construct@V?$basic_string@_WU?$char_traits@_W@std@@V?$allocator@_W@2@@std@@V12@@std@@YAXPEAV?$basic_string@_WU?$char_traits@_W@std@@V?$allocator@_W@2@@0@AEBV10@@Z@4HA
pdata	ENDS
;	COMDAT xdata
xdata	SEGMENT
$ip2state$??$_Construct@V?$basic_string@_WU?$char_traits@_W@std@@V?$allocator@_W@2@@std@@V12@@std@@YAXPEAV?$basic_string@_WU?$char_traits@_W@std@@V?$allocator@_W@2@@0@AEBV10@@Z DD imagerel ??$_Construct@V?$basic_string@_WU?$char_traits@_W@std@@V?$allocator@_W@2@@std@@V12@@std@@YAXPEAV?$basic_string@_WU?$char_traits@_W@std@@V?$allocator@_W@2@@0@AEBV10@@Z
	DD	0ffffffffH
	DD	imagerel ??$_Construct@V?$basic_string@_WU?$char_traits@_W@std@@V?$allocator@_W@2@@std@@V12@@std@@YAXPEAV?$basic_string@_WU?$char_traits@_W@std@@V?$allocator@_W@2@@0@AEBV10@@Z+23
	DD	00H
	DD	imagerel ??$_Construct@V?$basic_string@_WU?$char_traits@_W@std@@V?$allocator@_W@2@@std@@V12@@std@@YAXPEAV?$basic_string@_WU?$char_traits@_W@std@@V?$allocator@_W@2@@0@AEBV10@@Z+35
	DD	0ffffffffH
xdata	ENDS
;	COMDAT xdata
xdata	SEGMENT
$unwind$?dtor$0@?0???$_Construct@V?$basic_string@_WU?$char_traits@_W@std@@V?$allocator@_W@2@@std@@V12@@std@@YAXPEAV?$basic_string@_WU?$char_traits@_W@std@@V?$allocator@_W@2@@0@AEBV10@@Z@4HA DD 020601H
	DD	050023206H
xdata	ENDS
;	COMDAT xdata
xdata	SEGMENT
$unwind$??$_Construct@V?$basic_string@_WU?$char_traits@_W@std@@V?$allocator@_W@2@@std@@V12@@std@@YAXPEAV?$basic_string@_WU?$char_traits@_W@std@@V?$allocator@_W@2@@0@AEBV10@@Z DD 010d11H
	DD	06204H
	DD	imagerel __CxxFrameHandler3
	DD	imagerel $cppxdata$??$_Construct@V?$basic_string@_WU?$char_traits@_W@std@@V?$allocator@_W@2@@std@@V12@@std@@YAXPEAV?$basic_string@_WU?$char_traits@_W@std@@V?$allocator@_W@2@@0@AEBV10@@Z
xdata	ENDS
;	COMDAT CONST
CONST	SEGMENT
$cppxdata$??$_Construct@V?$basic_string@_WU?$char_traits@_W@std@@V?$allocator@_W@2@@std@@V12@@std@@YAXPEAV?$basic_string@_WU?$char_traits@_W@std@@V?$allocator@_W@2@@0@AEBV10@@Z DD 019930522H
	DD	01H
	DD	imagerel $stateUnwindMap$??$_Construct@V?$basic_string@_WU?$char_traits@_W@std@@V?$allocator@_W@2@@std@@V12@@std@@YAXPEAV?$basic_string@_WU?$char_traits@_W@std@@V?$allocator@_W@2@@0@AEBV10@@Z
	DD	00H
	DD	00H
	DD	03H
	DD	imagerel $ip2state$??$_Construct@V?$basic_string@_WU?$char_traits@_W@std@@V?$allocator@_W@2@@std@@V12@@std@@YAXPEAV?$basic_string@_WU?$char_traits@_W@std@@V?$allocator@_W@2@@0@AEBV10@@Z
	DD	020H
	DD	00H
	DD	01H
CONST	ENDS
;	COMDAT xdata
xdata	SEGMENT
$stateUnwindMap$??$_Construct@V?$basic_string@_WU?$char_traits@_W@std@@V?$allocator@_W@2@@std@@V12@@std@@YAXPEAV?$basic_string@_WU?$char_traits@_W@std@@V?$allocator@_W@2@@0@AEBV10@@Z DD 0ffffffffH
	DD	imagerel ?dtor$0@?0???$_Construct@V?$basic_string@_WU?$char_traits@_W@std@@V?$allocator@_W@2@@std@@V12@@std@@YAXPEAV?$basic_string@_WU?$char_traits@_W@std@@V?$allocator@_W@2@@0@AEBV10@@Z@4HA
; Function compile flags: /Ogtpy
; File c:\program files\microsoft visual studio 9.0\vc\include\xmemory
xdata	ENDS
;	COMDAT ??$_Construct@V?$basic_string@_WU?$char_traits@_W@std@@V?$allocator@_W@2@@std@@V12@@std@@YAXPEAV?$basic_string@_WU?$char_traits@_W@std@@V?$allocator@_W@2@@0@AEBV10@@Z
_TEXT	SEGMENT
$T146240 = 32
_Vptr$ = 64
_Ptr$ = 64
_Val$ = 72
$T146226 = 80
??$_Construct@V?$basic_string@_WU?$char_traits@_W@std@@V?$allocator@_W@2@@std@@V12@@std@@YAXPEAV?$basic_string@_WU?$char_traits@_W@std@@V?$allocator@_W@2@@0@AEBV10@@Z PROC ; std::_Construct<std::basic_string<wchar_t,std::char_traits<wchar_t>,std::allocator<wchar_t> >,std::basic_string<wchar_t,std::char_traits<wchar_t>,std::allocator<wchar_t> > >, COMDAT

; 50   : 	{	// construct object at _Ptr with value _Val

$LN9:
	sub	rsp, 56					; 00000038H
	mov	QWORD PTR $T146240[rsp], -2

; 51   : 	void _FARQ *_Vptr = _Ptr;

	mov	QWORD PTR _Vptr$[rsp], rcx

; 52   : 	::new (_Vptr) _T1(_Val);

	mov	QWORD PTR $T146226[rsp], rcx
	test	rcx, rcx
	je	SHORT $LN8@Construct
	call	QWORD PTR __imp_??0?$basic_string@_WU?$char_traits@_W@std@@V?$allocator@_W@2@@std@@QEAA@AEBV01@@Z
	npad	1
	jmp	SHORT $LN3@Construct
$LN8@Construct:
$LN3@Construct:

; 53   : 	}

	add	rsp, 56					; 00000038H
	ret	0
??$_Construct@V?$basic_string@_WU?$char_traits@_W@std@@V?$allocator@_W@2@@std@@V12@@std@@YAXPEAV?$basic_string@_WU?$char_traits@_W@std@@V?$allocator@_W@2@@0@AEBV10@@Z ENDP ; std::_Construct<std::basic_string<wchar_t,std::char_traits<wchar_t>,std::allocator<wchar_t> >,std::basic_string<wchar_t,std::char_traits<wchar_t>,std::allocator<wchar_t> > >
; Function compile flags: /Ogtpy
_TEXT	ENDS
;	COMDAT text$x
text$x	SEGMENT
$T146240 = 32
_Vptr$ = 64
_Ptr$ = 64
_Val$ = 72
$T146226 = 80
?dtor$0@?0???$_Construct@V?$basic_string@_WU?$char_traits@_W@std@@V?$allocator@_W@2@@std@@V12@@std@@YAXPEAV?$basic_string@_WU?$char_traits@_W@std@@V?$allocator@_W@2@@0@AEBV10@@Z@4HA PROC ; `std::_Construct<std::basic_string<wchar_t,std::char_traits<wchar_t>,std::allocator<wchar_t> >,std::basic_string<wchar_t,std::char_traits<wchar_t>,std::allocator<wchar_t> > >'::`1'::dtor$0
	push	rbp
	sub	rsp, 32					; 00000020H
	mov	rbp, rdx
	mov	rdx, QWORD PTR _Vptr$[rbp]
	mov	rcx, QWORD PTR $T146226[rbp]
	call	??3@YAXPEAX0@Z				; operator delete
	add	rsp, 32					; 00000020H
	pop	rbp
	ret	0
?dtor$0@?0???$_Construct@V?$basic_string@_WU?$char_traits@_W@std@@V?$allocator@_W@2@@std@@V12@@std@@YAXPEAV?$basic_string@_WU?$char_traits@_W@std@@V?$allocator@_W@2@@0@AEBV10@@Z@4HA ENDP ; `std::_Construct<std::basic_string<wchar_t,std::char_traits<wchar_t>,std::allocator<wchar_t> >,std::basic_string<wchar_t,std::char_traits<wchar_t>,std::allocator<wchar_t> > >'::`1'::dtor$0
text$x	ENDS
;	COMDAT pdata
; File c:\program files\microsoft visual studio 9.0\vc\include\exception
pdata	SEGMENT
$pdata$??$_Allocate@V?$basic_string@_WU?$char_traits@_W@std@@V?$allocator@_W@2@@std@@@std@@YAPEAV?$basic_string@_WU?$char_traits@_W@std@@V?$allocator@_W@2@@0@_KPEAV10@@Z DD imagerel $LN13
	DD	imagerel $LN13+91
	DD	imagerel $unwind$??$_Allocate@V?$basic_string@_WU?$char_traits@_W@std@@V?$allocator@_W@2@@std@@@std@@YAPEAV?$basic_string@_WU?$char_traits@_W@std@@V?$allocator@_W@2@@0@_KPEAV10@@Z
pdata	ENDS
;	COMDAT xdata
xdata	SEGMENT
$unwind$??$_Allocate@V?$basic_string@_WU?$char_traits@_W@std@@V?$allocator@_W@2@@std@@@std@@YAPEAV?$basic_string@_WU?$char_traits@_W@std@@V?$allocator@_W@2@@0@_KPEAV10@@Z DD 010401H
	DD	08204H
; Function compile flags: /Ogtpy
; File c:\program files\microsoft visual studio 9.0\vc\include\xmemory
xdata	ENDS
;	COMDAT ??$_Allocate@V?$basic_string@_WU?$char_traits@_W@std@@V?$allocator@_W@2@@std@@@std@@YAPEAV?$basic_string@_WU?$char_traits@_W@std@@V?$allocator@_W@2@@0@_KPEAV10@@Z
_TEXT	SEGMENT
$T146260 = 32
$T146268 = 80
_Count$ = 80
??$_Allocate@V?$basic_string@_WU?$char_traits@_W@std@@V?$allocator@_W@2@@std@@@std@@YAPEAV?$basic_string@_WU?$char_traits@_W@std@@V?$allocator@_W@2@@0@_KPEAV10@@Z PROC ; std::_Allocate<std::basic_string<wchar_t,std::char_traits<wchar_t>,std::allocator<wchar_t> > >, COMDAT

; 36   : 	{	// check for integer overflow

$LN13:
	sub	rsp, 72					; 00000048H

; 37   : 	if (_Count <= 0)
; 38   : 		_Count = 0;
; 39   : 	else if (((_SIZT)(-1) / _Count) < sizeof (_Ty))

	xor	edx, edx
	or	rax, -1
	div	rcx
	cmp	rax, 40					; 00000028H
	jae	SHORT $LN1@Allocate@3

; 40   : 		_THROW_NCEE(std::bad_alloc, NULL);

	lea	rdx, QWORD PTR $T146268[rsp]
	lea	rcx, QWORD PTR $T146260[rsp]
	mov	QWORD PTR $T146268[rsp], 0
	call	QWORD PTR __imp_??0exception@std@@QEAA@AEBQEBD@Z
	lea	r11, OFFSET FLAT:??_7bad_alloc@std@@6B@
	lea	rdx, OFFSET FLAT:_TI2?AVbad_alloc@std@@
	lea	rcx, QWORD PTR $T146260[rsp]
	mov	QWORD PTR $T146260[rsp], r11
	call	_CxxThrowException
	int	3
$LN1@Allocate@3:

; 41   : 
; 42   : 		// allocate storage for _Count elements of type _Ty
; 43   : 	return ((_Ty _FARQ *)::operator new(_Count * sizeof (_Ty)));

	lea	rcx, QWORD PTR [rcx+rcx*4]
	shl	rcx, 3

; 44   : 	}

	add	rsp, 72					; 00000048H
	jmp	??2@YAPEAX_K@Z				; operator new
$LN12@Allocate@3:
??$_Allocate@V?$basic_string@_WU?$char_traits@_W@std@@V?$allocator@_W@2@@std@@@std@@YAPEAV?$basic_string@_WU?$char_traits@_W@std@@V?$allocator@_W@2@@0@_KPEAV10@@Z ENDP ; std::_Allocate<std::basic_string<wchar_t,std::char_traits<wchar_t>,std::allocator<wchar_t> > >
; Function compile flags: /Ogtpy
; File c:\program files\microsoft visual studio 9.0\vc\include\memory
_TEXT	ENDS
;	COMDAT ??$unchecked_uninitialized_fill_n@PEAPEAV?$basic_string@_WU?$char_traits@_W@std@@V?$allocator@_W@2@@std@@_KPEAV12@V?$allocator@PEAV?$basic_string@_WU?$char_traits@_W@std@@V?$allocator@_W@2@@std@@@2@@stdext@@YAXPEAPEAV?$basic_string@_WU?$char_traits@_W@std@@V?$allocator@_W@2@@std@@_KAEBQEAV12@AEAV?$allocator@PEAV?$basic_string@_WU?$char_traits@_W@std@@V?$allocator@_W@2@@std@@@2@@Z
_TEXT	SEGMENT
_First$ = 8
_Count$ = 16
_Val$ = 24
_Al$ = 32
??$unchecked_uninitialized_fill_n@PEAPEAV?$basic_string@_WU?$char_traits@_W@std@@V?$allocator@_W@2@@std@@_KPEAV12@V?$allocator@PEAV?$basic_string@_WU?$char_traits@_W@std@@V?$allocator@_W@2@@std@@@2@@stdext@@YAXPEAPEAV?$basic_string@_WU?$char_traits@_W@std@@V?$allocator@_W@2@@std@@_KAEBQEAV12@AEAV?$allocator@PEAV?$basic_string@_WU?$char_traits@_W@std@@V?$allocator@_W@2@@std@@@2@@Z PROC ; stdext::unchecked_uninitialized_fill_n<std::basic_string<wchar_t,std::char_traits<wchar_t>,std::allocator<wchar_t> > * __ptr64 * __ptr64,unsigned __int64,std::basic_string<wchar_t,std::char_traits<wchar_t>,std::allocator<wchar_t> > * __ptr64,std::allocator<std::basic_string<wchar_t,std::char_traits<wchar_t>,std::allocator<wchar_t> > * __ptr64> >, COMDAT

; 941  : 	_STD _Uninit_fill_n(_First, _Count, _Val, _Al,
; 942  : 		_STD _Ptr_cat(_First, _First), _STD _Range_checked_iterator_tag());

	test	rdx, rdx
	je	SHORT $LN17@unchecked_@5
	npad	11
$LL19@unchecked_@5:
	mov	rax, QWORD PTR [r8]
	add	rcx, 8
	sub	rdx, 1
	mov	QWORD PTR [rcx-8], rax
	jne	SHORT $LL19@unchecked_@5
$LN17@unchecked_@5:

; 943  : 	}

	fatret	0
??$unchecked_uninitialized_fill_n@PEAPEAV?$basic_string@_WU?$char_traits@_W@std@@V?$allocator@_W@2@@std@@_KPEAV12@V?$allocator@PEAV?$basic_string@_WU?$char_traits@_W@std@@V?$allocator@_W@2@@std@@@2@@stdext@@YAXPEAPEAV?$basic_string@_WU?$char_traits@_W@std@@V?$allocator@_W@2@@std@@_KAEBQEAV12@AEAV?$allocator@PEAV?$basic_string@_WU?$char_traits@_W@std@@V?$allocator@_W@2@@std@@@2@@Z ENDP ; stdext::unchecked_uninitialized_fill_n<std::basic_string<wchar_t,std::char_traits<wchar_t>,std::allocator<wchar_t> > * __ptr64 * __ptr64,unsigned __int64,std::basic_string<wchar_t,std::char_traits<wchar_t>,std::allocator<wchar_t> > * __ptr64,std::allocator<std::basic_string<wchar_t,std::char_traits<wchar_t>,std::allocator<wchar_t> > * __ptr64> >
; Function compile flags: /Ogtpy
_TEXT	ENDS
;	COMDAT ??$unchecked_uninitialized_fill_n@PEAPEA_W_KPEA_WV?$allocator@PEA_W@std@@@stdext@@YAXPEAPEA_W_KAEBQEA_WAEAV?$allocator@PEA_W@std@@@Z
_TEXT	SEGMENT
_First$ = 8
_Count$ = 16
_Val$ = 24
_Al$ = 32
??$unchecked_uninitialized_fill_n@PEAPEA_W_KPEA_WV?$allocator@PEA_W@std@@@stdext@@YAXPEAPEA_W_KAEBQEA_WAEAV?$allocator@PEA_W@std@@@Z PROC ; stdext::unchecked_uninitialized_fill_n<wchar_t * __ptr64 * __ptr64,unsigned __int64,wchar_t * __ptr64,std::allocator<wchar_t * __ptr64> >, COMDAT

; 941  : 	_STD _Uninit_fill_n(_First, _Count, _Val, _Al,
; 942  : 		_STD _Ptr_cat(_First, _First), _STD _Range_checked_iterator_tag());

	test	rdx, rdx
	je	SHORT $LN17@unchecked_@6
	npad	11
$LL19@unchecked_@6:
	mov	rax, QWORD PTR [r8]
	add	rcx, 8
	sub	rdx, 1
	mov	QWORD PTR [rcx-8], rax
	jne	SHORT $LL19@unchecked_@6
$LN17@unchecked_@6:

; 943  : 	}

	fatret	0
??$unchecked_uninitialized_fill_n@PEAPEA_W_KPEA_WV?$allocator@PEA_W@std@@@stdext@@YAXPEAPEA_W_KAEBQEA_WAEAV?$allocator@PEA_W@std@@@Z ENDP ; stdext::unchecked_uninitialized_fill_n<wchar_t * __ptr64 * __ptr64,unsigned __int64,wchar_t * __ptr64,std::allocator<wchar_t * __ptr64> >
_TEXT	ENDS
;	COMDAT pdata
; File c:\program files\microsoft visual studio 9.0\vc\include\ios
pdata	SEGMENT
$pdata$??$?6_WU?$char_traits@_W@std@@@std@@YAAEAV?$basic_ostream@_WU?$char_traits@_W@std@@@0@AEAV10@_W@Z DD imagerel $LN96
	DD	imagerel $LN96+491
	DD	imagerel $unwind$??$?6_WU?$char_traits@_W@std@@@std@@YAAEAV?$basic_ostream@_WU?$char_traits@_W@std@@@0@AEAV10@_W@Z
pdata	ENDS
;	COMDAT pdata
pdata	SEGMENT
$pdata$?dtor$1@?0???$?6_WU?$char_traits@_W@std@@@std@@YAAEAV?$basic_ostream@_WU?$char_traits@_W@std@@@0@AEAV10@_W@Z@4HA DD imagerel ?dtor$1@?0???$?6_WU?$char_traits@_W@std@@@std@@YAAEAV?$basic_ostream@_WU?$char_traits@_W@std@@@0@AEAV10@_W@Z@4HA
	DD	imagerel ?dtor$1@?0???$?6_WU?$char_traits@_W@std@@@std@@YAAEAV?$basic_ostream@_WU?$char_traits@_W@std@@@0@AEAV10@_W@Z@4HA+24
	DD	imagerel $unwind$?dtor$1@?0???$?6_WU?$char_traits@_W@std@@@std@@YAAEAV?$basic_ostream@_WU?$char_traits@_W@std@@@0@AEAV10@_W@Z@4HA
pdata	ENDS
;	COMDAT pdata
pdata	SEGMENT
$pdata$?dtor$0@?0???$?6_WU?$char_traits@_W@std@@@std@@YAAEAV?$basic_ostream@_WU?$char_traits@_W@std@@@0@AEAV10@_W@Z@4HA DD imagerel ?dtor$0@?0???$?6_WU?$char_traits@_W@std@@@std@@YAAEAV?$basic_ostream@_WU?$char_traits@_W@std@@@0@AEAV10@_W@Z@4HA
	DD	imagerel ?dtor$0@?0???$?6_WU?$char_traits@_W@std@@@std@@YAAEAV?$basic_ostream@_WU?$char_traits@_W@std@@@0@AEAV10@_W@Z@4HA+24
	DD	imagerel $unwind$?dtor$0@?0???$?6_WU?$char_traits@_W@std@@@std@@YAAEAV?$basic_ostream@_WU?$char_traits@_W@std@@@0@AEAV10@_W@Z@4HA
pdata	ENDS
;	COMDAT pdata
pdata	SEGMENT
$pdata$?catch$0@?0???$?6_WU?$char_traits@_W@std@@@std@@YAAEAV?$basic_ostream@_WU?$char_traits@_W@std@@@0@AEAV10@_W@Z@4HA DD imagerel ?catch$0@?0???$?6_WU?$char_traits@_W@std@@@std@@YAAEAV?$basic_ostream@_WU?$char_traits@_W@std@@@0@AEAV10@_W@Z@4HA
	DD	imagerel ?catch$0@?0???$?6_WU?$char_traits@_W@std@@@std@@YAAEAV?$basic_ostream@_WU?$char_traits@_W@std@@@0@AEAV10@_W@Z@4HA+62
	DD	imagerel $unwind$?catch$0@?0???$?6_WU?$char_traits@_W@std@@@std@@YAAEAV?$basic_ostream@_WU?$char_traits@_W@std@@@0@AEAV10@_W@Z@4HA
pdata	ENDS
;	COMDAT pdata
pdata	SEGMENT
$pdata$?dtor$2@?0???$?6_WU?$char_traits@_W@std@@@std@@YAAEAV?$basic_ostream@_WU?$char_traits@_W@std@@@0@AEAV10@_W@Z@4HA DD imagerel ?dtor$2@?0???$?6_WU?$char_traits@_W@std@@@std@@YAAEAV?$basic_ostream@_WU?$char_traits@_W@std@@@0@AEAV10@_W@Z@4HA
	DD	imagerel ?dtor$2@?0???$?6_WU?$char_traits@_W@std@@@std@@YAAEAV?$basic_ostream@_WU?$char_traits@_W@std@@@0@AEAV10@_W@Z@4HA+24
	DD	imagerel $unwind$?dtor$2@?0???$?6_WU?$char_traits@_W@std@@@std@@YAAEAV?$basic_ostream@_WU?$char_traits@_W@std@@@0@AEAV10@_W@Z@4HA
pdata	ENDS
;	COMDAT xdata
xdata	SEGMENT
$ip2state$??$?6_WU?$char_traits@_W@std@@@std@@YAAEAV?$basic_ostream@_WU?$char_traits@_W@std@@@0@AEAV10@_W@Z DD imagerel ??$?6_WU?$char_traits@_W@std@@@std@@YAAEAV?$basic_ostream@_WU?$char_traits@_W@std@@@0@AEAV10@_W@Z
	DD	0ffffffffH
	DD	imagerel ??$?6_WU?$char_traits@_W@std@@@std@@YAAEAV?$basic_ostream@_WU?$char_traits@_W@std@@@0@AEAV10@_W@Z+84
	DD	00H
	DD	imagerel ??$?6_WU?$char_traits@_W@std@@@std@@YAAEAV?$basic_ostream@_WU?$char_traits@_W@std@@@0@AEAV10@_W@Z+133
	DD	01H
	DD	imagerel ??$?6_WU?$char_traits@_W@std@@@std@@YAAEAV?$basic_ostream@_WU?$char_traits@_W@std@@@0@AEAV10@_W@Z+159
	DD	02H
	DD	imagerel ??$?6_WU?$char_traits@_W@std@@@std@@YAAEAV?$basic_ostream@_WU?$char_traits@_W@std@@@0@AEAV10@_W@Z+356
	DD	01H
	DD	imagerel ??$?6_WU?$char_traits@_W@std@@@std@@YAAEAV?$basic_ostream@_WU?$char_traits@_W@std@@@0@AEAV10@_W@Z+413
	DD	04H
	DD	imagerel ??$?6_WU?$char_traits@_W@std@@@std@@YAAEAV?$basic_ostream@_WU?$char_traits@_W@std@@@0@AEAV10@_W@Z+433
	DD	0ffffffffH
	DD	imagerel ?catch$0@?0???$?6_WU?$char_traits@_W@std@@@std@@YAAEAV?$basic_ostream@_WU?$char_traits@_W@std@@@0@AEAV10@_W@Z@4HA
	DD	00H
	DD	imagerel ?catch$0@?0???$?6_WU?$char_traits@_W@std@@@std@@YAAEAV?$basic_ostream@_WU?$char_traits@_W@std@@@0@AEAV10@_W@Z@4HA+15
	DD	03H
	DD	imagerel ?catch$0@?0???$?6_WU?$char_traits@_W@std@@@std@@YAAEAV?$basic_ostream@_WU?$char_traits@_W@std@@@0@AEAV10@_W@Z@4HA+44
	DD	00H
xdata	ENDS
;	COMDAT xdata
xdata	SEGMENT
$unwind$?dtor$2@?0???$?6_WU?$char_traits@_W@std@@@std@@YAAEAV?$basic_ostream@_WU?$char_traits@_W@std@@@0@AEAV10@_W@Z@4HA DD 020601H
	DD	050023206H
xdata	ENDS
;	COMDAT xdata
xdata	SEGMENT
$unwind$?catch$0@?0???$?6_WU?$char_traits@_W@std@@@std@@YAAEAV?$basic_ostream@_WU?$char_traits@_W@std@@@0@AEAV10@_W@Z@4HA DD 030c19H
	DD	0c008420cH
	DD	05006H
	DD	imagerel __CxxFrameHandler3
	DD	imagerel $cppxdata$??$?6_WU?$char_traits@_W@std@@@std@@YAAEAV?$basic_ostream@_WU?$char_traits@_W@std@@@0@AEAV10@_W@Z
xdata	ENDS
;	COMDAT xdata
xdata	SEGMENT
$unwind$?dtor$0@?0???$?6_WU?$char_traits@_W@std@@@std@@YAAEAV?$basic_ostream@_WU?$char_traits@_W@std@@@0@AEAV10@_W@Z@4HA DD 020601H
	DD	050023206H
xdata	ENDS
;	COMDAT xdata
xdata	SEGMENT
$unwind$?dtor$1@?0???$?6_WU?$char_traits@_W@std@@@std@@YAAEAV?$basic_ostream@_WU?$char_traits@_W@std@@@0@AEAV10@_W@Z@4HA DD 020601H
	DD	050023206H
xdata	ENDS
;	COMDAT xdata
xdata	SEGMENT
$unwind$??$?6_WU?$char_traits@_W@std@@@std@@YAAEAV?$basic_ostream@_WU?$char_traits@_W@std@@@0@AEAV10@_W@Z DD 0a2519H
	DD	0116425H
	DD	0f3421H
	DD	0f0107214H
	DD	0d00ce00eH
	DD	07008c00aH
	DD	imagerel __CxxFrameHandler3
	DD	imagerel $cppxdata$??$?6_WU?$char_traits@_W@std@@@std@@YAAEAV?$basic_ostream@_WU?$char_traits@_W@std@@@0@AEAV10@_W@Z
xdata	ENDS
;	COMDAT CONST
CONST	SEGMENT
$cppxdata$??$?6_WU?$char_traits@_W@std@@@std@@YAAEAV?$basic_ostream@_WU?$char_traits@_W@std@@@0@AEAV10@_W@Z DD 019930522H
	DD	05H
	DD	imagerel $stateUnwindMap$??$?6_WU?$char_traits@_W@std@@@std@@YAAEAV?$basic_ostream@_WU?$char_traits@_W@std@@@0@AEAV10@_W@Z
	DD	01H
	DD	imagerel $tryMap$??$?6_WU?$char_traits@_W@std@@@std@@YAAEAV?$basic_ostream@_WU?$char_traits@_W@std@@@0@AEAV10@_W@Z
	DD	0aH
	DD	imagerel $ip2state$??$?6_WU?$char_traits@_W@std@@@std@@YAAEAV?$basic_ostream@_WU?$char_traits@_W@std@@@0@AEAV10@_W@Z
	DD	020H
	DD	00H
	DD	01H
CONST	ENDS
;	COMDAT xdata
xdata	SEGMENT
$tryMap$??$?6_WU?$char_traits@_W@std@@@std@@YAAEAV?$basic_ostream@_WU?$char_traits@_W@std@@@0@AEAV10@_W@Z DD 02H
	DD	02H
	DD	03H
	DD	01H
	DD	imagerel $handlerMap$0$??$?6_WU?$char_traits@_W@std@@@std@@YAAEAV?$basic_ostream@_WU?$char_traits@_W@std@@@0@AEAV10@_W@Z
xdata	ENDS
;	COMDAT xdata
xdata	SEGMENT
$handlerMap$0$??$?6_WU?$char_traits@_W@std@@@std@@YAAEAV?$basic_ostream@_WU?$char_traits@_W@std@@@0@AEAV10@_W@Z DD 040H
	DD	00H
	DD	00H
	DD	imagerel ?catch$0@?0???$?6_WU?$char_traits@_W@std@@@std@@YAAEAV?$basic_ostream@_WU?$char_traits@_W@std@@@0@AEAV10@_W@Z@4HA
	DD	048H
xdata	ENDS
;	COMDAT xdata
xdata	SEGMENT
$stateUnwindMap$??$?6_WU?$char_traits@_W@std@@@std@@YAAEAV?$basic_ostream@_WU?$char_traits@_W@std@@@0@AEAV10@_W@Z DD 0ffffffffH
	DD	imagerel ?dtor$1@?0???$?6_WU?$char_traits@_W@std@@@std@@YAAEAV?$basic_ostream@_WU?$char_traits@_W@std@@@0@AEAV10@_W@Z@4HA
	DD	0ffffffffH
	DD	imagerel ?dtor$0@?0???$?6_WU?$char_traits@_W@std@@@std@@YAAEAV?$basic_ostream@_WU?$char_traits@_W@std@@@0@AEAV10@_W@Z@4HA
	DD	01H
	DD	00H
	DD	01H
	DD	00H
	DD	0ffffffffH
	DD	imagerel ?dtor$2@?0???$?6_WU?$char_traits@_W@std@@@std@@YAAEAV?$basic_ostream@_WU?$char_traits@_W@std@@@0@AEAV10@_W@Z@4HA
; Function compile flags: /Ogtpy
; File c:\program files\microsoft visual studio 9.0\vc\include\ostream
xdata	ENDS
;	COMDAT ??$?6_WU?$char_traits@_W@std@@@std@@YAAEAV?$basic_ostream@_WU?$char_traits@_W@std@@@0@AEAV10@_W@Z
_TEXT	SEGMENT
$T146697 = 32
_Ok$ = 40
_Ostr$ = 112
_Ch$ = 120
_State$ = 128
??$?6_WU?$char_traits@_W@std@@@std@@YAAEAV?$basic_ostream@_WU?$char_traits@_W@std@@@0@AEAV10@_W@Z PROC ; std::operator<<<wchar_t,std::char_traits<wchar_t> >, COMDAT

; 873  : 	{	// insert a character

$LN96:
	mov	rax, rsp
	mov	QWORD PTR [rax+8], rcx
	push	rdi
	push	r12
	push	r13
	push	r14
	push	r15
	sub	rsp, 64					; 00000040H
	mov	QWORD PTR $T146697[rsp], -2
	mov	QWORD PTR [rax+16], rbx
	mov	QWORD PTR [rax+32], rsi
	movzx	r15d, dx
	mov	rdi, rcx

; 874  : 	typedef basic_ostream<_Elem, _Traits> _Myos;
; 875  : 	ios_base::iostate _State = ios_base::goodbit;

	xor	ebx, ebx
	mov	DWORD PTR _State$[rsp], ebx

; 876  : 	const typename _Myos::sentry _Ok(_Ostr);

	mov	r14, rcx
	mov	QWORD PTR [rax-64], rcx
	mov	rax, QWORD PTR [rcx]
	movsxd	r8, DWORD PTR [rax+4]
	mov	rcx, QWORD PTR [r8+rcx+72]
	test	rcx, rcx
	je	SHORT $LN26@operator
	call	QWORD PTR __imp_?_Lock@?$basic_streambuf@_WU?$char_traits@_W@std@@@std@@QEAAXXZ
	npad	1
$LN26@operator:
	mov	rax, QWORD PTR [rdi]
	movsxd	rcx, DWORD PTR [rax+4]
	cmp	DWORD PTR [rcx+rdi+16], 0
	jne	SHORT $LN22@operator
	mov	rcx, QWORD PTR [rcx+rdi+80]
	test	rcx, rcx
	je	SHORT $LN22@operator
	call	QWORD PTR __imp_?flush@?$basic_ostream@_WU?$char_traits@_W@std@@@std@@QEAAAEAV12@XZ
$LN22@operator:
	mov	rax, QWORD PTR [rdi]
	movsxd	rcx, DWORD PTR [rax+4]
	cmp	DWORD PTR [rcx+rdi+16], 0
	sete	al
	mov	BYTE PTR _Ok$[rsp+8], al

; 877  : 
; 878  : 	if (_Ok)

	test	al, al
	je	$LN20@operator

; 879  : 		{	// state okay, insert
; 880  : 		streamsize _Pad = _Ostr.width() <= 1 ? 0 : _Ostr.width() - 1;

	mov	rsi, QWORD PTR [rcx+rdi+40]
	cmp	rsi, 1
	jg	SHORT $LN15@operator
	xor	esi, esi
	jmp	SHORT $LN16@operator
$LN15@operator:
	dec	rsi
$LN16@operator:

; 881  : 
; 882  : 		_TRY_IO_BEGIN
; 883  : 		if ((_Ostr.flags() & ios_base::adjustfield) != ios_base::left)

	mov	eax, DWORD PTR [rcx+rdi+24]
	and	eax, 448				; 000001c0H
	cmp	eax, 64					; 00000040H
	je	SHORT $LN94@operator
	mov	r12d, 4
	mov	r13d, 65535				; 0000ffffH
	npad	7
$LL9@operator:

; 884  : 			for (; _State == ios_base::goodbit && 0 < _Pad;
; 885  : 				--_Pad)	// pad on left

	test	ebx, ebx
	jne	$LN2@operator
	test	rsi, rsi
	jle	SHORT $LN91@operator

; 886  : 				if (_Traits::eq_int_type(_Traits::eof(),
; 887  : 					_Ostr.rdbuf()->sputc(_Ostr.fill())))

	mov	rax, QWORD PTR [rdi]
	movsxd	rcx, DWORD PTR [rax+4]
	movzx	edx, WORD PTR [rcx+rdi+88]
	mov	rcx, QWORD PTR [rcx+rdi+72]
	call	QWORD PTR __imp_?sputc@?$basic_streambuf@_WU?$char_traits@_W@std@@@std@@QEAAG_W@Z
	cmp	r13w, ax
	cmove	ebx, r12d
	mov	DWORD PTR _State$[rsp], ebx

; 884  : 			for (; _State == ios_base::goodbit && 0 < _Pad;
; 885  : 				--_Pad)	// pad on left

	dec	rsi
	jmp	SHORT $LL9@operator
$LN94@operator:
	mov	r12d, 4
	mov	r13d, 65535				; 0000ffffH
$LN91@operator:

; 888  : 					_State |= ios_base::badbit;
; 889  : 
; 890  : 		if (_State == ios_base::goodbit
; 891  : 			&& _Traits::eq_int_type(_Traits::eof(),
; 892  : 				_Ostr.rdbuf()->sputc(_Ch)))

	mov	rax, QWORD PTR [rdi]
	movsxd	rcx, DWORD PTR [rax+4]
	movzx	edx, r15w
	mov	rcx, QWORD PTR [rcx+rdi+72]
	call	QWORD PTR __imp_?sputc@?$basic_streambuf@_WU?$char_traits@_W@std@@@std@@QEAAG_W@Z
	cmp	r13w, ax
	cmove	ebx, r12d
	mov	DWORD PTR _State$[rsp], ebx
	npad	7
$LL92@operator:

; 893  : 			_State |= ios_base::badbit;
; 894  : 
; 895  : 		for (; _State == ios_base::goodbit && 0 < _Pad;
; 896  : 			--_Pad)	// pad on right

	test	ebx, ebx
	jne	SHORT $LN2@operator
	test	rsi, rsi
	jle	SHORT $LN2@operator

; 897  : 			if (_Traits::eq_int_type(_Traits::eof(),
; 898  : 				_Ostr.rdbuf()->sputc(_Ostr.fill())))

	mov	rax, QWORD PTR [rdi]
	movsxd	rcx, DWORD PTR [rax+4]
	movzx	edx, WORD PTR [rcx+rdi+88]
	mov	rcx, QWORD PTR [rcx+rdi+72]
	call	QWORD PTR __imp_?sputc@?$basic_streambuf@_WU?$char_traits@_W@std@@@std@@QEAAG_W@Z
	cmp	r13w, ax
	cmove	ebx, r12d
	mov	DWORD PTR _State$[rsp], ebx

; 893  : 			_State |= ios_base::badbit;
; 894  : 
; 895  : 		for (; _State == ios_base::goodbit && 0 < _Pad;
; 896  : 			--_Pad)	// pad on right

	dec	rsi
	jmp	SHORT $LL92@operator
$LN2@operator:
	jmp	SHORT $LN20@operator
$LN21@operator:

; 899  : 				_State |= ios_base::badbit;
; 900  : 		_CATCH_IO_(_Ostr)

	mov	rdi, QWORD PTR _Ostr$[rsp]
	mov	ebx, DWORD PTR _State$[rsp]
	mov	r14, QWORD PTR _Ok$[rsp]
$LN20@operator:

; 901  : 		}
; 902  : 
; 903  : 	_Ostr.width(0);

	mov	rax, QWORD PTR [rdi]
	movsxd	rcx, DWORD PTR [rax+4]
	mov	QWORD PTR [rcx+rdi+40], 0

; 904  : 	_Ostr.setstate(_State);

	mov	rax, QWORD PTR [rdi]
	movsxd	rcx, DWORD PTR [rax+4]
	add	rcx, rdi
	xor	r8d, r8d
	mov	edx, ebx
	call	QWORD PTR __imp_?setstate@?$basic_ios@_WU?$char_traits@_W@std@@@std@@QEAAXH_N@Z
	npad	1

; 905  : 	return (_Ostr);

	call	QWORD PTR __imp_?uncaught_exception@std@@YA_NXZ
	test	al, al
	jne	SHORT $LN77@operator
	mov	rcx, r14
	call	QWORD PTR __imp_?_Osfx@?$basic_ostream@_WU?$char_traits@_W@std@@@std@@QEAAXXZ
	npad	1
$LN77@operator:
	mov	rax, QWORD PTR [r14]
	movsxd	rcx, DWORD PTR [rax+4]
	mov	rcx, QWORD PTR [rcx+r14+72]
	test	rcx, rcx
	je	SHORT $LN93@operator
	call	QWORD PTR __imp_?_Unlock@?$basic_streambuf@_WU?$char_traits@_W@std@@@std@@QEAAXXZ
	mov	rax, rdi
	jmp	SHORT $LN81@operator
$LN93@operator:
	mov	rax, rdi
$LN81@operator:

; 906  : 	}

	mov	rbx, QWORD PTR [rsp+120]
	mov	rsi, QWORD PTR [rsp+136]
	add	rsp, 64					; 00000040H
	pop	r15
	pop	r14
	pop	r13
	pop	r12
	pop	rdi
	ret	0
??$?6_WU?$char_traits@_W@std@@@std@@YAAEAV?$basic_ostream@_WU?$char_traits@_W@std@@@0@AEAV10@_W@Z ENDP ; std::operator<<<wchar_t,std::char_traits<wchar_t> >
; Function compile flags: /Ogtpy
_TEXT	ENDS
;	COMDAT text$x
text$x	SEGMENT
$T146697 = 32
_Ok$ = 40
_Ostr$ = 112
_Ch$ = 120
_State$ = 128
?dtor$1@?0???$?6_WU?$char_traits@_W@std@@@std@@YAAEAV?$basic_ostream@_WU?$char_traits@_W@std@@@0@AEAV10@_W@Z@4HA PROC ; `std::operator<<<wchar_t,std::char_traits<wchar_t> >'::`1'::dtor$1
	push	rbp
	sub	rsp, 32					; 00000020H
	mov	rbp, rdx
	lea	rcx, QWORD PTR _Ok$[rbp]
	call	??1_Sentry_base@?$basic_ostream@_WU?$char_traits@_W@std@@@std@@QEAA@XZ ; std::basic_ostream<wchar_t,std::char_traits<wchar_t> >::_Sentry_base::~_Sentry_base
	add	rsp, 32					; 00000020H
	pop	rbp
	ret	0
?dtor$1@?0???$?6_WU?$char_traits@_W@std@@@std@@YAAEAV?$basic_ostream@_WU?$char_traits@_W@std@@@0@AEAV10@_W@Z@4HA ENDP ; `std::operator<<<wchar_t,std::char_traits<wchar_t> >'::`1'::dtor$1
; Function compile flags: /Ogtpy
$T146697 = 32
_Ok$ = 40
_Ostr$ = 112
_Ch$ = 120
_State$ = 128
?dtor$0@?0???$?6_WU?$char_traits@_W@std@@@std@@YAAEAV?$basic_ostream@_WU?$char_traits@_W@std@@@0@AEAV10@_W@Z@4HA PROC ; `std::operator<<<wchar_t,std::char_traits<wchar_t> >'::`1'::dtor$0
	push	rbp
	sub	rsp, 32					; 00000020H
	mov	rbp, rdx
	lea	rcx, QWORD PTR _Ok$[rbp]
	call	??1sentry@?$basic_ostream@_WU?$char_traits@_W@std@@@std@@QEAA@XZ ; std::basic_ostream<wchar_t,std::char_traits<wchar_t> >::sentry::~sentry
	add	rsp, 32					; 00000020H
	pop	rbp
	ret	0
?dtor$0@?0???$?6_WU?$char_traits@_W@std@@@std@@YAAEAV?$basic_ostream@_WU?$char_traits@_W@std@@@0@AEAV10@_W@Z@4HA ENDP ; `std::operator<<<wchar_t,std::char_traits<wchar_t> >'::`1'::dtor$0
; Function compile flags: /Ogtpy
$T146697 = 32
_Ok$ = 40
_Ostr$ = 112
_Ch$ = 120
_State$ = 128
?catch$0@?0???$?6_WU?$char_traits@_W@std@@@std@@YAAEAV?$basic_ostream@_WU?$char_traits@_W@std@@@0@AEAV10@_W@Z@4HA PROC ; `std::operator<<<wchar_t,std::char_traits<wchar_t> >'::`1'::catch$0

; 900  : 		_CATCH_IO_(_Ostr)

	mov	QWORD PTR [rsp+16], rdx
	push	rbp
	push	r12
	sub	rsp, 40					; 00000028H
	mov	rbp, rdx
__catch$??$?6_WU?$char_traits@_W@std@@@std@@YAAEAV?$basic_ostream@_WU?$char_traits@_W@std@@@0@AEAV10@_W@Z$0:
	mov	rdx, QWORD PTR _Ostr$[rbp]
	mov	rax, QWORD PTR [rdx]
	movsxd	rcx, DWORD PTR [rax+4]
	add	rcx, rdx
	mov	r8b, 1
	mov	edx, 4
	call	QWORD PTR __imp_?setstate@?$basic_ios@_WU?$char_traits@_W@std@@@std@@QEAAXH_N@Z
	npad	1
	lea	rax, $LN21@catch$0
	jmp	SHORT $LN95@catch$0
$LN95@catch$0:
	add	rsp, 40					; 00000028H
	pop	r12
	pop	rbp
	ret	0
	int	3
?catch$0@?0???$?6_WU?$char_traits@_W@std@@@std@@YAAEAV?$basic_ostream@_WU?$char_traits@_W@std@@@0@AEAV10@_W@Z@4HA ENDP ; `std::operator<<<wchar_t,std::char_traits<wchar_t> >'::`1'::catch$0
; Function compile flags: /Ogtpy
$T146697 = 32
_Ok$ = 40
_Ostr$ = 112
_Ch$ = 120
_State$ = 128
?dtor$2@?0???$?6_WU?$char_traits@_W@std@@@std@@YAAEAV?$basic_ostream@_WU?$char_traits@_W@std@@@0@AEAV10@_W@Z@4HA PROC ; `std::operator<<<wchar_t,std::char_traits<wchar_t> >'::`1'::dtor$2
	push	rbp
	sub	rsp, 32					; 00000020H

; 873  : 	{	// insert a character

	mov	rbp, rdx
	lea	rcx, QWORD PTR _Ok$[rbp]
	call	??1_Sentry_base@?$basic_ostream@_WU?$char_traits@_W@std@@@std@@QEAA@XZ ; std::basic_ostream<wchar_t,std::char_traits<wchar_t> >::_Sentry_base::~_Sentry_base
	add	rsp, 32					; 00000020H
	pop	rbp
	ret	0
?dtor$2@?0???$?6_WU?$char_traits@_W@std@@@std@@YAAEAV?$basic_ostream@_WU?$char_traits@_W@std@@@0@AEAV10@_W@Z@4HA ENDP ; `std::operator<<<wchar_t,std::char_traits<wchar_t> >'::`1'::dtor$2
text$x	ENDS
;	COMDAT pdata
; File c:\program files\microsoft visual studio 9.0\vc\include\ios
pdata	SEGMENT
$pdata$??$?6_WU?$char_traits@_W@std@@@std@@YAAEAV?$basic_ostream@_WU?$char_traits@_W@std@@@0@AEAV10@PEB_W@Z DD imagerel $LN99
	DD	imagerel $LN99+507
	DD	imagerel $unwind$??$?6_WU?$char_traits@_W@std@@@std@@YAAEAV?$basic_ostream@_WU?$char_traits@_W@std@@@0@AEAV10@PEB_W@Z
pdata	ENDS
;	COMDAT pdata
pdata	SEGMENT
$pdata$?dtor$1@?0???$?6_WU?$char_traits@_W@std@@@std@@YAAEAV?$basic_ostream@_WU?$char_traits@_W@std@@@0@AEAV10@PEB_W@Z@4HA DD imagerel ?dtor$1@?0???$?6_WU?$char_traits@_W@std@@@std@@YAAEAV?$basic_ostream@_WU?$char_traits@_W@std@@@0@AEAV10@PEB_W@Z@4HA
	DD	imagerel ?dtor$1@?0???$?6_WU?$char_traits@_W@std@@@std@@YAAEAV?$basic_ostream@_WU?$char_traits@_W@std@@@0@AEAV10@PEB_W@Z@4HA+24
	DD	imagerel $unwind$?dtor$1@?0???$?6_WU?$char_traits@_W@std@@@std@@YAAEAV?$basic_ostream@_WU?$char_traits@_W@std@@@0@AEAV10@PEB_W@Z@4HA
pdata	ENDS
;	COMDAT pdata
pdata	SEGMENT
$pdata$?dtor$0@?0???$?6_WU?$char_traits@_W@std@@@std@@YAAEAV?$basic_ostream@_WU?$char_traits@_W@std@@@0@AEAV10@PEB_W@Z@4HA DD imagerel ?dtor$0@?0???$?6_WU?$char_traits@_W@std@@@std@@YAAEAV?$basic_ostream@_WU?$char_traits@_W@std@@@0@AEAV10@PEB_W@Z@4HA
	DD	imagerel ?dtor$0@?0???$?6_WU?$char_traits@_W@std@@@std@@YAAEAV?$basic_ostream@_WU?$char_traits@_W@std@@@0@AEAV10@PEB_W@Z@4HA+24
	DD	imagerel $unwind$?dtor$0@?0???$?6_WU?$char_traits@_W@std@@@std@@YAAEAV?$basic_ostream@_WU?$char_traits@_W@std@@@0@AEAV10@PEB_W@Z@4HA
pdata	ENDS
;	COMDAT pdata
pdata	SEGMENT
$pdata$?catch$0@?0???$?6_WU?$char_traits@_W@std@@@std@@YAAEAV?$basic_ostream@_WU?$char_traits@_W@std@@@0@AEAV10@PEB_W@Z@4HA DD imagerel ?catch$0@?0???$?6_WU?$char_traits@_W@std@@@std@@YAAEAV?$basic_ostream@_WU?$char_traits@_W@std@@@0@AEAV10@PEB_W@Z@4HA
	DD	imagerel ?catch$0@?0???$?6_WU?$char_traits@_W@std@@@std@@YAAEAV?$basic_ostream@_WU?$char_traits@_W@std@@@0@AEAV10@PEB_W@Z@4HA+60
	DD	imagerel $unwind$?catch$0@?0???$?6_WU?$char_traits@_W@std@@@std@@YAAEAV?$basic_ostream@_WU?$char_traits@_W@std@@@0@AEAV10@PEB_W@Z@4HA
pdata	ENDS
;	COMDAT pdata
pdata	SEGMENT
$pdata$?dtor$2@?0???$?6_WU?$char_traits@_W@std@@@std@@YAAEAV?$basic_ostream@_WU?$char_traits@_W@std@@@0@AEAV10@PEB_W@Z@4HA DD imagerel ?dtor$2@?0???$?6_WU?$char_traits@_W@std@@@std@@YAAEAV?$basic_ostream@_WU?$char_traits@_W@std@@@0@AEAV10@PEB_W@Z@4HA
	DD	imagerel ?dtor$2@?0???$?6_WU?$char_traits@_W@std@@@std@@YAAEAV?$basic_ostream@_WU?$char_traits@_W@std@@@0@AEAV10@PEB_W@Z@4HA+24
	DD	imagerel $unwind$?dtor$2@?0???$?6_WU?$char_traits@_W@std@@@std@@YAAEAV?$basic_ostream@_WU?$char_traits@_W@std@@@0@AEAV10@PEB_W@Z@4HA
pdata	ENDS
;	COMDAT xdata
xdata	SEGMENT
$ip2state$??$?6_WU?$char_traits@_W@std@@@std@@YAAEAV?$basic_ostream@_WU?$char_traits@_W@std@@@0@AEAV10@PEB_W@Z DD imagerel ??$?6_WU?$char_traits@_W@std@@@std@@YAAEAV?$basic_ostream@_WU?$char_traits@_W@std@@@0@AEAV10@PEB_W@Z
	DD	0ffffffffH
	DD	imagerel ??$?6_WU?$char_traits@_W@std@@@std@@YAAEAV?$basic_ostream@_WU?$char_traits@_W@std@@@0@AEAV10@PEB_W@Z+128
	DD	00H
	DD	imagerel ??$?6_WU?$char_traits@_W@std@@@std@@YAAEAV?$basic_ostream@_WU?$char_traits@_W@std@@@0@AEAV10@PEB_W@Z+177
	DD	01H
	DD	imagerel ??$?6_WU?$char_traits@_W@std@@@std@@YAAEAV?$basic_ostream@_WU?$char_traits@_W@std@@@0@AEAV10@PEB_W@Z+191
	DD	02H
	DD	imagerel ??$?6_WU?$char_traits@_W@std@@@std@@YAAEAV?$basic_ostream@_WU?$char_traits@_W@std@@@0@AEAV10@PEB_W@Z+387
	DD	01H
	DD	imagerel ??$?6_WU?$char_traits@_W@std@@@std@@YAAEAV?$basic_ostream@_WU?$char_traits@_W@std@@@0@AEAV10@PEB_W@Z+428
	DD	04H
	DD	imagerel ??$?6_WU?$char_traits@_W@std@@@std@@YAAEAV?$basic_ostream@_WU?$char_traits@_W@std@@@0@AEAV10@PEB_W@Z+448
	DD	0ffffffffH
	DD	imagerel ?catch$0@?0???$?6_WU?$char_traits@_W@std@@@std@@YAAEAV?$basic_ostream@_WU?$char_traits@_W@std@@@0@AEAV10@PEB_W@Z@4HA
	DD	00H
	DD	imagerel ?catch$0@?0???$?6_WU?$char_traits@_W@std@@@std@@YAAEAV?$basic_ostream@_WU?$char_traits@_W@std@@@0@AEAV10@PEB_W@Z@4HA+14
	DD	03H
	DD	imagerel ?catch$0@?0???$?6_WU?$char_traits@_W@std@@@std@@YAAEAV?$basic_ostream@_WU?$char_traits@_W@std@@@0@AEAV10@PEB_W@Z@4HA+43
	DD	00H
xdata	ENDS
;	COMDAT xdata
xdata	SEGMENT
$unwind$?dtor$2@?0???$?6_WU?$char_traits@_W@std@@@std@@YAAEAV?$basic_ostream@_WU?$char_traits@_W@std@@@0@AEAV10@PEB_W@Z@4HA DD 020601H
	DD	050023206H
xdata	ENDS
;	COMDAT xdata
xdata	SEGMENT
$unwind$?catch$0@?0???$?6_WU?$char_traits@_W@std@@@std@@YAAEAV?$basic_ostream@_WU?$char_traits@_W@std@@@0@AEAV10@PEB_W@Z@4HA DD 030b19H
	DD	05007420bH
	DD	03006H
	DD	imagerel __CxxFrameHandler3
	DD	imagerel $cppxdata$??$?6_WU?$char_traits@_W@std@@@std@@YAAEAV?$basic_ostream@_WU?$char_traits@_W@std@@@0@AEAV10@PEB_W@Z
xdata	ENDS
;	COMDAT xdata
xdata	SEGMENT
$unwind$?dtor$0@?0???$?6_WU?$char_traits@_W@std@@@std@@YAAEAV?$basic_ostream@_WU?$char_traits@_W@std@@@0@AEAV10@PEB_W@Z@4HA DD 020601H
	DD	050023206H
xdata	ENDS
;	COMDAT xdata
xdata	SEGMENT
$unwind$?dtor$1@?0???$?6_WU?$char_traits@_W@std@@@std@@YAAEAV?$basic_ostream@_WU?$char_traits@_W@std@@@0@AEAV10@PEB_W@Z@4HA DD 020601H
	DD	050023206H
xdata	ENDS
;	COMDAT xdata
xdata	SEGMENT
$unwind$??$?6_WU?$char_traits@_W@std@@@std@@YAAEAV?$basic_ostream@_WU?$char_traits@_W@std@@@0@AEAV10@PEB_W@Z DD 0a2819H
	DD	0116428H
	DD	0f3420H
	DD	0f00e7212H
	DD	0d00ae00cH
	DD	07006c008H
	DD	imagerel __CxxFrameHandler3
	DD	imagerel $cppxdata$??$?6_WU?$char_traits@_W@std@@@std@@YAAEAV?$basic_ostream@_WU?$char_traits@_W@std@@@0@AEAV10@PEB_W@Z
xdata	ENDS
;	COMDAT CONST
CONST	SEGMENT
$cppxdata$??$?6_WU?$char_traits@_W@std@@@std@@YAAEAV?$basic_ostream@_WU?$char_traits@_W@std@@@0@AEAV10@PEB_W@Z DD 019930522H
	DD	05H
	DD	imagerel $stateUnwindMap$??$?6_WU?$char_traits@_W@std@@@std@@YAAEAV?$basic_ostream@_WU?$char_traits@_W@std@@@0@AEAV10@PEB_W@Z
	DD	01H
	DD	imagerel $tryMap$??$?6_WU?$char_traits@_W@std@@@std@@YAAEAV?$basic_ostream@_WU?$char_traits@_W@std@@@0@AEAV10@PEB_W@Z
	DD	0aH
	DD	imagerel $ip2state$??$?6_WU?$char_traits@_W@std@@@std@@YAAEAV?$basic_ostream@_WU?$char_traits@_W@std@@@0@AEAV10@PEB_W@Z
	DD	020H
	DD	00H
	DD	01H
CONST	ENDS
;	COMDAT xdata
xdata	SEGMENT
$tryMap$??$?6_WU?$char_traits@_W@std@@@std@@YAAEAV?$basic_ostream@_WU?$char_traits@_W@std@@@0@AEAV10@PEB_W@Z DD 02H
	DD	02H
	DD	03H
	DD	01H
	DD	imagerel $handlerMap$0$??$?6_WU?$char_traits@_W@std@@@std@@YAAEAV?$basic_ostream@_WU?$char_traits@_W@std@@@0@AEAV10@PEB_W@Z
xdata	ENDS
;	COMDAT xdata
xdata	SEGMENT
$handlerMap$0$??$?6_WU?$char_traits@_W@std@@@std@@YAAEAV?$basic_ostream@_WU?$char_traits@_W@std@@@0@AEAV10@PEB_W@Z DD 040H
	DD	00H
	DD	00H
	DD	imagerel ?catch$0@?0???$?6_WU?$char_traits@_W@std@@@std@@YAAEAV?$basic_ostream@_WU?$char_traits@_W@std@@@0@AEAV10@PEB_W@Z@4HA
	DD	048H
xdata	ENDS
;	COMDAT xdata
xdata	SEGMENT
$stateUnwindMap$??$?6_WU?$char_traits@_W@std@@@std@@YAAEAV?$basic_ostream@_WU?$char_traits@_W@std@@@0@AEAV10@PEB_W@Z DD 0ffffffffH
	DD	imagerel ?dtor$1@?0???$?6_WU?$char_traits@_W@std@@@std@@YAAEAV?$basic_ostream@_WU?$char_traits@_W@std@@@0@AEAV10@PEB_W@Z@4HA
	DD	0ffffffffH
	DD	imagerel ?dtor$0@?0???$?6_WU?$char_traits@_W@std@@@std@@YAAEAV?$basic_ostream@_WU?$char_traits@_W@std@@@0@AEAV10@PEB_W@Z@4HA
	DD	01H
	DD	00H
	DD	01H
	DD	00H
	DD	0ffffffffH
	DD	imagerel ?dtor$2@?0???$?6_WU?$char_traits@_W@std@@@std@@YAAEAV?$basic_ostream@_WU?$char_traits@_W@std@@@0@AEAV10@PEB_W@Z@4HA
; Function compile flags: /Ogtpy
; File c:\program files\microsoft visual studio 9.0\vc\include\ostream
xdata	ENDS
;	COMDAT ??$?6_WU?$char_traits@_W@std@@@std@@YAAEAV?$basic_ostream@_WU?$char_traits@_W@std@@@0@AEAV10@PEB_W@Z
_TEXT	SEGMENT
$T146939 = 32
_Ok$ = 40
_Ostr$ = 112
_Val$ = 120
_State$ = 128
??$?6_WU?$char_traits@_W@std@@@std@@YAAEAV?$basic_ostream@_WU?$char_traits@_W@std@@@0@AEAV10@PEB_W@Z PROC ; std::operator<<<wchar_t,std::char_traits<wchar_t> >, COMDAT

; 827  : 	{	// insert NTCS

$LN99:
	mov	QWORD PTR [rsp+8], rcx
	push	rdi
	push	r12
	push	r13
	push	r14
	push	r15
	sub	rsp, 64					; 00000040H
	mov	QWORD PTR $T146939[rsp], -2
	mov	QWORD PTR [rsp+120], rbx
	mov	QWORD PTR [rsp+136], rsi
	mov	r15, rdx
	mov	rsi, rcx

; 828  : 	typedef basic_ostream<_Elem, _Traits> _Myos;
; 829  : 	ios_base::iostate _State = ios_base::goodbit;

	xor	ebx, ebx
	mov	DWORD PTR _State$[rsp], ebx

; 830  : 	streamsize _Count = (streamsize)_Traits::length(_Val);	// may overflow

	xor	eax, eax
	or	rcx, -1
	mov	rdi, rdx
	repne scasw
	not	rcx
	lea	r14, QWORD PTR [rcx-1]

; 831  : 	streamsize _Pad = _Ostr.width() <= 0 || _Ostr.width() <= _Count
; 832  : 		? 0 : _Ostr.width() - _Count;

	mov	rax, QWORD PTR [rsi]
	movsxd	rcx, DWORD PTR [rax+4]
	mov	rdi, QWORD PTR [rcx+rsi+40]
	test	rdi, rdi
	jle	SHORT $LN17@operator@2
	cmp	rdi, r14
	jle	SHORT $LN17@operator@2
	sub	rdi, r14
	jmp	SHORT $LN18@operator@2
$LN17@operator@2:
	xor	edi, edi
$LN18@operator@2:

; 833  : 	const typename _Myos::sentry _Ok(_Ostr);

	mov	r13, rsi
	mov	QWORD PTR _Ok$[rsp], rsi
	mov	rcx, QWORD PTR [rcx+rsi+72]
	test	rcx, rcx
	je	SHORT $LN36@operator@2
	call	QWORD PTR __imp_?_Lock@?$basic_streambuf@_WU?$char_traits@_W@std@@@std@@QEAAXXZ
	npad	1
$LN36@operator@2:
	mov	rax, QWORD PTR [rsi]
	movsxd	rcx, DWORD PTR [rax+4]
	cmp	DWORD PTR [rcx+rsi+16], 0
	jne	SHORT $LN32@operator@2
	mov	rcx, QWORD PTR [rcx+rsi+80]
	test	rcx, rcx
	je	SHORT $LN32@operator@2
	call	QWORD PTR __imp_?flush@?$basic_ostream@_WU?$char_traits@_W@std@@@std@@QEAAAEAV12@XZ
$LN32@operator@2:
	mov	rax, QWORD PTR [rsi]
	movsxd	rcx, DWORD PTR [rax+4]
	cmp	DWORD PTR [rcx+rsi+16], 0
	sete	al
	mov	BYTE PTR _Ok$[rsp+8], al

; 834  : 
; 835  : 	if (!_Ok)

	test	al, al
	jne	SHORT $LN14@operator@2

; 836  : 		_State |= ios_base::badbit;

	mov	ebx, 4

; 837  : 	else

	jmp	$LN22@operator@2
$LN14@operator@2:

; 838  : 		{	// state okay, insert
; 839  : 		_TRY_IO_BEGIN
; 840  : 		if ((_Ostr.flags() & ios_base::adjustfield) != ios_base::left)

	mov	eax, DWORD PTR [rcx+rsi+24]
	and	eax, 448				; 000001c0H
	cmp	eax, 64					; 00000040H
	je	SHORT $LN96@operator@2
	mov	r12d, 65535				; 0000ffffH
$LL10@operator@2:

; 841  : 			for (; 0 < _Pad; --_Pad)	// pad on left

	test	rdi, rdi
	jle	SHORT $LN8@operator@2

; 842  : 				if (_Traits::eq_int_type(_Traits::eof(),
; 843  : 					_Ostr.rdbuf()->sputc(_Ostr.fill())))

	mov	rax, QWORD PTR [rsi]
	movsxd	rcx, DWORD PTR [rax+4]
	movzx	edx, WORD PTR [rcx+rsi+88]
	mov	rcx, QWORD PTR [rcx+rsi+72]
	call	QWORD PTR __imp_?sputc@?$basic_streambuf@_WU?$char_traits@_W@std@@@std@@QEAAG_W@Z
	cmp	r12w, ax
	jne	SHORT $LN9@operator@2

; 844  : 					{	// insertion failed, quit
; 845  : 					_State |= ios_base::badbit;

	or	ebx, 4
	mov	DWORD PTR _State$[rsp], ebx

; 846  : 					break;

	jmp	SHORT $LN8@operator@2
$LN9@operator@2:

; 841  : 			for (; 0 < _Pad; --_Pad)	// pad on left

	dec	rdi
	jmp	SHORT $LL10@operator@2
$LN8@operator@2:

; 847  : 					}
; 848  : 
; 849  : 		if (_State == ios_base::goodbit
; 850  : 			&& _Ostr.rdbuf()->sputn(_Val, _Count) != _Count)

	test	ebx, ebx
	jne	SHORT $LN2@operator@2
	jmp	SHORT $LN92@operator@2
$LN96@operator@2:
	mov	r12d, 65535				; 0000ffffH
$LN92@operator@2:
	mov	rax, QWORD PTR [rsi]
	movsxd	rcx, DWORD PTR [rax+4]
	mov	r8, r14
	mov	rdx, r15
	mov	rcx, QWORD PTR [rcx+rsi+72]
	call	QWORD PTR __imp_?sputn@?$basic_streambuf@_WU?$char_traits@_W@std@@@std@@QEAA_JPEB_W_J@Z
	cmp	rax, r14
	je	SHORT $LL94@operator@2

; 851  : 			_State |= ios_base::badbit;

	mov	ebx, 4
	mov	DWORD PTR _State$[rsp], ebx

; 852  : 
; 853  : 		if (_State == ios_base::goodbit)

	jmp	SHORT $LN2@operator@2
	npad	3
$LL94@operator@2:

; 854  : 			for (; 0 < _Pad; --_Pad)	// pad on right

	test	rdi, rdi
	jle	SHORT $LN2@operator@2

; 855  : 				if (_Traits::eq_int_type(_Traits::eof(),
; 856  : 					_Ostr.rdbuf()->sputc(_Ostr.fill())))

	mov	rax, QWORD PTR [rsi]
	movsxd	rcx, DWORD PTR [rax+4]
	movzx	edx, WORD PTR [rcx+rsi+88]
	mov	rcx, QWORD PTR [rcx+rsi+72]
	call	QWORD PTR __imp_?sputc@?$basic_streambuf@_WU?$char_traits@_W@std@@@std@@QEAAG_W@Z
	cmp	r12w, ax
	jne	SHORT $LN3@operator@2

; 857  : 					{	// insertion failed, quit
; 858  : 					_State |= ios_base::badbit;

	or	ebx, 4
	mov	DWORD PTR _State$[rsp], ebx

; 859  : 					break;

	jmp	SHORT $LN2@operator@2
$LN3@operator@2:

; 854  : 			for (; 0 < _Pad; --_Pad)	// pad on right

	dec	rdi
	jmp	SHORT $LL94@operator@2
$LN2@operator@2:

; 860  : 					}
; 861  : 		_Ostr.width(0);

	mov	rax, QWORD PTR [rsi]
	movsxd	rcx, DWORD PTR [rax+4]
	mov	QWORD PTR [rcx+rsi+40], 0
	jmp	SHORT $LN22@operator@2
$LN23@operator@2:

; 862  : 		_CATCH_IO_(_Ostr)

	mov	rsi, QWORD PTR _Ostr$[rsp]
	mov	ebx, DWORD PTR _State$[rsp]
	mov	r13, QWORD PTR _Ok$[rsp]
$LN22@operator@2:

; 863  : 		}
; 864  : 
; 865  : 	_Ostr.setstate(_State);

	mov	rax, QWORD PTR [rsi]
	movsxd	rcx, DWORD PTR [rax+4]
	add	rcx, rsi
	xor	r8d, r8d
	mov	edx, ebx
	call	QWORD PTR __imp_?setstate@?$basic_ios@_WU?$char_traits@_W@std@@@std@@QEAAXH_N@Z
	npad	1

; 866  : 	return (_Ostr);

	call	QWORD PTR __imp_?uncaught_exception@std@@YA_NXZ
	test	al, al
	jne	SHORT $LN79@operator@2
	mov	rcx, r13
	call	QWORD PTR __imp_?_Osfx@?$basic_ostream@_WU?$char_traits@_W@std@@@std@@QEAAXXZ
	npad	1
$LN79@operator@2:
	mov	rax, QWORD PTR [r13]
	movsxd	rcx, DWORD PTR [rax+4]
	mov	rcx, QWORD PTR [rcx+r13+72]
	test	rcx, rcx
	je	SHORT $LN95@operator@2
	call	QWORD PTR __imp_?_Unlock@?$basic_streambuf@_WU?$char_traits@_W@std@@@std@@QEAAXXZ
	mov	rax, rsi
	jmp	SHORT $LN83@operator@2
$LN95@operator@2:
	mov	rax, rsi
$LN83@operator@2:

; 867  : 	}

	mov	rbx, QWORD PTR [rsp+120]
	mov	rsi, QWORD PTR [rsp+136]
	add	rsp, 64					; 00000040H
	pop	r15
	pop	r14
	pop	r13
	pop	r12
	pop	rdi
	ret	0
??$?6_WU?$char_traits@_W@std@@@std@@YAAEAV?$basic_ostream@_WU?$char_traits@_W@std@@@0@AEAV10@PEB_W@Z ENDP ; std::operator<<<wchar_t,std::char_traits<wchar_t> >
; Function compile flags: /Ogtpy
_TEXT	ENDS
;	COMDAT text$x
text$x	SEGMENT
$T146939 = 32
_Ok$ = 40
_Ostr$ = 112
_Val$ = 120
_State$ = 128
?dtor$1@?0???$?6_WU?$char_traits@_W@std@@@std@@YAAEAV?$basic_ostream@_WU?$char_traits@_W@std@@@0@AEAV10@PEB_W@Z@4HA PROC ; `std::operator<<<wchar_t,std::char_traits<wchar_t> >'::`1'::dtor$1
	push	rbp
	sub	rsp, 32					; 00000020H
	mov	rbp, rdx
	lea	rcx, QWORD PTR _Ok$[rbp]
	call	??1_Sentry_base@?$basic_ostream@_WU?$char_traits@_W@std@@@std@@QEAA@XZ ; std::basic_ostream<wchar_t,std::char_traits<wchar_t> >::_Sentry_base::~_Sentry_base
	add	rsp, 32					; 00000020H
	pop	rbp
	ret	0
?dtor$1@?0???$?6_WU?$char_traits@_W@std@@@std@@YAAEAV?$basic_ostream@_WU?$char_traits@_W@std@@@0@AEAV10@PEB_W@Z@4HA ENDP ; `std::operator<<<wchar_t,std::char_traits<wchar_t> >'::`1'::dtor$1
; Function compile flags: /Ogtpy
$T146939 = 32
_Ok$ = 40
_Ostr$ = 112
_Val$ = 120
_State$ = 128
?dtor$0@?0???$?6_WU?$char_traits@_W@std@@@std@@YAAEAV?$basic_ostream@_WU?$char_traits@_W@std@@@0@AEAV10@PEB_W@Z@4HA PROC ; `std::operator<<<wchar_t,std::char_traits<wchar_t> >'::`1'::dtor$0
	push	rbp
	sub	rsp, 32					; 00000020H
	mov	rbp, rdx
	lea	rcx, QWORD PTR _Ok$[rbp]
	call	??1sentry@?$basic_ostream@_WU?$char_traits@_W@std@@@std@@QEAA@XZ ; std::basic_ostream<wchar_t,std::char_traits<wchar_t> >::sentry::~sentry
	add	rsp, 32					; 00000020H
	pop	rbp
	ret	0
?dtor$0@?0???$?6_WU?$char_traits@_W@std@@@std@@YAAEAV?$basic_ostream@_WU?$char_traits@_W@std@@@0@AEAV10@PEB_W@Z@4HA ENDP ; `std::operator<<<wchar_t,std::char_traits<wchar_t> >'::`1'::dtor$0
; Function compile flags: /Ogtpy
$T146939 = 32
_Ok$ = 40
_Ostr$ = 112
_Val$ = 120
_State$ = 128
?catch$0@?0???$?6_WU?$char_traits@_W@std@@@std@@YAAEAV?$basic_ostream@_WU?$char_traits@_W@std@@@0@AEAV10@PEB_W@Z@4HA PROC ; `std::operator<<<wchar_t,std::char_traits<wchar_t> >'::`1'::catch$0

; 862  : 		_CATCH_IO_(_Ostr)

	mov	QWORD PTR [rsp+16], rdx
	push	rbx
	push	rbp
	sub	rsp, 40					; 00000028H
	mov	rbp, rdx
__catch$??$?6_WU?$char_traits@_W@std@@@std@@YAAEAV?$basic_ostream@_WU?$char_traits@_W@std@@@0@AEAV10@PEB_W@Z$0:
	mov	rdx, QWORD PTR _Ostr$[rbp]
	mov	rax, QWORD PTR [rdx]
	movsxd	rcx, DWORD PTR [rax+4]
	add	rcx, rdx
	mov	r8b, 1
	mov	edx, 4
	call	QWORD PTR __imp_?setstate@?$basic_ios@_WU?$char_traits@_W@std@@@std@@QEAAXH_N@Z
	npad	1
	lea	rax, $LN23@catch$0@2
	jmp	SHORT $LN98@catch$0@2
$LN98@catch$0@2:
	add	rsp, 40					; 00000028H
	pop	rbp
	pop	rbx
	ret	0
	int	3
?catch$0@?0???$?6_WU?$char_traits@_W@std@@@std@@YAAEAV?$basic_ostream@_WU?$char_traits@_W@std@@@0@AEAV10@PEB_W@Z@4HA ENDP ; `std::operator<<<wchar_t,std::char_traits<wchar_t> >'::`1'::catch$0
; Function compile flags: /Ogtpy
$T146939 = 32
_Ok$ = 40
_Ostr$ = 112
_Val$ = 120
_State$ = 128
?dtor$2@?0???$?6_WU?$char_traits@_W@std@@@std@@YAAEAV?$basic_ostream@_WU?$char_traits@_W@std@@@0@AEAV10@PEB_W@Z@4HA PROC ; `std::operator<<<wchar_t,std::char_traits<wchar_t> >'::`1'::dtor$2
	push	rbp
	sub	rsp, 32					; 00000020H

; 827  : 	{	// insert NTCS

	mov	rbp, rdx
	lea	rcx, QWORD PTR _Ok$[rbp]
	call	??1_Sentry_base@?$basic_ostream@_WU?$char_traits@_W@std@@@std@@QEAA@XZ ; std::basic_ostream<wchar_t,std::char_traits<wchar_t> >::_Sentry_base::~_Sentry_base
	add	rsp, 32					; 00000020H
	pop	rbp
	ret	0
?dtor$2@?0???$?6_WU?$char_traits@_W@std@@@std@@YAAEAV?$basic_ostream@_WU?$char_traits@_W@std@@@0@AEAV10@PEB_W@Z@4HA ENDP ; `std::operator<<<wchar_t,std::char_traits<wchar_t> >'::`1'::dtor$2
text$x	ENDS
;	COMDAT pdata
; File c:\program files\microsoft visual studio 9.0\vc\include\xlocale
pdata	SEGMENT
$pdata$??$use_facet@V?$ctype@_W@std@@@std@@YAAEBV?$ctype@_W@0@AEBVlocale@0@@Z DD imagerel $LN17
	DD	imagerel $LN17+203
	DD	imagerel $unwind$??$use_facet@V?$ctype@_W@std@@@std@@YAAEBV?$ctype@_W@0@AEBVlocale@0@@Z
pdata	ENDS
;	COMDAT pdata
pdata	SEGMENT
$pdata$?dtor$0@?0???$use_facet@V?$ctype@_W@std@@@std@@YAAEBV?$ctype@_W@0@AEBVlocale@0@@Z@4HA DD imagerel ?dtor$0@?0???$use_facet@V?$ctype@_W@std@@@std@@YAAEBV?$ctype@_W@0@AEBVlocale@0@@Z@4HA
	DD	imagerel ?dtor$0@?0???$use_facet@V?$ctype@_W@std@@@std@@YAAEBV?$ctype@_W@0@AEBVlocale@0@@Z@4HA+25
	DD	imagerel $unwind$?dtor$0@?0???$use_facet@V?$ctype@_W@std@@@std@@YAAEBV?$ctype@_W@0@AEBVlocale@0@@Z@4HA
pdata	ENDS
;	COMDAT xdata
xdata	SEGMENT
$ip2state$??$use_facet@V?$ctype@_W@std@@@std@@YAAEBV?$ctype@_W@0@AEBVlocale@0@@Z DD imagerel ??$use_facet@V?$ctype@_W@std@@@std@@YAAEBV?$ctype@_W@0@AEBVlocale@0@@Z
	DD	0ffffffffH
	DD	imagerel ??$use_facet@V?$ctype@_W@std@@@std@@YAAEBV?$ctype@_W@0@AEBVlocale@0@@Z+37
	DD	00H
	DD	imagerel ??$use_facet@V?$ctype@_W@std@@@std@@YAAEBV?$ctype@_W@0@AEBVlocale@0@@Z+178
	DD	0ffffffffH
xdata	ENDS
;	COMDAT xdata
xdata	SEGMENT
$unwind$?dtor$0@?0???$use_facet@V?$ctype@_W@std@@@std@@YAAEBV?$ctype@_W@0@AEBVlocale@0@@Z@4HA DD 020601H
	DD	050023206H
xdata	ENDS
;	COMDAT xdata
xdata	SEGMENT
$unwind$??$use_facet@V?$ctype@_W@std@@@std@@YAAEBV?$ctype@_W@0@AEBVlocale@0@@Z DD 041411H
	DD	0a3414H
	DD	070027206H
	DD	imagerel __CxxFrameHandler3
	DD	imagerel $cppxdata$??$use_facet@V?$ctype@_W@std@@@std@@YAAEBV?$ctype@_W@0@AEBVlocale@0@@Z
xdata	ENDS
;	COMDAT CONST
CONST	SEGMENT
$cppxdata$??$use_facet@V?$ctype@_W@std@@@std@@YAAEBV?$ctype@_W@0@AEBVlocale@0@@Z DD 019930522H
	DD	01H
	DD	imagerel $stateUnwindMap$??$use_facet@V?$ctype@_W@std@@@std@@YAAEBV?$ctype@_W@0@AEBVlocale@0@@Z
	DD	00H
	DD	00H
	DD	03H
	DD	imagerel $ip2state$??$use_facet@V?$ctype@_W@std@@@std@@YAAEBV?$ctype@_W@0@AEBVlocale@0@@Z
	DD	020H
	DD	00H
	DD	01H
CONST	ENDS
;	COMDAT xdata
xdata	SEGMENT
$stateUnwindMap$??$use_facet@V?$ctype@_W@std@@@std@@YAAEBV?$ctype@_W@0@AEBVlocale@0@@Z DD 0ffffffffH
	DD	imagerel ?dtor$0@?0???$use_facet@V?$ctype@_W@std@@@std@@YAAEBV?$ctype@_W@0@AEBVlocale@0@@Z@4HA
; Function compile flags: /Ogtpy
xdata	ENDS
;	COMDAT ??$use_facet@V?$ctype@_W@std@@@std@@YAAEBV?$ctype@_W@0@AEBVlocale@0@@Z
_TEXT	SEGMENT
$T146996 = 32
$T146977 = 40
_Loc$ = 80
_Lock$124022 = 88
_Psave$124023 = 96
??$use_facet@V?$ctype@_W@std@@@std@@YAAEBV?$ctype@_W@0@AEBVlocale@0@@Z PROC ; std::use_facet<std::ctype<wchar_t> >, COMDAT

; 486  : {	// get facet reference from locale

$LN17:
	push	rdi
	sub	rsp, 64					; 00000040H
	mov	QWORD PTR $T146996[rsp], -2
	mov	QWORD PTR [rsp+80], rbx
	mov	rdi, rcx

; 487  : 	_BEGIN_LOCK(_LOCK_LOCALE)	// the thread lock, make get atomic

	xor	edx, edx
	lea	rcx, QWORD PTR _Lock$124022[rsp]
	call	QWORD PTR __imp_??0_Lockit@std@@QEAA@H@Z
	npad	1

; 488  : 		const locale::facet *_Psave =
; 489  : 			_Facetptr<_Facet>::_Psave;	// static pointer to lazy facet

	mov	rax, QWORD PTR ?_Psave@?$_Facetptr@V?$ctype@_W@std@@@std@@2PEBVfacet@locale@2@EB ; std::_Facetptr<std::ctype<wchar_t> >::_Psave
	mov	QWORD PTR _Psave$124023[rsp], rax

; 490  : 
; 491  : 		size_t _Id = _Facet::id;

	mov	rcx, QWORD PTR __imp_?id@?$ctype@_W@std@@2V0locale@2@A
	call	QWORD PTR __imp_??Bid@locale@std@@QEAA_KXZ

; 492  : 		const locale::facet *_Pf = _Loc._Getfacet(_Id);

	mov	rdx, rax
	mov	rcx, rdi
	call	QWORD PTR __imp_?_Getfacet@locale@std@@QEBAPEBVfacet@12@_K@Z
	mov	rbx, rax

; 493  : 
; 494  : 		if (_Pf != 0)

	test	rax, rax
	jne	SHORT $LN14@use_facet

; 495  : 			;	// got facet from locale
; 496  : 		else if (_Psave != 0)

	mov	rbx, QWORD PTR _Psave$124023[rsp]
	test	rbx, rbx

; 497  : 			_Pf = _Psave;	// lazy facet already allocated

	jne	SHORT $LN14@use_facet

; 498  : 		else if (_Facet::_Getcat(&_Psave, &_Loc) == (size_t)(-1))

	mov	rdx, rdi
	lea	rcx, QWORD PTR _Psave$124023[rsp]
	call	QWORD PTR __imp_?_Getcat@?$ctype@_W@std@@SA_KPEAPEBVfacet@locale@2@PEBV42@@Z
	cmp	rax, -1
	jne	SHORT $LN2@use_facet

; 499  : 
; 500  :  #if _HAS_EXCEPTIONS
; 501  : 		_THROW_NCEE(bad_cast, _EMPTY_ARGUMENT);	// lazy disallowed

	lea	rdx, OFFSET FLAT:??_C@_08EPJLHIJG@bad?5cast?$AA@
	lea	rcx, QWORD PTR $T146977[rsp]
	call	QWORD PTR __imp_??0bad_cast@std@@QEAA@PEBD@Z
	lea	rdx, OFFSET FLAT:_TI2?AVbad_cast@std@@
	lea	rcx, QWORD PTR $T146977[rsp]
	call	_CxxThrowException
	int	3
$LN2@use_facet:

; 502  : 
; 503  : 	#else /* _HAS_EXCEPTIONS */
; 504  : 			abort();	// lazy disallowed
; 505  : 	#endif /* _HAS_EXCEPTIONS */
; 506  : 
; 507  : 		else
; 508  : 			{	// queue up lazy facet for destruction
; 509  : 			_Pf = _Psave;

	mov	rbx, QWORD PTR _Psave$124023[rsp]

; 510  : 			_Facetptr<_Facet>::_Psave = _Psave;

	mov	QWORD PTR ?_Psave@?$_Facetptr@V?$ctype@_W@std@@@std@@2PEBVfacet@locale@2@EB, rbx ; std::_Facetptr<std::ctype<wchar_t> >::_Psave

; 511  : 
; 512  : 			locale::facet *_Pfmod = (_Facet *)_Psave;
; 513  : 			_Pfmod->_Incref();

	mov	rcx, rbx
	call	QWORD PTR __imp_?_Incref@facet@locale@std@@QEAAXXZ

; 514  : 			_Pfmod->_Register();

	mov	rcx, rbx
	call	?facet_Register@facet@locale@std@@CAXPEAV123@@Z ; std::locale::facet::facet_Register
	npad	1
$LN14@use_facet:

; 515  : 			}
; 516  : 
; 517  : 		return ((const _Facet&)(*_Pf));	// should be dynamic_cast

	lea	rcx, QWORD PTR _Lock$124022[rsp]
	call	QWORD PTR __imp_??1_Lockit@std@@QEAA@XZ
	mov	rax, rbx

; 518  : 	_END_LOCK()
; 519  : 	}

	mov	rbx, QWORD PTR [rsp+80]
	add	rsp, 64					; 00000040H
	pop	rdi
	ret	0
$LN16@use_facet:
??$use_facet@V?$ctype@_W@std@@@std@@YAAEBV?$ctype@_W@0@AEBVlocale@0@@Z ENDP ; std::use_facet<std::ctype<wchar_t> >
; Function compile flags: /Ogtpy
_TEXT	ENDS
;	COMDAT text$x
text$x	SEGMENT
$T146996 = 32
$T146977 = 40
_Loc$ = 80
_Lock$124022 = 88
_Psave$124023 = 96
?dtor$0@?0???$use_facet@V?$ctype@_W@std@@@std@@YAAEBV?$ctype@_W@0@AEBVlocale@0@@Z@4HA PROC ; `std::use_facet<std::ctype<wchar_t> >'::`1'::dtor$0
	push	rbp
	sub	rsp, 32					; 00000020H
	mov	rbp, rdx
	lea	rcx, QWORD PTR _Lock$124022[rbp]
	call	QWORD PTR __imp_??1_Lockit@std@@QEAA@XZ
	add	rsp, 32					; 00000020H
	pop	rbp
	ret	0
?dtor$0@?0???$use_facet@V?$ctype@_W@std@@@std@@YAAEBV?$ctype@_W@0@AEBVlocale@0@@Z@4HA ENDP ; `std::use_facet<std::ctype<wchar_t> >'::`1'::dtor$0
; Function compile flags: /Ogtpy
text$x	ENDS
;	COMDAT ??0?$_Iterator_with_base@Urandom_access_iterator_tag@std@@V?$basic_string@_WU?$char_traits@_W@std@@V?$allocator@_W@2@@2@_JPEBV32@AEBV32@V_Iterator_base_aux@2@@std@@QEAA@XZ
_TEXT	SEGMENT
this$ = 8
??0?$_Iterator_with_base@Urandom_access_iterator_tag@std@@V?$basic_string@_WU?$char_traits@_W@std@@V?$allocator@_W@2@@2@_JPEBV32@AEBV32@V_Iterator_base_aux@2@@std@@QEAA@XZ PROC ; std::_Iterator_with_base<std::random_access_iterator_tag,std::basic_string<wchar_t,std::char_traits<wchar_t>,std::allocator<wchar_t> >,__int64,std::basic_string<wchar_t,std::char_traits<wchar_t>,std::allocator<wchar_t> > const * __ptr64,std::basic_string<wchar_t,std::char_traits<wchar_t>,std::allocator<wchar_t> > const & __ptr64,std::_Iterator_base_aux>::_Iterator_with_base<std::random_access_iterator_tag,std::basic_string<wchar_t,std::char_traits<wchar_t>,std::allocator<wchar_t> >,__int64,std::basic_string<wchar_t,std::char_traits<wchar_t>,std::allocator<wchar_t> > const * __ptr64,std::basic_string<wchar_t,std::char_traits<wchar_t>,std::allocator<wchar_t> > const & __ptr64,std::_Iterator_base_aux>, COMDAT
	mov	QWORD PTR [rcx], 0
	mov	rax, rcx
	ret	0
??0?$_Iterator_with_base@Urandom_access_iterator_tag@std@@V?$basic_string@_WU?$char_traits@_W@std@@V?$allocator@_W@2@@2@_JPEBV32@AEBV32@V_Iterator_base_aux@2@@std@@QEAA@XZ ENDP ; std::_Iterator_with_base<std::random_access_iterator_tag,std::basic_string<wchar_t,std::char_traits<wchar_t>,std::allocator<wchar_t> >,__int64,std::basic_string<wchar_t,std::char_traits<wchar_t>,std::allocator<wchar_t> > const * __ptr64,std::basic_string<wchar_t,std::char_traits<wchar_t>,std::allocator<wchar_t> > const & __ptr64,std::_Iterator_base_aux>::_Iterator_with_base<std::random_access_iterator_tag,std::basic_string<wchar_t,std::char_traits<wchar_t>,std::allocator<wchar_t> >,__int64,std::basic_string<wchar_t,std::char_traits<wchar_t>,std::allocator<wchar_t> > const * __ptr64,std::basic_string<wchar_t,std::char_traits<wchar_t>,std::allocator<wchar_t> > const & __ptr64,std::_Iterator_base_aux>
; Function compile flags: /Ogtpy
_TEXT	ENDS
;	COMDAT ??0?$_Iterator_with_base@Urandom_access_iterator_tag@std@@_W_JPEB_WAEB_WV_Iterator_base_aux@2@@std@@QEAA@XZ
_TEXT	SEGMENT
this$ = 8
??0?$_Iterator_with_base@Urandom_access_iterator_tag@std@@_W_JPEB_WAEB_WV_Iterator_base_aux@2@@std@@QEAA@XZ PROC ; std::_Iterator_with_base<std::random_access_iterator_tag,wchar_t,__int64,wchar_t const * __ptr64,wchar_t const & __ptr64,std::_Iterator_base_aux>::_Iterator_with_base<std::random_access_iterator_tag,wchar_t,__int64,wchar_t const * __ptr64,wchar_t const & __ptr64,std::_Iterator_base_aux>, COMDAT
	mov	QWORD PTR [rcx], 0
	mov	rax, rcx
	ret	0
??0?$_Iterator_with_base@Urandom_access_iterator_tag@std@@_W_JPEB_WAEB_WV_Iterator_base_aux@2@@std@@QEAA@XZ ENDP ; std::_Iterator_with_base<std::random_access_iterator_tag,wchar_t,__int64,wchar_t const * __ptr64,wchar_t const & __ptr64,std::_Iterator_base_aux>::_Iterator_with_base<std::random_access_iterator_tag,wchar_t,__int64,wchar_t const * __ptr64,wchar_t const & __ptr64,std::_Iterator_base_aux>
; Function compile flags: /Ogtpy
_TEXT	ENDS
;	COMDAT ??0?$_Ranit@V?$basic_string@_WU?$char_traits@_W@std@@V?$allocator@_W@2@@std@@_JPEBV12@AEBV12@@std@@QEAA@XZ
_TEXT	SEGMENT
this$ = 8
??0?$_Ranit@V?$basic_string@_WU?$char_traits@_W@std@@V?$allocator@_W@2@@std@@_JPEBV12@AEBV12@@std@@QEAA@XZ PROC ; std::_Ranit<std::basic_string<wchar_t,std::char_traits<wchar_t>,std::allocator<wchar_t> >,__int64,std::basic_string<wchar_t,std::char_traits<wchar_t>,std::allocator<wchar_t> > const * __ptr64,std::basic_string<wchar_t,std::char_traits<wchar_t>,std::allocator<wchar_t> > const & __ptr64>::_Ranit<std::basic_string<wchar_t,std::char_traits<wchar_t>,std::allocator<wchar_t> >,__int64,std::basic_string<wchar_t,std::char_traits<wchar_t>,std::allocator<wchar_t> > const * __ptr64,std::basic_string<wchar_t,std::char_traits<wchar_t>,std::allocator<wchar_t> > const & __ptr64>, COMDAT
	mov	QWORD PTR [rcx], 0
	mov	rax, rcx
	ret	0
??0?$_Ranit@V?$basic_string@_WU?$char_traits@_W@std@@V?$allocator@_W@2@@std@@_JPEBV12@AEBV12@@std@@QEAA@XZ ENDP ; std::_Ranit<std::basic_string<wchar_t,std::char_traits<wchar_t>,std::allocator<wchar_t> >,__int64,std::basic_string<wchar_t,std::char_traits<wchar_t>,std::allocator<wchar_t> > const * __ptr64,std::basic_string<wchar_t,std::char_traits<wchar_t>,std::allocator<wchar_t> > const & __ptr64>::_Ranit<std::basic_string<wchar_t,std::char_traits<wchar_t>,std::allocator<wchar_t> >,__int64,std::basic_string<wchar_t,std::char_traits<wchar_t>,std::allocator<wchar_t> > const * __ptr64,std::basic_string<wchar_t,std::char_traits<wchar_t>,std::allocator<wchar_t> > const & __ptr64>
; Function compile flags: /Ogtpy
_TEXT	ENDS
;	COMDAT ??0?$_Ranit@_W_JPEB_WAEB_W@std@@QEAA@XZ
_TEXT	SEGMENT
this$ = 8
??0?$_Ranit@_W_JPEB_WAEB_W@std@@QEAA@XZ PROC		; std::_Ranit<wchar_t,__int64,wchar_t const * __ptr64,wchar_t const & __ptr64>::_Ranit<wchar_t,__int64,wchar_t const * __ptr64,wchar_t const & __ptr64>, COMDAT
	mov	QWORD PTR [rcx], 0
	mov	rax, rcx
	ret	0
??0?$_Ranit@_W_JPEB_WAEB_W@std@@QEAA@XZ ENDP		; std::_Ranit<wchar_t,__int64,wchar_t const * __ptr64,wchar_t const & __ptr64>::_Ranit<wchar_t,__int64,wchar_t const * __ptr64,wchar_t const & __ptr64>
_TEXT	ENDS
;	COMDAT pdata
; File c:\program files\microsoft visual studio 9.0\vc\include\xutility
pdata	SEGMENT
$pdata$??0?$_Deque_const_iterator@V?$basic_string@_WU?$char_traits@_W@std@@V?$allocator@_W@2@@std@@V?$allocator@V?$basic_string@_WU?$char_traits@_W@std@@V?$allocator@_W@2@@std@@@2@$00@std@@QEAA@_KPEBV_Container_base_aux@1@@Z DD imagerel $LN17
	DD	imagerel $LN17+93
	DD	imagerel $unwind$??0?$_Deque_const_iterator@V?$basic_string@_WU?$char_traits@_W@std@@V?$allocator@_W@2@@std@@V?$allocator@V?$basic_string@_WU?$char_traits@_W@std@@V?$allocator@_W@2@@std@@@2@$00@std@@QEAA@_KPEBV_Container_base_aux@1@@Z
pdata	ENDS
;	COMDAT xdata
xdata	SEGMENT
$unwind$??0?$_Deque_const_iterator@V?$basic_string@_WU?$char_traits@_W@std@@V?$allocator@_W@2@@std@@V?$allocator@V?$basic_string@_WU?$char_traits@_W@std@@V?$allocator@_W@2@@std@@@2@$00@std@@QEAA@_KPEBV_Container_base_aux@1@@Z DD 060f01H
	DD	07640fH
	DD	06340fH
	DD	0700b320fH
; Function compile flags: /Ogtpy
; File c:\program files\microsoft visual studio 9.0\vc\include\deque
xdata	ENDS
;	COMDAT ??0?$_Deque_const_iterator@V?$basic_string@_WU?$char_traits@_W@std@@V?$allocator@_W@2@@std@@V?$allocator@V?$basic_string@_WU?$char_traits@_W@std@@V?$allocator@_W@2@@std@@@2@$00@std@@QEAA@_KPEBV_Container_base_aux@1@@Z
_TEXT	SEGMENT
this$ = 48
_Off$ = 56
_Pdeque$ = 64
??0?$_Deque_const_iterator@V?$basic_string@_WU?$char_traits@_W@std@@V?$allocator@_W@2@@std@@V?$allocator@V?$basic_string@_WU?$char_traits@_W@std@@V?$allocator@_W@2@@std@@@2@$00@std@@QEAA@_KPEBV_Container_base_aux@1@@Z PROC ; std::_Deque_const_iterator<std::basic_string<wchar_t,std::char_traits<wchar_t>,std::allocator<wchar_t> >,std::allocator<std::basic_string<wchar_t,std::char_traits<wchar_t>,std::allocator<wchar_t> > >,1>::_Deque_const_iterator<std::basic_string<wchar_t,std::char_traits<wchar_t>,std::allocator<wchar_t> >,std::allocator<std::basic_string<wchar_t,std::char_traits<wchar_t>,std::allocator<wchar_t> > >,1>, COMDAT

; 125  : 		_Deque_const_iterator(size_type _Off, const _Mydequebase *_Pdeque)

$LN17:
	mov	QWORD PTR [rsp+8], rbx
	mov	QWORD PTR [rsp+16], rsi
	push	rdi
	sub	rsp, 32					; 00000020H
	mov	rdi, r8
	mov	rsi, rdx
	mov	rbx, rcx
	mov	QWORD PTR [rcx], 0

; 126  : 			{	// construct with offset _Off in *_Pdeque
; 127  : 			_SCL_SECURE_TRAITS_VALIDATE(
; 128  : 				_Pdeque != NULL &&
; 129  : 				((_Mydeque *)_Pdeque)->_Myoff <= _Off && _Off <= (((_Mydeque *)_Pdeque)->_Myoff + ((_Mydeque *)_Pdeque)->_Mysize));

	test	r8, r8
	je	SHORT $LN4@Deque_cons
	mov	rcx, QWORD PTR [r8+48]
	cmp	rcx, rdx
	ja	SHORT $LN4@Deque_cons
	mov	rax, QWORD PTR [r8+56]
	lea	r9, QWORD PTR [rcx+rax]
	cmp	rdx, r9
	jbe	SHORT $LN3@Deque_cons
$LN4@Deque_cons:
	call	QWORD PTR __imp__invalid_parameter_noinfo
$LN3@Deque_cons:

; 130  : 				
; 131  : 			this->_Set_container(_Pdeque);

	mov	rax, QWORD PTR [rdi]

; 132  : 			_Myoff = _Off;

	mov	QWORD PTR [rbx+8], rsi

; 133  : 			}

	mov	rsi, QWORD PTR [rsp+56]
	mov	QWORD PTR [rbx], rax
	mov	rax, rbx
	mov	rbx, QWORD PTR [rsp+48]
	add	rsp, 32					; 00000020H
	pop	rdi
	ret	0
??0?$_Deque_const_iterator@V?$basic_string@_WU?$char_traits@_W@std@@V?$allocator@_W@2@@std@@V?$allocator@V?$basic_string@_WU?$char_traits@_W@std@@V?$allocator@_W@2@@std@@@2@$00@std@@QEAA@_KPEBV_Container_base_aux@1@@Z ENDP ; std::_Deque_const_iterator<std::basic_string<wchar_t,std::char_traits<wchar_t>,std::allocator<wchar_t> >,std::allocator<std::basic_string<wchar_t,std::char_traits<wchar_t>,std::allocator<wchar_t> > >,1>::_Deque_const_iterator<std::basic_string<wchar_t,std::char_traits<wchar_t>,std::allocator<wchar_t> >,std::allocator<std::basic_string<wchar_t,std::char_traits<wchar_t>,std::allocator<wchar_t> > >,1>
_TEXT	ENDS
;	COMDAT pdata
; File c:\program files\microsoft visual studio 9.0\vc\include\xutility
pdata	SEGMENT
$pdata$??0?$_Deque_const_iterator@_WV?$allocator@_W@std@@$00@std@@QEAA@_KPEBV_Container_base_aux@1@@Z DD imagerel $LN17
	DD	imagerel $LN17+93
	DD	imagerel $unwind$??0?$_Deque_const_iterator@_WV?$allocator@_W@std@@$00@std@@QEAA@_KPEBV_Container_base_aux@1@@Z
pdata	ENDS
;	COMDAT xdata
xdata	SEGMENT
$unwind$??0?$_Deque_const_iterator@_WV?$allocator@_W@std@@$00@std@@QEAA@_KPEBV_Container_base_aux@1@@Z DD 060f01H
	DD	07640fH
	DD	06340fH
	DD	0700b320fH
; Function compile flags: /Ogtpy
; File c:\program files\microsoft visual studio 9.0\vc\include\deque
xdata	ENDS
;	COMDAT ??0?$_Deque_const_iterator@_WV?$allocator@_W@std@@$00@std@@QEAA@_KPEBV_Container_base_aux@1@@Z
_TEXT	SEGMENT
this$ = 48
_Off$ = 56
_Pdeque$ = 64
??0?$_Deque_const_iterator@_WV?$allocator@_W@std@@$00@std@@QEAA@_KPEBV_Container_base_aux@1@@Z PROC ; std::_Deque_const_iterator<wchar_t,std::allocator<wchar_t>,1>::_Deque_const_iterator<wchar_t,std::allocator<wchar_t>,1>, COMDAT

; 125  : 		_Deque_const_iterator(size_type _Off, const _Mydequebase *_Pdeque)

$LN17:
	mov	QWORD PTR [rsp+8], rbx
	mov	QWORD PTR [rsp+16], rsi
	push	rdi
	sub	rsp, 32					; 00000020H
	mov	rdi, r8
	mov	rsi, rdx
	mov	rbx, rcx
	mov	QWORD PTR [rcx], 0

; 126  : 			{	// construct with offset _Off in *_Pdeque
; 127  : 			_SCL_SECURE_TRAITS_VALIDATE(
; 128  : 				_Pdeque != NULL &&
; 129  : 				((_Mydeque *)_Pdeque)->_Myoff <= _Off && _Off <= (((_Mydeque *)_Pdeque)->_Myoff + ((_Mydeque *)_Pdeque)->_Mysize));

	test	r8, r8
	je	SHORT $LN4@Deque_cons@2
	mov	rcx, QWORD PTR [r8+48]
	cmp	rcx, rdx
	ja	SHORT $LN4@Deque_cons@2
	mov	rax, QWORD PTR [r8+56]
	lea	r9, QWORD PTR [rcx+rax]
	cmp	rdx, r9
	jbe	SHORT $LN3@Deque_cons@2
$LN4@Deque_cons@2:
	call	QWORD PTR __imp__invalid_parameter_noinfo
$LN3@Deque_cons@2:

; 130  : 				
; 131  : 			this->_Set_container(_Pdeque);

	mov	rax, QWORD PTR [rdi]

; 132  : 			_Myoff = _Off;

	mov	QWORD PTR [rbx+8], rsi

; 133  : 			}

	mov	rsi, QWORD PTR [rsp+56]
	mov	QWORD PTR [rbx], rax
	mov	rax, rbx
	mov	rbx, QWORD PTR [rsp+48]
	add	rsp, 32					; 00000020H
	pop	rdi
	ret	0
??0?$_Deque_const_iterator@_WV?$allocator@_W@std@@$00@std@@QEAA@_KPEBV_Container_base_aux@1@@Z ENDP ; std::_Deque_const_iterator<wchar_t,std::allocator<wchar_t>,1>::_Deque_const_iterator<wchar_t,std::allocator<wchar_t>,1>
_TEXT	ENDS
;	COMDAT pdata
; File c:\program files\microsoft visual studio 9.0\vc\include\xutility
pdata	SEGMENT
$pdata$??0?$_Deque_iterator@V?$basic_string@_WU?$char_traits@_W@std@@V?$allocator@_W@2@@std@@V?$allocator@V?$basic_string@_WU?$char_traits@_W@std@@V?$allocator@_W@2@@std@@@2@$00@std@@QEAA@_KPEBV_Container_base_aux@1@@Z DD imagerel $LN19
	DD	imagerel $LN19+93
	DD	imagerel $unwind$??0?$_Deque_iterator@V?$basic_string@_WU?$char_traits@_W@std@@V?$allocator@_W@2@@std@@V?$allocator@V?$basic_string@_WU?$char_traits@_W@std@@V?$allocator@_W@2@@std@@@2@$00@std@@QEAA@_KPEBV_Container_base_aux@1@@Z
pdata	ENDS
;	COMDAT xdata
xdata	SEGMENT
$unwind$??0?$_Deque_iterator@V?$basic_string@_WU?$char_traits@_W@std@@V?$allocator@_W@2@@std@@V?$allocator@V?$basic_string@_WU?$char_traits@_W@std@@V?$allocator@_W@2@@std@@@2@$00@std@@QEAA@_KPEBV_Container_base_aux@1@@Z DD 060f01H
	DD	07640fH
	DD	06340fH
	DD	0700b320fH
; Function compile flags: /Ogtpy
; File c:\program files\microsoft visual studio 9.0\vc\include\deque
xdata	ENDS
;	COMDAT ??0?$_Deque_iterator@V?$basic_string@_WU?$char_traits@_W@std@@V?$allocator@_W@2@@std@@V?$allocator@V?$basic_string@_WU?$char_traits@_W@std@@V?$allocator@_W@2@@std@@@2@$00@std@@QEAA@_KPEBV_Container_base_aux@1@@Z
_TEXT	SEGMENT
this$ = 48
_Off$ = 56
_Pdeque$ = 64
??0?$_Deque_iterator@V?$basic_string@_WU?$char_traits@_W@std@@V?$allocator@_W@2@@std@@V?$allocator@V?$basic_string@_WU?$char_traits@_W@std@@V?$allocator@_W@2@@std@@@2@$00@std@@QEAA@_KPEBV_Container_base_aux@1@@Z PROC ; std::_Deque_iterator<std::basic_string<wchar_t,std::char_traits<wchar_t>,std::allocator<wchar_t> >,std::allocator<std::basic_string<wchar_t,std::char_traits<wchar_t>,std::allocator<wchar_t> > >,1>::_Deque_iterator<std::basic_string<wchar_t,std::char_traits<wchar_t>,std::allocator<wchar_t> >,std::allocator<std::basic_string<wchar_t,std::char_traits<wchar_t>,std::allocator<wchar_t> > >,1>, COMDAT

; 381  : 		{	// construct with offset _Off in *_Pdeque

$LN19:
	mov	QWORD PTR [rsp+8], rbx
	mov	QWORD PTR [rsp+16], rsi
	push	rdi
	sub	rsp, 32					; 00000020H
	mov	rdi, r8
	mov	rsi, rdx
	mov	rbx, rcx
	mov	QWORD PTR [rcx], 0
	test	r8, r8
	je	SHORT $LN6@Deque_iter
	mov	rcx, QWORD PTR [r8+48]
	cmp	rcx, rdx
	ja	SHORT $LN6@Deque_iter
	mov	rax, QWORD PTR [r8+56]
	lea	r9, QWORD PTR [rcx+rax]
	cmp	rdx, r9
	jbe	SHORT $LN5@Deque_iter
$LN6@Deque_iter:
	call	QWORD PTR __imp__invalid_parameter_noinfo
$LN5@Deque_iter:
	mov	rax, QWORD PTR [rdi]
	mov	QWORD PTR [rbx+8], rsi

; 382  : 		}

	mov	rsi, QWORD PTR [rsp+56]
	mov	QWORD PTR [rbx], rax
	mov	rax, rbx
	mov	rbx, QWORD PTR [rsp+48]
	add	rsp, 32					; 00000020H
	pop	rdi
	ret	0
??0?$_Deque_iterator@V?$basic_string@_WU?$char_traits@_W@std@@V?$allocator@_W@2@@std@@V?$allocator@V?$basic_string@_WU?$char_traits@_W@std@@V?$allocator@_W@2@@std@@@2@$00@std@@QEAA@_KPEBV_Container_base_aux@1@@Z ENDP ; std::_Deque_iterator<std::basic_string<wchar_t,std::char_traits<wchar_t>,std::allocator<wchar_t> >,std::allocator<std::basic_string<wchar_t,std::char_traits<wchar_t>,std::allocator<wchar_t> > >,1>::_Deque_iterator<std::basic_string<wchar_t,std::char_traits<wchar_t>,std::allocator<wchar_t> >,std::allocator<std::basic_string<wchar_t,std::char_traits<wchar_t>,std::allocator<wchar_t> > >,1>
_TEXT	ENDS
;	COMDAT pdata
; File c:\program files\microsoft visual studio 9.0\vc\include\xutility
pdata	SEGMENT
$pdata$??0?$_Deque_iterator@_WV?$allocator@_W@std@@$00@std@@QEAA@_KPEBV_Container_base_aux@1@@Z DD imagerel $LN19
	DD	imagerel $LN19+93
	DD	imagerel $unwind$??0?$_Deque_iterator@_WV?$allocator@_W@std@@$00@std@@QEAA@_KPEBV_Container_base_aux@1@@Z
pdata	ENDS
;	COMDAT xdata
xdata	SEGMENT
$unwind$??0?$_Deque_iterator@_WV?$allocator@_W@std@@$00@std@@QEAA@_KPEBV_Container_base_aux@1@@Z DD 060f01H
	DD	07640fH
	DD	06340fH
	DD	0700b320fH
; Function compile flags: /Ogtpy
; File c:\program files\microsoft visual studio 9.0\vc\include\deque
xdata	ENDS
;	COMDAT ??0?$_Deque_iterator@_WV?$allocator@_W@std@@$00@std@@QEAA@_KPEBV_Container_base_aux@1@@Z
_TEXT	SEGMENT
this$ = 48
_Off$ = 56
_Pdeque$ = 64
??0?$_Deque_iterator@_WV?$allocator@_W@std@@$00@std@@QEAA@_KPEBV_Container_base_aux@1@@Z PROC ; std::_Deque_iterator<wchar_t,std::allocator<wchar_t>,1>::_Deque_iterator<wchar_t,std::allocator<wchar_t>,1>, COMDAT

; 381  : 		{	// construct with offset _Off in *_Pdeque

$LN19:
	mov	QWORD PTR [rsp+8], rbx
	mov	QWORD PTR [rsp+16], rsi
	push	rdi
	sub	rsp, 32					; 00000020H
	mov	rdi, r8
	mov	rsi, rdx
	mov	rbx, rcx
	mov	QWORD PTR [rcx], 0
	test	r8, r8
	je	SHORT $LN6@Deque_iter@2
	mov	rcx, QWORD PTR [r8+48]
	cmp	rcx, rdx
	ja	SHORT $LN6@Deque_iter@2
	mov	rax, QWORD PTR [r8+56]
	lea	r9, QWORD PTR [rcx+rax]
	cmp	rdx, r9
	jbe	SHORT $LN5@Deque_iter@2
$LN6@Deque_iter@2:
	call	QWORD PTR __imp__invalid_parameter_noinfo
$LN5@Deque_iter@2:
	mov	rax, QWORD PTR [rdi]
	mov	QWORD PTR [rbx+8], rsi

; 382  : 		}

	mov	rsi, QWORD PTR [rsp+56]
	mov	QWORD PTR [rbx], rax
	mov	rax, rbx
	mov	rbx, QWORD PTR [rsp+48]
	add	rsp, 32					; 00000020H
	pop	rdi
	ret	0
??0?$_Deque_iterator@_WV?$allocator@_W@std@@$00@std@@QEAA@_KPEBV_Container_base_aux@1@@Z ENDP ; std::_Deque_iterator<wchar_t,std::allocator<wchar_t>,1>::_Deque_iterator<wchar_t,std::allocator<wchar_t>,1>
_TEXT	ENDS
;	COMDAT pdata
; File c:\program files\microsoft visual studio 9.0\vc\include\exception
pdata	SEGMENT
$pdata$?allocate@?$allocator@PEAV?$basic_string@_WU?$char_traits@_W@std@@V?$allocator@_W@2@@std@@@std@@QEAAPEAPEAV?$basic_string@_WU?$char_traits@_W@std@@V?$allocator@_W@2@@2@_K@Z DD imagerel $LN12
	DD	imagerel $LN12+99
	DD	imagerel $unwind$?allocate@?$allocator@PEAV?$basic_string@_WU?$char_traits@_W@std@@V?$allocator@_W@2@@std@@@std@@QEAAPEAPEAV?$basic_string@_WU?$char_traits@_W@std@@V?$allocator@_W@2@@2@_K@Z
pdata	ENDS
;	COMDAT xdata
xdata	SEGMENT
$unwind$?allocate@?$allocator@PEAV?$basic_string@_WU?$char_traits@_W@std@@V?$allocator@_W@2@@std@@@std@@QEAAPEAPEAV?$basic_string@_WU?$char_traits@_W@std@@V?$allocator@_W@2@@2@_K@Z DD 010401H
	DD	08204H
; Function compile flags: /Ogtpy
; File c:\program files\microsoft visual studio 9.0\vc\include\xmemory
xdata	ENDS
;	COMDAT ?allocate@?$allocator@PEAV?$basic_string@_WU?$char_traits@_W@std@@V?$allocator@_W@2@@std@@@std@@QEAAPEAPEAV?$basic_string@_WU?$char_traits@_W@std@@V?$allocator@_W@2@@2@_K@Z
_TEXT	SEGMENT
$T147221 = 32
this$ = 80
$T147219 = 88
_Count$ = 88
?allocate@?$allocator@PEAV?$basic_string@_WU?$char_traits@_W@std@@V?$allocator@_W@2@@std@@@std@@QEAAPEAPEAV?$basic_string@_WU?$char_traits@_W@std@@V?$allocator@_W@2@@2@_K@Z PROC ; std::allocator<std::basic_string<wchar_t,std::char_traits<wchar_t>,std::allocator<wchar_t> > * __ptr64>::allocate, COMDAT

; 144  : 		{	// allocate array of _Count elements

$LN12:
	sub	rsp, 72					; 00000048H
	mov	r8, rdx

; 145  : 		return (_Allocate(_Count, (pointer)0));

	test	rdx, rdx
	jne	SHORT $LN5@allocate
$LN3@allocate:
	lea	rcx, QWORD PTR [r8*8]
	call	??2@YAPEAX_K@Z				; operator new

; 146  : 		}

	add	rsp, 72					; 00000048H
	ret	0

; 145  : 		return (_Allocate(_Count, (pointer)0));

$LN5@allocate:
	xor	edx, edx
	or	rax, -1
	div	r8
	cmp	rax, 8
	jae	SHORT $LN3@allocate
	xor	r8d, r8d
	lea	rdx, QWORD PTR $T147219[rsp]
	lea	rcx, QWORD PTR $T147221[rsp]
	mov	QWORD PTR $T147219[rsp], r8
	call	QWORD PTR __imp_??0exception@std@@QEAA@AEBQEBD@Z
	lea	r11, OFFSET FLAT:??_7bad_alloc@std@@6B@
	lea	rdx, OFFSET FLAT:_TI2?AVbad_alloc@std@@
	lea	rcx, QWORD PTR $T147221[rsp]
	mov	QWORD PTR $T147221[rsp], r11
	call	_CxxThrowException
	int	3
$LN11@allocate:
?allocate@?$allocator@PEAV?$basic_string@_WU?$char_traits@_W@std@@V?$allocator@_W@2@@std@@@std@@QEAAPEAPEAV?$basic_string@_WU?$char_traits@_W@std@@V?$allocator@_W@2@@2@_K@Z ENDP ; std::allocator<std::basic_string<wchar_t,std::char_traits<wchar_t>,std::allocator<wchar_t> > * __ptr64>::allocate
_TEXT	ENDS
;	COMDAT pdata
; File c:\program files\microsoft visual studio 9.0\vc\include\exception
pdata	SEGMENT
$pdata$?allocate@?$allocator@PEA_W@std@@QEAAPEAPEA_W_K@Z DD imagerel $LN12
	DD	imagerel $LN12+99
	DD	imagerel $unwind$?allocate@?$allocator@PEA_W@std@@QEAAPEAPEA_W_K@Z
pdata	ENDS
;	COMDAT xdata
xdata	SEGMENT
$unwind$?allocate@?$allocator@PEA_W@std@@QEAAPEAPEA_W_K@Z DD 010401H
	DD	08204H
; Function compile flags: /Ogtpy
; File c:\program files\microsoft visual studio 9.0\vc\include\xmemory
xdata	ENDS
;	COMDAT ?allocate@?$allocator@PEA_W@std@@QEAAPEAPEA_W_K@Z
_TEXT	SEGMENT
$T147250 = 32
this$ = 80
$T147248 = 88
_Count$ = 88
?allocate@?$allocator@PEA_W@std@@QEAAPEAPEA_W_K@Z PROC	; std::allocator<wchar_t * __ptr64>::allocate, COMDAT

; 144  : 		{	// allocate array of _Count elements

$LN12:
	sub	rsp, 72					; 00000048H
	mov	r8, rdx

; 145  : 		return (_Allocate(_Count, (pointer)0));

	test	rdx, rdx
	jne	SHORT $LN5@allocate@2
$LN3@allocate@2:
	lea	rcx, QWORD PTR [r8*8]
	call	??2@YAPEAX_K@Z				; operator new

; 146  : 		}

	add	rsp, 72					; 00000048H
	ret	0

; 145  : 		return (_Allocate(_Count, (pointer)0));

$LN5@allocate@2:
	xor	edx, edx
	or	rax, -1
	div	r8
	cmp	rax, 8
	jae	SHORT $LN3@allocate@2
	xor	r8d, r8d
	lea	rdx, QWORD PTR $T147248[rsp]
	lea	rcx, QWORD PTR $T147250[rsp]
	mov	QWORD PTR $T147248[rsp], r8
	call	QWORD PTR __imp_??0exception@std@@QEAA@AEBQEBD@Z
	lea	r11, OFFSET FLAT:??_7bad_alloc@std@@6B@
	lea	rdx, OFFSET FLAT:_TI2?AVbad_alloc@std@@
	lea	rcx, QWORD PTR $T147250[rsp]
	mov	QWORD PTR $T147250[rsp], r11
	call	_CxxThrowException
	int	3
$LN11@allocate@2:
?allocate@?$allocator@PEA_W@std@@QEAAPEAPEA_W_K@Z ENDP	; std::allocator<wchar_t * __ptr64>::allocate
_TEXT	ENDS
;	COMDAT pdata
; File c:\program files\microsoft visual studio 9.0\vc\include\new
pdata	SEGMENT
$pdata$?construct@?$allocator@V?$basic_string@_WU?$char_traits@_W@std@@V?$allocator@_W@2@@std@@@std@@QEAAXPEAV?$basic_string@_WU?$char_traits@_W@std@@V?$allocator@_W@2@@2@AEBV32@@Z DD imagerel $LN11
	DD	imagerel $LN11+51
	DD	imagerel $unwind$?construct@?$allocator@V?$basic_string@_WU?$char_traits@_W@std@@V?$allocator@_W@2@@std@@@std@@QEAAXPEAV?$basic_string@_WU?$char_traits@_W@std@@V?$allocator@_W@2@@2@AEBV32@@Z
pdata	ENDS
;	COMDAT pdata
pdata	SEGMENT
$pdata$?dtor$0@?0??construct@?$allocator@V?$basic_string@_WU?$char_traits@_W@std@@V?$allocator@_W@2@@std@@@std@@QEAAXPEAV?$basic_string@_WU?$char_traits@_W@std@@V?$allocator@_W@2@@2@AEBV32@@Z@4HA DD imagerel ?dtor$0@?0??construct@?$allocator@V?$basic_string@_WU?$char_traits@_W@std@@V?$allocator@_W@2@@std@@@std@@QEAAXPEAV?$basic_string@_WU?$char_traits@_W@std@@V?$allocator@_W@2@@2@AEBV32@@Z@4HA
	DD	imagerel ?dtor$0@?0??construct@?$allocator@V?$basic_string@_WU?$char_traits@_W@std@@V?$allocator@_W@2@@std@@@std@@QEAAXPEAV?$basic_string@_WU?$char_traits@_W@std@@V?$allocator@_W@2@@2@AEBV32@@Z@4HA+28
	DD	imagerel $unwind$?dtor$0@?0??construct@?$allocator@V?$basic_string@_WU?$char_traits@_W@std@@V?$allocator@_W@2@@std@@@std@@QEAAXPEAV?$basic_string@_WU?$char_traits@_W@std@@V?$allocator@_W@2@@2@AEBV32@@Z@4HA
pdata	ENDS
;	COMDAT xdata
xdata	SEGMENT
$ip2state$?construct@?$allocator@V?$basic_string@_WU?$char_traits@_W@std@@V?$allocator@_W@2@@std@@@std@@QEAAXPEAV?$basic_string@_WU?$char_traits@_W@std@@V?$allocator@_W@2@@2@AEBV32@@Z DD imagerel ?construct@?$allocator@V?$basic_string@_WU?$char_traits@_W@std@@V?$allocator@_W@2@@std@@@std@@QEAAXPEAV?$basic_string@_WU?$char_traits@_W@std@@V?$allocator@_W@2@@2@AEBV32@@Z
	DD	0ffffffffH
	DD	imagerel ?construct@?$allocator@V?$basic_string@_WU?$char_traits@_W@std@@V?$allocator@_W@2@@std@@@std@@QEAAXPEAV?$basic_string@_WU?$char_traits@_W@std@@V?$allocator@_W@2@@2@AEBV32@@Z+26
	DD	00H
	DD	imagerel ?construct@?$allocator@V?$basic_string@_WU?$char_traits@_W@std@@V?$allocator@_W@2@@std@@@std@@QEAAXPEAV?$basic_string@_WU?$char_traits@_W@std@@V?$allocator@_W@2@@2@AEBV32@@Z+44
	DD	0ffffffffH
xdata	ENDS
;	COMDAT xdata
xdata	SEGMENT
$unwind$?dtor$0@?0??construct@?$allocator@V?$basic_string@_WU?$char_traits@_W@std@@V?$allocator@_W@2@@std@@@std@@QEAAXPEAV?$basic_string@_WU?$char_traits@_W@std@@V?$allocator@_W@2@@2@AEBV32@@Z@4HA DD 020601H
	DD	050023206H
xdata	ENDS
;	COMDAT xdata
xdata	SEGMENT
$unwind$?construct@?$allocator@V?$basic_string@_WU?$char_traits@_W@std@@V?$allocator@_W@2@@std@@@std@@QEAAXPEAV?$basic_string@_WU?$char_traits@_W@std@@V?$allocator@_W@2@@2@AEBV32@@Z DD 010d11H
	DD	06204H
	DD	imagerel __CxxFrameHandler3
	DD	imagerel $cppxdata$?construct@?$allocator@V?$basic_string@_WU?$char_traits@_W@std@@V?$allocator@_W@2@@std@@@std@@QEAAXPEAV?$basic_string@_WU?$char_traits@_W@std@@V?$allocator@_W@2@@2@AEBV32@@Z
xdata	ENDS
;	COMDAT CONST
CONST	SEGMENT
$cppxdata$?construct@?$allocator@V?$basic_string@_WU?$char_traits@_W@std@@V?$allocator@_W@2@@std@@@std@@QEAAXPEAV?$basic_string@_WU?$char_traits@_W@std@@V?$allocator@_W@2@@2@AEBV32@@Z DD 019930522H
	DD	01H
	DD	imagerel $stateUnwindMap$?construct@?$allocator@V?$basic_string@_WU?$char_traits@_W@std@@V?$allocator@_W@2@@std@@@std@@QEAAXPEAV?$basic_string@_WU?$char_traits@_W@std@@V?$allocator@_W@2@@2@AEBV32@@Z
	DD	00H
	DD	00H
	DD	03H
	DD	imagerel $ip2state$?construct@?$allocator@V?$basic_string@_WU?$char_traits@_W@std@@V?$allocator@_W@2@@std@@@std@@QEAAXPEAV?$basic_string@_WU?$char_traits@_W@std@@V?$allocator@_W@2@@2@AEBV32@@Z
	DD	020H
	DD	00H
	DD	01H
CONST	ENDS
;	COMDAT xdata
xdata	SEGMENT
$stateUnwindMap$?construct@?$allocator@V?$basic_string@_WU?$char_traits@_W@std@@V?$allocator@_W@2@@std@@@std@@QEAAXPEAV?$basic_string@_WU?$char_traits@_W@std@@V?$allocator@_W@2@@2@AEBV32@@Z DD 0ffffffffH
	DD	imagerel ?dtor$0@?0??construct@?$allocator@V?$basic_string@_WU?$char_traits@_W@std@@V?$allocator@_W@2@@std@@@std@@QEAAXPEAV?$basic_string@_WU?$char_traits@_W@std@@V?$allocator@_W@2@@2@AEBV32@@Z@4HA
; Function compile flags: /Ogtpy
; File c:\program files\microsoft visual studio 9.0\vc\include\xmemory
xdata	ENDS
;	COMDAT ?construct@?$allocator@V?$basic_string@_WU?$char_traits@_W@std@@V?$allocator@_W@2@@std@@@std@@QEAAXPEAV?$basic_string@_WU?$char_traits@_W@std@@V?$allocator@_W@2@@2@AEBV32@@Z
_TEXT	SEGMENT
$T147297 = 32
this$ = 64
_Vptr$147292 = 72
_Ptr$ = 72
_Val$ = 80
$T147286 = 88
?construct@?$allocator@V?$basic_string@_WU?$char_traits@_W@std@@V?$allocator@_W@2@@std@@@std@@QEAAXPEAV?$basic_string@_WU?$char_traits@_W@std@@V?$allocator@_W@2@@2@AEBV32@@Z PROC ; std::allocator<std::basic_string<wchar_t,std::char_traits<wchar_t>,std::allocator<wchar_t> > >::construct, COMDAT

; 154  : 		{	// construct object at _Ptr with value _Val

$LN11:
	sub	rsp, 56					; 00000038H
	mov	QWORD PTR $T147297[rsp], -2
	mov	rax, rdx

; 155  : 		_Construct(_Ptr, _Val);

	mov	QWORD PTR _Vptr$147292[rsp], rdx
	mov	QWORD PTR $T147286[rsp], rdx
	test	rdx, rdx
	je	SHORT $LN10@construct
	mov	rdx, r8
	mov	rcx, rax
	call	QWORD PTR __imp_??0?$basic_string@_WU?$char_traits@_W@std@@V?$allocator@_W@2@@std@@QEAA@AEBV01@@Z
	npad	1
	jmp	SHORT $LN5@construct
$LN10@construct:
$LN5@construct:

; 156  : 		}

	add	rsp, 56					; 00000038H
	ret	0
?construct@?$allocator@V?$basic_string@_WU?$char_traits@_W@std@@V?$allocator@_W@2@@std@@@std@@QEAAXPEAV?$basic_string@_WU?$char_traits@_W@std@@V?$allocator@_W@2@@2@AEBV32@@Z ENDP ; std::allocator<std::basic_string<wchar_t,std::char_traits<wchar_t>,std::allocator<wchar_t> > >::construct
; Function compile flags: /Ogtpy
_TEXT	ENDS
;	COMDAT text$x
text$x	SEGMENT
$T147297 = 32
this$ = 64
_Vptr$147292 = 72
_Ptr$ = 72
_Val$ = 80
$T147286 = 88
?dtor$0@?0??construct@?$allocator@V?$basic_string@_WU?$char_traits@_W@std@@V?$allocator@_W@2@@std@@@std@@QEAAXPEAV?$basic_string@_WU?$char_traits@_W@std@@V?$allocator@_W@2@@2@AEBV32@@Z@4HA PROC ; `std::allocator<std::basic_string<wchar_t,std::char_traits<wchar_t>,std::allocator<wchar_t> > >::construct'::`1'::dtor$0
	push	rbp
	sub	rsp, 32					; 00000020H
	mov	rbp, rdx
	mov	rdx, QWORD PTR _Vptr$147292[rbp]
	mov	rcx, QWORD PTR $T147286[rbp]
	call	??3@YAXPEAX0@Z				; operator delete
	add	rsp, 32					; 00000020H
	pop	rbp
	ret	0
?dtor$0@?0??construct@?$allocator@V?$basic_string@_WU?$char_traits@_W@std@@V?$allocator@_W@2@@std@@@std@@QEAAXPEAV?$basic_string@_WU?$char_traits@_W@std@@V?$allocator@_W@2@@2@AEBV32@@Z@4HA ENDP ; `std::allocator<std::basic_string<wchar_t,std::char_traits<wchar_t>,std::allocator<wchar_t> > >::construct'::`1'::dtor$0
text$x	ENDS
;	COMDAT pdata
; File c:\program files\microsoft visual studio 9.0\vc\include\exception
pdata	SEGMENT
$pdata$?allocate@?$allocator@V?$basic_string@_WU?$char_traits@_W@std@@V?$allocator@_W@2@@std@@@std@@QEAAPEAV?$basic_string@_WU?$char_traits@_W@std@@V?$allocator@_W@2@@2@_K@Z DD imagerel $LN11
	DD	imagerel $LN11+19
	DD	imagerel $unwind$?allocate@?$allocator@V?$basic_string@_WU?$char_traits@_W@std@@V?$allocator@_W@2@@std@@@std@@QEAAPEAV?$basic_string@_WU?$char_traits@_W@std@@V?$allocator@_W@2@@2@_K@Z
pdata	ENDS
;	COMDAT xdata
xdata	SEGMENT
$unwind$?allocate@?$allocator@V?$basic_string@_WU?$char_traits@_W@std@@V?$allocator@_W@2@@std@@@std@@QEAAPEAV?$basic_string@_WU?$char_traits@_W@std@@V?$allocator@_W@2@@2@_K@Z DD 010401H
	DD	04204H
; Function compile flags: /Ogtpy
; File c:\program files\microsoft visual studio 9.0\vc\include\xmemory
xdata	ENDS
;	COMDAT ?allocate@?$allocator@V?$basic_string@_WU?$char_traits@_W@std@@V?$allocator@_W@2@@std@@@std@@QEAAPEAV?$basic_string@_WU?$char_traits@_W@std@@V?$allocator@_W@2@@2@_K@Z
_TEXT	SEGMENT
this$ = 48
_Count$ = 56
?allocate@?$allocator@V?$basic_string@_WU?$char_traits@_W@std@@V?$allocator@_W@2@@std@@@std@@QEAAPEAV?$basic_string@_WU?$char_traits@_W@std@@V?$allocator@_W@2@@2@_K@Z PROC ; std::allocator<std::basic_string<wchar_t,std::char_traits<wchar_t>,std::allocator<wchar_t> > >::allocate, COMDAT

; 144  : 		{	// allocate array of _Count elements

$LN11:
	sub	rsp, 40					; 00000028H

; 145  : 		return (_Allocate(_Count, (pointer)0));

	mov	ecx, 40					; 00000028H
	call	??2@YAPEAX_K@Z				; operator new

; 146  : 		}

	add	rsp, 40					; 00000028H
	ret	0
?allocate@?$allocator@V?$basic_string@_WU?$char_traits@_W@std@@V?$allocator@_W@2@@std@@@std@@QEAAPEAV?$basic_string@_WU?$char_traits@_W@std@@V?$allocator@_W@2@@2@_K@Z ENDP ; std::allocator<std::basic_string<wchar_t,std::char_traits<wchar_t>,std::allocator<wchar_t> > >::allocate
_TEXT	ENDS
;	COMDAT pdata
; File c:\program files\microsoft visual studio 9.0\vc\include\xutility
pdata	SEGMENT
$pdata$?end@?$deque@V?$basic_string@_WU?$char_traits@_W@std@@V?$allocator@_W@2@@std@@V?$allocator@V?$basic_string@_WU?$char_traits@_W@std@@V?$allocator@_W@2@@std@@@2@@std@@QEAA?AV?$_Deque_iterator@V?$basic_string@_WU?$char_traits@_W@std@@V?$allocator@_W@2@@std@@V?$allocator@V?$basic_string@_WU?$char_traits@_W@std@@V?$allocator@_W@2@@std@@@2@$00@2@XZ DD imagerel $LN21
	DD	imagerel $LN21+80
	DD	imagerel $unwind$?end@?$deque@V?$basic_string@_WU?$char_traits@_W@std@@V?$allocator@_W@2@@std@@V?$allocator@V?$basic_string@_WU?$char_traits@_W@std@@V?$allocator@_W@2@@std@@@2@@std@@QEAA?AV?$_Deque_iterator@V?$basic_string@_WU?$char_traits@_W@std@@V?$allocator@_W@2@@std@@V?$allocator@V?$basic_string@_WU?$char_traits@_W@std@@V?$allocator@_W@2@@std@@@2@$00@2@XZ
pdata	ENDS
;	COMDAT xdata
xdata	SEGMENT
$unwind$?end@?$deque@V?$basic_string@_WU?$char_traits@_W@std@@V?$allocator@_W@2@@std@@V?$allocator@V?$basic_string@_WU?$char_traits@_W@std@@V?$allocator@_W@2@@std@@@2@@std@@QEAA?AV?$_Deque_iterator@V?$basic_string@_WU?$char_traits@_W@std@@V?$allocator@_W@2@@std@@V?$allocator@V?$basic_string@_WU?$char_traits@_W@std@@V?$allocator@_W@2@@std@@@2@$00@2@XZ DD 060f01H
	DD	07640fH
	DD	06340fH
	DD	0700b320fH
; Function compile flags: /Ogtpy
; File c:\program files\microsoft visual studio 9.0\vc\include\deque
xdata	ENDS
;	COMDAT ?end@?$deque@V?$basic_string@_WU?$char_traits@_W@std@@V?$allocator@_W@2@@std@@V?$allocator@V?$basic_string@_WU?$char_traits@_W@std@@V?$allocator@_W@2@@std@@@2@@std@@QEAA?AV?$_Deque_iterator@V?$basic_string@_WU?$char_traits@_W@std@@V?$allocator@_W@2@@std@@V?$allocator@V?$basic_string@_WU?$char_traits@_W@std@@V?$allocator@_W@2@@std@@@2@$00@2@XZ
_TEXT	SEGMENT
this$ = 48
__$ReturnUdt$ = 56
?end@?$deque@V?$basic_string@_WU?$char_traits@_W@std@@V?$allocator@_W@2@@std@@V?$allocator@V?$basic_string@_WU?$char_traits@_W@std@@V?$allocator@_W@2@@std@@@2@@std@@QEAA?AV?$_Deque_iterator@V?$basic_string@_WU?$char_traits@_W@std@@V?$allocator@_W@2@@std@@V?$allocator@V?$basic_string@_WU?$char_traits@_W@std@@V?$allocator@_W@2@@std@@@2@$00@2@XZ PROC ; std::deque<std::basic_string<wchar_t,std::char_traits<wchar_t>,std::allocator<wchar_t> >,std::allocator<std::basic_string<wchar_t,std::char_traits<wchar_t>,std::allocator<wchar_t> > > >::end, COMDAT

; 675  : 		{	// return iterator for end of mutable sequence

$LN21:
	mov	QWORD PTR [rsp+8], rbx
	mov	QWORD PTR [rsp+16], rsi
	push	rdi
	sub	rsp, 32					; 00000020H

; 676  : 		return (iterator(_Myoff + _Mysize, this));

	mov	r8, QWORD PTR [rcx+48]
	mov	rax, QWORD PTR [rcx+56]
	mov	rbx, rdx
	lea	rsi, QWORD PTR [r8+rax]
	mov	rdi, rcx
	mov	QWORD PTR [rdx], 0
	cmp	r8, rsi
	jbe	SHORT $LN7@end
	call	QWORD PTR __imp__invalid_parameter_noinfo
$LN7@end:
	mov	rax, QWORD PTR [rdi]
	mov	QWORD PTR [rbx+8], rsi

; 677  : 		}

	mov	rsi, QWORD PTR [rsp+56]
	mov	QWORD PTR [rbx], rax
	mov	rax, rbx
	mov	rbx, QWORD PTR [rsp+48]
	add	rsp, 32					; 00000020H
	pop	rdi
	ret	0
?end@?$deque@V?$basic_string@_WU?$char_traits@_W@std@@V?$allocator@_W@2@@std@@V?$allocator@V?$basic_string@_WU?$char_traits@_W@std@@V?$allocator@_W@2@@std@@@2@@std@@QEAA?AV?$_Deque_iterator@V?$basic_string@_WU?$char_traits@_W@std@@V?$allocator@_W@2@@std@@V?$allocator@V?$basic_string@_WU?$char_traits@_W@std@@V?$allocator@_W@2@@std@@@2@$00@2@XZ ENDP ; std::deque<std::basic_string<wchar_t,std::char_traits<wchar_t>,std::allocator<wchar_t> >,std::allocator<std::basic_string<wchar_t,std::char_traits<wchar_t>,std::allocator<wchar_t> > > >::end
_TEXT	ENDS
;	COMDAT pdata
; File c:\program files\microsoft visual studio 9.0\vc\include\xutility
pdata	SEGMENT
$pdata$?end@?$deque@_WV?$allocator@_W@std@@@std@@QEAA?AV?$_Deque_iterator@_WV?$allocator@_W@std@@$00@2@XZ DD imagerel $LN21
	DD	imagerel $LN21+80
	DD	imagerel $unwind$?end@?$deque@_WV?$allocator@_W@std@@@std@@QEAA?AV?$_Deque_iterator@_WV?$allocator@_W@std@@$00@2@XZ
pdata	ENDS
;	COMDAT xdata
xdata	SEGMENT
$unwind$?end@?$deque@_WV?$allocator@_W@std@@@std@@QEAA?AV?$_Deque_iterator@_WV?$allocator@_W@std@@$00@2@XZ DD 060f01H
	DD	07640fH
	DD	06340fH
	DD	0700b320fH
; Function compile flags: /Ogtpy
; File c:\program files\microsoft visual studio 9.0\vc\include\deque
xdata	ENDS
;	COMDAT ?end@?$deque@_WV?$allocator@_W@std@@@std@@QEAA?AV?$_Deque_iterator@_WV?$allocator@_W@std@@$00@2@XZ
_TEXT	SEGMENT
this$ = 48
__$ReturnUdt$ = 56
?end@?$deque@_WV?$allocator@_W@std@@@std@@QEAA?AV?$_Deque_iterator@_WV?$allocator@_W@std@@$00@2@XZ PROC ; std::deque<wchar_t,std::allocator<wchar_t> >::end, COMDAT

; 675  : 		{	// return iterator for end of mutable sequence

$LN21:
	mov	QWORD PTR [rsp+8], rbx
	mov	QWORD PTR [rsp+16], rsi
	push	rdi
	sub	rsp, 32					; 00000020H

; 676  : 		return (iterator(_Myoff + _Mysize, this));

	mov	r8, QWORD PTR [rcx+48]
	mov	rax, QWORD PTR [rcx+56]
	mov	rbx, rdx
	lea	rsi, QWORD PTR [r8+rax]
	mov	rdi, rcx
	mov	QWORD PTR [rdx], 0
	cmp	r8, rsi
	jbe	SHORT $LN7@end@2
	call	QWORD PTR __imp__invalid_parameter_noinfo
$LN7@end@2:
	mov	rax, QWORD PTR [rdi]
	mov	QWORD PTR [rbx+8], rsi

; 677  : 		}

	mov	rsi, QWORD PTR [rsp+56]
	mov	QWORD PTR [rbx], rax
	mov	rax, rbx
	mov	rbx, QWORD PTR [rsp+48]
	add	rsp, 32					; 00000020H
	pop	rdi
	ret	0
?end@?$deque@_WV?$allocator@_W@std@@@std@@QEAA?AV?$_Deque_iterator@_WV?$allocator@_W@std@@$00@2@XZ ENDP ; std::deque<wchar_t,std::allocator<wchar_t> >::end
; Function compile flags: /Ogtpy
; File c:\program files\microsoft visual studio 9.0\vc\include\xutility
_TEXT	ENDS
;	COMDAT ??1?$_Container_base_aux_alloc_real@V?$allocator@V?$basic_string@_WU?$char_traits@_W@std@@V?$allocator@_W@2@@std@@@std@@@std@@IEAA@XZ
_TEXT	SEGMENT
this$ = 8
??1?$_Container_base_aux_alloc_real@V?$allocator@V?$basic_string@_WU?$char_traits@_W@std@@V?$allocator@_W@2@@std@@@std@@@std@@IEAA@XZ PROC ; std::_Container_base_aux_alloc_real<std::allocator<std::basic_string<wchar_t,std::char_traits<wchar_t>,std::allocator<wchar_t> > > >::~_Container_base_aux_alloc_real<std::allocator<std::basic_string<wchar_t,std::char_traits<wchar_t>,std::allocator<wchar_t> > > >, COMDAT

; 437  : 		_Myownedaux->~_Aux_cont();
; 438  : 
; 439  : 		_Alaux.deallocate(_Myownedaux, 1);

	mov	rcx, QWORD PTR [rcx]

; 440  : 		}

	jmp	??3@YAXPEAX@Z				; operator delete
??1?$_Container_base_aux_alloc_real@V?$allocator@V?$basic_string@_WU?$char_traits@_W@std@@V?$allocator@_W@2@@std@@@std@@@std@@IEAA@XZ ENDP ; std::_Container_base_aux_alloc_real<std::allocator<std::basic_string<wchar_t,std::char_traits<wchar_t>,std::allocator<wchar_t> > > >::~_Container_base_aux_alloc_real<std::allocator<std::basic_string<wchar_t,std::char_traits<wchar_t>,std::allocator<wchar_t> > > >
_TEXT	ENDS
;	COMDAT pdata
; File c:\program files\microsoft visual studio 9.0\vc\include\xmemory
pdata	SEGMENT
$pdata$?pop_back@?$deque@V?$basic_string@_WU?$char_traits@_W@std@@V?$allocator@_W@2@@std@@V?$allocator@V?$basic_string@_WU?$char_traits@_W@std@@V?$allocator@_W@2@@std@@@2@@std@@QEAAXXZ DD imagerel $LN15
	DD	imagerel $LN15+74
	DD	imagerel $unwind$?pop_back@?$deque@V?$basic_string@_WU?$char_traits@_W@std@@V?$allocator@_W@2@@std@@V?$allocator@V?$basic_string@_WU?$char_traits@_W@std@@V?$allocator@_W@2@@std@@@2@@std@@QEAAXXZ
pdata	ENDS
;	COMDAT xdata
xdata	SEGMENT
$unwind$?pop_back@?$deque@V?$basic_string@_WU?$char_traits@_W@std@@V?$allocator@_W@2@@std@@V?$allocator@V?$basic_string@_WU?$char_traits@_W@std@@V?$allocator@_W@2@@std@@@2@@std@@QEAAXXZ DD 020601H
	DD	030023206H
; Function compile flags: /Ogtpy
; File c:\program files\microsoft visual studio 9.0\vc\include\deque
xdata	ENDS
;	COMDAT ?pop_back@?$deque@V?$basic_string@_WU?$char_traits@_W@std@@V?$allocator@_W@2@@std@@V?$allocator@V?$basic_string@_WU?$char_traits@_W@std@@V?$allocator@_W@2@@std@@@2@@std@@QEAAXXZ
_TEXT	SEGMENT
this$ = 48
?pop_back@?$deque@V?$basic_string@_WU?$char_traits@_W@std@@V?$allocator@_W@2@@std@@V?$allocator@V?$basic_string@_WU?$char_traits@_W@std@@V?$allocator@_W@2@@std@@@2@@std@@QEAAXXZ PROC ; std::deque<std::basic_string<wchar_t,std::char_traits<wchar_t>,std::allocator<wchar_t> >,std::allocator<std::basic_string<wchar_t,std::char_traits<wchar_t>,std::allocator<wchar_t> > > >::pop_back, COMDAT

; 863  : 		{	// erase element at end

$LN15:
	push	rbx
	sub	rsp, 32					; 00000020H
	mov	rbx, rcx

; 864  : 
; 865  :  #if _HAS_ITERATOR_DEBUGGING
; 866  : 		if (empty())
; 867  : 			_DEBUG_ERROR("deque empty before pop");
; 868  : 		else
; 869  : 			{	// something to erase, do it
; 870  : 			_Orphan_off(_Myoff + _Mysize - 1);
; 871  : 
; 872  :  #else /* _HAS_ITERATOR_DEBUGGING */
; 873  : 		if (!empty())

	mov	rcx, QWORD PTR [rcx+56]
	test	rcx, rcx
	je	SHORT $LN1@pop_back

; 874  : 			{	// something to erase, do it
; 875  :  #endif /* _HAS_ITERATOR_DEBUGGING */
; 876  : 
; 877  : 			size_type _Newoff = _Mysize + _Myoff - 1;
; 878  : 			size_type _Block = _Newoff / _DEQUESIZ;

	mov	rax, QWORD PTR [rbx+48]
	lea	rdx, QWORD PTR [rcx+rax-1]

; 879  : 			if (_Mapsize <= _Block)

	mov	rax, QWORD PTR [rbx+40]
	cmp	rax, rdx
	ja	SHORT $LN2@pop_back

; 880  : 				_Block -= _Mapsize;

	sub	rdx, rax
$LN2@pop_back:

; 881  : 			this->_Alval.destroy(_Map[_Block] + _Newoff % _DEQUESIZ);

	mov	rcx, QWORD PTR [rbx+32]
	mov	rcx, QWORD PTR [rcx+rdx*8]
	call	QWORD PTR __imp_??1?$basic_string@_WU?$char_traits@_W@std@@V?$allocator@_W@2@@std@@QEAA@XZ

; 882  : 			if (--_Mysize == 0)

	add	QWORD PTR [rbx+56], -1
	jne	SHORT $LN1@pop_back

; 883  : 				_Myoff = 0;

	mov	QWORD PTR [rbx+48], 0
$LN1@pop_back:

; 884  : 			}
; 885  : 			}

	add	rsp, 32					; 00000020H
	pop	rbx
	ret	0
?pop_back@?$deque@V?$basic_string@_WU?$char_traits@_W@std@@V?$allocator@_W@2@@std@@V?$allocator@V?$basic_string@_WU?$char_traits@_W@std@@V?$allocator@_W@2@@std@@@2@@std@@QEAAXXZ ENDP ; std::deque<std::basic_string<wchar_t,std::char_traits<wchar_t>,std::allocator<wchar_t> >,std::allocator<std::basic_string<wchar_t,std::char_traits<wchar_t>,std::allocator<wchar_t> > > >::pop_back
; Function compile flags: /Ogtpy
; File c:\program files\microsoft visual studio 9.0\vc\include\xutility
_TEXT	ENDS
;	COMDAT ??1?$_Container_base_aux_alloc_real@V?$allocator@_W@std@@@std@@IEAA@XZ
_TEXT	SEGMENT
this$ = 8
??1?$_Container_base_aux_alloc_real@V?$allocator@_W@std@@@std@@IEAA@XZ PROC ; std::_Container_base_aux_alloc_real<std::allocator<wchar_t> >::~_Container_base_aux_alloc_real<std::allocator<wchar_t> >, COMDAT

; 437  : 		_Myownedaux->~_Aux_cont();
; 438  : 
; 439  : 		_Alaux.deallocate(_Myownedaux, 1);

	mov	rcx, QWORD PTR [rcx]

; 440  : 		}

	jmp	??3@YAXPEAX@Z				; operator delete
??1?$_Container_base_aux_alloc_real@V?$allocator@_W@std@@@std@@IEAA@XZ ENDP ; std::_Container_base_aux_alloc_real<std::allocator<wchar_t> >::~_Container_base_aux_alloc_real<std::allocator<wchar_t> >
_TEXT	ENDS
;	COMDAT pdata
; File c:\program files\microsoft visual studio 9.0\vc\include\deque
pdata	SEGMENT
$pdata$?pop_back@?$deque@_WV?$allocator@_W@std@@@std@@QEAAXXZ DD imagerel $LN8
	DD	imagerel $LN8+92
	DD	imagerel $unwind$?pop_back@?$deque@_WV?$allocator@_W@std@@@std@@QEAAXXZ
pdata	ENDS
;	COMDAT xdata
xdata	SEGMENT
$unwind$?pop_back@?$deque@_WV?$allocator@_W@std@@@std@@QEAAXXZ DD 020601H
	DD	030023206H
; Function compile flags: /Ogtpy
xdata	ENDS
;	COMDAT ?pop_back@?$deque@_WV?$allocator@_W@std@@@std@@QEAAXXZ
_TEXT	SEGMENT
this$ = 48
?pop_back@?$deque@_WV?$allocator@_W@std@@@std@@QEAAXXZ PROC ; std::deque<wchar_t,std::allocator<wchar_t> >::pop_back, COMDAT

; 863  : 		{	// erase element at end

$LN8:
	push	rbx
	sub	rsp, 32					; 00000020H
	mov	rbx, rcx

; 864  : 
; 865  :  #if _HAS_ITERATOR_DEBUGGING
; 866  : 		if (empty())
; 867  : 			_DEBUG_ERROR("deque empty before pop");
; 868  : 		else
; 869  : 			{	// something to erase, do it
; 870  : 			_Orphan_off(_Myoff + _Mysize - 1);
; 871  : 
; 872  :  #else /* _HAS_ITERATOR_DEBUGGING */
; 873  : 		if (!empty())

	mov	rcx, QWORD PTR [rcx+56]
	test	rcx, rcx
	je	SHORT $LN1@pop_back@2

; 874  : 			{	// something to erase, do it
; 875  :  #endif /* _HAS_ITERATOR_DEBUGGING */
; 876  : 
; 877  : 			size_type _Newoff = _Mysize + _Myoff - 1;

	mov	rax, QWORD PTR [rbx+48]
	lea	rdx, QWORD PTR [rcx+rax-1]

; 878  : 			size_type _Block = _Newoff / _DEQUESIZ;
; 879  : 			if (_Mapsize <= _Block)

	mov	rax, QWORD PTR [rbx+40]
	mov	rcx, rdx
	shr	rcx, 3
	cmp	rax, rcx
	ja	SHORT $LN2@pop_back@2

; 880  : 				_Block -= _Mapsize;

	sub	rcx, rax
$LN2@pop_back@2:

; 881  : 			this->_Alval.destroy(_Map[_Block] + _Newoff % _DEQUESIZ);

	mov	rax, QWORD PTR [rbx+32]
	and	edx, 7
	mov	rax, QWORD PTR [rax+rcx*8]
	lea	rcx, QWORD PTR [rbx+24]
	lea	rdx, QWORD PTR [rax+rdx*2]
	call	QWORD PTR __imp_?destroy@?$allocator@_W@std@@QEAAXPEA_W@Z

; 882  : 			if (--_Mysize == 0)

	add	QWORD PTR [rbx+56], -1
	jne	SHORT $LN1@pop_back@2

; 883  : 				_Myoff = 0;

	mov	QWORD PTR [rbx+48], 0
$LN1@pop_back@2:

; 884  : 			}
; 885  : 			}

	add	rsp, 32					; 00000020H
	pop	rbx
	ret	0
?pop_back@?$deque@_WV?$allocator@_W@std@@@std@@QEAAXXZ ENDP ; std::deque<wchar_t,std::allocator<wchar_t> >::pop_back
; Function compile flags: /Ogtpy
_TEXT	ENDS
;	COMDAT ??1?$_Deque_map@V?$basic_string@_WU?$char_traits@_W@std@@V?$allocator@_W@2@@std@@V?$allocator@V?$basic_string@_WU?$char_traits@_W@std@@V?$allocator@_W@2@@std@@@2@@std@@QEAA@XZ
_TEXT	SEGMENT
this$ = 8
??1?$_Deque_map@V?$basic_string@_WU?$char_traits@_W@std@@V?$allocator@_W@2@@std@@V?$allocator@V?$basic_string@_WU?$char_traits@_W@std@@V?$allocator@_W@2@@std@@@2@@std@@QEAA@XZ PROC ; std::_Deque_map<std::basic_string<wchar_t,std::char_traits<wchar_t>,std::allocator<wchar_t> >,std::allocator<std::basic_string<wchar_t,std::char_traits<wchar_t>,std::allocator<wchar_t> > > >::~_Deque_map<std::basic_string<wchar_t,std::char_traits<wchar_t>,std::allocator<wchar_t> >,std::allocator<std::basic_string<wchar_t,std::char_traits<wchar_t>,std::allocator<wchar_t> > > >, COMDAT
	mov	rcx, QWORD PTR [rcx]
	jmp	??3@YAXPEAX@Z				; operator delete
??1?$_Deque_map@V?$basic_string@_WU?$char_traits@_W@std@@V?$allocator@_W@2@@std@@V?$allocator@V?$basic_string@_WU?$char_traits@_W@std@@V?$allocator@_W@2@@std@@@2@@std@@QEAA@XZ ENDP ; std::_Deque_map<std::basic_string<wchar_t,std::char_traits<wchar_t>,std::allocator<wchar_t> >,std::allocator<std::basic_string<wchar_t,std::char_traits<wchar_t>,std::allocator<wchar_t> > > >::~_Deque_map<std::basic_string<wchar_t,std::char_traits<wchar_t>,std::allocator<wchar_t> >,std::allocator<std::basic_string<wchar_t,std::char_traits<wchar_t>,std::allocator<wchar_t> > > >
; Function compile flags: /Ogtpy
_TEXT	ENDS
;	COMDAT ??1?$_Deque_map@_WV?$allocator@_W@std@@@std@@QEAA@XZ
_TEXT	SEGMENT
this$ = 8
??1?$_Deque_map@_WV?$allocator@_W@std@@@std@@QEAA@XZ PROC ; std::_Deque_map<wchar_t,std::allocator<wchar_t> >::~_Deque_map<wchar_t,std::allocator<wchar_t> >, COMDAT
	mov	rcx, QWORD PTR [rcx]
	jmp	??3@YAXPEAX@Z				; operator delete
??1?$_Deque_map@_WV?$allocator@_W@std@@@std@@QEAA@XZ ENDP ; std::_Deque_map<wchar_t,std::allocator<wchar_t> >::~_Deque_map<wchar_t,std::allocator<wchar_t> >
; Function compile flags: /Ogtpy
_TEXT	ENDS
;	COMDAT ??1?$_Deque_val@V?$basic_string@_WU?$char_traits@_W@std@@V?$allocator@_W@2@@std@@V?$allocator@V?$basic_string@_WU?$char_traits@_W@std@@V?$allocator@_W@2@@std@@@2@@std@@QEAA@XZ
_TEXT	SEGMENT
this$ = 8
??1?$_Deque_val@V?$basic_string@_WU?$char_traits@_W@std@@V?$allocator@_W@2@@std@@V?$allocator@V?$basic_string@_WU?$char_traits@_W@std@@V?$allocator@_W@2@@std@@@2@@std@@QEAA@XZ PROC ; std::_Deque_val<std::basic_string<wchar_t,std::char_traits<wchar_t>,std::allocator<wchar_t> >,std::allocator<std::basic_string<wchar_t,std::char_traits<wchar_t>,std::allocator<wchar_t> > > >::~_Deque_val<std::basic_string<wchar_t,std::char_traits<wchar_t>,std::allocator<wchar_t> >,std::allocator<std::basic_string<wchar_t,std::char_traits<wchar_t>,std::allocator<wchar_t> > > >, COMDAT
	mov	rcx, QWORD PTR [rcx]
	jmp	??3@YAXPEAX@Z				; operator delete
??1?$_Deque_val@V?$basic_string@_WU?$char_traits@_W@std@@V?$allocator@_W@2@@std@@V?$allocator@V?$basic_string@_WU?$char_traits@_W@std@@V?$allocator@_W@2@@std@@@2@@std@@QEAA@XZ ENDP ; std::_Deque_val<std::basic_string<wchar_t,std::char_traits<wchar_t>,std::allocator<wchar_t> >,std::allocator<std::basic_string<wchar_t,std::char_traits<wchar_t>,std::allocator<wchar_t> > > >::~_Deque_val<std::basic_string<wchar_t,std::char_traits<wchar_t>,std::allocator<wchar_t> >,std::allocator<std::basic_string<wchar_t,std::char_traits<wchar_t>,std::allocator<wchar_t> > > >
; Function compile flags: /Ogtpy
_TEXT	ENDS
;	COMDAT ??1?$_Deque_val@_WV?$allocator@_W@std@@@std@@QEAA@XZ
_TEXT	SEGMENT
this$ = 8
??1?$_Deque_val@_WV?$allocator@_W@std@@@std@@QEAA@XZ PROC ; std::_Deque_val<wchar_t,std::allocator<wchar_t> >::~_Deque_val<wchar_t,std::allocator<wchar_t> >, COMDAT
	mov	rcx, QWORD PTR [rcx]
	jmp	??3@YAXPEAX@Z				; operator delete
??1?$_Deque_val@_WV?$allocator@_W@std@@@std@@QEAA@XZ ENDP ; std::_Deque_val<wchar_t,std::allocator<wchar_t> >::~_Deque_val<wchar_t,std::allocator<wchar_t> >
_TEXT	ENDS
;	COMDAT pdata
; File c:\program files\microsoft visual studio 9.0\vc\include\xmemory
pdata	SEGMENT
$pdata$?pop@?$stack@V?$basic_string@_WU?$char_traits@_W@std@@V?$allocator@_W@2@@std@@V?$deque@V?$basic_string@_WU?$char_traits@_W@std@@V?$allocator@_W@2@@std@@V?$allocator@V?$basic_string@_WU?$char_traits@_W@std@@V?$allocator@_W@2@@std@@@2@@2@@std@@QEAAXXZ DD imagerel $LN17
	DD	imagerel $LN17+74
	DD	imagerel $unwind$?pop@?$stack@V?$basic_string@_WU?$char_traits@_W@std@@V?$allocator@_W@2@@std@@V?$deque@V?$basic_string@_WU?$char_traits@_W@std@@V?$allocator@_W@2@@std@@V?$allocator@V?$basic_string@_WU?$char_traits@_W@std@@V?$allocator@_W@2@@std@@@2@@2@@std@@QEAAXXZ
pdata	ENDS
;	COMDAT xdata
xdata	SEGMENT
$unwind$?pop@?$stack@V?$basic_string@_WU?$char_traits@_W@std@@V?$allocator@_W@2@@std@@V?$deque@V?$basic_string@_WU?$char_traits@_W@std@@V?$allocator@_W@2@@std@@V?$allocator@V?$basic_string@_WU?$char_traits@_W@std@@V?$allocator@_W@2@@std@@@2@@2@@std@@QEAAXXZ DD 020601H
	DD	030023206H
; Function compile flags: /Ogtpy
; File c:\program files\microsoft visual studio 9.0\vc\include\stack
xdata	ENDS
;	COMDAT ?pop@?$stack@V?$basic_string@_WU?$char_traits@_W@std@@V?$allocator@_W@2@@std@@V?$deque@V?$basic_string@_WU?$char_traits@_W@std@@V?$allocator@_W@2@@std@@V?$allocator@V?$basic_string@_WU?$char_traits@_W@std@@V?$allocator@_W@2@@std@@@2@@2@@std@@QEAAXXZ
_TEXT	SEGMENT
this$ = 48
?pop@?$stack@V?$basic_string@_WU?$char_traits@_W@std@@V?$allocator@_W@2@@std@@V?$deque@V?$basic_string@_WU?$char_traits@_W@std@@V?$allocator@_W@2@@std@@V?$allocator@V?$basic_string@_WU?$char_traits@_W@std@@V?$allocator@_W@2@@std@@@2@@2@@std@@QEAAXXZ PROC ; std::stack<std::basic_string<wchar_t,std::char_traits<wchar_t>,std::allocator<wchar_t> >,std::deque<std::basic_string<wchar_t,std::char_traits<wchar_t>,std::allocator<wchar_t> >,std::allocator<std::basic_string<wchar_t,std::char_traits<wchar_t>,std::allocator<wchar_t> > > > >::pop, COMDAT

; 62   : 		{	// erase last element

$LN17:
	push	rbx
	sub	rsp, 32					; 00000020H
	mov	rbx, rcx

; 63   : 		c.pop_back();

	mov	rcx, QWORD PTR [rcx+56]
	test	rcx, rcx
	je	SHORT $LN3@pop
	mov	rax, QWORD PTR [rbx+48]
	lea	rdx, QWORD PTR [rcx+rax-1]
	mov	rax, QWORD PTR [rbx+40]
	cmp	rax, rdx
	ja	SHORT $LN4@pop
	sub	rdx, rax
$LN4@pop:
	mov	rcx, QWORD PTR [rbx+32]
	mov	rcx, QWORD PTR [rcx+rdx*8]
	call	QWORD PTR __imp_??1?$basic_string@_WU?$char_traits@_W@std@@V?$allocator@_W@2@@std@@QEAA@XZ
	add	QWORD PTR [rbx+56], -1
	jne	SHORT $LN3@pop
	mov	QWORD PTR [rbx+48], 0
$LN3@pop:

; 64   : 		}

	add	rsp, 32					; 00000020H
	pop	rbx
	ret	0
?pop@?$stack@V?$basic_string@_WU?$char_traits@_W@std@@V?$allocator@_W@2@@std@@V?$deque@V?$basic_string@_WU?$char_traits@_W@std@@V?$allocator@_W@2@@std@@V?$allocator@V?$basic_string@_WU?$char_traits@_W@std@@V?$allocator@_W@2@@std@@@2@@2@@std@@QEAAXXZ ENDP ; std::stack<std::basic_string<wchar_t,std::char_traits<wchar_t>,std::allocator<wchar_t> >,std::deque<std::basic_string<wchar_t,std::char_traits<wchar_t>,std::allocator<wchar_t> >,std::allocator<std::basic_string<wchar_t,std::char_traits<wchar_t>,std::allocator<wchar_t> > > > >::pop
_TEXT	ENDS
;	COMDAT pdata
; File c:\program files\microsoft visual studio 9.0\vc\include\deque
pdata	SEGMENT
$pdata$?pop@?$stack@_WV?$deque@_WV?$allocator@_W@std@@@std@@@std@@QEAAXXZ DD imagerel $LN10
	DD	imagerel $LN10+92
	DD	imagerel $unwind$?pop@?$stack@_WV?$deque@_WV?$allocator@_W@std@@@std@@@std@@QEAAXXZ
pdata	ENDS
;	COMDAT xdata
xdata	SEGMENT
$unwind$?pop@?$stack@_WV?$deque@_WV?$allocator@_W@std@@@std@@@std@@QEAAXXZ DD 020601H
	DD	030023206H
; Function compile flags: /Ogtpy
; File c:\program files\microsoft visual studio 9.0\vc\include\stack
xdata	ENDS
;	COMDAT ?pop@?$stack@_WV?$deque@_WV?$allocator@_W@std@@@std@@@std@@QEAAXXZ
_TEXT	SEGMENT
this$ = 48
?pop@?$stack@_WV?$deque@_WV?$allocator@_W@std@@@std@@@std@@QEAAXXZ PROC ; std::stack<wchar_t,std::deque<wchar_t,std::allocator<wchar_t> > >::pop, COMDAT

; 62   : 		{	// erase last element

$LN10:
	push	rbx
	sub	rsp, 32					; 00000020H
	mov	rbx, rcx

; 63   : 		c.pop_back();

	mov	rcx, QWORD PTR [rcx+56]
	test	rcx, rcx
	je	SHORT $LN3@pop@2
	mov	rax, QWORD PTR [rbx+48]
	lea	rdx, QWORD PTR [rcx+rax-1]
	mov	rax, QWORD PTR [rbx+40]
	mov	rcx, rdx
	shr	rcx, 3
	cmp	rax, rcx
	ja	SHORT $LN4@pop@2
	sub	rcx, rax
$LN4@pop@2:
	mov	rax, QWORD PTR [rbx+32]
	and	edx, 7
	mov	rax, QWORD PTR [rax+rcx*8]
	lea	rcx, QWORD PTR [rbx+24]
	lea	rdx, QWORD PTR [rax+rdx*2]
	call	QWORD PTR __imp_?destroy@?$allocator@_W@std@@QEAAXPEA_W@Z
	add	QWORD PTR [rbx+56], -1
	jne	SHORT $LN3@pop@2
	mov	QWORD PTR [rbx+48], 0
$LN3@pop@2:

; 64   : 		}

	add	rsp, 32					; 00000020H
	pop	rbx
	ret	0
?pop@?$stack@_WV?$deque@_WV?$allocator@_W@std@@@std@@@std@@QEAAXXZ ENDP ; std::stack<wchar_t,std::deque<wchar_t,std::allocator<wchar_t> > >::pop
_TEXT	ENDS
PUBLIC	?ReadCompressedInt@SignatureReader@@AEAA_NPEAH@Z ; SignatureReader::ReadCompressedInt
;	COMDAT pdata
; File c:\local\sharpdevelop_3.2.0.5777_source\src\addins\misc\profiler\hook\profilermetadata.cpp
pdata	SEGMENT
$pdata$?ReadCompressedInt@SignatureReader@@AEAA_NPEAH@Z DD imagerel $LN28
	DD	imagerel $LN28+126
	DD	imagerel $unwind$?ReadCompressedInt@SignatureReader@@AEAA_NPEAH@Z
pdata	ENDS
;	COMDAT pdata
pdata	SEGMENT
$pdata$0$?ReadCompressedInt@SignatureReader@@AEAA_NPEAH@Z DD imagerel $LN28+126
	DD	imagerel $LN28+198
	DD	imagerel $chain$0$?ReadCompressedInt@SignatureReader@@AEAA_NPEAH@Z
pdata	ENDS
;	COMDAT pdata
pdata	SEGMENT
$pdata$2$?ReadCompressedInt@SignatureReader@@AEAA_NPEAH@Z DD imagerel $LN28+198
	DD	imagerel $LN28+209
	DD	imagerel $chain$2$?ReadCompressedInt@SignatureReader@@AEAA_NPEAH@Z
pdata	ENDS
;	COMDAT xdata
xdata	SEGMENT
$chain$2$?ReadCompressedInt@SignatureReader@@AEAA_NPEAH@Z DD 020021H
	DD	03400H
	DD	imagerel $LN28
	DD	imagerel $LN28+126
	DD	imagerel $unwind$?ReadCompressedInt@SignatureReader@@AEAA_NPEAH@Z
xdata	ENDS
;	COMDAT xdata
xdata	SEGMENT
$chain$0$?ReadCompressedInt@SignatureReader@@AEAA_NPEAH@Z DD 020421H
	DD	03404H
	DD	imagerel $LN28
	DD	imagerel $LN28+126
	DD	imagerel $unwind$?ReadCompressedInt@SignatureReader@@AEAA_NPEAH@Z
xdata	ENDS
;	COMDAT xdata
xdata	SEGMENT
$unwind$?ReadCompressedInt@SignatureReader@@AEAA_NPEAH@Z DD 010401H
	DD	0204H
; Function compile flags: /Ogtpy
xdata	ENDS
;	COMDAT ?ReadCompressedInt@SignatureReader@@AEAA_NPEAH@Z
_TEXT	SEGMENT
this$ = 16
out$ = 24
?ReadCompressedInt@SignatureReader@@AEAA_NPEAH@Z PROC	; SignatureReader::ReadCompressedInt, COMDAT

; 496  : {

$LN28:
	sub	rsp, 8

; 497  :     byte byte1 = 0, byte2 = 0, byte3 = 0, byte4 = 0;
; 498  :         
; 499  :     if (!ReadByte(&byte1))

	mov	rax, QWORD PTR [rcx+24]
	mov	r9, rcx
	mov	rcx, QWORD PTR [rcx+40]
	mov	r10, rdx
	cmp	rax, rcx
	jae	SHORT $LN14@ReadCompre
	movzx	r8d, BYTE PTR [rax]
	inc	rax
	mov	QWORD PTR [r9+24], rax

; 500  :         return false;
; 501  : 
; 502  :     if (byte1 == 0xff) // = nullptr -> error

	cmp	r8b, 255				; 000000ffH
	jne	SHORT $LN7@ReadCompre

; 508  :     }
; 509  : 
; 510  :     if (!ReadByte(&byte2))

$LN14@ReadCompre:

; 503  : 		return false;

	xor	al, al

; 529  : }

	add	rsp, 8
	ret	0
$LN7@ReadCompre:

; 504  : 
; 505  :     if ((byte1 & 0x80) == 0) {

	test	r8b, r8b
	js	SHORT $LN6@ReadCompre

; 506  :         *out = (int)byte1;

	movzx	eax, r8b
	mov	DWORD PTR [rdx], eax

; 507  :         return true;

	mov	al, 1

; 529  : }

	add	rsp, 8
	ret	0
$LN6@ReadCompre:

; 508  :     }
; 509  : 
; 510  :     if (!ReadByte(&byte2))

	cmp	rax, rcx
	jae	SHORT $LN14@ReadCompre
	movzx	r11d, BYTE PTR [rax]
	inc	rax
	mov	QWORD PTR [r9+24], rax

; 511  :         return false;
; 512  : 
; 513  :     if ((byte1 & 0x40) == 0) {

	test	r8b, 64					; 00000040H
	jne	SHORT $LN4@ReadCompre

; 514  :         *out = (((byte1 & 0x3f) << 8) | byte2);

	movzx	eax, r11b
	movzx	ecx, r8b
	and	ecx, 63					; 0000003fH
	shl	ecx, 8
	or	ecx, eax

; 515  :         return true;

	mov	al, 1
	mov	DWORD PTR [rdx], ecx

; 529  : }

	add	rsp, 8
	ret	0
$LN4@ReadCompre:

; 516  :     }
; 517  : 
; 518  :     if ((byte1 & 0x20) != 0)        

	test	r8b, 32					; 00000020H

; 519  :         return false;

	jne	SHORT $LN14@ReadCompre

; 520  : 
; 521  :     if (!ReadByte(&byte3))

	cmp	rax, rcx
	jae	SHORT $LN14@ReadCompre
	inc	rax
	mov	QWORD PTR [rsp], rbx
	movzx	ebx, BYTE PTR [rax-1]
	mov	QWORD PTR [r9+24], rax

; 522  :         return false;
; 523  :     
; 524  :     if (!ReadByte(&byte4))

	cmp	rax, rcx
	jae	SHORT $LN20@ReadCompre
	movzx	ecx, BYTE PTR [rax]
	inc	rax

; 526  : 
; 527  :     *out = ((byte1 & 0x1f) << 24) | (byte2 << 16) | (byte3 << 8) | byte4;

	movzx	edx, r8b
	and	edx, 31
	mov	QWORD PTR [r9+24], rax
	movzx	eax, r11b
	shl	edx, 8
	or	edx, eax
	movzx	eax, bl
	mov	rbx, QWORD PTR [rsp]
	shl	edx, 8
	or	edx, eax
	mov	eax, ecx

; 528  :     return true;

	mov	al, 1
	shl	edx, 8
	or	edx, ecx
	mov	DWORD PTR [r10], edx

; 529  : }

	add	rsp, 8
	ret	0

; 522  :         return false;
; 523  :     
; 524  :     if (!ReadByte(&byte4))

$LN20@ReadCompre:

; 525  :         return false;

	xor	al, al
	mov	rbx, QWORD PTR [rsp]

; 529  : }

	add	rsp, 8
	ret	0
?ReadCompressedInt@SignatureReader@@AEAA_NPEAH@Z ENDP	; SignatureReader::ReadCompressedInt
; Function compile flags: /Ogtpy
; File c:\program files\microsoft sdks\windows\v7.0\include\cor.h
_TEXT	ENDS
;	COMDAT ?CorSigUncompressData@@YAKPEBEPEAK@Z
_TEXT	SEGMENT
pData$ = 8
pDataOut$ = 16
?CorSigUncompressData@@YAKPEBEPEAK@Z PROC		; CorSigUncompressData, COMDAT

; 2355 : 
; 2356 :     ULONG dwSizeOfData = 0;
; 2357 : 
; 2358 :     // We don't know how big the signature is, so we'll just say that it's big enough
; 2359 :     if (FAILED(CorSigUncompressData(pData, 0xff, pDataOut, &dwSizeOfData)))

	movzx	r8d, BYTE PTR [rcx]
	mov	r9, rcx
	test	r8b, r8b
	js	SHORT $LN15@CorSigUnco@2
	movzx	eax, r8b
	mov	DWORD PTR [rdx], eax
	mov	eax, 1

; 2361 : 
; 2362 : 
; 2363 :     return dwSizeOfData;
; 2364 : }

	ret	0

; 2355 : 
; 2356 :     ULONG dwSizeOfData = 0;
; 2357 : 
; 2358 :     // We don't know how big the signature is, so we'll just say that it's big enough
; 2359 :     if (FAILED(CorSigUncompressData(pData, 0xff, pDataOut, &dwSizeOfData)))

$LN15@CorSigUnco@2:
	movzx	eax, r8b
	and	al, 192					; 000000c0H
	cmp	al, 128					; 00000080H
	jne	SHORT $LN11@CorSigUnco@2
	movzx	eax, BYTE PTR [r9+1]
	movzx	ecx, r8b
	and	ecx, 63					; 0000003fH
	shl	ecx, 8
	or	ecx, eax
	mov	eax, 2
	mov	DWORD PTR [rdx], ecx

; 2361 : 
; 2362 : 
; 2363 :     return dwSizeOfData;
; 2364 : }

	ret	0

; 2355 : 
; 2356 :     ULONG dwSizeOfData = 0;
; 2357 : 
; 2358 :     // We don't know how big the signature is, so we'll just say that it's big enough
; 2359 :     if (FAILED(CorSigUncompressData(pData, 0xff, pDataOut, &dwSizeOfData)))

$LN11@CorSigUnco@2:
	movzx	eax, r8b
	and	al, 224					; 000000e0H
	cmp	al, 192					; 000000c0H
	jne	SHORT $LN7@CorSigUnco@2
	movzx	eax, BYTE PTR [r9+1]
	movzx	ecx, r8b
	and	ecx, 31
	shl	ecx, 8
	or	ecx, eax
	movzx	eax, BYTE PTR [r9+2]
	shl	ecx, 8
	or	ecx, eax
	movzx	eax, BYTE PTR [r9+3]
	shl	ecx, 8
	or	ecx, eax
	mov	eax, 4
	mov	DWORD PTR [rdx], ecx

; 2361 : 
; 2362 : 
; 2363 :     return dwSizeOfData;
; 2364 : }

	ret	0

; 2355 : 
; 2356 :     ULONG dwSizeOfData = 0;
; 2357 : 
; 2358 :     // We don't know how big the signature is, so we'll just say that it's big enough
; 2359 :     if (FAILED(CorSigUncompressData(pData, 0xff, pDataOut, &dwSizeOfData)))

$LN7@CorSigUnco@2:
	mov	DWORD PTR [rdx], 0

; 2360 :         return (ULONG)-1;

	or	eax, -1					; ffffffffH

; 2361 : 
; 2362 : 
; 2363 :     return dwSizeOfData;
; 2364 : }

	ret	0
?CorSigUncompressData@@YAKPEBEPEAK@Z ENDP		; CorSigUncompressData
;	COMDAT pdata
; File c:\program files\microsoft visual studio 9.0\vc\include\ios
pdata	SEGMENT
$pdata$??$?6_WU?$char_traits@_W@std@@@std@@YAAEAV?$basic_ostream@_WU?$char_traits@_W@std@@@0@AEAV10@PEBD@Z DD imagerel $LN110
	DD	imagerel $LN110+600
	DD	imagerel $unwind$??$?6_WU?$char_traits@_W@std@@@std@@YAAEAV?$basic_ostream@_WU?$char_traits@_W@std@@@0@AEAV10@PEBD@Z
pdata	ENDS
;	COMDAT pdata
pdata	SEGMENT
$pdata$?dtor$2@?0???$?6_WU?$char_traits@_W@std@@@std@@YAAEAV?$basic_ostream@_WU?$char_traits@_W@std@@@0@AEAV10@PEBD@Z@4HA DD imagerel ?dtor$2@?0???$?6_WU?$char_traits@_W@std@@@std@@YAAEAV?$basic_ostream@_WU?$char_traits@_W@std@@@0@AEAV10@PEBD@Z@4HA
	DD	imagerel ?dtor$2@?0???$?6_WU?$char_traits@_W@std@@@std@@YAAEAV?$basic_ostream@_WU?$char_traits@_W@std@@@0@AEAV10@PEBD@Z@4HA+24
	DD	imagerel $unwind$?dtor$2@?0???$?6_WU?$char_traits@_W@std@@@std@@YAAEAV?$basic_ostream@_WU?$char_traits@_W@std@@@0@AEAV10@PEBD@Z@4HA
pdata	ENDS
;	COMDAT pdata
pdata	SEGMENT
$pdata$?dtor$0@?0???$?6_WU?$char_traits@_W@std@@@std@@YAAEAV?$basic_ostream@_WU?$char_traits@_W@std@@@0@AEAV10@PEBD@Z@4HA DD imagerel ?dtor$0@?0???$?6_WU?$char_traits@_W@std@@@std@@YAAEAV?$basic_ostream@_WU?$char_traits@_W@std@@@0@AEAV10@PEBD@Z@4HA
	DD	imagerel ?dtor$0@?0???$?6_WU?$char_traits@_W@std@@@std@@YAAEAV?$basic_ostream@_WU?$char_traits@_W@std@@@0@AEAV10@PEBD@Z@4HA+24
	DD	imagerel $unwind$?dtor$0@?0???$?6_WU?$char_traits@_W@std@@@std@@YAAEAV?$basic_ostream@_WU?$char_traits@_W@std@@@0@AEAV10@PEBD@Z@4HA
pdata	ENDS
;	COMDAT pdata
pdata	SEGMENT
$pdata$?dtor$1@?0???$?6_WU?$char_traits@_W@std@@@std@@YAAEAV?$basic_ostream@_WU?$char_traits@_W@std@@@0@AEAV10@PEBD@Z@4HA DD imagerel ?dtor$1@?0???$?6_WU?$char_traits@_W@std@@@std@@YAAEAV?$basic_ostream@_WU?$char_traits@_W@std@@@0@AEAV10@PEBD@Z@4HA
	DD	imagerel ?dtor$1@?0???$?6_WU?$char_traits@_W@std@@@std@@YAAEAV?$basic_ostream@_WU?$char_traits@_W@std@@@0@AEAV10@PEBD@Z@4HA+25
	DD	imagerel $unwind$?dtor$1@?0???$?6_WU?$char_traits@_W@std@@@std@@YAAEAV?$basic_ostream@_WU?$char_traits@_W@std@@@0@AEAV10@PEBD@Z@4HA
pdata	ENDS
;	COMDAT pdata
pdata	SEGMENT
$pdata$?catch$0@?0???$?6_WU?$char_traits@_W@std@@@std@@YAAEAV?$basic_ostream@_WU?$char_traits@_W@std@@@0@AEAV10@PEBD@Z@4HA DD imagerel ?catch$0@?0???$?6_WU?$char_traits@_W@std@@@std@@YAAEAV?$basic_ostream@_WU?$char_traits@_W@std@@@0@AEAV10@PEBD@Z@4HA
	DD	imagerel ?catch$0@?0???$?6_WU?$char_traits@_W@std@@@std@@YAAEAV?$basic_ostream@_WU?$char_traits@_W@std@@@0@AEAV10@PEBD@Z@4HA+65
	DD	imagerel $unwind$?catch$0@?0???$?6_WU?$char_traits@_W@std@@@std@@YAAEAV?$basic_ostream@_WU?$char_traits@_W@std@@@0@AEAV10@PEBD@Z@4HA
pdata	ENDS
;	COMDAT pdata
pdata	SEGMENT
$pdata$?dtor$3@?0???$?6_WU?$char_traits@_W@std@@@std@@YAAEAV?$basic_ostream@_WU?$char_traits@_W@std@@@0@AEAV10@PEBD@Z@4HA DD imagerel ?dtor$3@?0???$?6_WU?$char_traits@_W@std@@@std@@YAAEAV?$basic_ostream@_WU?$char_traits@_W@std@@@0@AEAV10@PEBD@Z@4HA
	DD	imagerel ?dtor$3@?0???$?6_WU?$char_traits@_W@std@@@std@@YAAEAV?$basic_ostream@_WU?$char_traits@_W@std@@@0@AEAV10@PEBD@Z@4HA+24
	DD	imagerel $unwind$?dtor$3@?0???$?6_WU?$char_traits@_W@std@@@std@@YAAEAV?$basic_ostream@_WU?$char_traits@_W@std@@@0@AEAV10@PEBD@Z@4HA
pdata	ENDS
;	COMDAT xdata
xdata	SEGMENT
$ip2state$??$?6_WU?$char_traits@_W@std@@@std@@YAAEAV?$basic_ostream@_WU?$char_traits@_W@std@@@0@AEAV10@PEBD@Z DD imagerel ??$?6_WU?$char_traits@_W@std@@@std@@YAAEAV?$basic_ostream@_WU?$char_traits@_W@std@@@0@AEAV10@PEBD@Z
	DD	0ffffffffH
	DD	imagerel ??$?6_WU?$char_traits@_W@std@@@std@@YAAEAV?$basic_ostream@_WU?$char_traits@_W@std@@@0@AEAV10@PEBD@Z+128
	DD	00H
	DD	imagerel ??$?6_WU?$char_traits@_W@std@@@std@@YAAEAV?$basic_ostream@_WU?$char_traits@_W@std@@@0@AEAV10@PEBD@Z+177
	DD	01H
	DD	imagerel ??$?6_WU?$char_traits@_W@std@@@std@@YAAEAV?$basic_ostream@_WU?$char_traits@_W@std@@@0@AEAV10@PEBD@Z+191
	DD	02H
	DD	imagerel ??$?6_WU?$char_traits@_W@std@@@std@@YAAEAV?$basic_ostream@_WU?$char_traits@_W@std@@@0@AEAV10@PEBD@Z+210
	DD	03H
	DD	imagerel ??$?6_WU?$char_traits@_W@std@@@std@@YAAEAV?$basic_ostream@_WU?$char_traits@_W@std@@@0@AEAV10@PEBD@Z+223
	DD	02H
	DD	imagerel ??$?6_WU?$char_traits@_W@std@@@std@@YAAEAV?$basic_ostream@_WU?$char_traits@_W@std@@@0@AEAV10@PEBD@Z+483
	DD	01H
	DD	imagerel ??$?6_WU?$char_traits@_W@std@@@std@@YAAEAV?$basic_ostream@_WU?$char_traits@_W@std@@@0@AEAV10@PEBD@Z+532
	DD	05H
	DD	imagerel ??$?6_WU?$char_traits@_W@std@@@std@@YAAEAV?$basic_ostream@_WU?$char_traits@_W@std@@@0@AEAV10@PEBD@Z+552
	DD	0ffffffffH
	DD	imagerel ?catch$0@?0???$?6_WU?$char_traits@_W@std@@@std@@YAAEAV?$basic_ostream@_WU?$char_traits@_W@std@@@0@AEAV10@PEBD@Z@4HA
	DD	00H
	DD	imagerel ?catch$0@?0???$?6_WU?$char_traits@_W@std@@@std@@YAAEAV?$basic_ostream@_WU?$char_traits@_W@std@@@0@AEAV10@PEBD@Z@4HA+15
	DD	04H
	DD	imagerel ?catch$0@?0???$?6_WU?$char_traits@_W@std@@@std@@YAAEAV?$basic_ostream@_WU?$char_traits@_W@std@@@0@AEAV10@PEBD@Z@4HA+47
	DD	00H
xdata	ENDS
;	COMDAT xdata
xdata	SEGMENT
$unwind$?dtor$3@?0???$?6_WU?$char_traits@_W@std@@@std@@YAAEAV?$basic_ostream@_WU?$char_traits@_W@std@@@0@AEAV10@PEBD@Z@4HA DD 020601H
	DD	050023206H
xdata	ENDS
;	COMDAT xdata
xdata	SEGMENT
$unwind$?catch$0@?0???$?6_WU?$char_traits@_W@std@@@std@@YAAEAV?$basic_ostream@_WU?$char_traits@_W@std@@@0@AEAV10@PEBD@Z@4HA DD 030c19H
	DD	0c008420cH
	DD	05006H
	DD	imagerel __CxxFrameHandler3
	DD	imagerel $cppxdata$??$?6_WU?$char_traits@_W@std@@@std@@YAAEAV?$basic_ostream@_WU?$char_traits@_W@std@@@0@AEAV10@PEBD@Z
xdata	ENDS
;	COMDAT xdata
xdata	SEGMENT
$unwind$?dtor$1@?0???$?6_WU?$char_traits@_W@std@@@std@@YAAEAV?$basic_ostream@_WU?$char_traits@_W@std@@@0@AEAV10@PEBD@Z@4HA DD 020601H
	DD	050023206H
xdata	ENDS
;	COMDAT xdata
xdata	SEGMENT
$unwind$?dtor$0@?0???$?6_WU?$char_traits@_W@std@@@std@@YAAEAV?$basic_ostream@_WU?$char_traits@_W@std@@@0@AEAV10@PEBD@Z@4HA DD 020601H
	DD	050023206H
xdata	ENDS
;	COMDAT xdata
xdata	SEGMENT
$unwind$?dtor$2@?0???$?6_WU?$char_traits@_W@std@@@std@@YAAEAV?$basic_ostream@_WU?$char_traits@_W@std@@@0@AEAV10@PEBD@Z@4HA DD 020601H
	DD	050023206H
xdata	ENDS
;	COMDAT xdata
xdata	SEGMENT
$unwind$??$?6_WU?$char_traits@_W@std@@@std@@YAAEAV?$basic_ostream@_WU?$char_traits@_W@std@@@0@AEAV10@PEBD@Z DD 081d19H
	DD	0f0109214H
	DD	0d00ce00eH
	DD	07008c00aH
	DD	030066007H
	DD	imagerel __CxxFrameHandler3
	DD	imagerel $cppxdata$??$?6_WU?$char_traits@_W@std@@@std@@YAAEAV?$basic_ostream@_WU?$char_traits@_W@std@@@0@AEAV10@PEBD@Z
xdata	ENDS
;	COMDAT CONST
CONST	SEGMENT
$cppxdata$??$?6_WU?$char_traits@_W@std@@@std@@YAAEAV?$basic_ostream@_WU?$char_traits@_W@std@@@0@AEAV10@PEBD@Z DD 019930522H
	DD	06H
	DD	imagerel $stateUnwindMap$??$?6_WU?$char_traits@_W@std@@@std@@YAAEAV?$basic_ostream@_WU?$char_traits@_W@std@@@0@AEAV10@PEBD@Z
	DD	01H
	DD	imagerel $tryMap$??$?6_WU?$char_traits@_W@std@@@std@@YAAEAV?$basic_ostream@_WU?$char_traits@_W@std@@@0@AEAV10@PEBD@Z
	DD	0cH
	DD	imagerel $ip2state$??$?6_WU?$char_traits@_W@std@@@std@@YAAEAV?$basic_ostream@_WU?$char_traits@_W@std@@@0@AEAV10@PEBD@Z
	DD	030H
	DD	00H
	DD	01H
CONST	ENDS
;	COMDAT xdata
xdata	SEGMENT
$tryMap$??$?6_WU?$char_traits@_W@std@@@std@@YAAEAV?$basic_ostream@_WU?$char_traits@_W@std@@@0@AEAV10@PEBD@Z DD 02H
	DD	03H
	DD	04H
	DD	01H
	DD	imagerel $handlerMap$0$??$?6_WU?$char_traits@_W@std@@@std@@YAAEAV?$basic_ostream@_WU?$char_traits@_W@std@@@0@AEAV10@PEBD@Z
xdata	ENDS
;	COMDAT xdata
xdata	SEGMENT
$handlerMap$0$??$?6_WU?$char_traits@_W@std@@@std@@YAAEAV?$basic_ostream@_WU?$char_traits@_W@std@@@0@AEAV10@PEBD@Z DD 040H
	DD	00H
	DD	00H
	DD	imagerel ?catch$0@?0???$?6_WU?$char_traits@_W@std@@@std@@YAAEAV?$basic_ostream@_WU?$char_traits@_W@std@@@0@AEAV10@PEBD@Z@4HA
	DD	048H
xdata	ENDS
;	COMDAT xdata
xdata	SEGMENT
$stateUnwindMap$??$?6_WU?$char_traits@_W@std@@@std@@YAAEAV?$basic_ostream@_WU?$char_traits@_W@std@@@0@AEAV10@PEBD@Z DD 0ffffffffH
	DD	imagerel ?dtor$2@?0???$?6_WU?$char_traits@_W@std@@@std@@YAAEAV?$basic_ostream@_WU?$char_traits@_W@std@@@0@AEAV10@PEBD@Z@4HA
	DD	0ffffffffH
	DD	imagerel ?dtor$0@?0???$?6_WU?$char_traits@_W@std@@@std@@YAAEAV?$basic_ostream@_WU?$char_traits@_W@std@@@0@AEAV10@PEBD@Z@4HA
	DD	01H
	DD	00H
	DD	02H
	DD	imagerel ?dtor$1@?0???$?6_WU?$char_traits@_W@std@@@std@@YAAEAV?$basic_ostream@_WU?$char_traits@_W@std@@@0@AEAV10@PEBD@Z@4HA
	DD	01H
	DD	00H
	DD	0ffffffffH
	DD	imagerel ?dtor$3@?0???$?6_WU?$char_traits@_W@std@@@std@@YAAEAV?$basic_ostream@_WU?$char_traits@_W@std@@@0@AEAV10@PEBD@Z@4HA
; Function compile flags: /Ogtpy
; File c:\program files\microsoft visual studio 9.0\vc\include\ostream
xdata	ENDS
;	COMDAT ??$?6_WU?$char_traits@_W@std@@@std@@YAAEAV?$basic_ostream@_WU?$char_traits@_W@std@@@0@AEAV10@PEBD@Z
_TEXT	SEGMENT
$T151896 = 32
_Ctype_fac$1$ = 40
$T152112 = 48
_Ok$ = 56
_Ostr$ = 144
_Val$ = 152
_State$ = 160
_Val$1$ = 168
??$?6_WU?$char_traits@_W@std@@@std@@YAAEAV?$basic_ostream@_WU?$char_traits@_W@std@@@0@AEAV10@PEBD@Z PROC ; std::operator<<<wchar_t,std::char_traits<wchar_t> >, COMDAT

; 655  : 	{	// insert NTBS

$LN110:
	mov	QWORD PTR [rsp+8], rcx
	push	rbx
	push	rsi
	push	rdi
	push	r12
	push	r13
	push	r14
	push	r15
	sub	rsp, 80					; 00000050H
	mov	QWORD PTR $T152112[rsp], -2
	mov	rsi, rcx
	lea	rdx, OFFSET FLAT:??_C@_02JMMFPCED@?$CC?$CC?$AA@
	mov	QWORD PTR _Val$1$[rsp], rdx

; 656  : 	ios_base::iostate _State = ios_base::goodbit;

	xor	ebx, ebx
	mov	DWORD PTR _State$[rsp], ebx

; 657  : 	streamsize _Count = (streamsize)::strlen(_Val);	// may overflow

	xor	eax, eax
	or	rcx, -1
	mov	rdi, rdx
	repne scasb
	not	rcx
	lea	r14, QWORD PTR [rcx-1]

; 658  : 	streamsize _Pad = _Ostr.width() <= 0 || _Ostr.width() <= _Count
; 659  : 		? 0 : _Ostr.width() - _Count;

	mov	rax, QWORD PTR [rsi]
	movsxd	rcx, DWORD PTR [rax+4]
	mov	rdi, QWORD PTR [rcx+rsi+40]
	test	rdi, rdi
	jle	SHORT $LN20@operator@6
	cmp	rdi, r14
	jle	SHORT $LN20@operator@6
	sub	rdi, r14
	jmp	SHORT $LN21@operator@6
$LN20@operator@6:
	xor	edi, edi
$LN21@operator@6:

; 660  : 	const typename basic_ostream<_Elem, _Traits>::sentry _Ok(_Ostr);

	mov	r13, rsi
	mov	QWORD PTR _Ok$[rsp], rsi
	mov	rcx, QWORD PTR [rcx+rsi+72]
	test	rcx, rcx
	je	SHORT $LN38@operator@6
	call	QWORD PTR __imp_?_Lock@?$basic_streambuf@_WU?$char_traits@_W@std@@@std@@QEAAXXZ
	npad	1
$LN38@operator@6:
	mov	rax, QWORD PTR [rsi]
	movsxd	rcx, DWORD PTR [rax+4]
	cmp	DWORD PTR [rcx+rsi+16], 0
	jne	SHORT $LN34@operator@6
	mov	rcx, QWORD PTR [rcx+rsi+80]
	test	rcx, rcx
	je	SHORT $LN34@operator@6
	call	QWORD PTR __imp_?flush@?$basic_ostream@_WU?$char_traits@_W@std@@@std@@QEAAAEAV12@XZ
$LN34@operator@6:
	mov	rcx, QWORD PTR [rsi]
	movsxd	rax, DWORD PTR [rcx+4]
	cmp	DWORD PTR [rax+rsi+16], 0
	sete	al
	mov	BYTE PTR _Ok$[rsp+8], al

; 661  : 
; 662  : 	if (!_Ok)

	test	al, al
	jne	SHORT $LN17@operator@6

; 663  : 		_State |= ios_base::badbit;

	mov	ebx, 4

; 664  : 	else

	jmp	$LN26@operator@6
$LN17@operator@6:

; 665  : 		{	// state okay, insert characters
; 666  : 		_TRY_IO_BEGIN
; 667  : 		const ctype<_Elem>& _Ctype_fac = _USE(_Ostr.getloc(), ctype<_Elem>);

	movsxd	rcx, DWORD PTR [rcx+4]
	add	rcx, rsi
	lea	rdx, QWORD PTR $T151896[rsp]
	call	QWORD PTR __imp_?getloc@ios_base@std@@QEBA?AVlocale@2@XZ
	npad	1
	mov	rcx, rax
	call	??$use_facet@V?$ctype@_W@std@@@std@@YAAEBV?$ctype@_W@0@AEBVlocale@0@@Z ; std::use_facet<std::ctype<wchar_t> >
	mov	QWORD PTR _Ctype_fac$1$[rsp], rax
	lea	rcx, QWORD PTR $T151896[rsp]
	call	QWORD PTR __imp_??1locale@std@@QEAA@XZ

; 668  : 		if ((_Ostr.flags() & ios_base::adjustfield) != ios_base::left)

	mov	rdx, QWORD PTR [rsi]
	movsxd	rcx, DWORD PTR [rdx+4]
	mov	edx, DWORD PTR [rcx+rsi+24]
	and	edx, 448				; 000001c0H
	cmp	edx, 64					; 00000040H
	je	SHORT $LN107@operator@6
	mov	r13d, 65535				; 0000ffffH
$LL13@operator@6:

; 669  : 			for (; 0 < _Pad; --_Pad)	// pad on left

	test	rdi, rdi
	jle	SHORT $LN104@operator@6

; 670  : 				if (_Traits::eq_int_type(_Traits::eof(),
; 671  : 					_Ostr.rdbuf()->sputc(_Ostr.fill())))

	mov	rax, QWORD PTR [rsi]
	movsxd	rcx, DWORD PTR [rax+4]
	movzx	edx, WORD PTR [rcx+rsi+88]
	mov	rcx, QWORD PTR [rcx+rsi+72]
	call	QWORD PTR __imp_?sputc@?$basic_streambuf@_WU?$char_traits@_W@std@@@std@@QEAAG_W@Z
	cmp	r13w, ax
	jne	SHORT $LN12@operator@6

; 672  : 					{	// insertion failed, quit
; 673  : 					_State |= ios_base::badbit;

	or	ebx, 4
	mov	DWORD PTR _State$[rsp], ebx

; 674  : 					break;

	jmp	SHORT $LN104@operator@6
$LN12@operator@6:

; 669  : 			for (; 0 < _Pad; --_Pad)	// pad on left

	dec	rdi
	jmp	SHORT $LL13@operator@6
$LN107@operator@6:
	mov	r13d, 65535				; 0000ffffH
$LN104@operator@6:
	mov	r12d, 4
$LL102@operator@6:

; 675  : 					}
; 676  : 
; 677  : 		for (; _State == ios_base::goodbit && 0 < _Count; --_Count, ++_Val)

	test	ebx, ebx
	jne	$LN2@operator@6
	test	r14, r14
	jle	SHORT $LL105@operator@6

; 678  : 			if (_Traits::eq_int_type(_Traits::eof(),
; 679  : 				_Ostr.rdbuf()->sputc(_Ctype_fac.widen(*_Val))))

	mov	rax, QWORD PTR [rsi]
	movsxd	rcx, DWORD PTR [rax+4]
	mov	r15, QWORD PTR [rcx+rsi+72]
	mov	rax, QWORD PTR _Val$1$[rsp]
	movzx	edx, BYTE PTR [rax]
	mov	rcx, QWORD PTR _Ctype_fac$1$[rsp]
	call	QWORD PTR __imp_?widen@?$ctype@_W@std@@QEBA_WD@Z
	movzx	edx, ax
	mov	rcx, r15
	call	QWORD PTR __imp_?sputc@?$basic_streambuf@_WU?$char_traits@_W@std@@@std@@QEAAG_W@Z
	cmp	r13w, ax
	cmove	ebx, r12d
	mov	DWORD PTR _State$[rsp], ebx

; 675  : 					}
; 676  : 
; 677  : 		for (; _State == ios_base::goodbit && 0 < _Count; --_Count, ++_Val)

	dec	r14
	inc	QWORD PTR _Val$1$[rsp]
	jmp	SHORT $LL102@operator@6
	npad	4
$LL105@operator@6:

; 680  : 					_State |= ios_base::badbit;
; 681  : 
; 682  : 		if (_State == ios_base::goodbit)
; 683  : 			for (; 0 < _Pad; --_Pad)	// pad on right

	test	rdi, rdi
	jle	SHORT $LN2@operator@6

; 684  : 				if (_Traits::eq_int_type(_Traits::eof(),
; 685  : 					_Ostr.rdbuf()->sputc(_Ostr.fill())))

	mov	rax, QWORD PTR [rsi]
	movsxd	rcx, DWORD PTR [rax+4]
	movzx	edx, WORD PTR [rcx+rsi+88]
	mov	rcx, QWORD PTR [rcx+rsi+72]
	call	QWORD PTR __imp_?sputc@?$basic_streambuf@_WU?$char_traits@_W@std@@@std@@QEAAG_W@Z
	cmp	r13w, ax
	jne	SHORT $LN3@operator@6

; 686  : 					{	// insertion failed, quit
; 687  : 					_State |= ios_base::badbit;

	or	ebx, r12d
	mov	DWORD PTR _State$[rsp], ebx

; 688  : 					break;

	jmp	SHORT $LN2@operator@6
$LN3@operator@6:

; 680  : 					_State |= ios_base::badbit;
; 681  : 
; 682  : 		if (_State == ios_base::goodbit)
; 683  : 			for (; 0 < _Pad; --_Pad)	// pad on right

	dec	rdi
	jmp	SHORT $LL105@operator@6
$LN2@operator@6:

; 689  : 					}
; 690  : 		_Ostr.width(0);

	mov	rax, QWORD PTR [rsi]
	movsxd	rcx, DWORD PTR [rax+4]
	mov	QWORD PTR [rcx+rsi+40], 0
	mov	r13, QWORD PTR _Ok$[rsp]
	jmp	SHORT $LN26@operator@6
$LN27@operator@6:

; 691  : 		_CATCH_IO_(_Ostr)

	mov	rsi, QWORD PTR _Ostr$[rsp]
	mov	ebx, DWORD PTR _State$[rsp]
	mov	r13, QWORD PTR _Ok$[rsp]
$LN26@operator@6:

; 692  : 		}
; 693  : 
; 694  : 	_Ostr.setstate(_State);

	mov	rax, QWORD PTR [rsi]
	movsxd	rcx, DWORD PTR [rax+4]
	add	rcx, rsi
	xor	r8d, r8d
	mov	edx, ebx
	call	QWORD PTR __imp_?setstate@?$basic_ios@_WU?$char_traits@_W@std@@@std@@QEAAXH_N@Z
	npad	1

; 695  : 	return (_Ostr);

	call	QWORD PTR __imp_?uncaught_exception@std@@YA_NXZ
	test	al, al
	jne	SHORT $LN85@operator@6
	mov	rcx, r13
	call	QWORD PTR __imp_?_Osfx@?$basic_ostream@_WU?$char_traits@_W@std@@@std@@QEAAXXZ
	npad	1
$LN85@operator@6:
	mov	rax, QWORD PTR [r13]
	movsxd	rcx, DWORD PTR [rax+4]
	mov	rcx, QWORD PTR [rcx+r13+72]
	test	rcx, rcx
	je	SHORT $LN106@operator@6
	call	QWORD PTR __imp_?_Unlock@?$basic_streambuf@_WU?$char_traits@_W@std@@@std@@QEAAXXZ
	mov	rax, rsi
	jmp	SHORT $LN89@operator@6
$LN106@operator@6:
	mov	rax, rsi
$LN89@operator@6:

; 696  : 	}

	add	rsp, 80					; 00000050H
	pop	r15
	pop	r14
	pop	r13
	pop	r12
	pop	rdi
	pop	rsi
	pop	rbx
	ret	0
??$?6_WU?$char_traits@_W@std@@@std@@YAAEAV?$basic_ostream@_WU?$char_traits@_W@std@@@0@AEAV10@PEBD@Z ENDP ; std::operator<<<wchar_t,std::char_traits<wchar_t> >
; Function compile flags: /Ogtpy
_TEXT	ENDS
;	COMDAT text$x
text$x	SEGMENT
$T151896 = 32
_Ctype_fac$1$ = 40
$T152112 = 48
_Ok$ = 56
_Ostr$ = 144
_Val$ = 152
_State$ = 160
_Val$1$ = 168
?dtor$2@?0???$?6_WU?$char_traits@_W@std@@@std@@YAAEAV?$basic_ostream@_WU?$char_traits@_W@std@@@0@AEAV10@PEBD@Z@4HA PROC ; `std::operator<<<wchar_t,std::char_traits<wchar_t> >'::`1'::dtor$2
	push	rbp
	sub	rsp, 32					; 00000020H
	mov	rbp, rdx
	lea	rcx, QWORD PTR _Ok$[rbp]
	call	??1_Sentry_base@?$basic_ostream@_WU?$char_traits@_W@std@@@std@@QEAA@XZ ; std::basic_ostream<wchar_t,std::char_traits<wchar_t> >::_Sentry_base::~_Sentry_base
	add	rsp, 32					; 00000020H
	pop	rbp
	ret	0
?dtor$2@?0???$?6_WU?$char_traits@_W@std@@@std@@YAAEAV?$basic_ostream@_WU?$char_traits@_W@std@@@0@AEAV10@PEBD@Z@4HA ENDP ; `std::operator<<<wchar_t,std::char_traits<wchar_t> >'::`1'::dtor$2
; Function compile flags: /Ogtpy
$T151896 = 32
_Ctype_fac$1$ = 40
$T152112 = 48
_Ok$ = 56
_Ostr$ = 144
_Val$ = 152
_State$ = 160
_Val$1$ = 168
?dtor$0@?0???$?6_WU?$char_traits@_W@std@@@std@@YAAEAV?$basic_ostream@_WU?$char_traits@_W@std@@@0@AEAV10@PEBD@Z@4HA PROC ; `std::operator<<<wchar_t,std::char_traits<wchar_t> >'::`1'::dtor$0
	push	rbp
	sub	rsp, 32					; 00000020H
	mov	rbp, rdx
	lea	rcx, QWORD PTR _Ok$[rbp]
	call	??1sentry@?$basic_ostream@_WU?$char_traits@_W@std@@@std@@QEAA@XZ ; std::basic_ostream<wchar_t,std::char_traits<wchar_t> >::sentry::~sentry
	add	rsp, 32					; 00000020H
	pop	rbp
	ret	0
?dtor$0@?0???$?6_WU?$char_traits@_W@std@@@std@@YAAEAV?$basic_ostream@_WU?$char_traits@_W@std@@@0@AEAV10@PEBD@Z@4HA ENDP ; `std::operator<<<wchar_t,std::char_traits<wchar_t> >'::`1'::dtor$0
; Function compile flags: /Ogtpy
$T151896 = 32
_Ctype_fac$1$ = 40
$T152112 = 48
_Ok$ = 56
_Ostr$ = 144
_Val$ = 152
_State$ = 160
_Val$1$ = 168
?dtor$1@?0???$?6_WU?$char_traits@_W@std@@@std@@YAAEAV?$basic_ostream@_WU?$char_traits@_W@std@@@0@AEAV10@PEBD@Z@4HA PROC ; `std::operator<<<wchar_t,std::char_traits<wchar_t> >'::`1'::dtor$1
	push	rbp
	sub	rsp, 32					; 00000020H
	mov	rbp, rdx
	lea	rcx, QWORD PTR $T151896[rbp]
	call	QWORD PTR __imp_??1locale@std@@QEAA@XZ
	add	rsp, 32					; 00000020H
	pop	rbp
	ret	0
?dtor$1@?0???$?6_WU?$char_traits@_W@std@@@std@@YAAEAV?$basic_ostream@_WU?$char_traits@_W@std@@@0@AEAV10@PEBD@Z@4HA ENDP ; `std::operator<<<wchar_t,std::char_traits<wchar_t> >'::`1'::dtor$1
; Function compile flags: /Ogtpy
$T151896 = 32
_Ctype_fac$1$ = 40
$T152112 = 48
_Ok$ = 56
_Ostr$ = 144
_Val$ = 152
_State$ = 160
_Val$1$ = 168
?catch$0@?0???$?6_WU?$char_traits@_W@std@@@std@@YAAEAV?$basic_ostream@_WU?$char_traits@_W@std@@@0@AEAV10@PEBD@Z@4HA PROC ; `std::operator<<<wchar_t,std::char_traits<wchar_t> >'::`1'::catch$0

; 691  : 		_CATCH_IO_(_Ostr)

	mov	QWORD PTR [rsp+16], rdx
	push	rbp
	push	r12
	sub	rsp, 40					; 00000028H
	mov	rbp, rdx
__catch$??$?6_WU?$char_traits@_W@std@@@std@@YAAEAV?$basic_ostream@_WU?$char_traits@_W@std@@@0@AEAV10@PEBD@Z$0:
	mov	rdx, QWORD PTR _Ostr$[rbp]
	mov	rax, QWORD PTR [rdx]
	movsxd	rcx, DWORD PTR [rax+4]
	add	rcx, rdx
	mov	r8b, 1
	mov	edx, 4
	call	QWORD PTR __imp_?setstate@?$basic_ios@_WU?$char_traits@_W@std@@@std@@QEAAXH_N@Z
	npad	1
	lea	rax, $LN27@catch$0@3
	jmp	SHORT $LN109@catch$0@3
$LN109@catch$0@3:
	add	rsp, 40					; 00000028H
	pop	r12
	pop	rbp
	ret	0
	int	3
?catch$0@?0???$?6_WU?$char_traits@_W@std@@@std@@YAAEAV?$basic_ostream@_WU?$char_traits@_W@std@@@0@AEAV10@PEBD@Z@4HA ENDP ; `std::operator<<<wchar_t,std::char_traits<wchar_t> >'::`1'::catch$0
; Function compile flags: /Ogtpy
$T151896 = 32
_Ctype_fac$1$ = 40
$T152112 = 48
_Ok$ = 56
_Ostr$ = 144
_Val$ = 152
_State$ = 160
_Val$1$ = 168
?dtor$3@?0???$?6_WU?$char_traits@_W@std@@@std@@YAAEAV?$basic_ostream@_WU?$char_traits@_W@std@@@0@AEAV10@PEBD@Z@4HA PROC ; `std::operator<<<wchar_t,std::char_traits<wchar_t> >'::`1'::dtor$3
	push	rbp
	sub	rsp, 32					; 00000020H

; 655  : 	{	// insert NTBS

	mov	rbp, rdx
	lea	rcx, QWORD PTR _Ok$[rbp]
	call	??1_Sentry_base@?$basic_ostream@_WU?$char_traits@_W@std@@@std@@QEAA@XZ ; std::basic_ostream<wchar_t,std::char_traits<wchar_t> >::_Sentry_base::~_Sentry_base
	add	rsp, 32					; 00000020H
	pop	rbp
	ret	0
?dtor$3@?0???$?6_WU?$char_traits@_W@std@@@std@@YAAEAV?$basic_ostream@_WU?$char_traits@_W@std@@@0@AEAV10@PEBD@Z@4HA ENDP ; `std::operator<<<wchar_t,std::char_traits<wchar_t> >'::`1'::dtor$3
text$x	ENDS
;	COMDAT pdata
; File c:\program files\microsoft visual studio 9.0\vc\include\ios
pdata	SEGMENT
$pdata$??$?6_WU?$char_traits@_W@std@@@std@@YAAEAV?$basic_ostream@_WU?$char_traits@_W@std@@@0@AEAV10@D@Z DD imagerel $LN97
	DD	imagerel $LN97+531
	DD	imagerel $unwind$??$?6_WU?$char_traits@_W@std@@@std@@YAAEAV?$basic_ostream@_WU?$char_traits@_W@std@@@0@AEAV10@D@Z
pdata	ENDS
;	COMDAT pdata
pdata	SEGMENT
$pdata$?dtor$2@?0???$?6_WU?$char_traits@_W@std@@@std@@YAAEAV?$basic_ostream@_WU?$char_traits@_W@std@@@0@AEAV10@D@Z@4HA DD imagerel ?dtor$2@?0???$?6_WU?$char_traits@_W@std@@@std@@YAAEAV?$basic_ostream@_WU?$char_traits@_W@std@@@0@AEAV10@D@Z@4HA
	DD	imagerel ?dtor$2@?0???$?6_WU?$char_traits@_W@std@@@std@@YAAEAV?$basic_ostream@_WU?$char_traits@_W@std@@@0@AEAV10@D@Z@4HA+24
	DD	imagerel $unwind$?dtor$2@?0???$?6_WU?$char_traits@_W@std@@@std@@YAAEAV?$basic_ostream@_WU?$char_traits@_W@std@@@0@AEAV10@D@Z@4HA
pdata	ENDS
;	COMDAT pdata
pdata	SEGMENT
$pdata$?dtor$0@?0???$?6_WU?$char_traits@_W@std@@@std@@YAAEAV?$basic_ostream@_WU?$char_traits@_W@std@@@0@AEAV10@D@Z@4HA DD imagerel ?dtor$0@?0???$?6_WU?$char_traits@_W@std@@@std@@YAAEAV?$basic_ostream@_WU?$char_traits@_W@std@@@0@AEAV10@D@Z@4HA
	DD	imagerel ?dtor$0@?0???$?6_WU?$char_traits@_W@std@@@std@@YAAEAV?$basic_ostream@_WU?$char_traits@_W@std@@@0@AEAV10@D@Z@4HA+24
	DD	imagerel $unwind$?dtor$0@?0???$?6_WU?$char_traits@_W@std@@@std@@YAAEAV?$basic_ostream@_WU?$char_traits@_W@std@@@0@AEAV10@D@Z@4HA
pdata	ENDS
;	COMDAT pdata
pdata	SEGMENT
$pdata$?dtor$1@?0???$?6_WU?$char_traits@_W@std@@@std@@YAAEAV?$basic_ostream@_WU?$char_traits@_W@std@@@0@AEAV10@D@Z@4HA DD imagerel ?dtor$1@?0???$?6_WU?$char_traits@_W@std@@@std@@YAAEAV?$basic_ostream@_WU?$char_traits@_W@std@@@0@AEAV10@D@Z@4HA
	DD	imagerel ?dtor$1@?0???$?6_WU?$char_traits@_W@std@@@std@@YAAEAV?$basic_ostream@_WU?$char_traits@_W@std@@@0@AEAV10@D@Z@4HA+28
	DD	imagerel $unwind$?dtor$1@?0???$?6_WU?$char_traits@_W@std@@@std@@YAAEAV?$basic_ostream@_WU?$char_traits@_W@std@@@0@AEAV10@D@Z@4HA
pdata	ENDS
;	COMDAT pdata
pdata	SEGMENT
$pdata$?catch$0@?0???$?6_WU?$char_traits@_W@std@@@std@@YAAEAV?$basic_ostream@_WU?$char_traits@_W@std@@@0@AEAV10@D@Z@4HA DD imagerel ?catch$0@?0???$?6_WU?$char_traits@_W@std@@@std@@YAAEAV?$basic_ostream@_WU?$char_traits@_W@std@@@0@AEAV10@D@Z@4HA
	DD	imagerel ?catch$0@?0???$?6_WU?$char_traits@_W@std@@@std@@YAAEAV?$basic_ostream@_WU?$char_traits@_W@std@@@0@AEAV10@D@Z@4HA+65
	DD	imagerel $unwind$?catch$0@?0???$?6_WU?$char_traits@_W@std@@@std@@YAAEAV?$basic_ostream@_WU?$char_traits@_W@std@@@0@AEAV10@D@Z@4HA
pdata	ENDS
;	COMDAT pdata
pdata	SEGMENT
$pdata$?dtor$3@?0???$?6_WU?$char_traits@_W@std@@@std@@YAAEAV?$basic_ostream@_WU?$char_traits@_W@std@@@0@AEAV10@D@Z@4HA DD imagerel ?dtor$3@?0???$?6_WU?$char_traits@_W@std@@@std@@YAAEAV?$basic_ostream@_WU?$char_traits@_W@std@@@0@AEAV10@D@Z@4HA
	DD	imagerel ?dtor$3@?0???$?6_WU?$char_traits@_W@std@@@std@@YAAEAV?$basic_ostream@_WU?$char_traits@_W@std@@@0@AEAV10@D@Z@4HA+24
	DD	imagerel $unwind$?dtor$3@?0???$?6_WU?$char_traits@_W@std@@@std@@YAAEAV?$basic_ostream@_WU?$char_traits@_W@std@@@0@AEAV10@D@Z@4HA
pdata	ENDS
;	COMDAT xdata
xdata	SEGMENT
$ip2state$??$?6_WU?$char_traits@_W@std@@@std@@YAAEAV?$basic_ostream@_WU?$char_traits@_W@std@@@0@AEAV10@D@Z DD imagerel ??$?6_WU?$char_traits@_W@std@@@std@@YAAEAV?$basic_ostream@_WU?$char_traits@_W@std@@@0@AEAV10@D@Z
	DD	0ffffffffH
	DD	imagerel ??$?6_WU?$char_traits@_W@std@@@std@@YAAEAV?$basic_ostream@_WU?$char_traits@_W@std@@@0@AEAV10@D@Z+73
	DD	00H
	DD	imagerel ??$?6_WU?$char_traits@_W@std@@@std@@YAAEAV?$basic_ostream@_WU?$char_traits@_W@std@@@0@AEAV10@D@Z+122
	DD	01H
	DD	imagerel ??$?6_WU?$char_traits@_W@std@@@std@@YAAEAV?$basic_ostream@_WU?$char_traits@_W@std@@@0@AEAV10@D@Z+152
	DD	02H
	DD	imagerel ??$?6_WU?$char_traits@_W@std@@@std@@YAAEAV?$basic_ostream@_WU?$char_traits@_W@std@@@0@AEAV10@D@Z+165
	DD	01H
	DD	imagerel ??$?6_WU?$char_traits@_W@std@@@std@@YAAEAV?$basic_ostream@_WU?$char_traits@_W@std@@@0@AEAV10@D@Z+204
	DD	03H
	DD	imagerel ??$?6_WU?$char_traits@_W@std@@@std@@YAAEAV?$basic_ostream@_WU?$char_traits@_W@std@@@0@AEAV10@D@Z+404
	DD	01H
	DD	imagerel ??$?6_WU?$char_traits@_W@std@@@std@@YAAEAV?$basic_ostream@_WU?$char_traits@_W@std@@@0@AEAV10@D@Z+464
	DD	05H
	DD	imagerel ??$?6_WU?$char_traits@_W@std@@@std@@YAAEAV?$basic_ostream@_WU?$char_traits@_W@std@@@0@AEAV10@D@Z+484
	DD	0ffffffffH
	DD	imagerel ?catch$0@?0???$?6_WU?$char_traits@_W@std@@@std@@YAAEAV?$basic_ostream@_WU?$char_traits@_W@std@@@0@AEAV10@D@Z@4HA
	DD	00H
	DD	imagerel ?catch$0@?0???$?6_WU?$char_traits@_W@std@@@std@@YAAEAV?$basic_ostream@_WU?$char_traits@_W@std@@@0@AEAV10@D@Z@4HA+15
	DD	04H
	DD	imagerel ?catch$0@?0???$?6_WU?$char_traits@_W@std@@@std@@YAAEAV?$basic_ostream@_WU?$char_traits@_W@std@@@0@AEAV10@D@Z@4HA+47
	DD	00H
xdata	ENDS
;	COMDAT xdata
xdata	SEGMENT
$unwind$?dtor$3@?0???$?6_WU?$char_traits@_W@std@@@std@@YAAEAV?$basic_ostream@_WU?$char_traits@_W@std@@@0@AEAV10@D@Z@4HA DD 020601H
	DD	050023206H
xdata	ENDS
;	COMDAT xdata
xdata	SEGMENT
$unwind$?catch$0@?0???$?6_WU?$char_traits@_W@std@@@std@@YAAEAV?$basic_ostream@_WU?$char_traits@_W@std@@@0@AEAV10@D@Z@4HA DD 030c19H
	DD	0c008420cH
	DD	05006H
	DD	imagerel __CxxFrameHandler3
	DD	imagerel $cppxdata$??$?6_WU?$char_traits@_W@std@@@std@@YAAEAV?$basic_ostream@_WU?$char_traits@_W@std@@@0@AEAV10@D@Z
xdata	ENDS
;	COMDAT xdata
xdata	SEGMENT
$unwind$?dtor$1@?0???$?6_WU?$char_traits@_W@std@@@std@@YAAEAV?$basic_ostream@_WU?$char_traits@_W@std@@@0@AEAV10@D@Z@4HA DD 020601H
	DD	050023206H
xdata	ENDS
;	COMDAT xdata
xdata	SEGMENT
$unwind$?dtor$0@?0???$?6_WU?$char_traits@_W@std@@@std@@YAAEAV?$basic_ostream@_WU?$char_traits@_W@std@@@0@AEAV10@D@Z@4HA DD 020601H
	DD	050023206H
xdata	ENDS
;	COMDAT xdata
xdata	SEGMENT
$unwind$?dtor$2@?0???$?6_WU?$char_traits@_W@std@@@std@@YAAEAV?$basic_ostream@_WU?$char_traits@_W@std@@@0@AEAV10@D@Z@4HA DD 020601H
	DD	050023206H
xdata	ENDS
;	COMDAT xdata
xdata	SEGMENT
$unwind$??$?6_WU?$char_traits@_W@std@@@std@@YAAEAV?$basic_ostream@_WU?$char_traits@_W@std@@@0@AEAV10@D@Z DD 081d19H
	DD	0f0107214H
	DD	0d00ce00eH
	DD	07008c00aH
	DD	030066007H
	DD	imagerel __CxxFrameHandler3
	DD	imagerel $cppxdata$??$?6_WU?$char_traits@_W@std@@@std@@YAAEAV?$basic_ostream@_WU?$char_traits@_W@std@@@0@AEAV10@D@Z
xdata	ENDS
;	COMDAT CONST
CONST	SEGMENT
$cppxdata$??$?6_WU?$char_traits@_W@std@@@std@@YAAEAV?$basic_ostream@_WU?$char_traits@_W@std@@@0@AEAV10@D@Z DD 019930522H
	DD	06H
	DD	imagerel $stateUnwindMap$??$?6_WU?$char_traits@_W@std@@@std@@YAAEAV?$basic_ostream@_WU?$char_traits@_W@std@@@0@AEAV10@D@Z
	DD	01H
	DD	imagerel $tryMap$??$?6_WU?$char_traits@_W@std@@@std@@YAAEAV?$basic_ostream@_WU?$char_traits@_W@std@@@0@AEAV10@D@Z
	DD	0cH
	DD	imagerel $ip2state$??$?6_WU?$char_traits@_W@std@@@std@@YAAEAV?$basic_ostream@_WU?$char_traits@_W@std@@@0@AEAV10@D@Z
	DD	028H
	DD	00H
	DD	01H
CONST	ENDS
;	COMDAT xdata
xdata	SEGMENT
$tryMap$??$?6_WU?$char_traits@_W@std@@@std@@YAAEAV?$basic_ostream@_WU?$char_traits@_W@std@@@0@AEAV10@D@Z DD 03H
	DD	03H
	DD	04H
	DD	01H
	DD	imagerel $handlerMap$0$??$?6_WU?$char_traits@_W@std@@@std@@YAAEAV?$basic_ostream@_WU?$char_traits@_W@std@@@0@AEAV10@D@Z
xdata	ENDS
;	COMDAT xdata
xdata	SEGMENT
$handlerMap$0$??$?6_WU?$char_traits@_W@std@@@std@@YAAEAV?$basic_ostream@_WU?$char_traits@_W@std@@@0@AEAV10@D@Z DD 040H
	DD	00H
	DD	00H
	DD	imagerel ?catch$0@?0???$?6_WU?$char_traits@_W@std@@@std@@YAAEAV?$basic_ostream@_WU?$char_traits@_W@std@@@0@AEAV10@D@Z@4HA
	DD	048H
xdata	ENDS
;	COMDAT xdata
xdata	SEGMENT
$stateUnwindMap$??$?6_WU?$char_traits@_W@std@@@std@@YAAEAV?$basic_ostream@_WU?$char_traits@_W@std@@@0@AEAV10@D@Z DD 0ffffffffH
	DD	imagerel ?dtor$2@?0???$?6_WU?$char_traits@_W@std@@@std@@YAAEAV?$basic_ostream@_WU?$char_traits@_W@std@@@0@AEAV10@D@Z@4HA
	DD	0ffffffffH
	DD	imagerel ?dtor$0@?0???$?6_WU?$char_traits@_W@std@@@std@@YAAEAV?$basic_ostream@_WU?$char_traits@_W@std@@@0@AEAV10@D@Z@4HA
	DD	01H
	DD	imagerel ?dtor$1@?0???$?6_WU?$char_traits@_W@std@@@std@@YAAEAV?$basic_ostream@_WU?$char_traits@_W@std@@@0@AEAV10@D@Z@4HA
	DD	01H
	DD	00H
	DD	01H
	DD	00H
	DD	0ffffffffH
	DD	imagerel ?dtor$3@?0???$?6_WU?$char_traits@_W@std@@@std@@YAAEAV?$basic_ostream@_WU?$char_traits@_W@std@@@0@AEAV10@D@Z@4HA
; Function compile flags: /Ogtpy
; File c:\program files\microsoft visual studio 9.0\vc\include\ostream
xdata	ENDS
;	COMDAT ??$?6_WU?$char_traits@_W@std@@@std@@YAAEAV?$basic_ostream@_WU?$char_traits@_W@std@@@0@AEAV10@D@Z
_TEXT	SEGMENT
_Ctype_fac$1$ = 32
$T152360 = 40
_Ok$ = 48
_Ostr$ = 128
_Ch$ = 136
_State$ = 144
$T152154 = 152
??$?6_WU?$char_traits@_W@std@@@std@@YAAEAV?$basic_ostream@_WU?$char_traits@_W@std@@@0@AEAV10@D@Z PROC ; std::operator<<<wchar_t,std::char_traits<wchar_t> >, COMDAT

; 702  : 	{	// insert a character

$LN97:
	mov	QWORD PTR [rsp+8], rcx
	push	rbx
	push	rsi
	push	rdi
	push	r12
	push	r13
	push	r14
	push	r15
	sub	rsp, 64					; 00000040H
	mov	QWORD PTR $T152360[rsp], -2
	mov	rdi, rcx

; 703  : 	ios_base::iostate _State = ios_base::goodbit;

	xor	ebx, ebx
	mov	DWORD PTR _State$[rsp], ebx

; 704  : 	const typename basic_ostream<_Elem, _Traits>::sentry _Ok(_Ostr);

	mov	r14, rcx
	mov	QWORD PTR _Ok$[rsp], rcx
	mov	rax, QWORD PTR [rcx]
	movsxd	rdx, DWORD PTR [rax+4]
	mov	rcx, QWORD PTR [rdx+rcx+72]
	test	rcx, rcx
	je	SHORT $LN27@operator@7
	call	QWORD PTR __imp_?_Lock@?$basic_streambuf@_WU?$char_traits@_W@std@@@std@@QEAAXXZ
	npad	1
$LN27@operator@7:
	mov	rax, QWORD PTR [rdi]
	movsxd	rcx, DWORD PTR [rax+4]
	cmp	DWORD PTR [rcx+rdi+16], 0
	jne	SHORT $LN23@operator@7
	mov	rcx, QWORD PTR [rcx+rdi+80]
	test	rcx, rcx
	je	SHORT $LN23@operator@7
	call	QWORD PTR __imp_?flush@?$basic_ostream@_WU?$char_traits@_W@std@@@std@@QEAAAEAV12@XZ
$LN23@operator@7:
	mov	rcx, QWORD PTR [rdi]
	movsxd	rax, DWORD PTR [rcx+4]
	cmp	DWORD PTR [rax+rdi+16], 0
	sete	al
	mov	BYTE PTR _Ok$[rsp+8], al

; 705  : 
; 706  : 	if (_Ok)

	test	al, al
	je	$LN21@operator@7

; 707  : 		{	// state okay, insert
; 708  : 		const ctype<_Elem>& _Ctype_fac = _USE(_Ostr.getloc(), ctype<_Elem>);

	movsxd	rcx, DWORD PTR [rcx+4]
	add	rcx, rdi
	lea	rdx, QWORD PTR $T152154[rsp]
	call	QWORD PTR __imp_?getloc@ios_base@std@@QEBA?AVlocale@2@XZ
	npad	1
	mov	rcx, rax
	call	??$use_facet@V?$ctype@_W@std@@@std@@YAAEBV?$ctype@_W@0@AEBVlocale@0@@Z ; std::use_facet<std::ctype<wchar_t> >
	mov	QWORD PTR _Ctype_fac$1$[rsp], rax
	lea	rcx, QWORD PTR $T152154[rsp]
	call	QWORD PTR __imp_??1locale@std@@QEAA@XZ

; 709  : 		streamsize _Pad = _Ostr.width() <= 1 ? 0 : _Ostr.width() - 1;

	mov	r11, QWORD PTR [rdi]
	movsxd	rcx, DWORD PTR [r11+4]
	mov	rsi, QWORD PTR [rcx+rdi+40]
	cmp	rsi, 1
	jg	SHORT $LN15@operator@7
	xor	esi, esi
	jmp	SHORT $LN16@operator@7
$LN15@operator@7:
	dec	rsi
$LN16@operator@7:

; 710  : 
; 711  : 		_TRY_IO_BEGIN
; 712  : 		if ((_Ostr.flags() & ios_base::adjustfield) != ios_base::left)

	mov	eax, DWORD PTR [rcx+rdi+24]
	and	eax, 448				; 000001c0H
	cmp	eax, 64					; 00000040H
	je	SHORT $LN95@operator@7
	mov	r12d, 4
	mov	r13d, 65535				; 0000ffffH
$LL9@operator@7:

; 713  : 			for (; _State == ios_base::goodbit && 0 < _Pad;
; 714  : 				--_Pad)	// pad on left

	test	ebx, ebx
	jne	$LN2@operator@7
	test	rsi, rsi
	jle	SHORT $LN92@operator@7

; 715  : 				if (_Traits::eq_int_type(_Traits::eof(),
; 716  : 					_Ostr.rdbuf()->sputc(_Ostr.fill())))

	mov	rax, QWORD PTR [rdi]
	movsxd	rcx, DWORD PTR [rax+4]
	movzx	edx, WORD PTR [rcx+rdi+88]
	mov	rcx, QWORD PTR [rcx+rdi+72]
	call	QWORD PTR __imp_?sputc@?$basic_streambuf@_WU?$char_traits@_W@std@@@std@@QEAAG_W@Z
	cmp	r13w, ax
	cmove	ebx, r12d
	mov	DWORD PTR _State$[rsp], ebx

; 713  : 			for (; _State == ios_base::goodbit && 0 < _Pad;
; 714  : 				--_Pad)	// pad on left

	dec	rsi
	jmp	SHORT $LL9@operator@7
$LN95@operator@7:
	mov	r12d, 4
	mov	r13d, 65535				; 0000ffffH
$LN92@operator@7:

; 717  : 					_State |= ios_base::badbit;
; 718  : 
; 719  : 		if (_State == ios_base::goodbit
; 720  : 			&& _Traits::eq_int_type(_Traits::eof(),
; 721  : 				_Ostr.rdbuf()->sputc(_Ctype_fac.widen(_Ch))))

	mov	rax, QWORD PTR [rdi]
	movsxd	rcx, DWORD PTR [rax+4]
	mov	r15, QWORD PTR [rcx+rdi+72]
	mov	dl, 34					; 00000022H
	mov	rcx, QWORD PTR _Ctype_fac$1$[rsp]
	call	QWORD PTR __imp_?widen@?$ctype@_W@std@@QEBA_WD@Z
	movzx	edx, ax
	mov	rcx, r15
	call	QWORD PTR __imp_?sputc@?$basic_streambuf@_WU?$char_traits@_W@std@@@std@@QEAAG_W@Z
	cmp	r13w, ax
	cmove	ebx, r12d
	mov	DWORD PTR _State$[rsp], ebx
	npad	2
$LL93@operator@7:

; 722  : 			_State |= ios_base::badbit;
; 723  : 
; 724  : 		for (; _State == ios_base::goodbit && 0 < _Pad;
; 725  : 			--_Pad)	// pad on right

	test	ebx, ebx
	jne	SHORT $LN2@operator@7
	test	rsi, rsi
	jle	SHORT $LN2@operator@7

; 726  : 			if (_Traits::eq_int_type(_Traits::eof(),
; 727  : 				_Ostr.rdbuf()->sputc(_Ostr.fill())))

	mov	rax, QWORD PTR [rdi]
	movsxd	rcx, DWORD PTR [rax+4]
	movzx	edx, WORD PTR [rcx+rdi+88]
	mov	rcx, QWORD PTR [rcx+rdi+72]
	call	QWORD PTR __imp_?sputc@?$basic_streambuf@_WU?$char_traits@_W@std@@@std@@QEAAG_W@Z
	cmp	r13w, ax
	cmove	ebx, r12d
	mov	DWORD PTR _State$[rsp], ebx

; 722  : 			_State |= ios_base::badbit;
; 723  : 
; 724  : 		for (; _State == ios_base::goodbit && 0 < _Pad;
; 725  : 			--_Pad)	// pad on right

	dec	rsi
	jmp	SHORT $LL93@operator@7
$LN2@operator@7:
	jmp	SHORT $LN21@operator@7
$LN22@operator@7:

; 728  : 				_State |= ios_base::badbit;
; 729  : 		_CATCH_IO_(_Ostr)

	mov	rdi, QWORD PTR _Ostr$[rsp]
	mov	ebx, DWORD PTR _State$[rsp]
	mov	r14, QWORD PTR _Ok$[rsp]
$LN21@operator@7:

; 730  : 		}
; 731  : 
; 732  : 	_Ostr.width(0);

	mov	rax, QWORD PTR [rdi]
	movsxd	rcx, DWORD PTR [rax+4]
	mov	QWORD PTR [rcx+rdi+40], 0

; 733  : 	_Ostr.setstate(_State);

	mov	rax, QWORD PTR [rdi]
	movsxd	rcx, DWORD PTR [rax+4]
	add	rcx, rdi
	xor	r8d, r8d
	mov	edx, ebx
	call	QWORD PTR __imp_?setstate@?$basic_ios@_WU?$char_traits@_W@std@@@std@@QEAAXH_N@Z
	npad	1

; 734  : 	return (_Ostr);

	call	QWORD PTR __imp_?uncaught_exception@std@@YA_NXZ
	test	al, al
	jne	SHORT $LN78@operator@7
	mov	rcx, r14
	call	QWORD PTR __imp_?_Osfx@?$basic_ostream@_WU?$char_traits@_W@std@@@std@@QEAAXXZ
	npad	1
$LN78@operator@7:
	mov	rax, QWORD PTR [r14]
	movsxd	rcx, DWORD PTR [rax+4]
	mov	rcx, QWORD PTR [rcx+r14+72]
	test	rcx, rcx
	je	SHORT $LN94@operator@7
	call	QWORD PTR __imp_?_Unlock@?$basic_streambuf@_WU?$char_traits@_W@std@@@std@@QEAAXXZ
	mov	rax, rdi
	jmp	SHORT $LN82@operator@7
$LN94@operator@7:
	mov	rax, rdi
$LN82@operator@7:

; 735  : 	}

	add	rsp, 64					; 00000040H
	pop	r15
	pop	r14
	pop	r13
	pop	r12
	pop	rdi
	pop	rsi
	pop	rbx
	ret	0
??$?6_WU?$char_traits@_W@std@@@std@@YAAEAV?$basic_ostream@_WU?$char_traits@_W@std@@@0@AEAV10@D@Z ENDP ; std::operator<<<wchar_t,std::char_traits<wchar_t> >
; Function compile flags: /Ogtpy
_TEXT	ENDS
;	COMDAT text$x
text$x	SEGMENT
_Ctype_fac$1$ = 32
$T152360 = 40
_Ok$ = 48
_Ostr$ = 128
_Ch$ = 136
_State$ = 144
$T152154 = 152
?dtor$2@?0???$?6_WU?$char_traits@_W@std@@@std@@YAAEAV?$basic_ostream@_WU?$char_traits@_W@std@@@0@AEAV10@D@Z@4HA PROC ; `std::operator<<<wchar_t,std::char_traits<wchar_t> >'::`1'::dtor$2
	push	rbp
	sub	rsp, 32					; 00000020H
	mov	rbp, rdx
	lea	rcx, QWORD PTR _Ok$[rbp]
	call	??1_Sentry_base@?$basic_ostream@_WU?$char_traits@_W@std@@@std@@QEAA@XZ ; std::basic_ostream<wchar_t,std::char_traits<wchar_t> >::_Sentry_base::~_Sentry_base
	add	rsp, 32					; 00000020H
	pop	rbp
	ret	0
?dtor$2@?0???$?6_WU?$char_traits@_W@std@@@std@@YAAEAV?$basic_ostream@_WU?$char_traits@_W@std@@@0@AEAV10@D@Z@4HA ENDP ; `std::operator<<<wchar_t,std::char_traits<wchar_t> >'::`1'::dtor$2
; Function compile flags: /Ogtpy
_Ctype_fac$1$ = 32
$T152360 = 40
_Ok$ = 48
_Ostr$ = 128
_Ch$ = 136
_State$ = 144
$T152154 = 152
?dtor$0@?0???$?6_WU?$char_traits@_W@std@@@std@@YAAEAV?$basic_ostream@_WU?$char_traits@_W@std@@@0@AEAV10@D@Z@4HA PROC ; `std::operator<<<wchar_t,std::char_traits<wchar_t> >'::`1'::dtor$0
	push	rbp
	sub	rsp, 32					; 00000020H
	mov	rbp, rdx
	lea	rcx, QWORD PTR _Ok$[rbp]
	call	??1sentry@?$basic_ostream@_WU?$char_traits@_W@std@@@std@@QEAA@XZ ; std::basic_ostream<wchar_t,std::char_traits<wchar_t> >::sentry::~sentry
	add	rsp, 32					; 00000020H
	pop	rbp
	ret	0
?dtor$0@?0???$?6_WU?$char_traits@_W@std@@@std@@YAAEAV?$basic_ostream@_WU?$char_traits@_W@std@@@0@AEAV10@D@Z@4HA ENDP ; `std::operator<<<wchar_t,std::char_traits<wchar_t> >'::`1'::dtor$0
; Function compile flags: /Ogtpy
_Ctype_fac$1$ = 32
$T152360 = 40
_Ok$ = 48
_Ostr$ = 128
_Ch$ = 136
_State$ = 144
$T152154 = 152
?dtor$1@?0???$?6_WU?$char_traits@_W@std@@@std@@YAAEAV?$basic_ostream@_WU?$char_traits@_W@std@@@0@AEAV10@D@Z@4HA PROC ; `std::operator<<<wchar_t,std::char_traits<wchar_t> >'::`1'::dtor$1
	push	rbp
	sub	rsp, 32					; 00000020H
	mov	rbp, rdx
	lea	rcx, QWORD PTR $T152154[rbp]
	call	QWORD PTR __imp_??1locale@std@@QEAA@XZ
	add	rsp, 32					; 00000020H
	pop	rbp
	ret	0
?dtor$1@?0???$?6_WU?$char_traits@_W@std@@@std@@YAAEAV?$basic_ostream@_WU?$char_traits@_W@std@@@0@AEAV10@D@Z@4HA ENDP ; `std::operator<<<wchar_t,std::char_traits<wchar_t> >'::`1'::dtor$1
; Function compile flags: /Ogtpy
_Ctype_fac$1$ = 32
$T152360 = 40
_Ok$ = 48
_Ostr$ = 128
_Ch$ = 136
_State$ = 144
$T152154 = 152
?catch$0@?0???$?6_WU?$char_traits@_W@std@@@std@@YAAEAV?$basic_ostream@_WU?$char_traits@_W@std@@@0@AEAV10@D@Z@4HA PROC ; `std::operator<<<wchar_t,std::char_traits<wchar_t> >'::`1'::catch$0

; 729  : 		_CATCH_IO_(_Ostr)

	mov	QWORD PTR [rsp+16], rdx
	push	rbp
	push	r12
	sub	rsp, 40					; 00000028H
	mov	rbp, rdx
__catch$??$?6_WU?$char_traits@_W@std@@@std@@YAAEAV?$basic_ostream@_WU?$char_traits@_W@std@@@0@AEAV10@D@Z$0:
	mov	rdx, QWORD PTR _Ostr$[rbp]
	mov	rax, QWORD PTR [rdx]
	movsxd	rcx, DWORD PTR [rax+4]
	add	rcx, rdx
	mov	r8b, 1
	mov	edx, 4
	call	QWORD PTR __imp_?setstate@?$basic_ios@_WU?$char_traits@_W@std@@@std@@QEAAXH_N@Z
	npad	1
	lea	rax, $LN22@catch$0@4
	jmp	SHORT $LN96@catch$0@4
$LN96@catch$0@4:
	add	rsp, 40					; 00000028H
	pop	r12
	pop	rbp
	ret	0
	int	3
?catch$0@?0???$?6_WU?$char_traits@_W@std@@@std@@YAAEAV?$basic_ostream@_WU?$char_traits@_W@std@@@0@AEAV10@D@Z@4HA ENDP ; `std::operator<<<wchar_t,std::char_traits<wchar_t> >'::`1'::catch$0
; Function compile flags: /Ogtpy
_Ctype_fac$1$ = 32
$T152360 = 40
_Ok$ = 48
_Ostr$ = 128
_Ch$ = 136
_State$ = 144
$T152154 = 152
?dtor$3@?0???$?6_WU?$char_traits@_W@std@@@std@@YAAEAV?$basic_ostream@_WU?$char_traits@_W@std@@@0@AEAV10@D@Z@4HA PROC ; `std::operator<<<wchar_t,std::char_traits<wchar_t> >'::`1'::dtor$3
	push	rbp
	sub	rsp, 32					; 00000020H

; 702  : 	{	// insert a character

	mov	rbp, rdx
	lea	rcx, QWORD PTR _Ok$[rbp]
	call	??1_Sentry_base@?$basic_ostream@_WU?$char_traits@_W@std@@@std@@QEAA@XZ ; std::basic_ostream<wchar_t,std::char_traits<wchar_t> >::_Sentry_base::~_Sentry_base
	add	rsp, 32					; 00000020H
	pop	rbp
	ret	0
?dtor$3@?0???$?6_WU?$char_traits@_W@std@@@std@@YAAEAV?$basic_ostream@_WU?$char_traits@_W@std@@@0@AEAV10@D@Z@4HA ENDP ; `std::operator<<<wchar_t,std::char_traits<wchar_t> >'::`1'::dtor$3
text$x	ENDS
;	COMDAT pdata
; File c:\program files\microsoft visual studio 9.0\vc\include\xutility
pdata	SEGMENT
$pdata$??Y?$_Deque_const_iterator@V?$basic_string@_WU?$char_traits@_W@std@@V?$allocator@_W@2@@std@@V?$allocator@V?$basic_string@_WU?$char_traits@_W@std@@V?$allocator@_W@2@@std@@@2@$00@std@@QEAAAEAV01@_J@Z DD imagerel $LN38
	DD	imagerel $LN38+114
	DD	imagerel $unwind$??Y?$_Deque_const_iterator@V?$basic_string@_WU?$char_traits@_W@std@@V?$allocator@_W@2@@std@@V?$allocator@V?$basic_string@_WU?$char_traits@_W@std@@V?$allocator@_W@2@@std@@@2@$00@std@@QEAAAEAV01@_J@Z
pdata	ENDS
;	COMDAT xdata
xdata	SEGMENT
$unwind$??Y?$_Deque_const_iterator@V?$basic_string@_WU?$char_traits@_W@std@@V?$allocator@_W@2@@std@@V?$allocator@V?$basic_string@_WU?$char_traits@_W@std@@V?$allocator@_W@2@@std@@@2@$00@std@@QEAAAEAV01@_J@Z DD 040a01H
	DD	06340aH
	DD	07006320aH
; Function compile flags: /Ogtpy
; File c:\program files\microsoft visual studio 9.0\vc\include\deque
xdata	ENDS
;	COMDAT ??Y?$_Deque_const_iterator@V?$basic_string@_WU?$char_traits@_W@std@@V?$allocator@_W@2@@std@@V?$allocator@V?$basic_string@_WU?$char_traits@_W@std@@V?$allocator@_W@2@@std@@@2@$00@std@@QEAAAEAV01@_J@Z
_TEXT	SEGMENT
this$ = 48
_Off$ = 56
??Y?$_Deque_const_iterator@V?$basic_string@_WU?$char_traits@_W@std@@V?$allocator@_W@2@@std@@V?$allocator@V?$basic_string@_WU?$char_traits@_W@std@@V?$allocator@_W@2@@std@@@2@$00@std@@QEAAAEAV01@_J@Z PROC ; std::_Deque_const_iterator<std::basic_string<wchar_t,std::char_traits<wchar_t>,std::allocator<wchar_t> >,std::allocator<std::basic_string<wchar_t,std::char_traits<wchar_t>,std::allocator<wchar_t> > >,1>::operator+=, COMDAT

; 198  : 		{	// increment by integer

$LN38:
	mov	QWORD PTR [rsp+8], rbx
	push	rdi
	sub	rsp, 32					; 00000020H
	mov	rbx, rcx

; 199  : 		_SCL_SECURE_TRAITS_VALIDATE(this->_Has_container());

	mov	rcx, QWORD PTR [rcx]
	xor	edi, edi
	test	rcx, rcx
	jne	SHORT $LN34@operator@8
	call	QWORD PTR __imp__invalid_parameter_noinfo

; 200  : 		_SCL_SECURE_TRAITS_VALIDATE_RANGE(
; 201  : 			_Myoff + _Off <= ((_Mydeque *)(this->_Getmycont()))->_Myoff + ((_Mydeque *)(this->_Getmycont()))->_Mysize &&
; 202  : 			_Myoff + _Off >= ((_Mydeque *)(this->_Getmycont()))->_Myoff);

	mov	rcx, QWORD PTR [rbx]
	mov	rdx, rdi
	test	rcx, rcx
	je	SHORT $LN24@operator@8
$LN34@operator@8:
	mov	rdx, QWORD PTR [rcx]
	test	rcx, rcx
	je	SHORT $LN24@operator@8
	mov	r8, rdx
	jmp	SHORT $LN25@operator@8
$LN24@operator@8:
	mov	r8, rdi
$LN25@operator@8:
	mov	rax, QWORD PTR [r8+56]
	mov	r9, QWORD PTR [rbx+8]
	add	rax, QWORD PTR [rdx+48]
	dec	r9
	cmp	r9, rax
	ja	SHORT $LN4@operator@8
	test	rcx, rcx
	je	SHORT $LN30@operator@8
	mov	rdi, QWORD PTR [rcx]
$LN30@operator@8:
	cmp	r9, QWORD PTR [rdi+48]
	jae	SHORT $LN36@operator@8
$LN4@operator@8:
	call	QWORD PTR __imp__invalid_parameter_noinfo
$LN36@operator@8:

; 203  : 		_Myoff += _Off;

	dec	QWORD PTR [rbx+8]

; 204  : 		return (*this);

	mov	rax, rbx

; 205  : 		}

	mov	rbx, QWORD PTR [rsp+48]
	add	rsp, 32					; 00000020H
	pop	rdi
	ret	0
??Y?$_Deque_const_iterator@V?$basic_string@_WU?$char_traits@_W@std@@V?$allocator@_W@2@@std@@V?$allocator@V?$basic_string@_WU?$char_traits@_W@std@@V?$allocator@_W@2@@std@@@2@$00@std@@QEAAAEAV01@_J@Z ENDP ; std::_Deque_const_iterator<std::basic_string<wchar_t,std::char_traits<wchar_t>,std::allocator<wchar_t> >,std::allocator<std::basic_string<wchar_t,std::char_traits<wchar_t>,std::allocator<wchar_t> > >,1>::operator+=
_TEXT	ENDS
;	COMDAT pdata
; File c:\program files\microsoft visual studio 9.0\vc\include\xutility
pdata	SEGMENT
$pdata$??Y?$_Deque_const_iterator@_WV?$allocator@_W@std@@$00@std@@QEAAAEAV01@_J@Z DD imagerel $LN38
	DD	imagerel $LN38+114
	DD	imagerel $unwind$??Y?$_Deque_const_iterator@_WV?$allocator@_W@std@@$00@std@@QEAAAEAV01@_J@Z
pdata	ENDS
;	COMDAT xdata
xdata	SEGMENT
$unwind$??Y?$_Deque_const_iterator@_WV?$allocator@_W@std@@$00@std@@QEAAAEAV01@_J@Z DD 040a01H
	DD	06340aH
	DD	07006320aH
; Function compile flags: /Ogtpy
; File c:\program files\microsoft visual studio 9.0\vc\include\deque
xdata	ENDS
;	COMDAT ??Y?$_Deque_const_iterator@_WV?$allocator@_W@std@@$00@std@@QEAAAEAV01@_J@Z
_TEXT	SEGMENT
this$ = 48
_Off$ = 56
??Y?$_Deque_const_iterator@_WV?$allocator@_W@std@@$00@std@@QEAAAEAV01@_J@Z PROC ; std::_Deque_const_iterator<wchar_t,std::allocator<wchar_t>,1>::operator+=, COMDAT

; 198  : 		{	// increment by integer

$LN38:
	mov	QWORD PTR [rsp+8], rbx
	push	rdi
	sub	rsp, 32					; 00000020H
	mov	rbx, rcx

; 199  : 		_SCL_SECURE_TRAITS_VALIDATE(this->_Has_container());

	mov	rcx, QWORD PTR [rcx]
	xor	edi, edi
	test	rcx, rcx
	jne	SHORT $LN34@operator@9
	call	QWORD PTR __imp__invalid_parameter_noinfo

; 200  : 		_SCL_SECURE_TRAITS_VALIDATE_RANGE(
; 201  : 			_Myoff + _Off <= ((_Mydeque *)(this->_Getmycont()))->_Myoff + ((_Mydeque *)(this->_Getmycont()))->_Mysize &&
; 202  : 			_Myoff + _Off >= ((_Mydeque *)(this->_Getmycont()))->_Myoff);

	mov	rcx, QWORD PTR [rbx]
	mov	rdx, rdi
	test	rcx, rcx
	je	SHORT $LN24@operator@9
$LN34@operator@9:
	mov	rdx, QWORD PTR [rcx]
	test	rcx, rcx
	je	SHORT $LN24@operator@9
	mov	r8, rdx
	jmp	SHORT $LN25@operator@9
$LN24@operator@9:
	mov	r8, rdi
$LN25@operator@9:
	mov	rax, QWORD PTR [r8+56]
	mov	r9, QWORD PTR [rbx+8]
	add	rax, QWORD PTR [rdx+48]
	dec	r9
	cmp	r9, rax
	ja	SHORT $LN4@operator@9
	test	rcx, rcx
	je	SHORT $LN30@operator@9
	mov	rdi, QWORD PTR [rcx]
$LN30@operator@9:
	cmp	r9, QWORD PTR [rdi+48]
	jae	SHORT $LN36@operator@9
$LN4@operator@9:
	call	QWORD PTR __imp__invalid_parameter_noinfo
$LN36@operator@9:

; 203  : 		_Myoff += _Off;

	dec	QWORD PTR [rbx+8]

; 204  : 		return (*this);

	mov	rax, rbx

; 205  : 		}

	mov	rbx, QWORD PTR [rsp+48]
	add	rsp, 32					; 00000020H
	pop	rdi
	ret	0
??Y?$_Deque_const_iterator@_WV?$allocator@_W@std@@$00@std@@QEAAAEAV01@_J@Z ENDP ; std::_Deque_const_iterator<wchar_t,std::allocator<wchar_t>,1>::operator+=
_TEXT	ENDS
;	COMDAT pdata
; File c:\program files\microsoft visual studio 9.0\vc\include\xutility
pdata	SEGMENT
$pdata$??Y?$_Deque_iterator@V?$basic_string@_WU?$char_traits@_W@std@@V?$allocator@_W@2@@std@@V?$allocator@V?$basic_string@_WU?$char_traits@_W@std@@V?$allocator@_W@2@@std@@@2@$00@std@@QEAAAEAV01@_J@Z DD imagerel $LN40
	DD	imagerel $LN40+114
	DD	imagerel $unwind$??Y?$_Deque_iterator@V?$basic_string@_WU?$char_traits@_W@std@@V?$allocator@_W@2@@std@@V?$allocator@V?$basic_string@_WU?$char_traits@_W@std@@V?$allocator@_W@2@@std@@@2@$00@std@@QEAAAEAV01@_J@Z
pdata	ENDS
;	COMDAT xdata
xdata	SEGMENT
$unwind$??Y?$_Deque_iterator@V?$basic_string@_WU?$char_traits@_W@std@@V?$allocator@_W@2@@std@@V?$allocator@V?$basic_string@_WU?$char_traits@_W@std@@V?$allocator@_W@2@@std@@@2@$00@std@@QEAAAEAV01@_J@Z DD 040a01H
	DD	06340aH
	DD	07006320aH
; Function compile flags: /Ogtpy
; File c:\program files\microsoft visual studio 9.0\vc\include\deque
xdata	ENDS
;	COMDAT ??Y?$_Deque_iterator@V?$basic_string@_WU?$char_traits@_W@std@@V?$allocator@_W@2@@std@@V?$allocator@V?$basic_string@_WU?$char_traits@_W@std@@V?$allocator@_W@2@@std@@@2@$00@std@@QEAAAEAV01@_J@Z
_TEXT	SEGMENT
this$ = 48
_Off$ = 56
??Y?$_Deque_iterator@V?$basic_string@_WU?$char_traits@_W@std@@V?$allocator@_W@2@@std@@V?$allocator@V?$basic_string@_WU?$char_traits@_W@std@@V?$allocator@_W@2@@std@@@2@$00@std@@QEAAAEAV01@_J@Z PROC ; std::_Deque_iterator<std::basic_string<wchar_t,std::char_traits<wchar_t>,std::allocator<wchar_t> >,std::allocator<std::basic_string<wchar_t,std::char_traits<wchar_t>,std::allocator<wchar_t> > >,1>::operator+=, COMDAT

; 421  : 		{	// increment by integer

$LN40:
	mov	QWORD PTR [rsp+8], rbx
	push	rdi
	sub	rsp, 32					; 00000020H
	mov	rbx, rcx

; 422  : 		*(_Mybase *)this += _Off;

	mov	rcx, QWORD PTR [rcx]
	xor	edi, edi
	test	rcx, rcx
	jne	SHORT $LN36@operator@10
	call	QWORD PTR __imp__invalid_parameter_noinfo
	mov	rcx, QWORD PTR [rbx]
	mov	rdx, rdi
	test	rcx, rcx
	je	SHORT $LN26@operator@10
$LN36@operator@10:
	mov	rdx, QWORD PTR [rcx]
	test	rcx, rcx
	je	SHORT $LN26@operator@10
	mov	r8, rdx
	jmp	SHORT $LN27@operator@10
$LN26@operator@10:
	mov	r8, rdi
$LN27@operator@10:
	mov	rax, QWORD PTR [r8+56]
	mov	r9, QWORD PTR [rbx+8]
	add	rax, QWORD PTR [rdx+48]
	dec	r9
	cmp	r9, rax
	ja	SHORT $LN6@operator@10
	test	rcx, rcx
	je	SHORT $LN32@operator@10
	mov	rdi, QWORD PTR [rcx]
$LN32@operator@10:
	cmp	r9, QWORD PTR [rdi+48]
	jae	SHORT $LN38@operator@10
$LN6@operator@10:
	call	QWORD PTR __imp__invalid_parameter_noinfo
$LN38@operator@10:
	dec	QWORD PTR [rbx+8]

; 423  : 		return (*this);

	mov	rax, rbx

; 424  : 		}

	mov	rbx, QWORD PTR [rsp+48]
	add	rsp, 32					; 00000020H
	pop	rdi
	ret	0
??Y?$_Deque_iterator@V?$basic_string@_WU?$char_traits@_W@std@@V?$allocator@_W@2@@std@@V?$allocator@V?$basic_string@_WU?$char_traits@_W@std@@V?$allocator@_W@2@@std@@@2@$00@std@@QEAAAEAV01@_J@Z ENDP ; std::_Deque_iterator<std::basic_string<wchar_t,std::char_traits<wchar_t>,std::allocator<wchar_t> >,std::allocator<std::basic_string<wchar_t,std::char_traits<wchar_t>,std::allocator<wchar_t> > >,1>::operator+=
_TEXT	ENDS
;	COMDAT pdata
; File c:\program files\microsoft visual studio 9.0\vc\include\xutility
pdata	SEGMENT
$pdata$??Y?$_Deque_iterator@_WV?$allocator@_W@std@@$00@std@@QEAAAEAV01@_J@Z DD imagerel $LN40
	DD	imagerel $LN40+114
	DD	imagerel $unwind$??Y?$_Deque_iterator@_WV?$allocator@_W@std@@$00@std@@QEAAAEAV01@_J@Z
pdata	ENDS
;	COMDAT xdata
xdata	SEGMENT
$unwind$??Y?$_Deque_iterator@_WV?$allocator@_W@std@@$00@std@@QEAAAEAV01@_J@Z DD 040a01H
	DD	06340aH
	DD	07006320aH
; Function compile flags: /Ogtpy
; File c:\program files\microsoft visual studio 9.0\vc\include\deque
xdata	ENDS
;	COMDAT ??Y?$_Deque_iterator@_WV?$allocator@_W@std@@$00@std@@QEAAAEAV01@_J@Z
_TEXT	SEGMENT
this$ = 48
_Off$ = 56
??Y?$_Deque_iterator@_WV?$allocator@_W@std@@$00@std@@QEAAAEAV01@_J@Z PROC ; std::_Deque_iterator<wchar_t,std::allocator<wchar_t>,1>::operator+=, COMDAT

; 421  : 		{	// increment by integer

$LN40:
	mov	QWORD PTR [rsp+8], rbx
	push	rdi
	sub	rsp, 32					; 00000020H
	mov	rbx, rcx

; 422  : 		*(_Mybase *)this += _Off;

	mov	rcx, QWORD PTR [rcx]
	xor	edi, edi
	test	rcx, rcx
	jne	SHORT $LN36@operator@11
	call	QWORD PTR __imp__invalid_parameter_noinfo
	mov	rcx, QWORD PTR [rbx]
	mov	rdx, rdi
	test	rcx, rcx
	je	SHORT $LN26@operator@11
$LN36@operator@11:
	mov	rdx, QWORD PTR [rcx]
	test	rcx, rcx
	je	SHORT $LN26@operator@11
	mov	r8, rdx
	jmp	SHORT $LN27@operator@11
$LN26@operator@11:
	mov	r8, rdi
$LN27@operator@11:
	mov	rax, QWORD PTR [r8+56]
	mov	r9, QWORD PTR [rbx+8]
	add	rax, QWORD PTR [rdx+48]
	dec	r9
	cmp	r9, rax
	ja	SHORT $LN6@operator@11
	test	rcx, rcx
	je	SHORT $LN32@operator@11
	mov	rdi, QWORD PTR [rcx]
$LN32@operator@11:
	cmp	r9, QWORD PTR [rdi+48]
	jae	SHORT $LN38@operator@11
$LN6@operator@11:
	call	QWORD PTR __imp__invalid_parameter_noinfo
$LN38@operator@11:
	dec	QWORD PTR [rbx+8]

; 423  : 		return (*this);

	mov	rax, rbx

; 424  : 		}

	mov	rbx, QWORD PTR [rsp+48]
	add	rsp, 32					; 00000020H
	pop	rdi
	ret	0
??Y?$_Deque_iterator@_WV?$allocator@_W@std@@$00@std@@QEAAAEAV01@_J@Z ENDP ; std::_Deque_iterator<wchar_t,std::allocator<wchar_t>,1>::operator+=
_TEXT	ENDS
;	COMDAT pdata
; File c:\program files\microsoft visual studio 9.0\vc\include\xutility
pdata	SEGMENT
$pdata$??0?$_Container_base_aux_alloc_real@V?$allocator@V?$basic_string@_WU?$char_traits@_W@std@@V?$allocator@_W@2@@std@@@std@@@std@@IEAA@V?$allocator@V?$basic_string@_WU?$char_traits@_W@std@@V?$allocator@_W@2@@std@@@1@@Z DD imagerel $LN24
	DD	imagerel $LN24+55
	DD	imagerel $unwind$??0?$_Container_base_aux_alloc_real@V?$allocator@V?$basic_string@_WU?$char_traits@_W@std@@V?$allocator@_W@2@@std@@@std@@@std@@IEAA@V?$allocator@V?$basic_string@_WU?$char_traits@_W@std@@V?$allocator@_W@2@@std@@@1@@Z
pdata	ENDS
;	COMDAT xdata
xdata	SEGMENT
$unwind$??0?$_Container_base_aux_alloc_real@V?$allocator@V?$basic_string@_WU?$char_traits@_W@std@@V?$allocator@_W@2@@std@@@std@@@std@@IEAA@V?$allocator@V?$basic_string@_WU?$char_traits@_W@std@@V?$allocator@_W@2@@std@@@1@@Z DD 020601H
	DD	030023206H
; Function compile flags: /Ogtpy
xdata	ENDS
;	COMDAT ??0?$_Container_base_aux_alloc_real@V?$allocator@V?$basic_string@_WU?$char_traits@_W@std@@V?$allocator@_W@2@@std@@@std@@@std@@IEAA@V?$allocator@V?$basic_string@_WU?$char_traits@_W@std@@V?$allocator@_W@2@@std@@@1@@Z
_TEXT	SEGMENT
this$ = 48
_Al$ = 56
??0?$_Container_base_aux_alloc_real@V?$allocator@V?$basic_string@_WU?$char_traits@_W@std@@V?$allocator@_W@2@@std@@@std@@@std@@IEAA@V?$allocator@V?$basic_string@_WU?$char_traits@_W@std@@V?$allocator@_W@2@@std@@@1@@Z PROC ; std::_Container_base_aux_alloc_real<std::allocator<std::basic_string<wchar_t,std::char_traits<wchar_t>,std::allocator<wchar_t> > > >::_Container_base_aux_alloc_real<std::allocator<std::basic_string<wchar_t,std::char_traits<wchar_t>,std::allocator<wchar_t> > > >, COMDAT

; 419  : 		{

$LN24:
	push	rbx
	sub	rsp, 32					; 00000020H
	mov	rbx, rcx

; 420  : 		_Myownedaux = new (_Alaux.allocate(1)) _Aux_cont(this);

	mov	ecx, 8
	call	??2@YAPEAX_K@Z				; operator new
	test	rax, rax
	je	SHORT $LN3@Container_@4
	mov	QWORD PTR [rax], rbx
	mov	QWORD PTR [rbx], rax

; 421  : 		}

	mov	rax, rbx
	add	rsp, 32					; 00000020H
	pop	rbx
	ret	0
$LN3@Container_@4:

; 420  : 		_Myownedaux = new (_Alaux.allocate(1)) _Aux_cont(this);

	mov	QWORD PTR [rbx], 0

; 421  : 		}

	mov	rax, rbx
	add	rsp, 32					; 00000020H
	pop	rbx
	ret	0
??0?$_Container_base_aux_alloc_real@V?$allocator@V?$basic_string@_WU?$char_traits@_W@std@@V?$allocator@_W@2@@std@@@std@@@std@@IEAA@V?$allocator@V?$basic_string@_WU?$char_traits@_W@std@@V?$allocator@_W@2@@std@@@1@@Z ENDP ; std::_Container_base_aux_alloc_real<std::allocator<std::basic_string<wchar_t,std::char_traits<wchar_t>,std::allocator<wchar_t> > > >::_Container_base_aux_alloc_real<std::allocator<std::basic_string<wchar_t,std::char_traits<wchar_t>,std::allocator<wchar_t> > > >
_TEXT	ENDS
;	COMDAT pdata
pdata	SEGMENT
$pdata$??0?$_Container_base_aux_alloc_real@V?$allocator@_W@std@@@std@@IEAA@V?$allocator@_W@1@@Z DD imagerel $LN24
	DD	imagerel $LN24+55
	DD	imagerel $unwind$??0?$_Container_base_aux_alloc_real@V?$allocator@_W@std@@@std@@IEAA@V?$allocator@_W@1@@Z
pdata	ENDS
;	COMDAT xdata
xdata	SEGMENT
$unwind$??0?$_Container_base_aux_alloc_real@V?$allocator@_W@std@@@std@@IEAA@V?$allocator@_W@1@@Z DD 020601H
	DD	030023206H
; Function compile flags: /Ogtpy
xdata	ENDS
;	COMDAT ??0?$_Container_base_aux_alloc_real@V?$allocator@_W@std@@@std@@IEAA@V?$allocator@_W@1@@Z
_TEXT	SEGMENT
this$ = 48
_Al$ = 56
??0?$_Container_base_aux_alloc_real@V?$allocator@_W@std@@@std@@IEAA@V?$allocator@_W@1@@Z PROC ; std::_Container_base_aux_alloc_real<std::allocator<wchar_t> >::_Container_base_aux_alloc_real<std::allocator<wchar_t> >, COMDAT

; 419  : 		{

$LN24:
	push	rbx
	sub	rsp, 32					; 00000020H
	mov	rbx, rcx

; 420  : 		_Myownedaux = new (_Alaux.allocate(1)) _Aux_cont(this);

	mov	ecx, 8
	call	??2@YAPEAX_K@Z				; operator new
	test	rax, rax
	je	SHORT $LN3@Container_@5
	mov	QWORD PTR [rax], rbx
	mov	QWORD PTR [rbx], rax

; 421  : 		}

	mov	rax, rbx
	add	rsp, 32					; 00000020H
	pop	rbx
	ret	0
$LN3@Container_@5:

; 420  : 		_Myownedaux = new (_Alaux.allocate(1)) _Aux_cont(this);

	mov	QWORD PTR [rbx], 0

; 421  : 		}

	mov	rax, rbx
	add	rsp, 32					; 00000020H
	pop	rbx
	ret	0
??0?$_Container_base_aux_alloc_real@V?$allocator@_W@std@@@std@@IEAA@V?$allocator@_W@1@@Z ENDP ; std::_Container_base_aux_alloc_real<std::allocator<wchar_t> >::_Container_base_aux_alloc_real<std::allocator<wchar_t> >
_TEXT	ENDS
;	COMDAT pdata
pdata	SEGMENT
$pdata$??D?$_Deque_const_iterator@V?$basic_string@_WU?$char_traits@_W@std@@V?$allocator@_W@2@@std@@V?$allocator@V?$basic_string@_WU?$char_traits@_W@std@@V?$allocator@_W@2@@std@@@2@$00@std@@QEBAAEBV?$basic_string@_WU?$char_traits@_W@std@@V?$allocator@_W@2@@1@XZ DD imagerel $LN47
	DD	imagerel $LN47+162
	DD	imagerel $unwind$??D?$_Deque_const_iterator@V?$basic_string@_WU?$char_traits@_W@std@@V?$allocator@_W@2@@std@@V?$allocator@V?$basic_string@_WU?$char_traits@_W@std@@V?$allocator@_W@2@@std@@@2@$00@std@@QEBAAEBV?$basic_string@_WU?$char_traits@_W@std@@V?$allocator@_W@2@@1@XZ
pdata	ENDS
;	COMDAT xdata
xdata	SEGMENT
$unwind$??D?$_Deque_const_iterator@V?$basic_string@_WU?$char_traits@_W@std@@V?$allocator@_W@2@@std@@V?$allocator@V?$basic_string@_WU?$char_traits@_W@std@@V?$allocator@_W@2@@std@@@2@$00@std@@QEBAAEBV?$basic_string@_WU?$char_traits@_W@std@@V?$allocator@_W@2@@1@XZ DD 060f01H
	DD	07640fH
	DD	06340fH
	DD	0700b320fH
; Function compile flags: /Ogtpy
; File c:\program files\microsoft visual studio 9.0\vc\include\deque
xdata	ENDS
;	COMDAT ??D?$_Deque_const_iterator@V?$basic_string@_WU?$char_traits@_W@std@@V?$allocator@_W@2@@std@@V?$allocator@V?$basic_string@_WU?$char_traits@_W@std@@V?$allocator@_W@2@@std@@@2@$00@std@@QEBAAEBV?$basic_string@_WU?$char_traits@_W@std@@V?$allocator@_W@2@@1@XZ
_TEXT	SEGMENT
this$ = 48
??D?$_Deque_const_iterator@V?$basic_string@_WU?$char_traits@_W@std@@V?$allocator@_W@2@@std@@V?$allocator@V?$basic_string@_WU?$char_traits@_W@std@@V?$allocator@_W@2@@std@@@2@$00@std@@QEBAAEBV?$basic_string@_WU?$char_traits@_W@std@@V?$allocator@_W@2@@1@XZ PROC ; std::_Deque_const_iterator<std::basic_string<wchar_t,std::char_traits<wchar_t>,std::allocator<wchar_t> >,std::allocator<std::basic_string<wchar_t,std::char_traits<wchar_t>,std::allocator<wchar_t> > >,1>::operator*, COMDAT

; 136  : 			{	// return designated object

$LN47:
	mov	QWORD PTR [rsp+8], rbx
	mov	QWORD PTR [rsp+16], rsi
	push	rdi
	sub	rsp, 32					; 00000020H

; 137  : 			size_type _Block = _Myoff / _DEQUESIZ;
; 138  : 			size_type _Off = _Myoff & (_DEQUESIZ - 1);	// assume power of 2
; 139  : 			_SCL_SECURE_VALIDATE(this->_Has_container());

	mov	rax, QWORD PTR [rcx]
	mov	rbx, QWORD PTR [rcx+8]
	xor	esi, esi
	mov	rdi, rcx
	test	rax, rax
	jne	SHORT $LN44@operator@12
	call	QWORD PTR __imp__invalid_parameter_noinfo

; 140  : 			_SCL_SECURE_VALIDATE_RANGE(_Myoff < ((_Mydeque *)(this->_Getmycont()))->_Myoff + ((_Mydeque *)(this->_Getmycont()))->_Mysize);

	mov	rax, QWORD PTR [rdi]
	mov	rcx, rsi
	test	rax, rax
	je	SHORT $LN22@operator@12
$LN44@operator@12:
	mov	rcx, QWORD PTR [rax]
	test	rax, rax
	je	SHORT $LN22@operator@12
	mov	rax, rcx
	jmp	SHORT $LN23@operator@12
$LN22@operator@12:
	mov	rax, rsi
$LN23@operator@12:
	mov	rax, QWORD PTR [rax+56]
	add	rax, QWORD PTR [rcx+48]
	cmp	QWORD PTR [rdi+8], rax
	jb	SHORT $LN4@operator@12
	call	QWORD PTR __imp__invalid_parameter_noinfo
$LN4@operator@12:

; 141  : 			if (static_cast<const _Mydeque *>(this->_Getmycont())->_Mapsize <= _Block)

	mov	rcx, QWORD PTR [rdi]
	test	rcx, rcx
	je	SHORT $LN28@operator@12
	mov	rax, QWORD PTR [rcx]
	jmp	SHORT $LN29@operator@12
$LN28@operator@12:
	mov	rax, rsi
$LN29@operator@12:
	cmp	QWORD PTR [rax+40], rbx
	ja	SHORT $LN1@operator@12

; 142  : 				_Block -= static_cast<const _Mydeque *>(this->_Getmycont())->_Mapsize;

	test	rcx, rcx
	je	SHORT $LN34@operator@12
	mov	rax, QWORD PTR [rcx]
	jmp	SHORT $LN35@operator@12
$LN34@operator@12:
	mov	rax, rsi
$LN35@operator@12:
	sub	rbx, QWORD PTR [rax+40]
$LN1@operator@12:

; 143  : 			return ((static_cast<const _Mydeque *>(this->_Getmycont())->_Map)[_Block][_Off]);

	test	rcx, rcx
	je	SHORT $LN40@operator@12
	mov	rcx, QWORD PTR [rcx]
	mov	rax, QWORD PTR [rcx+32]
	jmp	SHORT $LN45@operator@12
$LN40@operator@12:
	mov	rax, QWORD PTR [rsi+32]
$LN45@operator@12:
	mov	rax, QWORD PTR [rax+rbx*8]

; 144  : 			}

	mov	rsi, QWORD PTR [rsp+56]
	mov	rbx, QWORD PTR [rsp+48]
	add	rsp, 32					; 00000020H
	pop	rdi
	ret	0
??D?$_Deque_const_iterator@V?$basic_string@_WU?$char_traits@_W@std@@V?$allocator@_W@2@@std@@V?$allocator@V?$basic_string@_WU?$char_traits@_W@std@@V?$allocator@_W@2@@std@@@2@$00@std@@QEBAAEBV?$basic_string@_WU?$char_traits@_W@std@@V?$allocator@_W@2@@1@XZ ENDP ; std::_Deque_const_iterator<std::basic_string<wchar_t,std::char_traits<wchar_t>,std::allocator<wchar_t> >,std::allocator<std::basic_string<wchar_t,std::char_traits<wchar_t>,std::allocator<wchar_t> > >,1>::operator*
_TEXT	ENDS
;	COMDAT pdata
; File c:\program files\microsoft visual studio 9.0\vc\include\xutility
pdata	SEGMENT
$pdata$??Z?$_Deque_iterator@V?$basic_string@_WU?$char_traits@_W@std@@V?$allocator@_W@2@@std@@V?$allocator@V?$basic_string@_WU?$char_traits@_W@std@@V?$allocator@_W@2@@std@@@2@$00@std@@QEAAAEAV01@_J@Z DD imagerel $LN42
	DD	imagerel $LN42+114
	DD	imagerel $unwind$??Z?$_Deque_iterator@V?$basic_string@_WU?$char_traits@_W@std@@V?$allocator@_W@2@@std@@V?$allocator@V?$basic_string@_WU?$char_traits@_W@std@@V?$allocator@_W@2@@std@@@2@$00@std@@QEAAAEAV01@_J@Z
pdata	ENDS
;	COMDAT xdata
xdata	SEGMENT
$unwind$??Z?$_Deque_iterator@V?$basic_string@_WU?$char_traits@_W@std@@V?$allocator@_W@2@@std@@V?$allocator@V?$basic_string@_WU?$char_traits@_W@std@@V?$allocator@_W@2@@std@@@2@$00@std@@QEAAAEAV01@_J@Z DD 040a01H
	DD	06340aH
	DD	07006320aH
; Function compile flags: /Ogtpy
; File c:\program files\microsoft visual studio 9.0\vc\include\deque
xdata	ENDS
;	COMDAT ??Z?$_Deque_iterator@V?$basic_string@_WU?$char_traits@_W@std@@V?$allocator@_W@2@@std@@V?$allocator@V?$basic_string@_WU?$char_traits@_W@std@@V?$allocator@_W@2@@std@@@2@$00@std@@QEAAAEAV01@_J@Z
_TEXT	SEGMENT
this$ = 48
_Off$ = 56
??Z?$_Deque_iterator@V?$basic_string@_WU?$char_traits@_W@std@@V?$allocator@_W@2@@std@@V?$allocator@V?$basic_string@_WU?$char_traits@_W@std@@V?$allocator@_W@2@@std@@@2@$00@std@@QEAAAEAV01@_J@Z PROC ; std::_Deque_iterator<std::basic_string<wchar_t,std::char_traits<wchar_t>,std::allocator<wchar_t> >,std::allocator<std::basic_string<wchar_t,std::char_traits<wchar_t>,std::allocator<wchar_t> > >,1>::operator-=, COMDAT

; 433  : 		{	// decrement by integer

$LN42:
	mov	QWORD PTR [rsp+8], rbx
	push	rdi
	sub	rsp, 32					; 00000020H
	mov	rbx, rcx

; 434  : 		return (*this += -_Off);

	mov	rcx, QWORD PTR [rcx]
	xor	edi, edi
	test	rcx, rcx
	jne	SHORT $LN38@operator@13
	call	QWORD PTR __imp__invalid_parameter_noinfo
	mov	rcx, QWORD PTR [rbx]
	mov	rdx, rdi
	test	rcx, rcx
	je	SHORT $LN28@operator@13
$LN38@operator@13:
	mov	rdx, QWORD PTR [rcx]
	test	rcx, rcx
	je	SHORT $LN28@operator@13
	mov	r8, rdx
	jmp	SHORT $LN29@operator@13
$LN28@operator@13:
	mov	r8, rdi
$LN29@operator@13:
	mov	rax, QWORD PTR [r8+56]
	mov	r9, QWORD PTR [rbx+8]
	add	rax, QWORD PTR [rdx+48]
	dec	r9
	cmp	r9, rax
	ja	SHORT $LN8@operator@13
	test	rcx, rcx
	je	SHORT $LN34@operator@13
	mov	rdi, QWORD PTR [rcx]
$LN34@operator@13:
	cmp	r9, QWORD PTR [rdi+48]
	jae	SHORT $LN40@operator@13
$LN8@operator@13:
	call	QWORD PTR __imp__invalid_parameter_noinfo
$LN40@operator@13:
	dec	QWORD PTR [rbx+8]
	mov	rax, rbx

; 435  : 		}

	mov	rbx, QWORD PTR [rsp+48]
	add	rsp, 32					; 00000020H
	pop	rdi
	ret	0
??Z?$_Deque_iterator@V?$basic_string@_WU?$char_traits@_W@std@@V?$allocator@_W@2@@std@@V?$allocator@V?$basic_string@_WU?$char_traits@_W@std@@V?$allocator@_W@2@@std@@@2@$00@std@@QEAAAEAV01@_J@Z ENDP ; std::_Deque_iterator<std::basic_string<wchar_t,std::char_traits<wchar_t>,std::allocator<wchar_t> >,std::allocator<std::basic_string<wchar_t,std::char_traits<wchar_t>,std::allocator<wchar_t> > >,1>::operator-=
_TEXT	ENDS
;	COMDAT pdata
; File c:\program files\microsoft visual studio 9.0\vc\include\xutility
pdata	SEGMENT
$pdata$??D?$_Deque_const_iterator@_WV?$allocator@_W@std@@$00@std@@QEBAAEB_WXZ DD imagerel $LN46
	DD	imagerel $LN46+180
	DD	imagerel $unwind$??D?$_Deque_const_iterator@_WV?$allocator@_W@std@@$00@std@@QEBAAEB_WXZ
pdata	ENDS
;	COMDAT xdata
xdata	SEGMENT
$unwind$??D?$_Deque_const_iterator@_WV?$allocator@_W@std@@$00@std@@QEBAAEB_WXZ DD 081401H
	DD	086414H
	DD	075414H
	DD	063414H
	DD	070103214H
; Function compile flags: /Ogtpy
; File c:\program files\microsoft visual studio 9.0\vc\include\deque
xdata	ENDS
;	COMDAT ??D?$_Deque_const_iterator@_WV?$allocator@_W@std@@$00@std@@QEBAAEB_WXZ
_TEXT	SEGMENT
this$ = 48
??D?$_Deque_const_iterator@_WV?$allocator@_W@std@@$00@std@@QEBAAEB_WXZ PROC ; std::_Deque_const_iterator<wchar_t,std::allocator<wchar_t>,1>::operator*, COMDAT

; 136  : 			{	// return designated object

$LN46:
	mov	QWORD PTR [rsp+8], rbx
	mov	QWORD PTR [rsp+16], rbp
	mov	QWORD PTR [rsp+24], rsi
	push	rdi
	sub	rsp, 32					; 00000020H

; 137  : 			size_type _Block = _Myoff / _DEQUESIZ;

	mov	rbp, QWORD PTR [rcx+8]

; 138  : 			size_type _Off = _Myoff & (_DEQUESIZ - 1);	// assume power of 2
; 139  : 			_SCL_SECURE_VALIDATE(this->_Has_container());

	mov	rax, QWORD PTR [rcx]
	xor	ebx, ebx
	mov	rdi, rbp
	and	ebp, 7
	mov	rsi, rcx
	shr	rdi, 3
	test	rax, rax
	jne	SHORT $LN44@operator@14
	call	QWORD PTR __imp__invalid_parameter_noinfo

; 140  : 			_SCL_SECURE_VALIDATE_RANGE(_Myoff < ((_Mydeque *)(this->_Getmycont()))->_Myoff + ((_Mydeque *)(this->_Getmycont()))->_Mysize);

	mov	rax, QWORD PTR [rsi]
	mov	rcx, rbx
	test	rax, rax
	je	SHORT $LN22@operator@14
$LN44@operator@14:
	mov	rcx, QWORD PTR [rax]
	test	rax, rax
	je	SHORT $LN22@operator@14
	mov	rax, rcx
	jmp	SHORT $LN23@operator@14
$LN22@operator@14:
	mov	rax, rbx
$LN23@operator@14:
	mov	rax, QWORD PTR [rax+56]
	add	rax, QWORD PTR [rcx+48]
	cmp	QWORD PTR [rsi+8], rax
	jb	SHORT $LN4@operator@14
	call	QWORD PTR __imp__invalid_parameter_noinfo
$LN4@operator@14:

; 141  : 			if (static_cast<const _Mydeque *>(this->_Getmycont())->_Mapsize <= _Block)

	mov	rax, QWORD PTR [rsi]
	test	rax, rax
	je	SHORT $LN28@operator@14
	mov	rcx, QWORD PTR [rax]
	jmp	SHORT $LN29@operator@14
$LN28@operator@14:
	mov	rcx, rbx
$LN29@operator@14:
	cmp	QWORD PTR [rcx+40], rdi
	ja	SHORT $LN1@operator@14

; 142  : 				_Block -= static_cast<const _Mydeque *>(this->_Getmycont())->_Mapsize;

	test	rax, rax
	je	SHORT $LN34@operator@14
	mov	rcx, QWORD PTR [rax]
	jmp	SHORT $LN35@operator@14
$LN34@operator@14:
	mov	rcx, rbx
$LN35@operator@14:
	sub	rdi, QWORD PTR [rcx+40]
$LN1@operator@14:

; 143  : 			return ((static_cast<const _Mydeque *>(this->_Getmycont())->_Map)[_Block][_Off]);

	test	rax, rax
	je	SHORT $LN40@operator@14
	mov	rbx, QWORD PTR [rax]
$LN40@operator@14:
	mov	rax, QWORD PTR [rbx+32]

; 144  : 			}

	mov	rsi, QWORD PTR [rsp+64]
	mov	rbx, QWORD PTR [rsp+48]
	mov	rcx, QWORD PTR [rax+rdi*8]
	lea	rax, QWORD PTR [rcx+rbp*2]
	mov	rbp, QWORD PTR [rsp+56]
	add	rsp, 32					; 00000020H
	pop	rdi
	ret	0
??D?$_Deque_const_iterator@_WV?$allocator@_W@std@@$00@std@@QEBAAEB_WXZ ENDP ; std::_Deque_const_iterator<wchar_t,std::allocator<wchar_t>,1>::operator*
_TEXT	ENDS
;	COMDAT pdata
; File c:\program files\microsoft visual studio 9.0\vc\include\xutility
pdata	SEGMENT
$pdata$??Z?$_Deque_iterator@_WV?$allocator@_W@std@@$00@std@@QEAAAEAV01@_J@Z DD imagerel $LN42
	DD	imagerel $LN42+114
	DD	imagerel $unwind$??Z?$_Deque_iterator@_WV?$allocator@_W@std@@$00@std@@QEAAAEAV01@_J@Z
pdata	ENDS
;	COMDAT xdata
xdata	SEGMENT
$unwind$??Z?$_Deque_iterator@_WV?$allocator@_W@std@@$00@std@@QEAAAEAV01@_J@Z DD 040a01H
	DD	06340aH
	DD	07006320aH
; Function compile flags: /Ogtpy
; File c:\program files\microsoft visual studio 9.0\vc\include\deque
xdata	ENDS
;	COMDAT ??Z?$_Deque_iterator@_WV?$allocator@_W@std@@$00@std@@QEAAAEAV01@_J@Z
_TEXT	SEGMENT
this$ = 48
_Off$ = 56
??Z?$_Deque_iterator@_WV?$allocator@_W@std@@$00@std@@QEAAAEAV01@_J@Z PROC ; std::_Deque_iterator<wchar_t,std::allocator<wchar_t>,1>::operator-=, COMDAT

; 433  : 		{	// decrement by integer

$LN42:
	mov	QWORD PTR [rsp+8], rbx
	push	rdi
	sub	rsp, 32					; 00000020H
	mov	rbx, rcx

; 434  : 		return (*this += -_Off);

	mov	rcx, QWORD PTR [rcx]
	xor	edi, edi
	test	rcx, rcx
	jne	SHORT $LN38@operator@15
	call	QWORD PTR __imp__invalid_parameter_noinfo
	mov	rcx, QWORD PTR [rbx]
	mov	rdx, rdi
	test	rcx, rcx
	je	SHORT $LN28@operator@15
$LN38@operator@15:
	mov	rdx, QWORD PTR [rcx]
	test	rcx, rcx
	je	SHORT $LN28@operator@15
	mov	r8, rdx
	jmp	SHORT $LN29@operator@15
$LN28@operator@15:
	mov	r8, rdi
$LN29@operator@15:
	mov	rax, QWORD PTR [r8+56]
	mov	r9, QWORD PTR [rbx+8]
	add	rax, QWORD PTR [rdx+48]
	dec	r9
	cmp	r9, rax
	ja	SHORT $LN8@operator@15
	test	rcx, rcx
	je	SHORT $LN34@operator@15
	mov	rdi, QWORD PTR [rcx]
$LN34@operator@15:
	cmp	r9, QWORD PTR [rdi+48]
	jae	SHORT $LN40@operator@15
$LN8@operator@15:
	call	QWORD PTR __imp__invalid_parameter_noinfo
$LN40@operator@15:
	dec	QWORD PTR [rbx+8]
	mov	rax, rbx

; 435  : 		}

	mov	rbx, QWORD PTR [rsp+48]
	add	rsp, 32					; 00000020H
	pop	rdi
	ret	0
??Z?$_Deque_iterator@_WV?$allocator@_W@std@@$00@std@@QEAAAEAV01@_J@Z ENDP ; std::_Deque_iterator<wchar_t,std::allocator<wchar_t>,1>::operator-=
_TEXT	ENDS
;	COMDAT pdata
; File c:\program files\microsoft visual studio 9.0\vc\include\xmemory
pdata	SEGMENT
$pdata$??0?$_Deque_map@V?$basic_string@_WU?$char_traits@_W@std@@V?$allocator@_W@2@@std@@V?$allocator@V?$basic_string@_WU?$char_traits@_W@std@@V?$allocator@_W@2@@std@@@2@@std@@IEAA@V?$allocator@V?$basic_string@_WU?$char_traits@_W@std@@V?$allocator@_W@2@@std@@@1@@Z DD imagerel $LN32
	DD	imagerel $LN32+55
	DD	imagerel $unwind$??0?$_Deque_map@V?$basic_string@_WU?$char_traits@_W@std@@V?$allocator@_W@2@@std@@V?$allocator@V?$basic_string@_WU?$char_traits@_W@std@@V?$allocator@_W@2@@std@@@2@@std@@IEAA@V?$allocator@V?$basic_string@_WU?$char_traits@_W@std@@V?$allocator@_W@2@@std@@@1@@Z
pdata	ENDS
;	COMDAT xdata
xdata	SEGMENT
$unwind$??0?$_Deque_map@V?$basic_string@_WU?$char_traits@_W@std@@V?$allocator@_W@2@@std@@V?$allocator@V?$basic_string@_WU?$char_traits@_W@std@@V?$allocator@_W@2@@std@@@2@@std@@IEAA@V?$allocator@V?$basic_string@_WU?$char_traits@_W@std@@V?$allocator@_W@2@@std@@@1@@Z DD 020601H
	DD	030023206H
; Function compile flags: /Ogtpy
; File c:\program files\microsoft visual studio 9.0\vc\include\deque
xdata	ENDS
;	COMDAT ??0?$_Deque_map@V?$basic_string@_WU?$char_traits@_W@std@@V?$allocator@_W@2@@std@@V?$allocator@V?$basic_string@_WU?$char_traits@_W@std@@V?$allocator@_W@2@@std@@@2@@std@@IEAA@V?$allocator@V?$basic_string@_WU?$char_traits@_W@std@@V?$allocator@_W@2@@std@@@1@@Z
_TEXT	SEGMENT
this$ = 48
_Al$ = 56
??0?$_Deque_map@V?$basic_string@_WU?$char_traits@_W@std@@V?$allocator@_W@2@@std@@V?$allocator@V?$basic_string@_WU?$char_traits@_W@std@@V?$allocator@_W@2@@std@@@2@@std@@IEAA@V?$allocator@V?$basic_string@_WU?$char_traits@_W@std@@V?$allocator@_W@2@@std@@@1@@Z PROC ; std::_Deque_map<std::basic_string<wchar_t,std::char_traits<wchar_t>,std::allocator<wchar_t> >,std::allocator<std::basic_string<wchar_t,std::char_traits<wchar_t>,std::allocator<wchar_t> > > >::_Deque_map<std::basic_string<wchar_t,std::char_traits<wchar_t>,std::allocator<wchar_t> >,std::allocator<std::basic_string<wchar_t,std::char_traits<wchar_t>,std::allocator<wchar_t> > > >, COMDAT

; 478  : 		{	// construct allocator from _Al

$LN32:
	push	rbx
	sub	rsp, 32					; 00000020H
	mov	rbx, rcx
	mov	ecx, 8
	call	??2@YAPEAX_K@Z				; operator new
	test	rax, rax
	je	SHORT $LN8@Deque_map
	mov	QWORD PTR [rax], rbx
	mov	QWORD PTR [rbx], rax

; 479  : 		}

	mov	rax, rbx
	add	rsp, 32					; 00000020H
	pop	rbx
	ret	0

; 478  : 		{	// construct allocator from _Al

$LN8@Deque_map:
	mov	QWORD PTR [rbx], 0

; 479  : 		}

	mov	rax, rbx
	add	rsp, 32					; 00000020H
	pop	rbx
	ret	0
??0?$_Deque_map@V?$basic_string@_WU?$char_traits@_W@std@@V?$allocator@_W@2@@std@@V?$allocator@V?$basic_string@_WU?$char_traits@_W@std@@V?$allocator@_W@2@@std@@@2@@std@@IEAA@V?$allocator@V?$basic_string@_WU?$char_traits@_W@std@@V?$allocator@_W@2@@std@@@1@@Z ENDP ; std::_Deque_map<std::basic_string<wchar_t,std::char_traits<wchar_t>,std::allocator<wchar_t> >,std::allocator<std::basic_string<wchar_t,std::char_traits<wchar_t>,std::allocator<wchar_t> > > >::_Deque_map<std::basic_string<wchar_t,std::char_traits<wchar_t>,std::allocator<wchar_t> >,std::allocator<std::basic_string<wchar_t,std::char_traits<wchar_t>,std::allocator<wchar_t> > > >
_TEXT	ENDS
;	COMDAT pdata
; File c:\program files\microsoft visual studio 9.0\vc\include\stdexcept
pdata	SEGMENT
$pdata$?_Xlen@?$deque@V?$basic_string@_WU?$char_traits@_W@std@@V?$allocator@_W@2@@std@@V?$allocator@V?$basic_string@_WU?$char_traits@_W@std@@V?$allocator@_W@2@@std@@@2@@std@@KAXXZ DD imagerel $LN12
	DD	imagerel $LN12+106
	DD	imagerel $unwind$?_Xlen@?$deque@V?$basic_string@_WU?$char_traits@_W@std@@V?$allocator@_W@2@@std@@V?$allocator@V?$basic_string@_WU?$char_traits@_W@std@@V?$allocator@_W@2@@std@@@2@@std@@KAXXZ
pdata	ENDS
;	COMDAT pdata
pdata	SEGMENT
$pdata$?dtor$0@?0??_Xlen@?$deque@V?$basic_string@_WU?$char_traits@_W@std@@V?$allocator@_W@2@@std@@V?$allocator@V?$basic_string@_WU?$char_traits@_W@std@@V?$allocator@_W@2@@std@@@2@@std@@KAXXZ@4HA DD imagerel ?dtor$0@?0??_Xlen@?$deque@V?$basic_string@_WU?$char_traits@_W@std@@V?$allocator@_W@2@@std@@V?$allocator@V?$basic_string@_WU?$char_traits@_W@std@@V?$allocator@_W@2@@std@@@2@@std@@KAXXZ@4HA
	DD	imagerel ?dtor$0@?0??_Xlen@?$deque@V?$basic_string@_WU?$char_traits@_W@std@@V?$allocator@_W@2@@std@@V?$allocator@V?$basic_string@_WU?$char_traits@_W@std@@V?$allocator@_W@2@@std@@@2@@std@@KAXXZ@4HA+25
	DD	imagerel $unwind$?dtor$0@?0??_Xlen@?$deque@V?$basic_string@_WU?$char_traits@_W@std@@V?$allocator@_W@2@@std@@V?$allocator@V?$basic_string@_WU?$char_traits@_W@std@@V?$allocator@_W@2@@std@@@2@@std@@KAXXZ@4HA
pdata	ENDS
;	COMDAT pdata
pdata	SEGMENT
$pdata$?dtor$2@?0??_Xlen@?$deque@V?$basic_string@_WU?$char_traits@_W@std@@V?$allocator@_W@2@@std@@V?$allocator@V?$basic_string@_WU?$char_traits@_W@std@@V?$allocator@_W@2@@std@@@2@@std@@KAXXZ@4HA DD imagerel ?dtor$2@?0??_Xlen@?$deque@V?$basic_string@_WU?$char_traits@_W@std@@V?$allocator@_W@2@@std@@V?$allocator@V?$basic_string@_WU?$char_traits@_W@std@@V?$allocator@_W@2@@std@@@2@@std@@KAXXZ@4HA
	DD	imagerel ?dtor$2@?0??_Xlen@?$deque@V?$basic_string@_WU?$char_traits@_W@std@@V?$allocator@_W@2@@std@@V?$allocator@V?$basic_string@_WU?$char_traits@_W@std@@V?$allocator@_W@2@@std@@@2@@std@@KAXXZ@4HA+25
	DD	imagerel $unwind$?dtor$2@?0??_Xlen@?$deque@V?$basic_string@_WU?$char_traits@_W@std@@V?$allocator@_W@2@@std@@V?$allocator@V?$basic_string@_WU?$char_traits@_W@std@@V?$allocator@_W@2@@std@@@2@@std@@KAXXZ@4HA
pdata	ENDS
;	COMDAT xdata
xdata	SEGMENT
$ip2state$?_Xlen@?$deque@V?$basic_string@_WU?$char_traits@_W@std@@V?$allocator@_W@2@@std@@V?$allocator@V?$basic_string@_WU?$char_traits@_W@std@@V?$allocator@_W@2@@std@@@2@@std@@KAXXZ DD imagerel ?_Xlen@?$deque@V?$basic_string@_WU?$char_traits@_W@std@@V?$allocator@_W@2@@std@@V?$allocator@V?$basic_string@_WU?$char_traits@_W@std@@V?$allocator@_W@2@@std@@@2@@std@@KAXXZ
	DD	0ffffffffH
	DD	imagerel ?_Xlen@?$deque@V?$basic_string@_WU?$char_traits@_W@std@@V?$allocator@_W@2@@std@@V?$allocator@V?$basic_string@_WU?$char_traits@_W@std@@V?$allocator@_W@2@@std@@@2@@std@@KAXXZ+35
	DD	00H
	DD	imagerel ?_Xlen@?$deque@V?$basic_string@_WU?$char_traits@_W@std@@V?$allocator@_W@2@@std@@V?$allocator@V?$basic_string@_WU?$char_traits@_W@std@@V?$allocator@_W@2@@std@@@2@@std@@KAXXZ+47
	DD	01H
	DD	imagerel ?_Xlen@?$deque@V?$basic_string@_WU?$char_traits@_W@std@@V?$allocator@_W@2@@std@@V?$allocator@V?$basic_string@_WU?$char_traits@_W@std@@V?$allocator@_W@2@@std@@@2@@std@@KAXXZ+76
	DD	00H
xdata	ENDS
;	COMDAT xdata
xdata	SEGMENT
$unwind$?dtor$2@?0??_Xlen@?$deque@V?$basic_string@_WU?$char_traits@_W@std@@V?$allocator@_W@2@@std@@V?$allocator@V?$basic_string@_WU?$char_traits@_W@std@@V?$allocator@_W@2@@std@@@2@@std@@KAXXZ@4HA DD 020601H
	DD	050023206H
xdata	ENDS
;	COMDAT xdata
xdata	SEGMENT
$unwind$?dtor$0@?0??_Xlen@?$deque@V?$basic_string@_WU?$char_traits@_W@std@@V?$allocator@_W@2@@std@@V?$allocator@V?$basic_string@_WU?$char_traits@_W@std@@V?$allocator@_W@2@@std@@@2@@std@@KAXXZ@4HA DD 020601H
	DD	050023206H
xdata	ENDS
;	COMDAT xdata
xdata	SEGMENT
$unwind$?_Xlen@?$deque@V?$basic_string@_WU?$char_traits@_W@std@@V?$allocator@_W@2@@std@@V?$allocator@V?$basic_string@_WU?$char_traits@_W@std@@V?$allocator@_W@2@@std@@@2@@std@@KAXXZ DD 021011H
	DD	0130107H
	DD	imagerel __CxxFrameHandler3
	DD	imagerel $cppxdata$?_Xlen@?$deque@V?$basic_string@_WU?$char_traits@_W@std@@V?$allocator@_W@2@@std@@V?$allocator@V?$basic_string@_WU?$char_traits@_W@std@@V?$allocator@_W@2@@std@@@2@@std@@KAXXZ
xdata	ENDS
;	COMDAT CONST
CONST	SEGMENT
$cppxdata$?_Xlen@?$deque@V?$basic_string@_WU?$char_traits@_W@std@@V?$allocator@_W@2@@std@@V?$allocator@V?$basic_string@_WU?$char_traits@_W@std@@V?$allocator@_W@2@@std@@@2@@std@@KAXXZ DD 019930522H
	DD	02H
	DD	imagerel $stateUnwindMap$?_Xlen@?$deque@V?$basic_string@_WU?$char_traits@_W@std@@V?$allocator@_W@2@@std@@V?$allocator@V?$basic_string@_WU?$char_traits@_W@std@@V?$allocator@_W@2@@std@@@2@@std@@KAXXZ
	DD	00H
	DD	00H
	DD	04H
	DD	imagerel $ip2state$?_Xlen@?$deque@V?$basic_string@_WU?$char_traits@_W@std@@V?$allocator@_W@2@@std@@V?$allocator@V?$basic_string@_WU?$char_traits@_W@std@@V?$allocator@_W@2@@std@@@2@@std@@KAXXZ
	DD	020H
	DD	00H
	DD	01H
CONST	ENDS
;	COMDAT xdata
xdata	SEGMENT
$stateUnwindMap$?_Xlen@?$deque@V?$basic_string@_WU?$char_traits@_W@std@@V?$allocator@_W@2@@std@@V?$allocator@V?$basic_string@_WU?$char_traits@_W@std@@V?$allocator@_W@2@@std@@@2@@std@@KAXXZ DD 0ffffffffH
	DD	imagerel ?dtor$0@?0??_Xlen@?$deque@V?$basic_string@_WU?$char_traits@_W@std@@V?$allocator@_W@2@@std@@V?$allocator@V?$basic_string@_WU?$char_traits@_W@std@@V?$allocator@_W@2@@std@@@2@@std@@KAXXZ@4HA
	DD	00H
	DD	imagerel ?dtor$2@?0??_Xlen@?$deque@V?$basic_string@_WU?$char_traits@_W@std@@V?$allocator@_W@2@@std@@V?$allocator@V?$basic_string@_WU?$char_traits@_W@std@@V?$allocator@_W@2@@std@@@2@@std@@KAXXZ@4HA
; Function compile flags: /Ogtpy
; File c:\program files\microsoft visual studio 9.0\vc\include\deque
xdata	ENDS
;	COMDAT ?_Xlen@?$deque@V?$basic_string@_WU?$char_traits@_W@std@@V?$allocator@_W@2@@std@@V?$allocator@V?$basic_string@_WU?$char_traits@_W@std@@V?$allocator@_W@2@@std@@@2@@std@@KAXXZ
_TEXT	SEGMENT
$T153381 = 32
$T153361 = 40
$T153360 = 80
?_Xlen@?$deque@V?$basic_string@_WU?$char_traits@_W@std@@V?$allocator@_W@2@@std@@V?$allocator@V?$basic_string@_WU?$char_traits@_W@std@@V?$allocator@_W@2@@std@@@2@@std@@KAXXZ PROC ; std::deque<std::basic_string<wchar_t,std::char_traits<wchar_t>,std::allocator<wchar_t> >,std::allocator<std::basic_string<wchar_t,std::char_traits<wchar_t>,std::allocator<wchar_t> > > >::_Xlen, COMDAT

; 1210 : 		{	// report length error

$LN12:
	sub	rsp, 152				; 00000098H
	mov	QWORD PTR $T153381[rsp], -2

; 1211 : 		_THROW(length_error, "deque<T> too long");

	lea	rdx, OFFSET FLAT:??_C@_0BC@KBDMBKEH@deque?$DMT?$DO?5too?5long?$AA@
	lea	rcx, QWORD PTR $T153361[rsp]
	call	QWORD PTR __imp_??0?$basic_string@DU?$char_traits@D@std@@V?$allocator@D@2@@std@@QEAA@PEBD@Z
	npad	1
	lea	rcx, QWORD PTR $T153360[rsp]
	call	QWORD PTR __imp_??0exception@std@@QEAA@XZ
	npad	1
	lea	rax, OFFSET FLAT:??_7logic_error@std@@6B@
	mov	QWORD PTR $T153360[rsp], rax
	lea	rdx, QWORD PTR $T153361[rsp]
	lea	rcx, QWORD PTR $T153360[rsp+24]
	call	QWORD PTR __imp_??0?$basic_string@DU?$char_traits@D@std@@V?$allocator@D@2@@std@@QEAA@AEBV01@@Z
	npad	1
	lea	rax, OFFSET FLAT:??_7length_error@std@@6B@
	mov	QWORD PTR $T153360[rsp], rax
	lea	rdx, OFFSET FLAT:_TI3?AVlength_error@std@@
	lea	rcx, QWORD PTR $T153360[rsp]
	call	_CxxThrowException
	int	3
$LN11@Xlen:
?_Xlen@?$deque@V?$basic_string@_WU?$char_traits@_W@std@@V?$allocator@_W@2@@std@@V?$allocator@V?$basic_string@_WU?$char_traits@_W@std@@V?$allocator@_W@2@@std@@@2@@std@@KAXXZ ENDP ; std::deque<std::basic_string<wchar_t,std::char_traits<wchar_t>,std::allocator<wchar_t> >,std::allocator<std::basic_string<wchar_t,std::char_traits<wchar_t>,std::allocator<wchar_t> > > >::_Xlen
; Function compile flags: /Ogtpy
_TEXT	ENDS
;	COMDAT text$x
text$x	SEGMENT
$T153381 = 32
$T153361 = 40
$T153360 = 80
?dtor$0@?0??_Xlen@?$deque@V?$basic_string@_WU?$char_traits@_W@std@@V?$allocator@_W@2@@std@@V?$allocator@V?$basic_string@_WU?$char_traits@_W@std@@V?$allocator@_W@2@@std@@@2@@std@@KAXXZ@4HA PROC ; `std::deque<std::basic_string<wchar_t,std::char_traits<wchar_t>,std::allocator<wchar_t> >,std::allocator<std::basic_string<wchar_t,std::char_traits<wchar_t>,std::allocator<wchar_t> > > >::_Xlen'::`1'::dtor$0
	push	rbp
	sub	rsp, 32					; 00000020H
	mov	rbp, rdx
	lea	rcx, QWORD PTR $T153361[rbp]
	call	QWORD PTR __imp_??1?$basic_string@DU?$char_traits@D@std@@V?$allocator@D@2@@std@@QEAA@XZ
	add	rsp, 32					; 00000020H
	pop	rbp
	ret	0
?dtor$0@?0??_Xlen@?$deque@V?$basic_string@_WU?$char_traits@_W@std@@V?$allocator@_W@2@@std@@V?$allocator@V?$basic_string@_WU?$char_traits@_W@std@@V?$allocator@_W@2@@std@@@2@@std@@KAXXZ@4HA ENDP ; `std::deque<std::basic_string<wchar_t,std::char_traits<wchar_t>,std::allocator<wchar_t> >,std::allocator<std::basic_string<wchar_t,std::char_traits<wchar_t>,std::allocator<wchar_t> > > >::_Xlen'::`1'::dtor$0
; Function compile flags: /Ogtpy
$T153381 = 32
$T153361 = 40
$T153360 = 80
?dtor$2@?0??_Xlen@?$deque@V?$basic_string@_WU?$char_traits@_W@std@@V?$allocator@_W@2@@std@@V?$allocator@V?$basic_string@_WU?$char_traits@_W@std@@V?$allocator@_W@2@@std@@@2@@std@@KAXXZ@4HA PROC ; `std::deque<std::basic_string<wchar_t,std::char_traits<wchar_t>,std::allocator<wchar_t> >,std::allocator<std::basic_string<wchar_t,std::char_traits<wchar_t>,std::allocator<wchar_t> > > >::_Xlen'::`1'::dtor$2
	push	rbp
	sub	rsp, 32					; 00000020H
	mov	rbp, rdx
	lea	rcx, QWORD PTR $T153360[rbp]
	call	QWORD PTR __imp_??1exception@std@@UEAA@XZ
	add	rsp, 32					; 00000020H
	pop	rbp
	ret	0
?dtor$2@?0??_Xlen@?$deque@V?$basic_string@_WU?$char_traits@_W@std@@V?$allocator@_W@2@@std@@V?$allocator@V?$basic_string@_WU?$char_traits@_W@std@@V?$allocator@_W@2@@std@@@2@@std@@KAXXZ@4HA ENDP ; `std::deque<std::basic_string<wchar_t,std::char_traits<wchar_t>,std::allocator<wchar_t> >,std::allocator<std::basic_string<wchar_t,std::char_traits<wchar_t>,std::allocator<wchar_t> > > >::_Xlen'::`1'::dtor$2
text$x	ENDS
;	COMDAT pdata
; File c:\program files\microsoft visual studio 9.0\vc\include\xmemory
pdata	SEGMENT
$pdata$??0?$_Deque_map@_WV?$allocator@_W@std@@@std@@IEAA@V?$allocator@_W@1@@Z DD imagerel $LN32
	DD	imagerel $LN32+55
	DD	imagerel $unwind$??0?$_Deque_map@_WV?$allocator@_W@std@@@std@@IEAA@V?$allocator@_W@1@@Z
pdata	ENDS
;	COMDAT xdata
xdata	SEGMENT
$unwind$??0?$_Deque_map@_WV?$allocator@_W@std@@@std@@IEAA@V?$allocator@_W@1@@Z DD 020601H
	DD	030023206H
; Function compile flags: /Ogtpy
; File c:\program files\microsoft visual studio 9.0\vc\include\deque
xdata	ENDS
;	COMDAT ??0?$_Deque_map@_WV?$allocator@_W@std@@@std@@IEAA@V?$allocator@_W@1@@Z
_TEXT	SEGMENT
this$ = 48
_Al$ = 56
??0?$_Deque_map@_WV?$allocator@_W@std@@@std@@IEAA@V?$allocator@_W@1@@Z PROC ; std::_Deque_map<wchar_t,std::allocator<wchar_t> >::_Deque_map<wchar_t,std::allocator<wchar_t> >, COMDAT

; 478  : 		{	// construct allocator from _Al

$LN32:
	push	rbx
	sub	rsp, 32					; 00000020H
	mov	rbx, rcx
	mov	ecx, 8
	call	??2@YAPEAX_K@Z				; operator new
	test	rax, rax
	je	SHORT $LN8@Deque_map@2
	mov	QWORD PTR [rax], rbx
	mov	QWORD PTR [rbx], rax

; 479  : 		}

	mov	rax, rbx
	add	rsp, 32					; 00000020H
	pop	rbx
	ret	0

; 478  : 		{	// construct allocator from _Al

$LN8@Deque_map@2:
	mov	QWORD PTR [rbx], 0

; 479  : 		}

	mov	rax, rbx
	add	rsp, 32					; 00000020H
	pop	rbx
	ret	0
??0?$_Deque_map@_WV?$allocator@_W@std@@@std@@IEAA@V?$allocator@_W@1@@Z ENDP ; std::_Deque_map<wchar_t,std::allocator<wchar_t> >::_Deque_map<wchar_t,std::allocator<wchar_t> >
_TEXT	ENDS
;	COMDAT pdata
; File c:\program files\microsoft visual studio 9.0\vc\include\stdexcept
pdata	SEGMENT
$pdata$?_Xlen@?$deque@_WV?$allocator@_W@std@@@std@@KAXXZ DD imagerel $LN12
	DD	imagerel $LN12+106
	DD	imagerel $unwind$?_Xlen@?$deque@_WV?$allocator@_W@std@@@std@@KAXXZ
pdata	ENDS
;	COMDAT pdata
pdata	SEGMENT
$pdata$?dtor$0@?0??_Xlen@?$deque@_WV?$allocator@_W@std@@@std@@KAXXZ@4HA DD imagerel ?dtor$0@?0??_Xlen@?$deque@_WV?$allocator@_W@std@@@std@@KAXXZ@4HA
	DD	imagerel ?dtor$0@?0??_Xlen@?$deque@_WV?$allocator@_W@std@@@std@@KAXXZ@4HA+25
	DD	imagerel $unwind$?dtor$0@?0??_Xlen@?$deque@_WV?$allocator@_W@std@@@std@@KAXXZ@4HA
pdata	ENDS
;	COMDAT pdata
pdata	SEGMENT
$pdata$?dtor$2@?0??_Xlen@?$deque@_WV?$allocator@_W@std@@@std@@KAXXZ@4HA DD imagerel ?dtor$2@?0??_Xlen@?$deque@_WV?$allocator@_W@std@@@std@@KAXXZ@4HA
	DD	imagerel ?dtor$2@?0??_Xlen@?$deque@_WV?$allocator@_W@std@@@std@@KAXXZ@4HA+25
	DD	imagerel $unwind$?dtor$2@?0??_Xlen@?$deque@_WV?$allocator@_W@std@@@std@@KAXXZ@4HA
pdata	ENDS
;	COMDAT xdata
xdata	SEGMENT
$ip2state$?_Xlen@?$deque@_WV?$allocator@_W@std@@@std@@KAXXZ DD imagerel ?_Xlen@?$deque@_WV?$allocator@_W@std@@@std@@KAXXZ
	DD	0ffffffffH
	DD	imagerel ?_Xlen@?$deque@_WV?$allocator@_W@std@@@std@@KAXXZ+35
	DD	00H
	DD	imagerel ?_Xlen@?$deque@_WV?$allocator@_W@std@@@std@@KAXXZ+47
	DD	01H
	DD	imagerel ?_Xlen@?$deque@_WV?$allocator@_W@std@@@std@@KAXXZ+76
	DD	00H
xdata	ENDS
;	COMDAT xdata
xdata	SEGMENT
$unwind$?dtor$2@?0??_Xlen@?$deque@_WV?$allocator@_W@std@@@std@@KAXXZ@4HA DD 020601H
	DD	050023206H
xdata	ENDS
;	COMDAT xdata
xdata	SEGMENT
$unwind$?dtor$0@?0??_Xlen@?$deque@_WV?$allocator@_W@std@@@std@@KAXXZ@4HA DD 020601H
	DD	050023206H
xdata	ENDS
;	COMDAT xdata
xdata	SEGMENT
$unwind$?_Xlen@?$deque@_WV?$allocator@_W@std@@@std@@KAXXZ DD 021011H
	DD	0130107H
	DD	imagerel __CxxFrameHandler3
	DD	imagerel $cppxdata$?_Xlen@?$deque@_WV?$allocator@_W@std@@@std@@KAXXZ
xdata	ENDS
;	COMDAT CONST
CONST	SEGMENT
$cppxdata$?_Xlen@?$deque@_WV?$allocator@_W@std@@@std@@KAXXZ DD 019930522H
	DD	02H
	DD	imagerel $stateUnwindMap$?_Xlen@?$deque@_WV?$allocator@_W@std@@@std@@KAXXZ
	DD	00H
	DD	00H
	DD	04H
	DD	imagerel $ip2state$?_Xlen@?$deque@_WV?$allocator@_W@std@@@std@@KAXXZ
	DD	020H
	DD	00H
	DD	01H
CONST	ENDS
;	COMDAT xdata
xdata	SEGMENT
$stateUnwindMap$?_Xlen@?$deque@_WV?$allocator@_W@std@@@std@@KAXXZ DD 0ffffffffH
	DD	imagerel ?dtor$0@?0??_Xlen@?$deque@_WV?$allocator@_W@std@@@std@@KAXXZ@4HA
	DD	00H
	DD	imagerel ?dtor$2@?0??_Xlen@?$deque@_WV?$allocator@_W@std@@@std@@KAXXZ@4HA
; Function compile flags: /Ogtpy
; File c:\program files\microsoft visual studio 9.0\vc\include\deque
xdata	ENDS
;	COMDAT ?_Xlen@?$deque@_WV?$allocator@_W@std@@@std@@KAXXZ
_TEXT	SEGMENT
$T153525 = 32
$T153505 = 40
$T153504 = 80
?_Xlen@?$deque@_WV?$allocator@_W@std@@@std@@KAXXZ PROC	; std::deque<wchar_t,std::allocator<wchar_t> >::_Xlen, COMDAT

; 1210 : 		{	// report length error

$LN12:
	sub	rsp, 152				; 00000098H
	mov	QWORD PTR $T153525[rsp], -2

; 1211 : 		_THROW(length_error, "deque<T> too long");

	lea	rdx, OFFSET FLAT:??_C@_0BC@KBDMBKEH@deque?$DMT?$DO?5too?5long?$AA@
	lea	rcx, QWORD PTR $T153505[rsp]
	call	QWORD PTR __imp_??0?$basic_string@DU?$char_traits@D@std@@V?$allocator@D@2@@std@@QEAA@PEBD@Z
	npad	1
	lea	rcx, QWORD PTR $T153504[rsp]
	call	QWORD PTR __imp_??0exception@std@@QEAA@XZ
	npad	1
	lea	rax, OFFSET FLAT:??_7logic_error@std@@6B@
	mov	QWORD PTR $T153504[rsp], rax
	lea	rdx, QWORD PTR $T153505[rsp]
	lea	rcx, QWORD PTR $T153504[rsp+24]
	call	QWORD PTR __imp_??0?$basic_string@DU?$char_traits@D@std@@V?$allocator@D@2@@std@@QEAA@AEBV01@@Z
	npad	1
	lea	rax, OFFSET FLAT:??_7length_error@std@@6B@
	mov	QWORD PTR $T153504[rsp], rax
	lea	rdx, OFFSET FLAT:_TI3?AVlength_error@std@@
	lea	rcx, QWORD PTR $T153504[rsp]
	call	_CxxThrowException
	int	3
$LN11@Xlen@2:
?_Xlen@?$deque@_WV?$allocator@_W@std@@@std@@KAXXZ ENDP	; std::deque<wchar_t,std::allocator<wchar_t> >::_Xlen
; Function compile flags: /Ogtpy
_TEXT	ENDS
;	COMDAT text$x
text$x	SEGMENT
$T153525 = 32
$T153505 = 40
$T153504 = 80
?dtor$0@?0??_Xlen@?$deque@_WV?$allocator@_W@std@@@std@@KAXXZ@4HA PROC ; `std::deque<wchar_t,std::allocator<wchar_t> >::_Xlen'::`1'::dtor$0
	push	rbp
	sub	rsp, 32					; 00000020H
	mov	rbp, rdx
	lea	rcx, QWORD PTR $T153505[rbp]
	call	QWORD PTR __imp_??1?$basic_string@DU?$char_traits@D@std@@V?$allocator@D@2@@std@@QEAA@XZ
	add	rsp, 32					; 00000020H
	pop	rbp
	ret	0
?dtor$0@?0??_Xlen@?$deque@_WV?$allocator@_W@std@@@std@@KAXXZ@4HA ENDP ; `std::deque<wchar_t,std::allocator<wchar_t> >::_Xlen'::`1'::dtor$0
; Function compile flags: /Ogtpy
$T153525 = 32
$T153505 = 40
$T153504 = 80
?dtor$2@?0??_Xlen@?$deque@_WV?$allocator@_W@std@@@std@@KAXXZ@4HA PROC ; `std::deque<wchar_t,std::allocator<wchar_t> >::_Xlen'::`1'::dtor$2
	push	rbp
	sub	rsp, 32					; 00000020H
	mov	rbp, rdx
	lea	rcx, QWORD PTR $T153504[rbp]
	call	QWORD PTR __imp_??1exception@std@@UEAA@XZ
	add	rsp, 32					; 00000020H
	pop	rbp
	ret	0
?dtor$2@?0??_Xlen@?$deque@_WV?$allocator@_W@std@@@std@@KAXXZ@4HA ENDP ; `std::deque<wchar_t,std::allocator<wchar_t> >::_Xlen'::`1'::dtor$2
text$x	ENDS
;	COMDAT pdata
; File c:\program files\microsoft visual studio 9.0\vc\include\xutility
pdata	SEGMENT
$pdata$??G?$_Deque_iterator@V?$basic_string@_WU?$char_traits@_W@std@@V?$allocator@_W@2@@std@@V?$allocator@V?$basic_string@_WU?$char_traits@_W@std@@V?$allocator@_W@2@@std@@@2@$00@std@@QEBA?AV01@_J@Z DD imagerel $LN41
	DD	imagerel $LN41+164
	DD	imagerel $unwind$??G?$_Deque_iterator@V?$basic_string@_WU?$char_traits@_W@std@@V?$allocator@_W@2@@std@@V?$allocator@V?$basic_string@_WU?$char_traits@_W@std@@V?$allocator@_W@2@@std@@@2@$00@std@@QEBA?AV01@_J@Z
pdata	ENDS
;	COMDAT xdata
xdata	SEGMENT
$unwind$??G?$_Deque_iterator@V?$basic_string@_WU?$char_traits@_W@std@@V?$allocator@_W@2@@std@@V?$allocator@V?$basic_string@_WU?$char_traits@_W@std@@V?$allocator@_W@2@@std@@@2@$00@std@@QEBA?AV01@_J@Z DD 081401H
	DD	0a6414H
	DD	095414H
	DD	083414H
	DD	070105214H
; Function compile flags: /Ogtpy
; File c:\program files\microsoft visual studio 9.0\vc\include\deque
xdata	ENDS
;	COMDAT ??G?$_Deque_iterator@V?$basic_string@_WU?$char_traits@_W@std@@V?$allocator@_W@2@@std@@V?$allocator@V?$basic_string@_WU?$char_traits@_W@std@@V?$allocator@_W@2@@std@@@2@$00@std@@QEBA?AV01@_J@Z
_TEXT	SEGMENT
_Tmp$ = 32
this$ = 64
__$ReturnUdt$ = 72
_Off$ = 80
??G?$_Deque_iterator@V?$basic_string@_WU?$char_traits@_W@std@@V?$allocator@_W@2@@std@@V?$allocator@V?$basic_string@_WU?$char_traits@_W@std@@V?$allocator@_W@2@@std@@@2@$00@std@@QEBA?AV01@_J@Z PROC ; std::_Deque_iterator<std::basic_string<wchar_t,std::char_traits<wchar_t>,std::allocator<wchar_t> >,std::allocator<std::basic_string<wchar_t,std::char_traits<wchar_t>,std::allocator<wchar_t> > >,1>::operator-, COMDAT

; 438  : 		{	// return this - integer

$LN41:
	mov	QWORD PTR [rsp+8], rbx
	mov	QWORD PTR [rsp+16], rbp
	mov	QWORD PTR [rsp+24], rsi
	push	rdi
	sub	rsp, 48					; 00000030H

; 439  : 		_Myt _Tmp = *this;

	mov	rax, QWORD PTR [rcx]
	mov	rbp, rdx
	lea	rdx, QWORD PTR _Tmp$[rsp]
	mov	QWORD PTR [rdx], rax
	mov	rax, QWORD PTR [rcx+8]

; 440  : 		return (_Tmp -= _Off);

	xor	ebx, ebx
	mov	QWORD PTR [rdx+8], rax
	mov	rdi, QWORD PTR _Tmp$[rsp]
	test	rdi, rdi
	jne	SHORT $LN40@operator@16
	call	QWORD PTR __imp__invalid_parameter_noinfo
	mov	r11, rbx
	mov	rcx, rbx
	jmp	SHORT $LN31@operator@16
$LN40@operator@16:
	mov	r11, QWORD PTR [rdi]
	mov	rcx, r11
$LN31@operator@16:
	mov	rax, QWORD PTR [rcx+56]
	mov	rsi, QWORD PTR _Tmp$[rsp+8]
	add	rax, QWORD PTR [r11+48]
	dec	rsi
	cmp	rsi, rax
	ja	SHORT $LN10@operator@16
	test	rdi, rdi
	je	SHORT $LN36@operator@16
	mov	rbx, QWORD PTR [rdi]
$LN36@operator@16:
	cmp	rsi, QWORD PTR [rbx+48]
	jae	SHORT $LN9@operator@16
$LN10@operator@16:
	call	QWORD PTR __imp__invalid_parameter_noinfo
$LN9@operator@16:

; 441  : 		}

	mov	rbx, QWORD PTR [rsp+64]
	mov	QWORD PTR _Tmp$[rsp+8], rsi
	mov	rsi, QWORD PTR [rsp+80]
	lea	rcx, QWORD PTR _Tmp$[rsp]
	mov	rax, QWORD PTR [rcx]
	mov	QWORD PTR [rbp], rax
	mov	rax, QWORD PTR [rcx+8]
	mov	QWORD PTR [rbp+8], rax
	mov	rax, rbp
	mov	rbp, QWORD PTR [rsp+72]
	add	rsp, 48					; 00000030H
	pop	rdi
	ret	0
??G?$_Deque_iterator@V?$basic_string@_WU?$char_traits@_W@std@@V?$allocator@_W@2@@std@@V?$allocator@V?$basic_string@_WU?$char_traits@_W@std@@V?$allocator@_W@2@@std@@@2@$00@std@@QEBA?AV01@_J@Z ENDP ; std::_Deque_iterator<std::basic_string<wchar_t,std::char_traits<wchar_t>,std::allocator<wchar_t> >,std::allocator<std::basic_string<wchar_t,std::char_traits<wchar_t>,std::allocator<wchar_t> > >,1>::operator-
; Function compile flags: /Ogtpy
_TEXT	ENDS
;	COMDAT ??D?$_Deque_iterator@V?$basic_string@_WU?$char_traits@_W@std@@V?$allocator@_W@2@@std@@V?$allocator@V?$basic_string@_WU?$char_traits@_W@std@@V?$allocator@_W@2@@std@@@2@$00@std@@QEBAAEAV?$basic_string@_WU?$char_traits@_W@std@@V?$allocator@_W@2@@1@XZ
_TEXT	SEGMENT
this$ = 8
??D?$_Deque_iterator@V?$basic_string@_WU?$char_traits@_W@std@@V?$allocator@_W@2@@std@@V?$allocator@V?$basic_string@_WU?$char_traits@_W@std@@V?$allocator@_W@2@@std@@@2@$00@std@@QEBAAEAV?$basic_string@_WU?$char_traits@_W@std@@V?$allocator@_W@2@@1@XZ PROC ; std::_Deque_iterator<std::basic_string<wchar_t,std::char_traits<wchar_t>,std::allocator<wchar_t> >,std::allocator<std::basic_string<wchar_t,std::char_traits<wchar_t>,std::allocator<wchar_t> > >,1>::operator*, COMDAT

; 386  : 		return ((reference)**(_Mybase *)this);
; 387  : 		}

	jmp	??D?$_Deque_const_iterator@V?$basic_string@_WU?$char_traits@_W@std@@V?$allocator@_W@2@@std@@V?$allocator@V?$basic_string@_WU?$char_traits@_W@std@@V?$allocator@_W@2@@std@@@2@$00@std@@QEBAAEBV?$basic_string@_WU?$char_traits@_W@std@@V?$allocator@_W@2@@1@XZ ; std::_Deque_const_iterator<std::basic_string<wchar_t,std::char_traits<wchar_t>,std::allocator<wchar_t> >,std::allocator<std::basic_string<wchar_t,std::char_traits<wchar_t>,std::allocator<wchar_t> > >,1>::operator*
??D?$_Deque_iterator@V?$basic_string@_WU?$char_traits@_W@std@@V?$allocator@_W@2@@std@@V?$allocator@V?$basic_string@_WU?$char_traits@_W@std@@V?$allocator@_W@2@@std@@@2@$00@std@@QEBAAEAV?$basic_string@_WU?$char_traits@_W@std@@V?$allocator@_W@2@@1@XZ ENDP ; std::_Deque_iterator<std::basic_string<wchar_t,std::char_traits<wchar_t>,std::allocator<wchar_t> >,std::allocator<std::basic_string<wchar_t,std::char_traits<wchar_t>,std::allocator<wchar_t> > >,1>::operator*
_TEXT	ENDS
;	COMDAT pdata
; File c:\program files\microsoft visual studio 9.0\vc\include\xutility
pdata	SEGMENT
$pdata$??G?$_Deque_iterator@_WV?$allocator@_W@std@@$00@std@@QEBA?AV01@_J@Z DD imagerel $LN41
	DD	imagerel $LN41+164
	DD	imagerel $unwind$??G?$_Deque_iterator@_WV?$allocator@_W@std@@$00@std@@QEBA?AV01@_J@Z
pdata	ENDS
;	COMDAT xdata
xdata	SEGMENT
$unwind$??G?$_Deque_iterator@_WV?$allocator@_W@std@@$00@std@@QEBA?AV01@_J@Z DD 081401H
	DD	0a6414H
	DD	095414H
	DD	083414H
	DD	070105214H
; Function compile flags: /Ogtpy
; File c:\program files\microsoft visual studio 9.0\vc\include\deque
xdata	ENDS
;	COMDAT ??G?$_Deque_iterator@_WV?$allocator@_W@std@@$00@std@@QEBA?AV01@_J@Z
_TEXT	SEGMENT
_Tmp$ = 32
this$ = 64
__$ReturnUdt$ = 72
_Off$ = 80
??G?$_Deque_iterator@_WV?$allocator@_W@std@@$00@std@@QEBA?AV01@_J@Z PROC ; std::_Deque_iterator<wchar_t,std::allocator<wchar_t>,1>::operator-, COMDAT

; 438  : 		{	// return this - integer

$LN41:
	mov	QWORD PTR [rsp+8], rbx
	mov	QWORD PTR [rsp+16], rbp
	mov	QWORD PTR [rsp+24], rsi
	push	rdi
	sub	rsp, 48					; 00000030H

; 439  : 		_Myt _Tmp = *this;

	mov	rax, QWORD PTR [rcx]
	mov	rbp, rdx
	lea	rdx, QWORD PTR _Tmp$[rsp]
	mov	QWORD PTR [rdx], rax
	mov	rax, QWORD PTR [rcx+8]

; 440  : 		return (_Tmp -= _Off);

	xor	ebx, ebx
	mov	QWORD PTR [rdx+8], rax
	mov	rdi, QWORD PTR _Tmp$[rsp]
	test	rdi, rdi
	jne	SHORT $LN40@operator@17
	call	QWORD PTR __imp__invalid_parameter_noinfo
	mov	r11, rbx
	mov	rcx, rbx
	jmp	SHORT $LN31@operator@17
$LN40@operator@17:
	mov	r11, QWORD PTR [rdi]
	mov	rcx, r11
$LN31@operator@17:
	mov	rax, QWORD PTR [rcx+56]
	mov	rsi, QWORD PTR _Tmp$[rsp+8]
	add	rax, QWORD PTR [r11+48]
	dec	rsi
	cmp	rsi, rax
	ja	SHORT $LN10@operator@17
	test	rdi, rdi
	je	SHORT $LN36@operator@17
	mov	rbx, QWORD PTR [rdi]
$LN36@operator@17:
	cmp	rsi, QWORD PTR [rbx+48]
	jae	SHORT $LN9@operator@17
$LN10@operator@17:
	call	QWORD PTR __imp__invalid_parameter_noinfo
$LN9@operator@17:

; 441  : 		}

	mov	rbx, QWORD PTR [rsp+64]
	mov	QWORD PTR _Tmp$[rsp+8], rsi
	mov	rsi, QWORD PTR [rsp+80]
	lea	rcx, QWORD PTR _Tmp$[rsp]
	mov	rax, QWORD PTR [rcx]
	mov	QWORD PTR [rbp], rax
	mov	rax, QWORD PTR [rcx+8]
	mov	QWORD PTR [rbp+8], rax
	mov	rax, rbp
	mov	rbp, QWORD PTR [rsp+72]
	add	rsp, 48					; 00000030H
	pop	rdi
	ret	0
??G?$_Deque_iterator@_WV?$allocator@_W@std@@$00@std@@QEBA?AV01@_J@Z ENDP ; std::_Deque_iterator<wchar_t,std::allocator<wchar_t>,1>::operator-
; Function compile flags: /Ogtpy
_TEXT	ENDS
;	COMDAT ??D?$_Deque_iterator@_WV?$allocator@_W@std@@$00@std@@QEBAAEA_WXZ
_TEXT	SEGMENT
this$ = 8
??D?$_Deque_iterator@_WV?$allocator@_W@std@@$00@std@@QEBAAEA_WXZ PROC ; std::_Deque_iterator<wchar_t,std::allocator<wchar_t>,1>::operator*, COMDAT

; 386  : 		return ((reference)**(_Mybase *)this);
; 387  : 		}

	jmp	??D?$_Deque_const_iterator@_WV?$allocator@_W@std@@$00@std@@QEBAAEB_WXZ ; std::_Deque_const_iterator<wchar_t,std::allocator<wchar_t>,1>::operator*
??D?$_Deque_iterator@_WV?$allocator@_W@std@@$00@std@@QEBAAEA_WXZ ENDP ; std::_Deque_iterator<wchar_t,std::allocator<wchar_t>,1>::operator*
_TEXT	ENDS
;	COMDAT pdata
; File c:\program files\microsoft visual studio 9.0\vc\include\xmemory
pdata	SEGMENT
$pdata$??0?$_Deque_val@V?$basic_string@_WU?$char_traits@_W@std@@V?$allocator@_W@2@@std@@V?$allocator@V?$basic_string@_WU?$char_traits@_W@std@@V?$allocator@_W@2@@std@@@2@@std@@IEAA@V?$allocator@V?$basic_string@_WU?$char_traits@_W@std@@V?$allocator@_W@2@@std@@@1@@Z DD imagerel $LN40
	DD	imagerel $LN40+55
	DD	imagerel $unwind$??0?$_Deque_val@V?$basic_string@_WU?$char_traits@_W@std@@V?$allocator@_W@2@@std@@V?$allocator@V?$basic_string@_WU?$char_traits@_W@std@@V?$allocator@_W@2@@std@@@2@@std@@IEAA@V?$allocator@V?$basic_string@_WU?$char_traits@_W@std@@V?$allocator@_W@2@@std@@@1@@Z
pdata	ENDS
;	COMDAT xdata
xdata	SEGMENT
$unwind$??0?$_Deque_val@V?$basic_string@_WU?$char_traits@_W@std@@V?$allocator@_W@2@@std@@V?$allocator@V?$basic_string@_WU?$char_traits@_W@std@@V?$allocator@_W@2@@std@@@2@@std@@IEAA@V?$allocator@V?$basic_string@_WU?$char_traits@_W@std@@V?$allocator@_W@2@@std@@@1@@Z DD 020601H
	DD	030023206H
; Function compile flags: /Ogtpy
; File c:\program files\microsoft visual studio 9.0\vc\include\deque
xdata	ENDS
;	COMDAT ??0?$_Deque_val@V?$basic_string@_WU?$char_traits@_W@std@@V?$allocator@_W@2@@std@@V?$allocator@V?$basic_string@_WU?$char_traits@_W@std@@V?$allocator@_W@2@@std@@@2@@std@@IEAA@V?$allocator@V?$basic_string@_WU?$char_traits@_W@std@@V?$allocator@_W@2@@std@@@1@@Z
_TEXT	SEGMENT
this$ = 48
_Al$ = 56
??0?$_Deque_val@V?$basic_string@_WU?$char_traits@_W@std@@V?$allocator@_W@2@@std@@V?$allocator@V?$basic_string@_WU?$char_traits@_W@std@@V?$allocator@_W@2@@std@@@2@@std@@IEAA@V?$allocator@V?$basic_string@_WU?$char_traits@_W@std@@V?$allocator@_W@2@@std@@@1@@Z PROC ; std::_Deque_val<std::basic_string<wchar_t,std::char_traits<wchar_t>,std::allocator<wchar_t> >,std::allocator<std::basic_string<wchar_t,std::char_traits<wchar_t>,std::allocator<wchar_t> > > >::_Deque_val<std::basic_string<wchar_t,std::char_traits<wchar_t>,std::allocator<wchar_t> >,std::allocator<std::basic_string<wchar_t,std::char_traits<wchar_t>,std::allocator<wchar_t> > > >, COMDAT

; 500  : 		{	// construct allocator and base from _Al

$LN40:
	push	rbx
	sub	rsp, 32					; 00000020H
	mov	rbx, rcx
	mov	ecx, 8
	call	??2@YAPEAX_K@Z				; operator new
	test	rax, rax
	je	SHORT $LN13@Deque_val
	mov	QWORD PTR [rax], rbx
	mov	QWORD PTR [rbx], rax

; 501  : 		}

	mov	rax, rbx
	add	rsp, 32					; 00000020H
	pop	rbx
	ret	0

; 500  : 		{	// construct allocator and base from _Al

$LN13@Deque_val:
	mov	QWORD PTR [rbx], 0

; 501  : 		}

	mov	rax, rbx
	add	rsp, 32					; 00000020H
	pop	rbx
	ret	0
??0?$_Deque_val@V?$basic_string@_WU?$char_traits@_W@std@@V?$allocator@_W@2@@std@@V?$allocator@V?$basic_string@_WU?$char_traits@_W@std@@V?$allocator@_W@2@@std@@@2@@std@@IEAA@V?$allocator@V?$basic_string@_WU?$char_traits@_W@std@@V?$allocator@_W@2@@std@@@1@@Z ENDP ; std::_Deque_val<std::basic_string<wchar_t,std::char_traits<wchar_t>,std::allocator<wchar_t> >,std::allocator<std::basic_string<wchar_t,std::char_traits<wchar_t>,std::allocator<wchar_t> > > >::_Deque_val<std::basic_string<wchar_t,std::char_traits<wchar_t>,std::allocator<wchar_t> >,std::allocator<std::basic_string<wchar_t,std::char_traits<wchar_t>,std::allocator<wchar_t> > > >
_TEXT	ENDS
;	COMDAT pdata
; File c:\program files\microsoft visual studio 9.0\vc\include\xmemory
pdata	SEGMENT
$pdata$?_Growmap@?$deque@V?$basic_string@_WU?$char_traits@_W@std@@V?$allocator@_W@2@@std@@V?$allocator@V?$basic_string@_WU?$char_traits@_W@std@@V?$allocator@_W@2@@std@@@2@@std@@IEAAX_K@Z DD imagerel $LN171
	DD	imagerel $LN171+609
	DD	imagerel $unwind$?_Growmap@?$deque@V?$basic_string@_WU?$char_traits@_W@std@@V?$allocator@_W@2@@std@@V?$allocator@V?$basic_string@_WU?$char_traits@_W@std@@V?$allocator@_W@2@@std@@@2@@std@@IEAAX_K@Z
pdata	ENDS
;	COMDAT pdata
pdata	SEGMENT
$pdata$?dtor$0@?0??_Growmap@?$deque@V?$basic_string@_WU?$char_traits@_W@std@@V?$allocator@_W@2@@std@@V?$allocator@V?$basic_string@_WU?$char_traits@_W@std@@V?$allocator@_W@2@@std@@@2@@std@@IEAAX_K@Z@4HA DD imagerel ?dtor$0@?0??_Growmap@?$deque@V?$basic_string@_WU?$char_traits@_W@std@@V?$allocator@_W@2@@std@@V?$allocator@V?$basic_string@_WU?$char_traits@_W@std@@V?$allocator@_W@2@@std@@@2@@std@@IEAAX_K@Z@4HA
	DD	imagerel ?dtor$0@?0??_Growmap@?$deque@V?$basic_string@_WU?$char_traits@_W@std@@V?$allocator@_W@2@@std@@V?$allocator@V?$basic_string@_WU?$char_traits@_W@std@@V?$allocator@_W@2@@std@@@2@@std@@IEAAX_K@Z@4HA+25
	DD	imagerel $unwind$?dtor$0@?0??_Growmap@?$deque@V?$basic_string@_WU?$char_traits@_W@std@@V?$allocator@_W@2@@std@@V?$allocator@V?$basic_string@_WU?$char_traits@_W@std@@V?$allocator@_W@2@@std@@@2@@std@@IEAAX_K@Z@4HA
pdata	ENDS
;	COMDAT pdata
pdata	SEGMENT
$pdata$?dtor$2@?0??_Growmap@?$deque@V?$basic_string@_WU?$char_traits@_W@std@@V?$allocator@_W@2@@std@@V?$allocator@V?$basic_string@_WU?$char_traits@_W@std@@V?$allocator@_W@2@@std@@@2@@std@@IEAAX_K@Z@4HA DD imagerel ?dtor$2@?0??_Growmap@?$deque@V?$basic_string@_WU?$char_traits@_W@std@@V?$allocator@_W@2@@std@@V?$allocator@V?$basic_string@_WU?$char_traits@_W@std@@V?$allocator@_W@2@@std@@@2@@std@@IEAAX_K@Z@4HA
	DD	imagerel ?dtor$2@?0??_Growmap@?$deque@V?$basic_string@_WU?$char_traits@_W@std@@V?$allocator@_W@2@@std@@V?$allocator@V?$basic_string@_WU?$char_traits@_W@std@@V?$allocator@_W@2@@std@@@2@@std@@IEAAX_K@Z@4HA+25
	DD	imagerel $unwind$?dtor$2@?0??_Growmap@?$deque@V?$basic_string@_WU?$char_traits@_W@std@@V?$allocator@_W@2@@std@@V?$allocator@V?$basic_string@_WU?$char_traits@_W@std@@V?$allocator@_W@2@@std@@@2@@std@@IEAAX_K@Z@4HA
pdata	ENDS
;	COMDAT xdata
xdata	SEGMENT
$ip2state$?_Growmap@?$deque@V?$basic_string@_WU?$char_traits@_W@std@@V?$allocator@_W@2@@std@@V?$allocator@V?$basic_string@_WU?$char_traits@_W@std@@V?$allocator@_W@2@@std@@@2@@std@@IEAAX_K@Z DD imagerel ?_Growmap@?$deque@V?$basic_string@_WU?$char_traits@_W@std@@V?$allocator@_W@2@@std@@V?$allocator@V?$basic_string@_WU?$char_traits@_W@std@@V?$allocator@_W@2@@std@@@2@@std@@IEAAX_K@Z
	DD	0ffffffffH
	DD	imagerel ?_Growmap@?$deque@V?$basic_string@_WU?$char_traits@_W@std@@V?$allocator@_W@2@@std@@V?$allocator@V?$basic_string@_WU?$char_traits@_W@std@@V?$allocator@_W@2@@std@@@2@@std@@IEAAX_K@Z+91
	DD	00H
	DD	imagerel ?_Growmap@?$deque@V?$basic_string@_WU?$char_traits@_W@std@@V?$allocator@_W@2@@std@@V?$allocator@V?$basic_string@_WU?$char_traits@_W@std@@V?$allocator@_W@2@@std@@@2@@std@@IEAAX_K@Z+103
	DD	01H
	DD	imagerel ?_Growmap@?$deque@V?$basic_string@_WU?$char_traits@_W@std@@V?$allocator@_W@2@@std@@V?$allocator@V?$basic_string@_WU?$char_traits@_W@std@@V?$allocator@_W@2@@std@@@2@@std@@IEAAX_K@Z+132
	DD	00H
	DD	imagerel ?_Growmap@?$deque@V?$basic_string@_WU?$char_traits@_W@std@@V?$allocator@_W@2@@std@@V?$allocator@V?$basic_string@_WU?$char_traits@_W@std@@V?$allocator@_W@2@@std@@@2@@std@@IEAAX_K@Z+162
	DD	0ffffffffH
xdata	ENDS
;	COMDAT xdata
xdata	SEGMENT
$unwind$?dtor$2@?0??_Growmap@?$deque@V?$basic_string@_WU?$char_traits@_W@std@@V?$allocator@_W@2@@std@@V?$allocator@V?$basic_string@_WU?$char_traits@_W@std@@V?$allocator@_W@2@@std@@@2@@std@@IEAAX_K@Z@4HA DD 020601H
	DD	050023206H
xdata	ENDS
;	COMDAT xdata
xdata	SEGMENT
$unwind$?dtor$0@?0??_Growmap@?$deque@V?$basic_string@_WU?$char_traits@_W@std@@V?$allocator@_W@2@@std@@V?$allocator@V?$basic_string@_WU?$char_traits@_W@std@@V?$allocator@_W@2@@std@@@2@@std@@IEAAX_K@Z@4HA DD 020601H
	DD	050023206H
xdata	ENDS
;	COMDAT xdata
xdata	SEGMENT
$unwind$?_Growmap@?$deque@V?$basic_string@_WU?$char_traits@_W@std@@V?$allocator@_W@2@@std@@V?$allocator@V?$basic_string@_WU?$char_traits@_W@std@@V?$allocator@_W@2@@std@@@2@@std@@IEAAX_K@Z DD 0b2711H
	DD	01a5427H
	DD	0183423H
	DD	0120116H
	DD	0d00de00fH
	DD	07009c00bH
	DD	06008H
	DD	imagerel __CxxFrameHandler3
	DD	imagerel $cppxdata$?_Growmap@?$deque@V?$basic_string@_WU?$char_traits@_W@std@@V?$allocator@_W@2@@std@@V?$allocator@V?$basic_string@_WU?$char_traits@_W@std@@V?$allocator@_W@2@@std@@@2@@std@@IEAAX_K@Z
xdata	ENDS
;	COMDAT CONST
CONST	SEGMENT
$cppxdata$?_Growmap@?$deque@V?$basic_string@_WU?$char_traits@_W@std@@V?$allocator@_W@2@@std@@V?$allocator@V?$basic_string@_WU?$char_traits@_W@std@@V?$allocator@_W@2@@std@@@2@@std@@IEAAX_K@Z DD 019930522H
	DD	02H
	DD	imagerel $stateUnwindMap$?_Growmap@?$deque@V?$basic_string@_WU?$char_traits@_W@std@@V?$allocator@_W@2@@std@@V?$allocator@V?$basic_string@_WU?$char_traits@_W@std@@V?$allocator@_W@2@@std@@@2@@std@@IEAAX_K@Z
	DD	00H
	DD	00H
	DD	05H
	DD	imagerel $ip2state$?_Growmap@?$deque@V?$basic_string@_WU?$char_traits@_W@std@@V?$allocator@_W@2@@std@@V?$allocator@V?$basic_string@_WU?$char_traits@_W@std@@V?$allocator@_W@2@@std@@@2@@std@@IEAAX_K@Z
	DD	048H
	DD	00H
	DD	01H
CONST	ENDS
;	COMDAT xdata
xdata	SEGMENT
$stateUnwindMap$?_Growmap@?$deque@V?$basic_string@_WU?$char_traits@_W@std@@V?$allocator@_W@2@@std@@V?$allocator@V?$basic_string@_WU?$char_traits@_W@std@@V?$allocator@_W@2@@std@@@2@@std@@IEAAX_K@Z DD 0ffffffffH
	DD	imagerel ?dtor$0@?0??_Growmap@?$deque@V?$basic_string@_WU?$char_traits@_W@std@@V?$allocator@_W@2@@std@@V?$allocator@V?$basic_string@_WU?$char_traits@_W@std@@V?$allocator@_W@2@@std@@@2@@std@@IEAAX_K@Z@4HA
	DD	00H
	DD	imagerel ?dtor$2@?0??_Growmap@?$deque@V?$basic_string@_WU?$char_traits@_W@std@@V?$allocator@_W@2@@std@@V?$allocator@V?$basic_string@_WU?$char_traits@_W@std@@V?$allocator@_W@2@@std@@@2@@std@@IEAAX_K@Z@4HA
; Function compile flags: /Ogtpy
; File c:\program files\microsoft visual studio 9.0\vc\include\deque
xdata	ENDS
;	COMDAT ?_Growmap@?$deque@V?$basic_string@_WU?$char_traits@_W@std@@V?$allocator@_W@2@@std@@V?$allocator@V?$basic_string@_WU?$char_traits@_W@std@@V?$allocator@_W@2@@std@@@2@@std@@IEAAX_K@Z
_TEXT	SEGMENT
$T154102 = 32
$T154065 = 32
$T154774 = 72
$T154064 = 80
this$ = 192
$T154088 = 200
_Count$ = 200
?_Growmap@?$deque@V?$basic_string@_WU?$char_traits@_W@std@@V?$allocator@_W@2@@std@@V?$allocator@V?$basic_string@_WU?$char_traits@_W@std@@V?$allocator@_W@2@@std@@@2@@std@@IEAAX_K@Z PROC ; std::deque<std::basic_string<wchar_t,std::char_traits<wchar_t>,std::allocator<wchar_t> >,std::allocator<std::basic_string<wchar_t,std::char_traits<wchar_t>,std::allocator<wchar_t> > > >::_Growmap, COMDAT

; 1225 : 		{	// grow map by _Count pointers

$LN171:
	mov	rax, rsp
	mov	QWORD PTR [rax+16], rdx
	push	rsi
	push	rdi
	push	r12
	push	r13
	push	r14
	sub	rsp, 144				; 00000090H
	mov	QWORD PTR $T154774[rsp], -2
	mov	QWORD PTR [rax+8], rbx
	mov	QWORD PTR [rax+24], rbp
	mov	rdi, rcx
	mov	ebx, 1

; 1226 : 		if (max_size() / _DEQUESIZ - _Mapsize < _Count)

	mov	rcx, QWORD PTR [rcx+40]
	mov	rdx, 461168601842738790			; 0666666666666666H
	mov	rax, rdx
	sub	rax, rcx
	cmp	rax, rbx
	jae	SHORT $LN6@Growmap

; 1227 : 			_Xlen();	// result too long

	lea	rdx, OFFSET FLAT:??_C@_0BC@KBDMBKEH@deque?$DMT?$DO?5too?5long?$AA@
	lea	rcx, QWORD PTR $T154065[rsp]
	call	QWORD PTR __imp_??0?$basic_string@DU?$char_traits@D@std@@V?$allocator@D@2@@std@@QEAA@PEBD@Z
	npad	1
	lea	rcx, QWORD PTR $T154064[rsp]
	call	QWORD PTR __imp_??0exception@std@@QEAA@XZ
	npad	1
	lea	rax, OFFSET FLAT:??_7logic_error@std@@6B@
	mov	QWORD PTR $T154064[rsp], rax
	lea	rdx, QWORD PTR $T154065[rsp]
	lea	rcx, QWORD PTR $T154064[rsp+24]
	call	QWORD PTR __imp_??0?$basic_string@DU?$char_traits@D@std@@V?$allocator@D@2@@std@@QEAA@AEBV01@@Z
	npad	1
	lea	rax, OFFSET FLAT:??_7length_error@std@@6B@
	mov	QWORD PTR $T154064[rsp], rax
	lea	rdx, OFFSET FLAT:_TI3?AVlength_error@std@@
	lea	rcx, QWORD PTR $T154064[rsp]
	call	_CxxThrowException
	npad	1
$LN6@Growmap:

; 1228 : 
; 1229 : 		size_type _Inc = _Mapsize / 2;	// try to grow by 50%

	mov	rax, rcx
	shr	rax, 1

; 1230 : 		if (_Inc < _DEQUEMAPSIZ)

	cmp	rax, 8
	jae	SHORT $LN5@Growmap

; 1231 : 			_Inc = _DEQUEMAPSIZ;

	mov	eax, 8

; 1232 : 		if (_Count < _Inc && _Mapsize <= max_size() / _DEQUESIZ - _Inc)

	jmp	SHORT $LN169@Growmap
$LN5@Growmap:
	cmp	rax, rbx
	jbe	SHORT $LN4@Growmap
$LN169@Growmap:
	sub	rdx, rax
	cmp	rcx, rdx
	cmovbe	rbx, rax
$LN4@Growmap:

; 1233 : 			_Count = _Inc;
; 1234 : 		size_type _Myboff = _Myoff / _DEQUESIZ;

	mov	rbp, QWORD PTR [rdi+48]

; 1235 : 		_Mapptr _Newmap = this->_Almap.allocate(_Mapsize + _Count);

	add	rcx, rbx
	je	SHORT $LN30@Growmap
	xor	edx, edx
	or	rax, -1
	div	rcx
	cmp	rax, 8
	jae	SHORT $LN30@Growmap
	xor	ecx, ecx
	mov	QWORD PTR $T154088[rsp], rcx
	lea	rdx, QWORD PTR $T154088[rsp]
	lea	rcx, QWORD PTR $T154102[rsp]
	call	QWORD PTR __imp_??0exception@std@@QEAA@AEBQEBD@Z
	lea	r11, OFFSET FLAT:??_7bad_alloc@std@@6B@
	mov	QWORD PTR $T154102[rsp], r11
	lea	rdx, OFFSET FLAT:_TI2?AVbad_alloc@std@@
	lea	rcx, QWORD PTR $T154102[rsp]
	call	_CxxThrowException
	int	3
$LN30@Growmap:
	shl	rcx, 3
	call	??2@YAPEAX_K@Z				; operator new
	mov	r12, rax

; 1237 : 
; 1238 : 		_Myptr = _STDEXT unchecked_uninitialized_copy(_Map + _Myboff,
; 1239 : 			_Map + _Mapsize, _Myptr, this->_Almap);	// copy initial to end

	mov	rdx, QWORD PTR [rdi+32]
	lea	rsi, QWORD PTR [rbp*8]
	lea	rax, QWORD PTR [rsi+rdx]

; 1236 : 		_Mapptr _Myptr = _Newmap + _Myboff;

	lea	rcx, QWORD PTR [rsi+r12]

; 1237 : 
; 1238 : 		_Myptr = _STDEXT unchecked_uninitialized_copy(_Map + _Myboff,
; 1239 : 			_Map + _Mapsize, _Myptr, this->_Almap);	// copy initial to end

	mov	r8, QWORD PTR [rdi+40]
	shl	r8, 3
	sub	r8, rax
	add	r8, rdx
	sar	r8, 3
	lea	rdx, QWORD PTR [r8*8]
	lea	r13, QWORD PTR [rdx+rcx]
	test	r8, r8
	je	SHORT $LN50@Growmap
	mov	r9, rdx
	mov	r8, rax
	call	QWORD PTR __imp_memmove_s
$LN50@Growmap:

; 1240 : 		if (_Myboff <= _Count)

	cmp	rbp, rbx
	ja	SHORT $LN3@Growmap

; 1241 : 			{	// increment greater than offset of initial block
; 1242 : 			_Myptr = _STDEXT unchecked_uninitialized_copy(_Map,
; 1243 : 				_Map + _Myboff, _Myptr, this->_Almap);	// copy rest of old

	mov	r8, QWORD PTR [rdi+32]
	sar	rsi, 3
	lea	rdx, QWORD PTR [rsi*8]
	lea	r14, QWORD PTR [rdx+r13]
	test	rsi, rsi
	je	SHORT $LN65@Growmap
	mov	r9, rdx
	mov	rcx, r13
	call	QWORD PTR __imp_memmove_s
$LN65@Growmap:

; 1244 : 			_STDEXT unchecked_uninitialized_fill_n(_Myptr, _Count - _Myboff,
; 1245 : 				(_Tptr)0, this->_Almap);	// clear suffix of new

	mov	r8, rbx
	sub	r8, rbp
	je	SHORT $LN86@Growmap
	shl	r8, 3
	xor	edx, edx
	mov	rcx, r14
	call	memset
$LN86@Growmap:

; 1246 : 			_STDEXT unchecked_uninitialized_fill_n(_Newmap, _Myboff,
; 1247 : 				(_Tptr)0, this->_Almap);	// clear prefix of new

	test	rbp, rbp
	je	$LN158@Growmap
	shl	rbp, 3
	mov	r8, rbp
	xor	edx, edx
	mov	rcx, r12
	call	memset

; 1248 : 			}
; 1249 : 		else

	jmp	SHORT $LN158@Growmap
$LN3@Growmap:

; 1250 : 			{	// increment not greater than offset of initial block
; 1251 : 			_STDEXT unchecked_uninitialized_copy(_Map,
; 1252 : 				_Map + _Count, _Myptr, this->_Almap);	// copy more old

	mov	r8, QWORD PTR [rdi+32]
	lea	rbp, QWORD PTR [rbx*8]
	mov	rdx, rbp
	sar	rdx, 3
	test	rdx, rdx
	je	SHORT $LN122@Growmap
	shl	rdx, 3
	mov	r9, rdx
	mov	rcx, r13
	call	QWORD PTR __imp_memmove_s
$LN122@Growmap:

; 1253 : 			_Myptr = _STDEXT unchecked_uninitialized_copy(_Map + _Count,
; 1254 : 				_Map + _Myboff, _Newmap, this->_Almap);	// copy rest of old

	mov	rax, QWORD PTR [rdi+32]
	lea	r8, QWORD PTR [rax+rbp]
	sub	rsi, r8
	add	rsi, rax
	sar	rsi, 3
	lea	rdx, QWORD PTR [rsi*8]
	lea	rbp, QWORD PTR [rdx+r12]
	test	rsi, rsi
	je	SHORT $LN137@Growmap
	mov	r9, rdx
	mov	rcx, r12
	call	QWORD PTR __imp_memmove_s
$LN137@Growmap:

; 1255 : 			_STDEXT unchecked_uninitialized_fill_n(_Myptr, _Count,
; 1256 : 				(_Tptr)0, this->_Almap);	// clear rest to initial block

	test	rbx, rbx
	je	SHORT $LN158@Growmap
	mov	r8, rbx
	shl	r8, 3
	xor	edx, edx
	mov	rcx, rbp
	call	memset
$LN158@Growmap:

; 1257 : 			}
; 1258 : 
; 1259 : 		_Destroy_range(_Map + _Myboff, _Map + _Mapsize, this->_Almap);
; 1260 : 		if (_Map)

	mov	rcx, QWORD PTR [rdi+32]
	test	rcx, rcx
	je	SHORT $LN161@Growmap

; 1261 : 			this->_Almap.deallocate(_Map, _Mapsize);	// free storage for old

	call	??3@YAXPEAX@Z				; operator delete
$LN161@Growmap:

; 1262 : 
; 1263 : 		_Map = _Newmap;	// point at new

	mov	QWORD PTR [rdi+32], r12

; 1264 : 		_Mapsize += _Count;

	add	QWORD PTR [rdi+40], rbx

; 1265 : 		}

	lea	r11, QWORD PTR [rsp+144]
	mov	rbx, QWORD PTR [r11+48]
	mov	rbp, QWORD PTR [r11+64]
	mov	rsp, r11
	pop	r14
	pop	r13
	pop	r12
	pop	rdi
	pop	rsi
	ret	0
$LN170@Growmap:
?_Growmap@?$deque@V?$basic_string@_WU?$char_traits@_W@std@@V?$allocator@_W@2@@std@@V?$allocator@V?$basic_string@_WU?$char_traits@_W@std@@V?$allocator@_W@2@@std@@@2@@std@@IEAAX_K@Z ENDP ; std::deque<std::basic_string<wchar_t,std::char_traits<wchar_t>,std::allocator<wchar_t> >,std::allocator<std::basic_string<wchar_t,std::char_traits<wchar_t>,std::allocator<wchar_t> > > >::_Growmap
; Function compile flags: /Ogtpy
_TEXT	ENDS
;	COMDAT text$x
text$x	SEGMENT
$T154102 = 32
$T154065 = 32
$T154774 = 72
$T154064 = 80
this$ = 192
$T154088 = 200
_Count$ = 200
?dtor$0@?0??_Growmap@?$deque@V?$basic_string@_WU?$char_traits@_W@std@@V?$allocator@_W@2@@std@@V?$allocator@V?$basic_string@_WU?$char_traits@_W@std@@V?$allocator@_W@2@@std@@@2@@std@@IEAAX_K@Z@4HA PROC ; `std::deque<std::basic_string<wchar_t,std::char_traits<wchar_t>,std::allocator<wchar_t> >,std::allocator<std::basic_string<wchar_t,std::char_traits<wchar_t>,std::allocator<wchar_t> > > >::_Growmap'::`1'::dtor$0
	push	rbp
	sub	rsp, 32					; 00000020H
	mov	rbp, rdx
	lea	rcx, QWORD PTR $T154065[rbp]
	call	QWORD PTR __imp_??1?$basic_string@DU?$char_traits@D@std@@V?$allocator@D@2@@std@@QEAA@XZ
	add	rsp, 32					; 00000020H
	pop	rbp
	ret	0
?dtor$0@?0??_Growmap@?$deque@V?$basic_string@_WU?$char_traits@_W@std@@V?$allocator@_W@2@@std@@V?$allocator@V?$basic_string@_WU?$char_traits@_W@std@@V?$allocator@_W@2@@std@@@2@@std@@IEAAX_K@Z@4HA ENDP ; `std::deque<std::basic_string<wchar_t,std::char_traits<wchar_t>,std::allocator<wchar_t> >,std::allocator<std::basic_string<wchar_t,std::char_traits<wchar_t>,std::allocator<wchar_t> > > >::_Growmap'::`1'::dtor$0
; Function compile flags: /Ogtpy
$T154102 = 32
$T154065 = 32
$T154774 = 72
$T154064 = 80
this$ = 192
$T154088 = 200
_Count$ = 200
?dtor$2@?0??_Growmap@?$deque@V?$basic_string@_WU?$char_traits@_W@std@@V?$allocator@_W@2@@std@@V?$allocator@V?$basic_string@_WU?$char_traits@_W@std@@V?$allocator@_W@2@@std@@@2@@std@@IEAAX_K@Z@4HA PROC ; `std::deque<std::basic_string<wchar_t,std::char_traits<wchar_t>,std::allocator<wchar_t> >,std::allocator<std::basic_string<wchar_t,std::char_traits<wchar_t>,std::allocator<wchar_t> > > >::_Growmap'::`1'::dtor$2
	push	rbp
	sub	rsp, 32					; 00000020H
	mov	rbp, rdx
	lea	rcx, QWORD PTR $T154064[rbp]
	call	QWORD PTR __imp_??1exception@std@@UEAA@XZ
	add	rsp, 32					; 00000020H
	pop	rbp
	ret	0
?dtor$2@?0??_Growmap@?$deque@V?$basic_string@_WU?$char_traits@_W@std@@V?$allocator@_W@2@@std@@V?$allocator@V?$basic_string@_WU?$char_traits@_W@std@@V?$allocator@_W@2@@std@@@2@@std@@IEAAX_K@Z@4HA ENDP ; `std::deque<std::basic_string<wchar_t,std::char_traits<wchar_t>,std::allocator<wchar_t> >,std::allocator<std::basic_string<wchar_t,std::char_traits<wchar_t>,std::allocator<wchar_t> > > >::_Growmap'::`1'::dtor$2
text$x	ENDS
;	COMDAT pdata
; File c:\program files\microsoft visual studio 9.0\vc\include\xmemory
pdata	SEGMENT
$pdata$??0?$_Deque_val@_WV?$allocator@_W@std@@@std@@IEAA@V?$allocator@_W@1@@Z DD imagerel $LN40
	DD	imagerel $LN40+55
	DD	imagerel $unwind$??0?$_Deque_val@_WV?$allocator@_W@std@@@std@@IEAA@V?$allocator@_W@1@@Z
pdata	ENDS
;	COMDAT xdata
xdata	SEGMENT
$unwind$??0?$_Deque_val@_WV?$allocator@_W@std@@@std@@IEAA@V?$allocator@_W@1@@Z DD 020601H
	DD	030023206H
; Function compile flags: /Ogtpy
; File c:\program files\microsoft visual studio 9.0\vc\include\deque
xdata	ENDS
;	COMDAT ??0?$_Deque_val@_WV?$allocator@_W@std@@@std@@IEAA@V?$allocator@_W@1@@Z
_TEXT	SEGMENT
this$ = 48
_Al$ = 56
??0?$_Deque_val@_WV?$allocator@_W@std@@@std@@IEAA@V?$allocator@_W@1@@Z PROC ; std::_Deque_val<wchar_t,std::allocator<wchar_t> >::_Deque_val<wchar_t,std::allocator<wchar_t> >, COMDAT

; 500  : 		{	// construct allocator and base from _Al

$LN40:
	push	rbx
	sub	rsp, 32					; 00000020H
	mov	rbx, rcx
	mov	ecx, 8
	call	??2@YAPEAX_K@Z				; operator new
	test	rax, rax
	je	SHORT $LN13@Deque_val@2
	mov	QWORD PTR [rax], rbx
	mov	QWORD PTR [rbx], rax

; 501  : 		}

	mov	rax, rbx
	add	rsp, 32					; 00000020H
	pop	rbx
	ret	0

; 500  : 		{	// construct allocator and base from _Al

$LN13@Deque_val@2:
	mov	QWORD PTR [rbx], 0

; 501  : 		}

	mov	rax, rbx
	add	rsp, 32					; 00000020H
	pop	rbx
	ret	0
??0?$_Deque_val@_WV?$allocator@_W@std@@@std@@IEAA@V?$allocator@_W@1@@Z ENDP ; std::_Deque_val<wchar_t,std::allocator<wchar_t> >::_Deque_val<wchar_t,std::allocator<wchar_t> >
_TEXT	ENDS
;	COMDAT pdata
; File c:\program files\microsoft visual studio 9.0\vc\include\xmemory
pdata	SEGMENT
$pdata$?_Growmap@?$deque@_WV?$allocator@_W@std@@@std@@IEAAX_K@Z DD imagerel $LN171
	DD	imagerel $LN171+613
	DD	imagerel $unwind$?_Growmap@?$deque@_WV?$allocator@_W@std@@@std@@IEAAX_K@Z
pdata	ENDS
;	COMDAT pdata
pdata	SEGMENT
$pdata$?dtor$0@?0??_Growmap@?$deque@_WV?$allocator@_W@std@@@std@@IEAAX_K@Z@4HA DD imagerel ?dtor$0@?0??_Growmap@?$deque@_WV?$allocator@_W@std@@@std@@IEAAX_K@Z@4HA
	DD	imagerel ?dtor$0@?0??_Growmap@?$deque@_WV?$allocator@_W@std@@@std@@IEAAX_K@Z@4HA+25
	DD	imagerel $unwind$?dtor$0@?0??_Growmap@?$deque@_WV?$allocator@_W@std@@@std@@IEAAX_K@Z@4HA
pdata	ENDS
;	COMDAT pdata
pdata	SEGMENT
$pdata$?dtor$2@?0??_Growmap@?$deque@_WV?$allocator@_W@std@@@std@@IEAAX_K@Z@4HA DD imagerel ?dtor$2@?0??_Growmap@?$deque@_WV?$allocator@_W@std@@@std@@IEAAX_K@Z@4HA
	DD	imagerel ?dtor$2@?0??_Growmap@?$deque@_WV?$allocator@_W@std@@@std@@IEAAX_K@Z@4HA+25
	DD	imagerel $unwind$?dtor$2@?0??_Growmap@?$deque@_WV?$allocator@_W@std@@@std@@IEAAX_K@Z@4HA
pdata	ENDS
;	COMDAT xdata
xdata	SEGMENT
$ip2state$?_Growmap@?$deque@_WV?$allocator@_W@std@@@std@@IEAAX_K@Z DD imagerel ?_Growmap@?$deque@_WV?$allocator@_W@std@@@std@@IEAAX_K@Z
	DD	0ffffffffH
	DD	imagerel ?_Growmap@?$deque@_WV?$allocator@_W@std@@@std@@IEAAX_K@Z+91
	DD	00H
	DD	imagerel ?_Growmap@?$deque@_WV?$allocator@_W@std@@@std@@IEAAX_K@Z+103
	DD	01H
	DD	imagerel ?_Growmap@?$deque@_WV?$allocator@_W@std@@@std@@IEAAX_K@Z+132
	DD	00H
	DD	imagerel ?_Growmap@?$deque@_WV?$allocator@_W@std@@@std@@IEAAX_K@Z+162
	DD	0ffffffffH
xdata	ENDS
;	COMDAT xdata
xdata	SEGMENT
$unwind$?dtor$2@?0??_Growmap@?$deque@_WV?$allocator@_W@std@@@std@@IEAAX_K@Z@4HA DD 020601H
	DD	050023206H
xdata	ENDS
;	COMDAT xdata
xdata	SEGMENT
$unwind$?dtor$0@?0??_Growmap@?$deque@_WV?$allocator@_W@std@@@std@@IEAAX_K@Z@4HA DD 020601H
	DD	050023206H
xdata	ENDS
;	COMDAT xdata
xdata	SEGMENT
$unwind$?_Growmap@?$deque@_WV?$allocator@_W@std@@@std@@IEAAX_K@Z DD 0b2711H
	DD	01a5427H
	DD	0183423H
	DD	0120116H
	DD	0d00de00fH
	DD	07009c00bH
	DD	06008H
	DD	imagerel __CxxFrameHandler3
	DD	imagerel $cppxdata$?_Growmap@?$deque@_WV?$allocator@_W@std@@@std@@IEAAX_K@Z
xdata	ENDS
;	COMDAT CONST
CONST	SEGMENT
$cppxdata$?_Growmap@?$deque@_WV?$allocator@_W@std@@@std@@IEAAX_K@Z DD 019930522H
	DD	02H
	DD	imagerel $stateUnwindMap$?_Growmap@?$deque@_WV?$allocator@_W@std@@@std@@IEAAX_K@Z
	DD	00H
	DD	00H
	DD	05H
	DD	imagerel $ip2state$?_Growmap@?$deque@_WV?$allocator@_W@std@@@std@@IEAAX_K@Z
	DD	048H
	DD	00H
	DD	01H
CONST	ENDS
;	COMDAT xdata
xdata	SEGMENT
$stateUnwindMap$?_Growmap@?$deque@_WV?$allocator@_W@std@@@std@@IEAAX_K@Z DD 0ffffffffH
	DD	imagerel ?dtor$0@?0??_Growmap@?$deque@_WV?$allocator@_W@std@@@std@@IEAAX_K@Z@4HA
	DD	00H
	DD	imagerel ?dtor$2@?0??_Growmap@?$deque@_WV?$allocator@_W@std@@@std@@IEAAX_K@Z@4HA
; Function compile flags: /Ogtpy
; File c:\program files\microsoft visual studio 9.0\vc\include\deque
xdata	ENDS
;	COMDAT ?_Growmap@?$deque@_WV?$allocator@_W@std@@@std@@IEAAX_K@Z
_TEXT	SEGMENT
$T155011 = 32
$T154974 = 32
$T155683 = 72
$T154973 = 80
this$ = 192
$T154997 = 200
_Count$ = 200
?_Growmap@?$deque@_WV?$allocator@_W@std@@@std@@IEAAX_K@Z PROC ; std::deque<wchar_t,std::allocator<wchar_t> >::_Growmap, COMDAT

; 1225 : 		{	// grow map by _Count pointers

$LN171:
	mov	rax, rsp
	mov	QWORD PTR [rax+16], rdx
	push	rsi
	push	rdi
	push	r12
	push	r13
	push	r14
	sub	rsp, 144				; 00000090H
	mov	QWORD PTR $T155683[rsp], -2
	mov	QWORD PTR [rax+8], rbx
	mov	QWORD PTR [rax+24], rbp
	mov	rsi, rcx
	mov	ebx, 1

; 1226 : 		if (max_size() / _DEQUESIZ - _Mapsize < _Count)

	mov	rcx, QWORD PTR [rcx+40]
	mov	rdx, 1152921504606846975		; 0fffffffffffffffH
	mov	rax, rdx
	sub	rax, rcx
	cmp	rax, rbx
	jae	SHORT $LN6@Growmap@2

; 1227 : 			_Xlen();	// result too long

	lea	rdx, OFFSET FLAT:??_C@_0BC@KBDMBKEH@deque?$DMT?$DO?5too?5long?$AA@
	lea	rcx, QWORD PTR $T154974[rsp]
	call	QWORD PTR __imp_??0?$basic_string@DU?$char_traits@D@std@@V?$allocator@D@2@@std@@QEAA@PEBD@Z
	npad	1
	lea	rcx, QWORD PTR $T154973[rsp]
	call	QWORD PTR __imp_??0exception@std@@QEAA@XZ
	npad	1
	lea	rax, OFFSET FLAT:??_7logic_error@std@@6B@
	mov	QWORD PTR $T154973[rsp], rax
	lea	rdx, QWORD PTR $T154974[rsp]
	lea	rcx, QWORD PTR $T154973[rsp+24]
	call	QWORD PTR __imp_??0?$basic_string@DU?$char_traits@D@std@@V?$allocator@D@2@@std@@QEAA@AEBV01@@Z
	npad	1
	lea	rax, OFFSET FLAT:??_7length_error@std@@6B@
	mov	QWORD PTR $T154973[rsp], rax
	lea	rdx, OFFSET FLAT:_TI3?AVlength_error@std@@
	lea	rcx, QWORD PTR $T154973[rsp]
	call	_CxxThrowException
	npad	1
$LN6@Growmap@2:

; 1228 : 
; 1229 : 		size_type _Inc = _Mapsize / 2;	// try to grow by 50%

	mov	rax, rcx
	shr	rax, 1

; 1230 : 		if (_Inc < _DEQUEMAPSIZ)

	cmp	rax, 8
	jae	SHORT $LN5@Growmap@2

; 1231 : 			_Inc = _DEQUEMAPSIZ;

	mov	eax, 8

; 1232 : 		if (_Count < _Inc && _Mapsize <= max_size() / _DEQUESIZ - _Inc)

	jmp	SHORT $LN169@Growmap@2
$LN5@Growmap@2:
	cmp	rax, rbx
	jbe	SHORT $LN4@Growmap@2
$LN169@Growmap@2:
	sub	rdx, rax
	cmp	rcx, rdx
	cmovbe	rbx, rax
$LN4@Growmap@2:

; 1233 : 			_Count = _Inc;
; 1234 : 		size_type _Myboff = _Myoff / _DEQUESIZ;

	mov	rdi, QWORD PTR [rsi+48]
	shr	rdi, 3

; 1235 : 		_Mapptr _Newmap = this->_Almap.allocate(_Mapsize + _Count);

	add	rcx, rbx
	je	SHORT $LN30@Growmap@2
	xor	edx, edx
	or	rax, -1
	div	rcx
	cmp	rax, 8
	jae	SHORT $LN30@Growmap@2
	xor	ecx, ecx
	mov	QWORD PTR $T154997[rsp], rcx
	lea	rdx, QWORD PTR $T154997[rsp]
	lea	rcx, QWORD PTR $T155011[rsp]
	call	QWORD PTR __imp_??0exception@std@@QEAA@AEBQEBD@Z
	lea	r11, OFFSET FLAT:??_7bad_alloc@std@@6B@
	mov	QWORD PTR $T155011[rsp], r11
	lea	rdx, OFFSET FLAT:_TI2?AVbad_alloc@std@@
	lea	rcx, QWORD PTR $T155011[rsp]
	call	_CxxThrowException
	int	3
$LN30@Growmap@2:
	shl	rcx, 3
	call	??2@YAPEAX_K@Z				; operator new
	mov	r12, rax

; 1237 : 
; 1238 : 		_Myptr = _STDEXT unchecked_uninitialized_copy(_Map + _Myboff,
; 1239 : 			_Map + _Mapsize, _Myptr, this->_Almap);	// copy initial to end

	mov	rdx, QWORD PTR [rsi+32]
	lea	rbp, QWORD PTR [rdi*8]
	lea	rax, QWORD PTR [rdx+rbp]

; 1236 : 		_Mapptr _Myptr = _Newmap + _Myboff;

	lea	rcx, QWORD PTR [r12+rbp]

; 1237 : 
; 1238 : 		_Myptr = _STDEXT unchecked_uninitialized_copy(_Map + _Myboff,
; 1239 : 			_Map + _Mapsize, _Myptr, this->_Almap);	// copy initial to end

	mov	r8, QWORD PTR [rsi+40]
	shl	r8, 3
	sub	r8, rax
	add	r8, rdx
	sar	r8, 3
	lea	rdx, QWORD PTR [r8*8]
	lea	r13, QWORD PTR [rdx+rcx]
	test	r8, r8
	je	SHORT $LN50@Growmap@2
	mov	r9, rdx
	mov	r8, rax
	call	QWORD PTR __imp_memmove_s
$LN50@Growmap@2:

; 1240 : 		if (_Myboff <= _Count)

	cmp	rdi, rbx
	ja	SHORT $LN3@Growmap@2

; 1241 : 			{	// increment greater than offset of initial block
; 1242 : 			_Myptr = _STDEXT unchecked_uninitialized_copy(_Map,
; 1243 : 				_Map + _Myboff, _Myptr, this->_Almap);	// copy rest of old

	mov	r8, QWORD PTR [rsi+32]
	sar	rbp, 3
	lea	rdx, QWORD PTR [rbp*8]
	lea	r14, QWORD PTR [rdx+r13]
	test	rbp, rbp
	je	SHORT $LN65@Growmap@2
	mov	r9, rdx
	mov	rcx, r13
	call	QWORD PTR __imp_memmove_s
$LN65@Growmap@2:

; 1244 : 			_STDEXT unchecked_uninitialized_fill_n(_Myptr, _Count - _Myboff,
; 1245 : 				(_Tptr)0, this->_Almap);	// clear suffix of new

	mov	r8, rbx
	sub	r8, rdi
	je	SHORT $LN86@Growmap@2
	shl	r8, 3
	xor	edx, edx
	mov	rcx, r14
	call	memset
$LN86@Growmap@2:

; 1246 : 			_STDEXT unchecked_uninitialized_fill_n(_Newmap, _Myboff,
; 1247 : 				(_Tptr)0, this->_Almap);	// clear prefix of new

	test	rdi, rdi
	je	$LN158@Growmap@2
	shl	rdi, 3
	mov	r8, rdi
	xor	edx, edx
	mov	rcx, r12
	call	memset

; 1248 : 			}
; 1249 : 		else

	jmp	SHORT $LN158@Growmap@2
$LN3@Growmap@2:

; 1250 : 			{	// increment not greater than offset of initial block
; 1251 : 			_STDEXT unchecked_uninitialized_copy(_Map,
; 1252 : 				_Map + _Count, _Myptr, this->_Almap);	// copy more old

	mov	r8, QWORD PTR [rsi+32]
	lea	rdi, QWORD PTR [rbx*8]
	mov	rdx, rdi
	sar	rdx, 3
	test	rdx, rdx
	je	SHORT $LN122@Growmap@2
	shl	rdx, 3
	mov	r9, rdx
	mov	rcx, r13
	call	QWORD PTR __imp_memmove_s
$LN122@Growmap@2:

; 1253 : 			_Myptr = _STDEXT unchecked_uninitialized_copy(_Map + _Count,
; 1254 : 				_Map + _Myboff, _Newmap, this->_Almap);	// copy rest of old

	mov	rax, QWORD PTR [rsi+32]
	lea	r8, QWORD PTR [rdi+rax]
	sub	rbp, r8
	add	rbp, rax
	sar	rbp, 3
	lea	rdx, QWORD PTR [rbp*8]
	lea	rdi, QWORD PTR [rdx+r12]
	test	rbp, rbp
	je	SHORT $LN137@Growmap@2
	mov	r9, rdx
	mov	rcx, r12
	call	QWORD PTR __imp_memmove_s
$LN137@Growmap@2:

; 1255 : 			_STDEXT unchecked_uninitialized_fill_n(_Myptr, _Count,
; 1256 : 				(_Tptr)0, this->_Almap);	// clear rest to initial block

	test	rbx, rbx
	je	SHORT $LN158@Growmap@2
	mov	r8, rbx
	shl	r8, 3
	xor	edx, edx
	mov	rcx, rdi
	call	memset
$LN158@Growmap@2:

; 1257 : 			}
; 1258 : 
; 1259 : 		_Destroy_range(_Map + _Myboff, _Map + _Mapsize, this->_Almap);
; 1260 : 		if (_Map)

	mov	rcx, QWORD PTR [rsi+32]
	test	rcx, rcx
	je	SHORT $LN161@Growmap@2

; 1261 : 			this->_Almap.deallocate(_Map, _Mapsize);	// free storage for old

	call	??3@YAXPEAX@Z				; operator delete
$LN161@Growmap@2:

; 1262 : 
; 1263 : 		_Map = _Newmap;	// point at new

	mov	QWORD PTR [rsi+32], r12

; 1264 : 		_Mapsize += _Count;

	add	QWORD PTR [rsi+40], rbx

; 1265 : 		}

	lea	r11, QWORD PTR [rsp+144]
	mov	rbx, QWORD PTR [r11+48]
	mov	rbp, QWORD PTR [r11+64]
	mov	rsp, r11
	pop	r14
	pop	r13
	pop	r12
	pop	rdi
	pop	rsi
	ret	0
$LN170@Growmap@2:
?_Growmap@?$deque@_WV?$allocator@_W@std@@@std@@IEAAX_K@Z ENDP ; std::deque<wchar_t,std::allocator<wchar_t> >::_Growmap
; Function compile flags: /Ogtpy
_TEXT	ENDS
;	COMDAT text$x
text$x	SEGMENT
$T155011 = 32
$T154974 = 32
$T155683 = 72
$T154973 = 80
this$ = 192
$T154997 = 200
_Count$ = 200
?dtor$0@?0??_Growmap@?$deque@_WV?$allocator@_W@std@@@std@@IEAAX_K@Z@4HA PROC ; `std::deque<wchar_t,std::allocator<wchar_t> >::_Growmap'::`1'::dtor$0
	push	rbp
	sub	rsp, 32					; 00000020H
	mov	rbp, rdx
	lea	rcx, QWORD PTR $T154974[rbp]
	call	QWORD PTR __imp_??1?$basic_string@DU?$char_traits@D@std@@V?$allocator@D@2@@std@@QEAA@XZ
	add	rsp, 32					; 00000020H
	pop	rbp
	ret	0
?dtor$0@?0??_Growmap@?$deque@_WV?$allocator@_W@std@@@std@@IEAAX_K@Z@4HA ENDP ; `std::deque<wchar_t,std::allocator<wchar_t> >::_Growmap'::`1'::dtor$0
; Function compile flags: /Ogtpy
$T155011 = 32
$T154974 = 32
$T155683 = 72
$T154973 = 80
this$ = 192
$T154997 = 200
_Count$ = 200
?dtor$2@?0??_Growmap@?$deque@_WV?$allocator@_W@std@@@std@@IEAAX_K@Z@4HA PROC ; `std::deque<wchar_t,std::allocator<wchar_t> >::_Growmap'::`1'::dtor$2
	push	rbp
	sub	rsp, 32					; 00000020H
	mov	rbp, rdx
	lea	rcx, QWORD PTR $T154973[rbp]
	call	QWORD PTR __imp_??1exception@std@@UEAA@XZ
	add	rsp, 32					; 00000020H
	pop	rbp
	ret	0
?dtor$2@?0??_Growmap@?$deque@_WV?$allocator@_W@std@@@std@@IEAAX_K@Z@4HA ENDP ; `std::deque<wchar_t,std::allocator<wchar_t> >::_Growmap'::`1'::dtor$2
text$x	ENDS
;	COMDAT pdata
; File c:\program files\microsoft visual studio 9.0\vc\include\xmemory
pdata	SEGMENT
$pdata$?_Tidy@?$deque@V?$basic_string@_WU?$char_traits@_W@std@@V?$allocator@_W@2@@std@@V?$allocator@V?$basic_string@_WU?$char_traits@_W@std@@V?$allocator@_W@2@@std@@@2@@std@@IEAAXXZ DD imagerel $LN33
	DD	imagerel $LN33+177
	DD	imagerel $unwind$?_Tidy@?$deque@V?$basic_string@_WU?$char_traits@_W@std@@V?$allocator@_W@2@@std@@V?$allocator@V?$basic_string@_WU?$char_traits@_W@std@@V?$allocator@_W@2@@std@@@2@@std@@IEAAXXZ
pdata	ENDS
;	COMDAT xdata
xdata	SEGMENT
$unwind$?_Tidy@?$deque@V?$basic_string@_WU?$char_traits@_W@std@@V?$allocator@_W@2@@std@@V?$allocator@V?$basic_string@_WU?$char_traits@_W@std@@V?$allocator@_W@2@@std@@@2@@std@@IEAAXXZ DD 060f01H
	DD	07640fH
	DD	06340fH
	DD	0700b320fH
; Function compile flags: /Ogtpy
; File c:\program files\microsoft visual studio 9.0\vc\include\deque
xdata	ENDS
;	COMDAT ?_Tidy@?$deque@V?$basic_string@_WU?$char_traits@_W@std@@V?$allocator@_W@2@@std@@V?$allocator@V?$basic_string@_WU?$char_traits@_W@std@@V?$allocator@_W@2@@std@@@2@@std@@IEAAXXZ
_TEXT	SEGMENT
this$ = 48
?_Tidy@?$deque@V?$basic_string@_WU?$char_traits@_W@std@@V?$allocator@_W@2@@std@@V?$allocator@V?$basic_string@_WU?$char_traits@_W@std@@V?$allocator@_W@2@@std@@@2@@std@@IEAAXXZ PROC ; std::deque<std::basic_string<wchar_t,std::char_traits<wchar_t>,std::allocator<wchar_t> >,std::allocator<std::basic_string<wchar_t,std::char_traits<wchar_t>,std::allocator<wchar_t> > > >::_Tidy, COMDAT

; 1268 : 		{	// free all storage

$LN33:
	mov	QWORD PTR [rsp+8], rbx
	mov	QWORD PTR [rsp+16], rsi
	push	rdi
	sub	rsp, 32					; 00000020H

; 1269 : 		while (!empty())

	xor	esi, esi
	mov	rbx, rcx
	cmp	QWORD PTR [rcx+56], rsi
	je	SHORT $LN5@Tidy
	npad	6
$LL6@Tidy:

; 1270 : 			pop_back();

	mov	rcx, QWORD PTR [rbx+56]
	test	rcx, rcx
	je	SHORT $LN11@Tidy
	mov	rax, QWORD PTR [rbx+48]
	lea	rdx, QWORD PTR [rcx+rax-1]
	mov	rax, QWORD PTR [rbx+40]
	cmp	rax, rdx
	ja	SHORT $LN12@Tidy
	sub	rdx, rax
$LN12@Tidy:
	mov	rcx, QWORD PTR [rbx+32]
	mov	rcx, QWORD PTR [rcx+rdx*8]
	call	QWORD PTR __imp_??1?$basic_string@_WU?$char_traits@_W@std@@V?$allocator@_W@2@@std@@QEAA@XZ
	add	QWORD PTR [rbx+56], -1
	jne	SHORT $LN11@Tidy
	mov	QWORD PTR [rbx+48], rsi
$LN11@Tidy:

; 1269 : 		while (!empty())

	cmp	QWORD PTR [rbx+56], rsi
	jne	SHORT $LL6@Tidy
$LN5@Tidy:

; 1271 : 		for (size_type _Count = _Mapsize; 0 < _Count; )

	mov	rdi, QWORD PTR [rbx+40]
	test	rdi, rdi
	je	SHORT $LN3@Tidy
	npad	10
$LL4@Tidy:
	mov	rcx, QWORD PTR [rbx+32]

; 1272 : 			{	// free storage for a block and destroy pointer
; 1273 : 			if (*(_Map + --_Count) != 0)

	dec	rdi
	cmp	QWORD PTR [rcx+rdi*8], rsi
	je	SHORT $LN25@Tidy

; 1274 : 				this->_Alval.deallocate(*(_Map + _Count), _DEQUESIZ);

	mov	rcx, QWORD PTR [rcx+rdi*8]
	call	??3@YAXPEAX@Z				; operator delete
$LN25@Tidy:

; 1271 : 		for (size_type _Count = _Mapsize; 0 < _Count; )

	test	rdi, rdi
	jne	SHORT $LL4@Tidy
$LN3@Tidy:

; 1275 : 			this->_Almap.destroy(_Map + _Count);
; 1276 : 			}
; 1277 : 
; 1278 : 		if (_Map)

	mov	rcx, QWORD PTR [rbx+32]
	test	rcx, rcx
	je	SHORT $LN32@Tidy

; 1279 : 			this->_Almap.deallocate(_Map, _Mapsize);	// free storage for map

	call	??3@YAXPEAX@Z				; operator delete
$LN32@Tidy:

; 1280 : 		_Mapsize = 0;
; 1281 : 		_Map = 0;

	mov	QWORD PTR [rbx+32], rsi
	mov	QWORD PTR [rbx+40], rsi

; 1282 : 		}

	mov	rbx, QWORD PTR [rsp+48]
	mov	rsi, QWORD PTR [rsp+56]
	add	rsp, 32					; 00000020H
	pop	rdi
	ret	0
?_Tidy@?$deque@V?$basic_string@_WU?$char_traits@_W@std@@V?$allocator@_W@2@@std@@V?$allocator@V?$basic_string@_WU?$char_traits@_W@std@@V?$allocator@_W@2@@std@@@2@@std@@IEAAXXZ ENDP ; std::deque<std::basic_string<wchar_t,std::char_traits<wchar_t>,std::allocator<wchar_t> >,std::allocator<std::basic_string<wchar_t,std::char_traits<wchar_t>,std::allocator<wchar_t> > > >::_Tidy
_TEXT	ENDS
;	COMDAT pdata
; File c:\program files\microsoft visual studio 9.0\vc\include\new
pdata	SEGMENT
$pdata$?push_back@?$deque@V?$basic_string@_WU?$char_traits@_W@std@@V?$allocator@_W@2@@std@@V?$allocator@V?$basic_string@_WU?$char_traits@_W@std@@V?$allocator@_W@2@@std@@@2@@std@@QEAAXAEBV?$basic_string@_WU?$char_traits@_W@std@@V?$allocator@_W@2@@2@@Z DD imagerel $LN27
	DD	imagerel $LN27+162
	DD	imagerel $unwind$?push_back@?$deque@V?$basic_string@_WU?$char_traits@_W@std@@V?$allocator@_W@2@@std@@V?$allocator@V?$basic_string@_WU?$char_traits@_W@std@@V?$allocator@_W@2@@std@@@2@@std@@QEAAXAEBV?$basic_string@_WU?$char_traits@_W@std@@V?$allocator@_W@2@@2@@Z
pdata	ENDS
;	COMDAT pdata
pdata	SEGMENT
$pdata$?dtor$0@?0??push_back@?$deque@V?$basic_string@_WU?$char_traits@_W@std@@V?$allocator@_W@2@@std@@V?$allocator@V?$basic_string@_WU?$char_traits@_W@std@@V?$allocator@_W@2@@std@@@2@@std@@QEAAXAEBV?$basic_string@_WU?$char_traits@_W@std@@V?$allocator@_W@2@@2@@Z@4HA DD imagerel ?dtor$0@?0??push_back@?$deque@V?$basic_string@_WU?$char_traits@_W@std@@V?$allocator@_W@2@@std@@V?$allocator@V?$basic_string@_WU?$char_traits@_W@std@@V?$allocator@_W@2@@std@@@2@@std@@QEAAXAEBV?$basic_string@_WU?$char_traits@_W@std@@V?$allocator@_W@2@@2@@Z@4HA
	DD	imagerel ?dtor$0@?0??push_back@?$deque@V?$basic_string@_WU?$char_traits@_W@std@@V?$allocator@_W@2@@std@@V?$allocator@V?$basic_string@_WU?$char_traits@_W@std@@V?$allocator@_W@2@@std@@@2@@std@@QEAAXAEBV?$basic_string@_WU?$char_traits@_W@std@@V?$allocator@_W@2@@2@@Z@4HA+28
	DD	imagerel $unwind$?dtor$0@?0??push_back@?$deque@V?$basic_string@_WU?$char_traits@_W@std@@V?$allocator@_W@2@@std@@V?$allocator@V?$basic_string@_WU?$char_traits@_W@std@@V?$allocator@_W@2@@std@@@2@@std@@QEAAXAEBV?$basic_string@_WU?$char_traits@_W@std@@V?$allocator@_W@2@@2@@Z@4HA
pdata	ENDS
;	COMDAT xdata
xdata	SEGMENT
$ip2state$?push_back@?$deque@V?$basic_string@_WU?$char_traits@_W@std@@V?$allocator@_W@2@@std@@V?$allocator@V?$basic_string@_WU?$char_traits@_W@std@@V?$allocator@_W@2@@std@@@2@@std@@QEAAXAEBV?$basic_string@_WU?$char_traits@_W@std@@V?$allocator@_W@2@@2@@Z DD imagerel ?push_back@?$deque@V?$basic_string@_WU?$char_traits@_W@std@@V?$allocator@_W@2@@std@@V?$allocator@V?$basic_string@_WU?$char_traits@_W@std@@V?$allocator@_W@2@@std@@@2@@std@@QEAAXAEBV?$basic_string@_WU?$char_traits@_W@std@@V?$allocator@_W@2@@2@@Z
	DD	0ffffffffH
	DD	imagerel ?push_back@?$deque@V?$basic_string@_WU?$char_traits@_W@std@@V?$allocator@_W@2@@std@@V?$allocator@V?$basic_string@_WU?$char_traits@_W@std@@V?$allocator@_W@2@@std@@@2@@std@@QEAAXAEBV?$basic_string@_WU?$char_traits@_W@std@@V?$allocator@_W@2@@2@@Z+121
	DD	00H
	DD	imagerel ?push_back@?$deque@V?$basic_string@_WU?$char_traits@_W@std@@V?$allocator@_W@2@@std@@V?$allocator@V?$basic_string@_WU?$char_traits@_W@std@@V?$allocator@_W@2@@std@@@2@@std@@QEAAXAEBV?$basic_string@_WU?$char_traits@_W@std@@V?$allocator@_W@2@@2@@Z+136
	DD	0ffffffffH
xdata	ENDS
;	COMDAT xdata
xdata	SEGMENT
$unwind$?dtor$0@?0??push_back@?$deque@V?$basic_string@_WU?$char_traits@_W@std@@V?$allocator@_W@2@@std@@V?$allocator@V?$basic_string@_WU?$char_traits@_W@std@@V?$allocator@_W@2@@std@@@2@@std@@QEAAXAEBV?$basic_string@_WU?$char_traits@_W@std@@V?$allocator@_W@2@@2@@Z@4HA DD 020601H
	DD	050023206H
xdata	ENDS
;	COMDAT xdata
xdata	SEGMENT
$unwind$?push_back@?$deque@V?$basic_string@_WU?$char_traits@_W@std@@V?$allocator@_W@2@@std@@V?$allocator@V?$basic_string@_WU?$char_traits@_W@std@@V?$allocator@_W@2@@std@@@2@@std@@QEAAXAEBV?$basic_string@_WU?$char_traits@_W@std@@V?$allocator@_W@2@@2@@Z DD 061911H
	DD	0b6419H
	DD	093414H
	DD	070025206H
	DD	imagerel __CxxFrameHandler3
	DD	imagerel $cppxdata$?push_back@?$deque@V?$basic_string@_WU?$char_traits@_W@std@@V?$allocator@_W@2@@std@@V?$allocator@V?$basic_string@_WU?$char_traits@_W@std@@V?$allocator@_W@2@@std@@@2@@std@@QEAAXAEBV?$basic_string@_WU?$char_traits@_W@std@@V?$allocator@_W@2@@2@@Z
xdata	ENDS
;	COMDAT CONST
CONST	SEGMENT
$cppxdata$?push_back@?$deque@V?$basic_string@_WU?$char_traits@_W@std@@V?$allocator@_W@2@@std@@V?$allocator@V?$basic_string@_WU?$char_traits@_W@std@@V?$allocator@_W@2@@std@@@2@@std@@QEAAXAEBV?$basic_string@_WU?$char_traits@_W@std@@V?$allocator@_W@2@@2@@Z DD 019930522H
	DD	01H
	DD	imagerel $stateUnwindMap$?push_back@?$deque@V?$basic_string@_WU?$char_traits@_W@std@@V?$allocator@_W@2@@std@@V?$allocator@V?$basic_string@_WU?$char_traits@_W@std@@V?$allocator@_W@2@@std@@@2@@std@@QEAAXAEBV?$basic_string@_WU?$char_traits@_W@std@@V?$allocator@_W@2@@2@@Z
	DD	00H
	DD	00H
	DD	03H
	DD	imagerel $ip2state$?push_back@?$deque@V?$basic_string@_WU?$char_traits@_W@std@@V?$allocator@_W@2@@std@@V?$allocator@V?$basic_string@_WU?$char_traits@_W@std@@V?$allocator@_W@2@@std@@@2@@std@@QEAAXAEBV?$basic_string@_WU?$char_traits@_W@std@@V?$allocator@_W@2@@2@@Z
	DD	020H
	DD	00H
	DD	01H
CONST	ENDS
;	COMDAT xdata
xdata	SEGMENT
$stateUnwindMap$?push_back@?$deque@V?$basic_string@_WU?$char_traits@_W@std@@V?$allocator@_W@2@@std@@V?$allocator@V?$basic_string@_WU?$char_traits@_W@std@@V?$allocator@_W@2@@std@@@2@@std@@QEAAXAEBV?$basic_string@_WU?$char_traits@_W@std@@V?$allocator@_W@2@@2@@Z DD 0ffffffffH
	DD	imagerel ?dtor$0@?0??push_back@?$deque@V?$basic_string@_WU?$char_traits@_W@std@@V?$allocator@_W@2@@std@@V?$allocator@V?$basic_string@_WU?$char_traits@_W@std@@V?$allocator@_W@2@@std@@@2@@std@@QEAAXAEBV?$basic_string@_WU?$char_traits@_W@std@@V?$allocator@_W@2@@2@@Z@4HA
; Function compile flags: /Ogtpy
; File c:\program files\microsoft visual studio 9.0\vc\include\deque
xdata	ENDS
;	COMDAT ?push_back@?$deque@V?$basic_string@_WU?$char_traits@_W@std@@V?$allocator@_W@2@@std@@V?$allocator@V?$basic_string@_WU?$char_traits@_W@std@@V?$allocator@_W@2@@std@@@2@@std@@QEAAXAEBV?$basic_string@_WU?$char_traits@_W@std@@V?$allocator@_W@2@@2@@Z
_TEXT	SEGMENT
$T155847 = 32
_Vptr$155837 = 64
this$ = 64
_Val$ = 72
$T155831 = 80
?push_back@?$deque@V?$basic_string@_WU?$char_traits@_W@std@@V?$allocator@_W@2@@std@@V?$allocator@V?$basic_string@_WU?$char_traits@_W@std@@V?$allocator@_W@2@@std@@@2@@std@@QEAAXAEBV?$basic_string@_WU?$char_traits@_W@std@@V?$allocator@_W@2@@2@@Z PROC ; std::deque<std::basic_string<wchar_t,std::char_traits<wchar_t>,std::allocator<wchar_t> >,std::allocator<std::basic_string<wchar_t,std::char_traits<wchar_t>,std::allocator<wchar_t> > > >::push_back, COMDAT

; 843  : 		{	// insert element at end

$LN27:
	push	rdi
	sub	rsp, 48					; 00000030H
	mov	QWORD PTR $T155847[rsp], -2
	mov	QWORD PTR [rsp+72], rbx
	mov	QWORD PTR [rsp+88], rsi
	mov	rsi, rdx
	mov	rbx, rcx

; 844  : 
; 845  :  #if _HAS_ITERATOR_DEBUGGING
; 846  : 		this->_Orphan_all();
; 847  :  #endif /* _HAS_ITERATOR_DEBUGGING */
; 848  : 
; 849  : 		if ((_Myoff + _Mysize) % _DEQUESIZ == 0
; 850  : 			&& _Mapsize <= (_Mysize + _DEQUESIZ) / _DEQUESIZ)

	mov	rax, QWORD PTR [rcx+56]
	inc	rax
	cmp	QWORD PTR [rcx+40], rax
	ja	SHORT $LN3@push_back

; 851  : 			_Growmap(1);

	mov	edx, 1
	call	?_Growmap@?$deque@V?$basic_string@_WU?$char_traits@_W@std@@V?$allocator@_W@2@@std@@V?$allocator@V?$basic_string@_WU?$char_traits@_W@std@@V?$allocator@_W@2@@std@@@2@@std@@IEAAX_K@Z ; std::deque<std::basic_string<wchar_t,std::char_traits<wchar_t>,std::allocator<wchar_t> >,std::allocator<std::basic_string<wchar_t,std::char_traits<wchar_t>,std::allocator<wchar_t> > > >::_Growmap
$LN3@push_back:

; 852  : 		size_type _Newoff = _Myoff + _Mysize;

	mov	rdi, QWORD PTR [rbx+48]
	add	rdi, QWORD PTR [rbx+56]

; 853  : 		size_type _Block = _Newoff / _DEQUESIZ;
; 854  : 		if (_Mapsize <= _Block)

	mov	rax, QWORD PTR [rbx+40]
	cmp	rax, rdi
	ja	SHORT $LN2@push_back

; 855  : 			_Block -= _Mapsize;

	sub	rdi, rax
$LN2@push_back:

; 856  : 		if (_Map[_Block] == 0)

	mov	rax, QWORD PTR [rbx+32]
	cmp	QWORD PTR [rax+rdi*8], 0
	jne	SHORT $LN1@push_back

; 857  : 			_Map[_Block] = this->_Alval.allocate(_DEQUESIZ);

	mov	ecx, 40					; 00000028H
	call	??2@YAPEAX_K@Z				; operator new
	mov	rcx, QWORD PTR [rbx+32]
	mov	QWORD PTR [rcx+rdi*8], rax
$LN1@push_back:

; 858  : 		this->_Alval.construct(_Map[_Block] + _Newoff % _DEQUESIZ, _Val);

	mov	rax, QWORD PTR [rbx+32]
	mov	rcx, QWORD PTR [rax+rdi*8]
	mov	QWORD PTR _Vptr$155837[rsp], rcx
	mov	QWORD PTR $T155831[rsp], rcx
	test	rcx, rcx
	je	SHORT $LN26@push_back
	mov	rdx, rsi
	call	QWORD PTR __imp_??0?$basic_string@_WU?$char_traits@_W@std@@V?$allocator@_W@2@@std@@QEAA@AEBV01@@Z
	npad	1

; 859  : 		++_Mysize;

	inc	QWORD PTR [rbx+56]

; 858  : 		this->_Alval.construct(_Map[_Block] + _Newoff % _DEQUESIZ, _Val);

	jmp	SHORT $LN21@push_back
$LN26@push_back:

; 859  : 		++_Mysize;

	inc	QWORD PTR [rbx+56]

; 858  : 		this->_Alval.construct(_Map[_Block] + _Newoff % _DEQUESIZ, _Val);

$LN21@push_back:

; 860  : 		}

	mov	rbx, QWORD PTR [rsp+72]
	mov	rsi, QWORD PTR [rsp+88]
	add	rsp, 48					; 00000030H
	pop	rdi
	ret	0
?push_back@?$deque@V?$basic_string@_WU?$char_traits@_W@std@@V?$allocator@_W@2@@std@@V?$allocator@V?$basic_string@_WU?$char_traits@_W@std@@V?$allocator@_W@2@@std@@@2@@std@@QEAAXAEBV?$basic_string@_WU?$char_traits@_W@std@@V?$allocator@_W@2@@2@@Z ENDP ; std::deque<std::basic_string<wchar_t,std::char_traits<wchar_t>,std::allocator<wchar_t> >,std::allocator<std::basic_string<wchar_t,std::char_traits<wchar_t>,std::allocator<wchar_t> > > >::push_back
; Function compile flags: /Ogtpy
_TEXT	ENDS
;	COMDAT text$x
text$x	SEGMENT
$T155847 = 32
_Vptr$155837 = 64
this$ = 64
_Val$ = 72
$T155831 = 80
?dtor$0@?0??push_back@?$deque@V?$basic_string@_WU?$char_traits@_W@std@@V?$allocator@_W@2@@std@@V?$allocator@V?$basic_string@_WU?$char_traits@_W@std@@V?$allocator@_W@2@@std@@@2@@std@@QEAAXAEBV?$basic_string@_WU?$char_traits@_W@std@@V?$allocator@_W@2@@2@@Z@4HA PROC ; `std::deque<std::basic_string<wchar_t,std::char_traits<wchar_t>,std::allocator<wchar_t> >,std::allocator<std::basic_string<wchar_t,std::char_traits<wchar_t>,std::allocator<wchar_t> > > >::push_back'::`1'::dtor$0
	push	rbp
	sub	rsp, 32					; 00000020H
	mov	rbp, rdx
	mov	rdx, QWORD PTR _Vptr$155837[rbp]
	mov	rcx, QWORD PTR $T155831[rbp]
	call	??3@YAXPEAX0@Z				; operator delete
	add	rsp, 32					; 00000020H
	pop	rbp
	ret	0
?dtor$0@?0??push_back@?$deque@V?$basic_string@_WU?$char_traits@_W@std@@V?$allocator@_W@2@@std@@V?$allocator@V?$basic_string@_WU?$char_traits@_W@std@@V?$allocator@_W@2@@std@@@2@@std@@QEAAXAEBV?$basic_string@_WU?$char_traits@_W@std@@V?$allocator@_W@2@@2@@Z@4HA ENDP ; `std::deque<std::basic_string<wchar_t,std::char_traits<wchar_t>,std::allocator<wchar_t> >,std::allocator<std::basic_string<wchar_t,std::char_traits<wchar_t>,std::allocator<wchar_t> > > >::push_back'::`1'::dtor$0
text$x	ENDS
;	COMDAT pdata
; File c:\program files\microsoft visual studio 9.0\vc\include\xutility
pdata	SEGMENT
$pdata$?back@?$deque@V?$basic_string@_WU?$char_traits@_W@std@@V?$allocator@_W@2@@std@@V?$allocator@V?$basic_string@_WU?$char_traits@_W@std@@V?$allocator@_W@2@@std@@@2@@std@@QEAAAEAV?$basic_string@_WU?$char_traits@_W@std@@V?$allocator@_W@2@@2@XZ DD imagerel $LN110
	DD	imagerel $LN110+256
	DD	imagerel $unwind$?back@?$deque@V?$basic_string@_WU?$char_traits@_W@std@@V?$allocator@_W@2@@std@@V?$allocator@V?$basic_string@_WU?$char_traits@_W@std@@V?$allocator@_W@2@@std@@@2@@std@@QEAAAEAV?$basic_string@_WU?$char_traits@_W@std@@V?$allocator@_W@2@@2@XZ
pdata	ENDS
;	COMDAT xdata
xdata	SEGMENT
$unwind$?back@?$deque@V?$basic_string@_WU?$char_traits@_W@std@@V?$allocator@_W@2@@std@@V?$allocator@V?$basic_string@_WU?$char_traits@_W@std@@V?$allocator@_W@2@@std@@@2@@std@@QEAAAEAV?$basic_string@_WU?$char_traits@_W@std@@V?$allocator@_W@2@@2@XZ DD 060f01H
	DD	09640fH
	DD	08340fH
	DD	0700b520fH
; Function compile flags: /Ogtpy
; File c:\program files\microsoft visual studio 9.0\vc\include\deque
xdata	ENDS
;	COMDAT ?back@?$deque@V?$basic_string@_WU?$char_traits@_W@std@@V?$allocator@_W@2@@std@@V?$allocator@V?$basic_string@_WU?$char_traits@_W@std@@V?$allocator@_W@2@@std@@@2@@std@@QEAAAEAV?$basic_string@_WU?$char_traits@_W@std@@V?$allocator@_W@2@@2@XZ
_TEXT	SEGMENT
_Tmp$156136 = 32
$T155867 = 32
this$ = 64
?back@?$deque@V?$basic_string@_WU?$char_traits@_W@std@@V?$allocator@_W@2@@std@@V?$allocator@V?$basic_string@_WU?$char_traits@_W@std@@V?$allocator@_W@2@@std@@@2@@std@@QEAAAEAV?$basic_string@_WU?$char_traits@_W@std@@V?$allocator@_W@2@@2@XZ PROC ; std::deque<std::basic_string<wchar_t,std::char_traits<wchar_t>,std::allocator<wchar_t> >,std::allocator<std::basic_string<wchar_t,std::char_traits<wchar_t>,std::allocator<wchar_t> > > >::back, COMDAT

; 789  : 		{	// return last element of mutable sequence

$LN110:
	mov	QWORD PTR [rsp+8], rbx
	mov	QWORD PTR [rsp+16], rsi
	push	rdi
	sub	rsp, 48					; 00000030H

; 790  : 		return (*(end() - 1));

	mov	rdx, QWORD PTR [rcx+48]
	mov	rax, QWORD PTR [rcx+56]
	mov	rbx, rcx
	lea	rdi, QWORD PTR [rdx+rax]
	cmp	rdx, rdi
	jbe	SHORT $LN9@back
	call	QWORD PTR __imp__invalid_parameter_noinfo
$LN9@back:
	mov	rbx, QWORD PTR [rbx]
	mov	QWORD PTR $T155867[rsp+8], rdi
	xor	esi, esi
	mov	QWORD PTR $T155867[rsp], rbx
	movaps	xmm0, XMMWORD PTR $T155867[rsp]
	movdqa	XMMWORD PTR _Tmp$156136[rsp], xmm0
	test	rbx, rbx
	jne	SHORT $LN108@back
	call	QWORD PTR __imp__invalid_parameter_noinfo
	mov	r11, rsi
	mov	rax, rsi
	jmp	SHORT $LN53@back
$LN108@back:
	mov	r11, QWORD PTR [rbx]
	mov	rax, r11
$LN53@back:
	mov	rax, QWORD PTR [rax+56]
	dec	rdi
	add	rax, QWORD PTR [r11+48]
	cmp	rdi, rax
	ja	SHORT $LN32@back
	test	rbx, rbx
	je	SHORT $LN58@back
	mov	rax, QWORD PTR [rbx]
	jmp	SHORT $LN59@back
$LN58@back:
	mov	rax, rsi
$LN59@back:
	cmp	rdi, QWORD PTR [rax+48]
	jae	SHORT $LN31@back
$LN32@back:
	call	QWORD PTR __imp__invalid_parameter_noinfo
$LN31@back:
	mov	rbx, QWORD PTR _Tmp$156136[rsp]
	test	rbx, rbx
	jne	SHORT $LN107@back
	call	QWORD PTR __imp__invalid_parameter_noinfo
	mov	r11, rsi
	mov	rax, rsi
	jmp	SHORT $LN86@back
$LN107@back:
	mov	r11, QWORD PTR [rbx]
	mov	rax, r11
$LN86@back:
	mov	rax, QWORD PTR [rax+56]
	add	rax, QWORD PTR [r11+48]
	cmp	rdi, rax
	jb	SHORT $LN67@back
	call	QWORD PTR __imp__invalid_parameter_noinfo
$LN67@back:
	test	rbx, rbx
	je	SHORT $LN91@back
	mov	rax, QWORD PTR [rbx]
	jmp	SHORT $LN92@back
$LN91@back:
	mov	rax, rsi
$LN92@back:
	cmp	QWORD PTR [rax+40], rdi
	ja	SHORT $LN64@back
	test	rbx, rbx
	je	SHORT $LN97@back
	mov	rax, QWORD PTR [rbx]
	jmp	SHORT $LN98@back
$LN97@back:
	mov	rax, rsi
$LN98@back:
	sub	rdi, QWORD PTR [rax+40]
$LN64@back:
	test	rbx, rbx
	je	SHORT $LN103@back
	mov	rcx, QWORD PTR [rbx]
	mov	rax, QWORD PTR [rcx+32]
	jmp	SHORT $LN109@back
$LN103@back:
	mov	rax, QWORD PTR [rsi+32]
$LN109@back:
	mov	rax, QWORD PTR [rax+rdi*8]

; 791  : 		}

	mov	rbx, QWORD PTR [rsp+64]
	mov	rsi, QWORD PTR [rsp+72]
	add	rsp, 48					; 00000030H
	pop	rdi
	ret	0
?back@?$deque@V?$basic_string@_WU?$char_traits@_W@std@@V?$allocator@_W@2@@std@@V?$allocator@V?$basic_string@_WU?$char_traits@_W@std@@V?$allocator@_W@2@@std@@@2@@std@@QEAAAEAV?$basic_string@_WU?$char_traits@_W@std@@V?$allocator@_W@2@@2@XZ ENDP ; std::deque<std::basic_string<wchar_t,std::char_traits<wchar_t>,std::allocator<wchar_t> >,std::allocator<std::basic_string<wchar_t,std::char_traits<wchar_t>,std::allocator<wchar_t> > > >::back
_TEXT	ENDS
;	COMDAT pdata
; File c:\program files\microsoft visual studio 9.0\vc\include\xmemory
pdata	SEGMENT
$pdata$??0?$deque@V?$basic_string@_WU?$char_traits@_W@std@@V?$allocator@_W@2@@std@@V?$allocator@V?$basic_string@_WU?$char_traits@_W@std@@V?$allocator@_W@2@@std@@@2@@std@@QEAA@XZ DD imagerel $LN45
	DD	imagerel $LN45+62
	DD	imagerel $unwind$??0?$deque@V?$basic_string@_WU?$char_traits@_W@std@@V?$allocator@_W@2@@std@@V?$allocator@V?$basic_string@_WU?$char_traits@_W@std@@V?$allocator@_W@2@@std@@@2@@std@@QEAA@XZ
pdata	ENDS
;	COMDAT xdata
xdata	SEGMENT
$unwind$??0?$deque@V?$basic_string@_WU?$char_traits@_W@std@@V?$allocator@_W@2@@std@@V?$allocator@V?$basic_string@_WU?$char_traits@_W@std@@V?$allocator@_W@2@@std@@@2@@std@@QEAA@XZ DD 020601H
	DD	030023206H
; Function compile flags: /Ogtpy
; File c:\program files\microsoft visual studio 9.0\vc\include\deque
xdata	ENDS
;	COMDAT ??0?$deque@V?$basic_string@_WU?$char_traits@_W@std@@V?$allocator@_W@2@@std@@V?$allocator@V?$basic_string@_WU?$char_traits@_W@std@@V?$allocator@_W@2@@std@@@2@@std@@QEAA@XZ
_TEXT	SEGMENT
this$ = 48
??0?$deque@V?$basic_string@_WU?$char_traits@_W@std@@V?$allocator@_W@2@@std@@V?$allocator@V?$basic_string@_WU?$char_traits@_W@std@@V?$allocator@_W@2@@std@@@2@@std@@QEAA@XZ PROC ; std::deque<std::basic_string<wchar_t,std::char_traits<wchar_t>,std::allocator<wchar_t> >,std::allocator<std::basic_string<wchar_t,std::char_traits<wchar_t>,std::allocator<wchar_t> > > >::deque<std::basic_string<wchar_t,std::char_traits<wchar_t>,std::allocator<wchar_t> >,std::allocator<std::basic_string<wchar_t,std::char_traits<wchar_t>,std::allocator<wchar_t> > > >, COMDAT

; 554  : 		{	// construct empty deque

$LN45:
	push	rbx
	sub	rsp, 32					; 00000020H
	mov	rbx, rcx
	mov	ecx, 8
	call	??2@YAPEAX_K@Z				; operator new
	xor	ecx, ecx
	test	rax, rax
	je	SHORT $LN18@deque
	mov	QWORD PTR [rax], rbx
	jmp	SHORT $LN19@deque
$LN18@deque:
	mov	rax, rcx
$LN19@deque:
	mov	QWORD PTR [rbx], rax
	mov	QWORD PTR [rbx+32], rcx
	mov	QWORD PTR [rbx+40], rcx

; 555  : 		}

	mov	rax, rbx
	mov	QWORD PTR [rbx+48], rcx
	mov	QWORD PTR [rbx+56], rcx
	add	rsp, 32					; 00000020H
	pop	rbx
	ret	0
??0?$deque@V?$basic_string@_WU?$char_traits@_W@std@@V?$allocator@_W@2@@std@@V?$allocator@V?$basic_string@_WU?$char_traits@_W@std@@V?$allocator@_W@2@@std@@@2@@std@@QEAA@XZ ENDP ; std::deque<std::basic_string<wchar_t,std::char_traits<wchar_t>,std::allocator<wchar_t> >,std::allocator<std::basic_string<wchar_t,std::char_traits<wchar_t>,std::allocator<wchar_t> > > >::deque<std::basic_string<wchar_t,std::char_traits<wchar_t>,std::allocator<wchar_t> >,std::allocator<std::basic_string<wchar_t,std::char_traits<wchar_t>,std::allocator<wchar_t> > > >
_TEXT	ENDS
;	COMDAT pdata
; File c:\program files\microsoft visual studio 9.0\vc\include\xmemory
pdata	SEGMENT
$pdata$?_Tidy@?$deque@_WV?$allocator@_W@std@@@std@@IEAAXXZ DD imagerel $LN24
	DD	imagerel $LN24+204
	DD	imagerel $unwind$?_Tidy@?$deque@_WV?$allocator@_W@std@@@std@@IEAAXXZ
pdata	ENDS
;	COMDAT xdata
xdata	SEGMENT
$unwind$?_Tidy@?$deque@_WV?$allocator@_W@std@@@std@@IEAAXXZ DD 060f01H
	DD	07640fH
	DD	06340fH
	DD	0700b320fH
; Function compile flags: /Ogtpy
; File c:\program files\microsoft visual studio 9.0\vc\include\deque
xdata	ENDS
;	COMDAT ?_Tidy@?$deque@_WV?$allocator@_W@std@@@std@@IEAAXXZ
_TEXT	SEGMENT
this$ = 48
?_Tidy@?$deque@_WV?$allocator@_W@std@@@std@@IEAAXXZ PROC ; std::deque<wchar_t,std::allocator<wchar_t> >::_Tidy, COMDAT

; 1268 : 		{	// free all storage

$LN24:
	mov	QWORD PTR [rsp+8], rbx
	mov	QWORD PTR [rsp+16], rsi
	push	rdi
	sub	rsp, 32					; 00000020H

; 1269 : 		while (!empty())

	xor	esi, esi
	mov	rbx, rcx
	cmp	QWORD PTR [rcx+56], rsi
	je	SHORT $LN5@Tidy@2
	npad	6
$LL6@Tidy@2:

; 1270 : 			pop_back();

	mov	rcx, QWORD PTR [rbx+56]
	test	rcx, rcx
	je	SHORT $LN11@Tidy@2
	mov	rax, QWORD PTR [rbx+48]
	lea	rdx, QWORD PTR [rcx+rax-1]
	mov	rax, QWORD PTR [rbx+40]
	mov	rcx, rdx
	shr	rcx, 3
	cmp	rax, rcx
	ja	SHORT $LN12@Tidy@2
	sub	rcx, rax
$LN12@Tidy@2:
	mov	rax, QWORD PTR [rbx+32]
	and	edx, 7
	mov	rax, QWORD PTR [rax+rcx*8]
	lea	rcx, QWORD PTR [rbx+24]
	lea	rdx, QWORD PTR [rax+rdx*2]
	call	QWORD PTR __imp_?destroy@?$allocator@_W@std@@QEAAXPEA_W@Z
	add	QWORD PTR [rbx+56], -1
	jne	SHORT $LN11@Tidy@2
	mov	QWORD PTR [rbx+48], rsi
$LN11@Tidy@2:

; 1269 : 		while (!empty())

	cmp	QWORD PTR [rbx+56], rsi
	jne	SHORT $LL6@Tidy@2
$LN5@Tidy@2:

; 1271 : 		for (size_type _Count = _Mapsize; 0 < _Count; )

	mov	rdi, QWORD PTR [rbx+40]
	test	rdi, rdi
	je	SHORT $LN3@Tidy@2
	npad	8
$LL4@Tidy@2:
	mov	rdx, QWORD PTR [rbx+32]

; 1272 : 			{	// free storage for a block and destroy pointer
; 1273 : 			if (*(_Map + --_Count) != 0)

	dec	rdi
	cmp	QWORD PTR [rdx+rdi*8], rsi
	je	SHORT $LN2@Tidy@2

; 1274 : 				this->_Alval.deallocate(*(_Map + _Count), _DEQUESIZ);

	mov	rdx, QWORD PTR [rdx+rdi*8]
	lea	rcx, QWORD PTR [rbx+24]
	mov	r8d, 8
	call	QWORD PTR __imp_?deallocate@?$allocator@_W@std@@QEAAXPEA_W_K@Z
$LN2@Tidy@2:

; 1271 : 		for (size_type _Count = _Mapsize; 0 < _Count; )

	test	rdi, rdi
	jne	SHORT $LL4@Tidy@2
$LN3@Tidy@2:

; 1275 : 			this->_Almap.destroy(_Map + _Count);
; 1276 : 			}
; 1277 : 
; 1278 : 		if (_Map)

	mov	rcx, QWORD PTR [rbx+32]
	test	rcx, rcx
	je	SHORT $LN23@Tidy@2

; 1279 : 			this->_Almap.deallocate(_Map, _Mapsize);	// free storage for map

	call	??3@YAXPEAX@Z				; operator delete
$LN23@Tidy@2:

; 1280 : 		_Mapsize = 0;
; 1281 : 		_Map = 0;

	mov	QWORD PTR [rbx+32], rsi
	mov	QWORD PTR [rbx+40], rsi

; 1282 : 		}

	mov	rbx, QWORD PTR [rsp+48]
	mov	rsi, QWORD PTR [rsp+56]
	add	rsp, 32					; 00000020H
	pop	rdi
	ret	0
?_Tidy@?$deque@_WV?$allocator@_W@std@@@std@@IEAAXXZ ENDP ; std::deque<wchar_t,std::allocator<wchar_t> >::_Tidy
_TEXT	ENDS
;	COMDAT pdata
pdata	SEGMENT
$pdata$?push_back@?$deque@_WV?$allocator@_W@std@@@std@@QEAAXAEB_W@Z DD imagerel $LN6
	DD	imagerel $LN6+181
	DD	imagerel $unwind$?push_back@?$deque@_WV?$allocator@_W@std@@@std@@QEAAXAEB_W@Z
pdata	ENDS
;	COMDAT xdata
xdata	SEGMENT
$unwind$?push_back@?$deque@_WV?$allocator@_W@std@@@std@@QEAAXAEB_W@Z DD 081401H
	DD	086414H
	DD	075414H
	DD	063414H
	DD	070103214H
; Function compile flags: /Ogtpy
xdata	ENDS
;	COMDAT ?push_back@?$deque@_WV?$allocator@_W@std@@@std@@QEAAXAEB_W@Z
_TEXT	SEGMENT
this$ = 48
_Val$ = 56
?push_back@?$deque@_WV?$allocator@_W@std@@@std@@QEAAXAEB_W@Z PROC ; std::deque<wchar_t,std::allocator<wchar_t> >::push_back, COMDAT

; 843  : 		{	// insert element at end

$LN6:
	mov	QWORD PTR [rsp+8], rbx
	mov	QWORD PTR [rsp+16], rbp
	mov	QWORD PTR [rsp+24], rsi
	push	rdi
	sub	rsp, 32					; 00000020H
	mov	rbx, rcx

; 844  : 
; 845  :  #if _HAS_ITERATOR_DEBUGGING
; 846  : 		this->_Orphan_all();
; 847  :  #endif /* _HAS_ITERATOR_DEBUGGING */
; 848  : 
; 849  : 		if ((_Myoff + _Mysize) % _DEQUESIZ == 0
; 850  : 			&& _Mapsize <= (_Mysize + _DEQUESIZ) / _DEQUESIZ)

	mov	rcx, QWORD PTR [rcx+56]
	mov	rbp, rdx
	movzx	eax, BYTE PTR [rbx+48]
	add	al, cl
	test	al, 7
	jne	SHORT $LN3@push_back@2
	lea	rax, QWORD PTR [rcx+8]
	shr	rax, 3
	cmp	QWORD PTR [rbx+40], rax
	ja	SHORT $LN3@push_back@2

; 851  : 			_Growmap(1);

	mov	edx, 1
	mov	rcx, rbx
	call	?_Growmap@?$deque@_WV?$allocator@_W@std@@@std@@IEAAX_K@Z ; std::deque<wchar_t,std::allocator<wchar_t> >::_Growmap
$LN3@push_back@2:

; 852  : 		size_type _Newoff = _Myoff + _Mysize;

	mov	rsi, QWORD PTR [rbx+48]

; 853  : 		size_type _Block = _Newoff / _DEQUESIZ;
; 854  : 		if (_Mapsize <= _Block)

	mov	rax, QWORD PTR [rbx+40]
	add	rsi, QWORD PTR [rbx+56]
	mov	rdi, rsi
	shr	rdi, 3
	cmp	rax, rdi
	ja	SHORT $LN2@push_back@2

; 855  : 			_Block -= _Mapsize;

	sub	rdi, rax
$LN2@push_back@2:

; 856  : 		if (_Map[_Block] == 0)

	mov	rax, QWORD PTR [rbx+32]
	cmp	QWORD PTR [rax+rdi*8], 0
	jne	SHORT $LN1@push_back@2

; 857  : 			_Map[_Block] = this->_Alval.allocate(_DEQUESIZ);

	lea	rcx, QWORD PTR [rbx+24]
	mov	edx, 8
	call	QWORD PTR __imp_?allocate@?$allocator@_W@std@@QEAAPEA_W_K@Z
	mov	rcx, QWORD PTR [rbx+32]
	mov	QWORD PTR [rcx+rdi*8], rax
$LN1@push_back@2:

; 858  : 		this->_Alval.construct(_Map[_Block] + _Newoff % _DEQUESIZ, _Val);

	mov	rax, QWORD PTR [rbx+32]
	and	esi, 7
	lea	rcx, QWORD PTR [rbx+24]
	mov	rax, QWORD PTR [rax+rdi*8]
	mov	r8, rbp
	lea	rdx, QWORD PTR [rax+rsi*2]
	call	QWORD PTR __imp_?construct@?$allocator@_W@std@@QEAAXPEA_WAEB_W@Z

; 859  : 		++_Mysize;

	inc	QWORD PTR [rbx+56]

; 860  : 		}

	mov	rbx, QWORD PTR [rsp+48]
	mov	rbp, QWORD PTR [rsp+56]
	mov	rsi, QWORD PTR [rsp+64]
	add	rsp, 32					; 00000020H
	pop	rdi
	ret	0
?push_back@?$deque@_WV?$allocator@_W@std@@@std@@QEAAXAEB_W@Z ENDP ; std::deque<wchar_t,std::allocator<wchar_t> >::push_back
_TEXT	ENDS
;	COMDAT pdata
; File c:\program files\microsoft visual studio 9.0\vc\include\xutility
pdata	SEGMENT
$pdata$?back@?$deque@_WV?$allocator@_W@std@@@std@@QEAAAEA_WXZ DD imagerel $LN109
	DD	imagerel $LN109+290
	DD	imagerel $unwind$?back@?$deque@_WV?$allocator@_W@std@@@std@@QEAAAEA_WXZ
pdata	ENDS
;	COMDAT xdata
xdata	SEGMENT
$unwind$?back@?$deque@_WV?$allocator@_W@std@@@std@@QEAAAEA_WXZ DD 0a1a01H
	DD	0b741aH
	DD	0a641aH
	DD	09541aH
	DD	08341aH
	DD	0c016521aH
; Function compile flags: /Ogtpy
; File c:\program files\microsoft visual studio 9.0\vc\include\deque
xdata	ENDS
;	COMDAT ?back@?$deque@_WV?$allocator@_W@std@@@std@@QEAAAEA_WXZ
_TEXT	SEGMENT
_Tmp$156824 = 32
$T156556 = 32
this$ = 64
?back@?$deque@_WV?$allocator@_W@std@@@std@@QEAAAEA_WXZ PROC ; std::deque<wchar_t,std::allocator<wchar_t> >::back, COMDAT

; 789  : 		{	// return last element of mutable sequence

$LN109:
	mov	QWORD PTR [rsp+8], rbx
	mov	QWORD PTR [rsp+16], rbp
	mov	QWORD PTR [rsp+24], rsi
	mov	QWORD PTR [rsp+32], rdi
	push	r12
	sub	rsp, 48					; 00000030H

; 790  : 		return (*(end() - 1));

	mov	rdx, QWORD PTR [rcx+48]
	mov	rax, QWORD PTR [rcx+56]
	mov	rdi, rcx
	lea	rsi, QWORD PTR [rdx+rax]
	cmp	rdx, rsi
	jbe	SHORT $LN9@back@2
	call	QWORD PTR __imp__invalid_parameter_noinfo
$LN9@back@2:
	mov	rdi, QWORD PTR [rdi]
	mov	QWORD PTR $T156556[rsp+8], rsi
	xor	ebx, ebx
	mov	QWORD PTR $T156556[rsp], rdi
	movaps	xmm0, XMMWORD PTR $T156556[rsp]
	movdqa	XMMWORD PTR _Tmp$156824[rsp], xmm0
	test	rdi, rdi
	jne	SHORT $LN108@back@2
	call	QWORD PTR __imp__invalid_parameter_noinfo
	mov	r11, rbx
	mov	rax, rbx
	jmp	SHORT $LN53@back@2
$LN108@back@2:
	mov	r11, QWORD PTR [rdi]
	mov	rax, r11
$LN53@back@2:
	mov	rax, QWORD PTR [rax+56]
	dec	rsi
	add	rax, QWORD PTR [r11+48]
	cmp	rsi, rax
	ja	SHORT $LN32@back@2
	test	rdi, rdi
	je	SHORT $LN58@back@2
	mov	rax, QWORD PTR [rdi]
	jmp	SHORT $LN59@back@2
$LN58@back@2:
	mov	rax, rbx
$LN59@back@2:
	cmp	rsi, QWORD PTR [rax+48]
	jae	SHORT $LN31@back@2
$LN32@back@2:
	call	QWORD PTR __imp__invalid_parameter_noinfo
$LN31@back@2:
	mov	rdi, QWORD PTR _Tmp$156824[rsp]
	mov	rbp, rsi
	mov	r12, rsi
	shr	rbp, 3
	and	r12d, 7
	test	rdi, rdi
	jne	SHORT $LN107@back@2
	call	QWORD PTR __imp__invalid_parameter_noinfo
	mov	r11, rbx
	mov	rax, rbx
	jmp	SHORT $LN86@back@2
$LN107@back@2:
	mov	r11, QWORD PTR [rdi]
	mov	rax, r11
$LN86@back@2:
	mov	rax, QWORD PTR [rax+56]
	add	rax, QWORD PTR [r11+48]
	cmp	rsi, rax
	jb	SHORT $LN67@back@2
	call	QWORD PTR __imp__invalid_parameter_noinfo
$LN67@back@2:
	test	rdi, rdi
	je	SHORT $LN91@back@2
	mov	rax, QWORD PTR [rdi]
	jmp	SHORT $LN92@back@2
$LN91@back@2:
	mov	rax, rbx
$LN92@back@2:
	cmp	QWORD PTR [rax+40], rbp
	ja	SHORT $LN64@back@2
	test	rdi, rdi
	je	SHORT $LN97@back@2
	mov	rax, QWORD PTR [rdi]
	jmp	SHORT $LN98@back@2
$LN97@back@2:
	mov	rax, rbx
$LN98@back@2:
	sub	rbp, QWORD PTR [rax+40]
$LN64@back@2:
	test	rdi, rdi
	je	SHORT $LN103@back@2
	mov	rbx, QWORD PTR [rdi]
$LN103@back@2:
	mov	rax, QWORD PTR [rbx+32]

; 791  : 		}

	mov	rsi, QWORD PTR [rsp+80]
	mov	rdi, QWORD PTR [rsp+88]
	mov	rcx, QWORD PTR [rax+rbp*8]
	mov	rbx, QWORD PTR [rsp+64]
	mov	rbp, QWORD PTR [rsp+72]
	lea	rax, QWORD PTR [rcx+r12*2]
	add	rsp, 48					; 00000030H
	pop	r12
	ret	0
?back@?$deque@_WV?$allocator@_W@std@@@std@@QEAAAEA_WXZ ENDP ; std::deque<wchar_t,std::allocator<wchar_t> >::back
_TEXT	ENDS
;	COMDAT pdata
; File c:\program files\microsoft visual studio 9.0\vc\include\xmemory
pdata	SEGMENT
$pdata$??0?$deque@_WV?$allocator@_W@std@@@std@@QEAA@XZ DD imagerel $LN45
	DD	imagerel $LN45+62
	DD	imagerel $unwind$??0?$deque@_WV?$allocator@_W@std@@@std@@QEAA@XZ
pdata	ENDS
;	COMDAT xdata
xdata	SEGMENT
$unwind$??0?$deque@_WV?$allocator@_W@std@@@std@@QEAA@XZ DD 020601H
	DD	030023206H
; Function compile flags: /Ogtpy
; File c:\program files\microsoft visual studio 9.0\vc\include\deque
xdata	ENDS
;	COMDAT ??0?$deque@_WV?$allocator@_W@std@@@std@@QEAA@XZ
_TEXT	SEGMENT
this$ = 48
??0?$deque@_WV?$allocator@_W@std@@@std@@QEAA@XZ PROC	; std::deque<wchar_t,std::allocator<wchar_t> >::deque<wchar_t,std::allocator<wchar_t> >, COMDAT

; 554  : 		{	// construct empty deque

$LN45:
	push	rbx
	sub	rsp, 32					; 00000020H
	mov	rbx, rcx
	mov	ecx, 8
	call	??2@YAPEAX_K@Z				; operator new
	xor	ecx, ecx
	test	rax, rax
	je	SHORT $LN18@deque@2
	mov	QWORD PTR [rax], rbx
	jmp	SHORT $LN19@deque@2
$LN18@deque@2:
	mov	rax, rcx
$LN19@deque@2:
	mov	QWORD PTR [rbx], rax
	mov	QWORD PTR [rbx+32], rcx
	mov	QWORD PTR [rbx+40], rcx

; 555  : 		}

	mov	rax, rbx
	mov	QWORD PTR [rbx+48], rcx
	mov	QWORD PTR [rbx+56], rcx
	add	rsp, 32					; 00000020H
	pop	rbx
	ret	0
??0?$deque@_WV?$allocator@_W@std@@@std@@QEAA@XZ ENDP	; std::deque<wchar_t,std::allocator<wchar_t> >::deque<wchar_t,std::allocator<wchar_t> >
_TEXT	ENDS
;	COMDAT pdata
; File c:\program files\microsoft visual studio 9.0\vc\include\xutility
pdata	SEGMENT
$pdata$??1?$deque@V?$basic_string@_WU?$char_traits@_W@std@@V?$allocator@_W@2@@std@@V?$allocator@V?$basic_string@_WU?$char_traits@_W@std@@V?$allocator@_W@2@@std@@@2@@std@@QEAA@XZ DD imagerel $LN14
	DD	imagerel $LN14+41
	DD	imagerel $unwind$??1?$deque@V?$basic_string@_WU?$char_traits@_W@std@@V?$allocator@_W@2@@std@@V?$allocator@V?$basic_string@_WU?$char_traits@_W@std@@V?$allocator@_W@2@@std@@@2@@std@@QEAA@XZ
pdata	ENDS
;	COMDAT pdata
pdata	SEGMENT
$pdata$?dtor$0@?0???1?$deque@V?$basic_string@_WU?$char_traits@_W@std@@V?$allocator@_W@2@@std@@V?$allocator@V?$basic_string@_WU?$char_traits@_W@std@@V?$allocator@_W@2@@std@@@2@@std@@QEAA@XZ@4HA DD imagerel ?dtor$0@?0???1?$deque@V?$basic_string@_WU?$char_traits@_W@std@@V?$allocator@_W@2@@std@@V?$allocator@V?$basic_string@_WU?$char_traits@_W@std@@V?$allocator@_W@2@@std@@@2@@std@@QEAA@XZ@4HA
	DD	imagerel ?dtor$0@?0???1?$deque@V?$basic_string@_WU?$char_traits@_W@std@@V?$allocator@_W@2@@std@@V?$allocator@V?$basic_string@_WU?$char_traits@_W@std@@V?$allocator@_W@2@@std@@@2@@std@@QEAA@XZ@4HA+24
	DD	imagerel $unwind$?dtor$0@?0???1?$deque@V?$basic_string@_WU?$char_traits@_W@std@@V?$allocator@_W@2@@std@@V?$allocator@V?$basic_string@_WU?$char_traits@_W@std@@V?$allocator@_W@2@@std@@@2@@std@@QEAA@XZ@4HA
pdata	ENDS
;	COMDAT xdata
xdata	SEGMENT
$ip2state$??1?$deque@V?$basic_string@_WU?$char_traits@_W@std@@V?$allocator@_W@2@@std@@V?$allocator@V?$basic_string@_WU?$char_traits@_W@std@@V?$allocator@_W@2@@std@@@2@@std@@QEAA@XZ DD imagerel ??1?$deque@V?$basic_string@_WU?$char_traits@_W@std@@V?$allocator@_W@2@@std@@V?$allocator@V?$basic_string@_WU?$char_traits@_W@std@@V?$allocator@_W@2@@std@@@2@@std@@QEAA@XZ
	DD	0ffffffffH
	DD	imagerel ??1?$deque@V?$basic_string@_WU?$char_traits@_W@std@@V?$allocator@_W@2@@std@@V?$allocator@V?$basic_string@_WU?$char_traits@_W@std@@V?$allocator@_W@2@@std@@@2@@std@@QEAA@XZ+22
	DD	00H
	DD	imagerel ??1?$deque@V?$basic_string@_WU?$char_traits@_W@std@@V?$allocator@_W@2@@std@@V?$allocator@V?$basic_string@_WU?$char_traits@_W@std@@V?$allocator@_W@2@@std@@@2@@std@@QEAA@XZ+28
	DD	0ffffffffH
xdata	ENDS
;	COMDAT xdata
xdata	SEGMENT
$unwind$?dtor$0@?0???1?$deque@V?$basic_string@_WU?$char_traits@_W@std@@V?$allocator@_W@2@@std@@V?$allocator@V?$basic_string@_WU?$char_traits@_W@std@@V?$allocator@_W@2@@std@@@2@@std@@QEAA@XZ@4HA DD 020601H
	DD	050023206H
xdata	ENDS
;	COMDAT xdata
xdata	SEGMENT
$unwind$??1?$deque@V?$basic_string@_WU?$char_traits@_W@std@@V?$allocator@_W@2@@std@@V?$allocator@V?$basic_string@_WU?$char_traits@_W@std@@V?$allocator@_W@2@@std@@@2@@std@@QEAA@XZ DD 021311H
	DD	03006520aH
	DD	imagerel __CxxFrameHandler3
	DD	imagerel $cppxdata$??1?$deque@V?$basic_string@_WU?$char_traits@_W@std@@V?$allocator@_W@2@@std@@V?$allocator@V?$basic_string@_WU?$char_traits@_W@std@@V?$allocator@_W@2@@std@@@2@@std@@QEAA@XZ
xdata	ENDS
;	COMDAT CONST
CONST	SEGMENT
$cppxdata$??1?$deque@V?$basic_string@_WU?$char_traits@_W@std@@V?$allocator@_W@2@@std@@V?$allocator@V?$basic_string@_WU?$char_traits@_W@std@@V?$allocator@_W@2@@std@@@2@@std@@QEAA@XZ DD 019930522H
	DD	01H
	DD	imagerel $stateUnwindMap$??1?$deque@V?$basic_string@_WU?$char_traits@_W@std@@V?$allocator@_W@2@@std@@V?$allocator@V?$basic_string@_WU?$char_traits@_W@std@@V?$allocator@_W@2@@std@@@2@@std@@QEAA@XZ
	DD	00H
	DD	00H
	DD	03H
	DD	imagerel $ip2state$??1?$deque@V?$basic_string@_WU?$char_traits@_W@std@@V?$allocator@_W@2@@std@@V?$allocator@V?$basic_string@_WU?$char_traits@_W@std@@V?$allocator@_W@2@@std@@@2@@std@@QEAA@XZ
	DD	020H
	DD	00H
	DD	01H
CONST	ENDS
;	COMDAT xdata
xdata	SEGMENT
$stateUnwindMap$??1?$deque@V?$basic_string@_WU?$char_traits@_W@std@@V?$allocator@_W@2@@std@@V?$allocator@V?$basic_string@_WU?$char_traits@_W@std@@V?$allocator@_W@2@@std@@@2@@std@@QEAA@XZ DD 0ffffffffH
	DD	imagerel ?dtor$0@?0???1?$deque@V?$basic_string@_WU?$char_traits@_W@std@@V?$allocator@_W@2@@std@@V?$allocator@V?$basic_string@_WU?$char_traits@_W@std@@V?$allocator@_W@2@@std@@@2@@std@@QEAA@XZ@4HA
; Function compile flags: /Ogtpy
; File c:\program files\microsoft visual studio 9.0\vc\include\deque
xdata	ENDS
;	COMDAT ??1?$deque@V?$basic_string@_WU?$char_traits@_W@std@@V?$allocator@_W@2@@std@@V?$allocator@V?$basic_string@_WU?$char_traits@_W@std@@V?$allocator@_W@2@@std@@@2@@std@@QEAA@XZ
_TEXT	SEGMENT
$T157233 = 32
this$ = 64
??1?$deque@V?$basic_string@_WU?$char_traits@_W@std@@V?$allocator@_W@2@@std@@V?$allocator@V?$basic_string@_WU?$char_traits@_W@std@@V?$allocator@_W@2@@std@@@2@@std@@QEAA@XZ PROC ; std::deque<std::basic_string<wchar_t,std::char_traits<wchar_t>,std::allocator<wchar_t> >,std::allocator<std::basic_string<wchar_t,std::char_traits<wchar_t>,std::allocator<wchar_t> > > >::~deque<std::basic_string<wchar_t,std::char_traits<wchar_t>,std::allocator<wchar_t> >,std::allocator<std::basic_string<wchar_t,std::char_traits<wchar_t>,std::allocator<wchar_t> > > >, COMDAT

; 640  : 		{	// destroy the deque

$LN14:
	mov	QWORD PTR [rsp+8], rcx
	push	rbx
	sub	rsp, 48					; 00000030H
	mov	QWORD PTR $T157233[rsp], -2
	mov	rbx, rcx

; 641  : 		_Tidy();

	call	?_Tidy@?$deque@V?$basic_string@_WU?$char_traits@_W@std@@V?$allocator@_W@2@@std@@V?$allocator@V?$basic_string@_WU?$char_traits@_W@std@@V?$allocator@_W@2@@std@@@2@@std@@IEAAXXZ ; std::deque<std::basic_string<wchar_t,std::char_traits<wchar_t>,std::allocator<wchar_t> >,std::allocator<std::basic_string<wchar_t,std::char_traits<wchar_t>,std::allocator<wchar_t> > > >::_Tidy
	npad	1

; 642  : 		}

	mov	rcx, QWORD PTR [rbx]
	add	rsp, 48					; 00000030H
	pop	rbx
	jmp	??3@YAXPEAX@Z				; operator delete
??1?$deque@V?$basic_string@_WU?$char_traits@_W@std@@V?$allocator@_W@2@@std@@V?$allocator@V?$basic_string@_WU?$char_traits@_W@std@@V?$allocator@_W@2@@std@@@2@@std@@QEAA@XZ ENDP ; std::deque<std::basic_string<wchar_t,std::char_traits<wchar_t>,std::allocator<wchar_t> >,std::allocator<std::basic_string<wchar_t,std::char_traits<wchar_t>,std::allocator<wchar_t> > > >::~deque<std::basic_string<wchar_t,std::char_traits<wchar_t>,std::allocator<wchar_t> >,std::allocator<std::basic_string<wchar_t,std::char_traits<wchar_t>,std::allocator<wchar_t> > > >
; Function compile flags: /Ogtpy
_TEXT	ENDS
;	COMDAT text$x
text$x	SEGMENT
$T157233 = 32
this$ = 64
?dtor$0@?0???1?$deque@V?$basic_string@_WU?$char_traits@_W@std@@V?$allocator@_W@2@@std@@V?$allocator@V?$basic_string@_WU?$char_traits@_W@std@@V?$allocator@_W@2@@std@@@2@@std@@QEAA@XZ@4HA PROC ; `std::deque<std::basic_string<wchar_t,std::char_traits<wchar_t>,std::allocator<wchar_t> >,std::allocator<std::basic_string<wchar_t,std::char_traits<wchar_t>,std::allocator<wchar_t> > > >::~deque<std::basic_string<wchar_t,std::char_traits<wchar_t>,std::allocator<wchar_t> >,std::allocator<std::basic_string<wchar_t,std::char_traits<wchar_t>,std::allocator<wchar_t> > > >'::`1'::dtor$0
	push	rbp
	sub	rsp, 32					; 00000020H
	mov	rbp, rdx
	mov	rcx, QWORD PTR this$[rbp]
	call	??1?$_Deque_val@V?$basic_string@_WU?$char_traits@_W@std@@V?$allocator@_W@2@@std@@V?$allocator@V?$basic_string@_WU?$char_traits@_W@std@@V?$allocator@_W@2@@std@@@2@@std@@QEAA@XZ
	add	rsp, 32					; 00000020H
	pop	rbp
	ret	0
?dtor$0@?0???1?$deque@V?$basic_string@_WU?$char_traits@_W@std@@V?$allocator@_W@2@@std@@V?$allocator@V?$basic_string@_WU?$char_traits@_W@std@@V?$allocator@_W@2@@std@@@2@@std@@QEAA@XZ@4HA ENDP ; `std::deque<std::basic_string<wchar_t,std::char_traits<wchar_t>,std::allocator<wchar_t> >,std::allocator<std::basic_string<wchar_t,std::char_traits<wchar_t>,std::allocator<wchar_t> > > >::~deque<std::basic_string<wchar_t,std::char_traits<wchar_t>,std::allocator<wchar_t> >,std::allocator<std::basic_string<wchar_t,std::char_traits<wchar_t>,std::allocator<wchar_t> > > >'::`1'::dtor$0
; Function compile flags: /Ogtpy
; File c:\program files\microsoft visual studio 9.0\vc\include\stack
text$x	ENDS
;	COMDAT ?push@?$stack@V?$basic_string@_WU?$char_traits@_W@std@@V?$allocator@_W@2@@std@@V?$deque@V?$basic_string@_WU?$char_traits@_W@std@@V?$allocator@_W@2@@std@@V?$allocator@V?$basic_string@_WU?$char_traits@_W@std@@V?$allocator@_W@2@@std@@@2@@2@@std@@QEAAXAEBV?$basic_string@_WU?$char_traits@_W@std@@V?$allocator@_W@2@@2@@Z
_TEXT	SEGMENT
this$ = 8
_Val$ = 16
?push@?$stack@V?$basic_string@_WU?$char_traits@_W@std@@V?$allocator@_W@2@@std@@V?$deque@V?$basic_string@_WU?$char_traits@_W@std@@V?$allocator@_W@2@@std@@V?$allocator@V?$basic_string@_WU?$char_traits@_W@std@@V?$allocator@_W@2@@std@@@2@@2@@std@@QEAAXAEBV?$basic_string@_WU?$char_traits@_W@std@@V?$allocator@_W@2@@2@@Z PROC ; std::stack<std::basic_string<wchar_t,std::char_traits<wchar_t>,std::allocator<wchar_t> >,std::deque<std::basic_string<wchar_t,std::char_traits<wchar_t>,std::allocator<wchar_t> >,std::allocator<std::basic_string<wchar_t,std::char_traits<wchar_t>,std::allocator<wchar_t> > > > >::push, COMDAT

; 58   : 		c.push_back(_Val);
; 59   : 		}

	jmp	?push_back@?$deque@V?$basic_string@_WU?$char_traits@_W@std@@V?$allocator@_W@2@@std@@V?$allocator@V?$basic_string@_WU?$char_traits@_W@std@@V?$allocator@_W@2@@std@@@2@@std@@QEAAXAEBV?$basic_string@_WU?$char_traits@_W@std@@V?$allocator@_W@2@@2@@Z ; std::deque<std::basic_string<wchar_t,std::char_traits<wchar_t>,std::allocator<wchar_t> >,std::allocator<std::basic_string<wchar_t,std::char_traits<wchar_t>,std::allocator<wchar_t> > > >::push_back
?push@?$stack@V?$basic_string@_WU?$char_traits@_W@std@@V?$allocator@_W@2@@std@@V?$deque@V?$basic_string@_WU?$char_traits@_W@std@@V?$allocator@_W@2@@std@@V?$allocator@V?$basic_string@_WU?$char_traits@_W@std@@V?$allocator@_W@2@@std@@@2@@2@@std@@QEAAXAEBV?$basic_string@_WU?$char_traits@_W@std@@V?$allocator@_W@2@@2@@Z ENDP ; std::stack<std::basic_string<wchar_t,std::char_traits<wchar_t>,std::allocator<wchar_t> >,std::deque<std::basic_string<wchar_t,std::char_traits<wchar_t>,std::allocator<wchar_t> >,std::allocator<std::basic_string<wchar_t,std::char_traits<wchar_t>,std::allocator<wchar_t> > > > >::push
; Function compile flags: /Ogtpy
_TEXT	ENDS
;	COMDAT ?top@?$stack@V?$basic_string@_WU?$char_traits@_W@std@@V?$allocator@_W@2@@std@@V?$deque@V?$basic_string@_WU?$char_traits@_W@std@@V?$allocator@_W@2@@std@@V?$allocator@V?$basic_string@_WU?$char_traits@_W@std@@V?$allocator@_W@2@@std@@@2@@2@@std@@QEAAAEAV?$basic_string@_WU?$char_traits@_W@std@@V?$allocator@_W@2@@2@XZ
_TEXT	SEGMENT
this$ = 8
?top@?$stack@V?$basic_string@_WU?$char_traits@_W@std@@V?$allocator@_W@2@@std@@V?$deque@V?$basic_string@_WU?$char_traits@_W@std@@V?$allocator@_W@2@@std@@V?$allocator@V?$basic_string@_WU?$char_traits@_W@std@@V?$allocator@_W@2@@std@@@2@@2@@std@@QEAAAEAV?$basic_string@_WU?$char_traits@_W@std@@V?$allocator@_W@2@@2@XZ PROC ; std::stack<std::basic_string<wchar_t,std::char_traits<wchar_t>,std::allocator<wchar_t> >,std::deque<std::basic_string<wchar_t,std::char_traits<wchar_t>,std::allocator<wchar_t> >,std::allocator<std::basic_string<wchar_t,std::char_traits<wchar_t>,std::allocator<wchar_t> > > > >::top, COMDAT

; 48   : 		return (c.back());
; 49   : 		}

	jmp	?back@?$deque@V?$basic_string@_WU?$char_traits@_W@std@@V?$allocator@_W@2@@std@@V?$allocator@V?$basic_string@_WU?$char_traits@_W@std@@V?$allocator@_W@2@@std@@@2@@std@@QEAAAEAV?$basic_string@_WU?$char_traits@_W@std@@V?$allocator@_W@2@@2@XZ ; std::deque<std::basic_string<wchar_t,std::char_traits<wchar_t>,std::allocator<wchar_t> >,std::allocator<std::basic_string<wchar_t,std::char_traits<wchar_t>,std::allocator<wchar_t> > > >::back
?top@?$stack@V?$basic_string@_WU?$char_traits@_W@std@@V?$allocator@_W@2@@std@@V?$deque@V?$basic_string@_WU?$char_traits@_W@std@@V?$allocator@_W@2@@std@@V?$allocator@V?$basic_string@_WU?$char_traits@_W@std@@V?$allocator@_W@2@@std@@@2@@2@@std@@QEAAAEAV?$basic_string@_WU?$char_traits@_W@std@@V?$allocator@_W@2@@2@XZ ENDP ; std::stack<std::basic_string<wchar_t,std::char_traits<wchar_t>,std::allocator<wchar_t> >,std::deque<std::basic_string<wchar_t,std::char_traits<wchar_t>,std::allocator<wchar_t> >,std::allocator<std::basic_string<wchar_t,std::char_traits<wchar_t>,std::allocator<wchar_t> > > > >::top
_TEXT	ENDS
;	COMDAT pdata
; File c:\program files\microsoft visual studio 9.0\vc\include\xmemory
pdata	SEGMENT
$pdata$??0?$stack@V?$basic_string@_WU?$char_traits@_W@std@@V?$allocator@_W@2@@std@@V?$deque@V?$basic_string@_WU?$char_traits@_W@std@@V?$allocator@_W@2@@std@@V?$allocator@V?$basic_string@_WU?$char_traits@_W@std@@V?$allocator@_W@2@@std@@@2@@2@@std@@QEAA@XZ DD imagerel $LN49
	DD	imagerel $LN49+62
	DD	imagerel $unwind$??0?$stack@V?$basic_string@_WU?$char_traits@_W@std@@V?$allocator@_W@2@@std@@V?$deque@V?$basic_string@_WU?$char_traits@_W@std@@V?$allocator@_W@2@@std@@V?$allocator@V?$basic_string@_WU?$char_traits@_W@std@@V?$allocator@_W@2@@std@@@2@@2@@std@@QEAA@XZ
pdata	ENDS
;	COMDAT xdata
xdata	SEGMENT
$unwind$??0?$stack@V?$basic_string@_WU?$char_traits@_W@std@@V?$allocator@_W@2@@std@@V?$deque@V?$basic_string@_WU?$char_traits@_W@std@@V?$allocator@_W@2@@std@@V?$allocator@V?$basic_string@_WU?$char_traits@_W@std@@V?$allocator@_W@2@@std@@@2@@2@@std@@QEAA@XZ DD 020601H
	DD	030023206H
; Function compile flags: /Ogtpy
; File c:\program files\microsoft visual studio 9.0\vc\include\stack
xdata	ENDS
;	COMDAT ??0?$stack@V?$basic_string@_WU?$char_traits@_W@std@@V?$allocator@_W@2@@std@@V?$deque@V?$basic_string@_WU?$char_traits@_W@std@@V?$allocator@_W@2@@std@@V?$allocator@V?$basic_string@_WU?$char_traits@_W@std@@V?$allocator@_W@2@@std@@@2@@2@@std@@QEAA@XZ
_TEXT	SEGMENT
this$ = 48
??0?$stack@V?$basic_string@_WU?$char_traits@_W@std@@V?$allocator@_W@2@@std@@V?$deque@V?$basic_string@_WU?$char_traits@_W@std@@V?$allocator@_W@2@@std@@V?$allocator@V?$basic_string@_WU?$char_traits@_W@std@@V?$allocator@_W@2@@std@@@2@@2@@std@@QEAA@XZ PROC ; std::stack<std::basic_string<wchar_t,std::char_traits<wchar_t>,std::allocator<wchar_t> >,std::deque<std::basic_string<wchar_t,std::char_traits<wchar_t>,std::allocator<wchar_t> >,std::allocator<std::basic_string<wchar_t,std::char_traits<wchar_t>,std::allocator<wchar_t> > > > >::stack<std::basic_string<wchar_t,std::char_traits<wchar_t>,std::allocator<wchar_t> >,std::deque<std::basic_string<wchar_t,std::char_traits<wchar_t>,std::allocator<wchar_t> >,std::allocator<std::basic_string<wchar_t,std::char_traits<wchar_t>,std::allocator<wchar_t> > > > >, COMDAT

; 28   : 		{	// construct with empty container

$LN49:
	push	rbx
	sub	rsp, 32					; 00000020H
	mov	rbx, rcx
	mov	ecx, 8
	call	??2@YAPEAX_K@Z				; operator new
	xor	ecx, ecx
	test	rax, rax
	je	SHORT $LN21@stack
	mov	QWORD PTR [rax], rbx
	jmp	SHORT $LN22@stack
$LN21@stack:
	mov	rax, rcx
$LN22@stack:
	mov	QWORD PTR [rbx], rax
	mov	QWORD PTR [rbx+32], rcx
	mov	QWORD PTR [rbx+40], rcx

; 29   : 		}

	mov	rax, rbx
	mov	QWORD PTR [rbx+48], rcx
	mov	QWORD PTR [rbx+56], rcx
	add	rsp, 32					; 00000020H
	pop	rbx
	ret	0
??0?$stack@V?$basic_string@_WU?$char_traits@_W@std@@V?$allocator@_W@2@@std@@V?$deque@V?$basic_string@_WU?$char_traits@_W@std@@V?$allocator@_W@2@@std@@V?$allocator@V?$basic_string@_WU?$char_traits@_W@std@@V?$allocator@_W@2@@std@@@2@@2@@std@@QEAA@XZ ENDP ; std::stack<std::basic_string<wchar_t,std::char_traits<wchar_t>,std::allocator<wchar_t> >,std::deque<std::basic_string<wchar_t,std::char_traits<wchar_t>,std::allocator<wchar_t> >,std::allocator<std::basic_string<wchar_t,std::char_traits<wchar_t>,std::allocator<wchar_t> > > > >::stack<std::basic_string<wchar_t,std::char_traits<wchar_t>,std::allocator<wchar_t> >,std::deque<std::basic_string<wchar_t,std::char_traits<wchar_t>,std::allocator<wchar_t> >,std::allocator<std::basic_string<wchar_t,std::char_traits<wchar_t>,std::allocator<wchar_t> > > > >
_TEXT	ENDS
;	COMDAT pdata
; File c:\program files\microsoft visual studio 9.0\vc\include\xutility
pdata	SEGMENT
$pdata$??1?$deque@_WV?$allocator@_W@std@@@std@@QEAA@XZ DD imagerel $LN14
	DD	imagerel $LN14+41
	DD	imagerel $unwind$??1?$deque@_WV?$allocator@_W@std@@@std@@QEAA@XZ
pdata	ENDS
;	COMDAT pdata
pdata	SEGMENT
$pdata$?dtor$0@?0???1?$deque@_WV?$allocator@_W@std@@@std@@QEAA@XZ@4HA DD imagerel ?dtor$0@?0???1?$deque@_WV?$allocator@_W@std@@@std@@QEAA@XZ@4HA
	DD	imagerel ?dtor$0@?0???1?$deque@_WV?$allocator@_W@std@@@std@@QEAA@XZ@4HA+24
	DD	imagerel $unwind$?dtor$0@?0???1?$deque@_WV?$allocator@_W@std@@@std@@QEAA@XZ@4HA
pdata	ENDS
;	COMDAT xdata
xdata	SEGMENT
$ip2state$??1?$deque@_WV?$allocator@_W@std@@@std@@QEAA@XZ DD imagerel ??1?$deque@_WV?$allocator@_W@std@@@std@@QEAA@XZ
	DD	0ffffffffH
	DD	imagerel ??1?$deque@_WV?$allocator@_W@std@@@std@@QEAA@XZ+22
	DD	00H
	DD	imagerel ??1?$deque@_WV?$allocator@_W@std@@@std@@QEAA@XZ+28
	DD	0ffffffffH
xdata	ENDS
;	COMDAT xdata
xdata	SEGMENT
$unwind$?dtor$0@?0???1?$deque@_WV?$allocator@_W@std@@@std@@QEAA@XZ@4HA DD 020601H
	DD	050023206H
xdata	ENDS
;	COMDAT xdata
xdata	SEGMENT
$unwind$??1?$deque@_WV?$allocator@_W@std@@@std@@QEAA@XZ DD 021311H
	DD	03006520aH
	DD	imagerel __CxxFrameHandler3
	DD	imagerel $cppxdata$??1?$deque@_WV?$allocator@_W@std@@@std@@QEAA@XZ
xdata	ENDS
;	COMDAT CONST
CONST	SEGMENT
$cppxdata$??1?$deque@_WV?$allocator@_W@std@@@std@@QEAA@XZ DD 019930522H
	DD	01H
	DD	imagerel $stateUnwindMap$??1?$deque@_WV?$allocator@_W@std@@@std@@QEAA@XZ
	DD	00H
	DD	00H
	DD	03H
	DD	imagerel $ip2state$??1?$deque@_WV?$allocator@_W@std@@@std@@QEAA@XZ
	DD	020H
	DD	00H
	DD	01H
CONST	ENDS
;	COMDAT xdata
xdata	SEGMENT
$stateUnwindMap$??1?$deque@_WV?$allocator@_W@std@@@std@@QEAA@XZ DD 0ffffffffH
	DD	imagerel ?dtor$0@?0???1?$deque@_WV?$allocator@_W@std@@@std@@QEAA@XZ@4HA
; Function compile flags: /Ogtpy
; File c:\program files\microsoft visual studio 9.0\vc\include\deque
xdata	ENDS
;	COMDAT ??1?$deque@_WV?$allocator@_W@std@@@std@@QEAA@XZ
_TEXT	SEGMENT
$T157541 = 32
this$ = 64
??1?$deque@_WV?$allocator@_W@std@@@std@@QEAA@XZ PROC	; std::deque<wchar_t,std::allocator<wchar_t> >::~deque<wchar_t,std::allocator<wchar_t> >, COMDAT

; 640  : 		{	// destroy the deque

$LN14:
	mov	QWORD PTR [rsp+8], rcx
	push	rbx
	sub	rsp, 48					; 00000030H
	mov	QWORD PTR $T157541[rsp], -2
	mov	rbx, rcx

; 641  : 		_Tidy();

	call	?_Tidy@?$deque@_WV?$allocator@_W@std@@@std@@IEAAXXZ ; std::deque<wchar_t,std::allocator<wchar_t> >::_Tidy
	npad	1

; 642  : 		}

	mov	rcx, QWORD PTR [rbx]
	add	rsp, 48					; 00000030H
	pop	rbx
	jmp	??3@YAXPEAX@Z				; operator delete
??1?$deque@_WV?$allocator@_W@std@@@std@@QEAA@XZ ENDP	; std::deque<wchar_t,std::allocator<wchar_t> >::~deque<wchar_t,std::allocator<wchar_t> >
; Function compile flags: /Ogtpy
_TEXT	ENDS
;	COMDAT text$x
text$x	SEGMENT
$T157541 = 32
this$ = 64
?dtor$0@?0???1?$deque@_WV?$allocator@_W@std@@@std@@QEAA@XZ@4HA PROC ; `std::deque<wchar_t,std::allocator<wchar_t> >::~deque<wchar_t,std::allocator<wchar_t> >'::`1'::dtor$0
	push	rbp
	sub	rsp, 32					; 00000020H
	mov	rbp, rdx
	mov	rcx, QWORD PTR this$[rbp]
	call	??1?$_Deque_val@_WV?$allocator@_W@std@@@std@@QEAA@XZ
	add	rsp, 32					; 00000020H
	pop	rbp
	ret	0
?dtor$0@?0???1?$deque@_WV?$allocator@_W@std@@@std@@QEAA@XZ@4HA ENDP ; `std::deque<wchar_t,std::allocator<wchar_t> >::~deque<wchar_t,std::allocator<wchar_t> >'::`1'::dtor$0
; Function compile flags: /Ogtpy
; File c:\program files\microsoft visual studio 9.0\vc\include\stack
text$x	ENDS
;	COMDAT ?push@?$stack@_WV?$deque@_WV?$allocator@_W@std@@@std@@@std@@QEAAXAEB_W@Z
_TEXT	SEGMENT
this$ = 8
_Val$ = 16
?push@?$stack@_WV?$deque@_WV?$allocator@_W@std@@@std@@@std@@QEAAXAEB_W@Z PROC ; std::stack<wchar_t,std::deque<wchar_t,std::allocator<wchar_t> > >::push, COMDAT

; 58   : 		c.push_back(_Val);
; 59   : 		}

	jmp	?push_back@?$deque@_WV?$allocator@_W@std@@@std@@QEAAXAEB_W@Z ; std::deque<wchar_t,std::allocator<wchar_t> >::push_back
?push@?$stack@_WV?$deque@_WV?$allocator@_W@std@@@std@@@std@@QEAAXAEB_W@Z ENDP ; std::stack<wchar_t,std::deque<wchar_t,std::allocator<wchar_t> > >::push
; Function compile flags: /Ogtpy
_TEXT	ENDS
;	COMDAT ?top@?$stack@_WV?$deque@_WV?$allocator@_W@std@@@std@@@std@@QEAAAEA_WXZ
_TEXT	SEGMENT
this$ = 8
?top@?$stack@_WV?$deque@_WV?$allocator@_W@std@@@std@@@std@@QEAAAEA_WXZ PROC ; std::stack<wchar_t,std::deque<wchar_t,std::allocator<wchar_t> > >::top, COMDAT

; 48   : 		return (c.back());
; 49   : 		}

	jmp	?back@?$deque@_WV?$allocator@_W@std@@@std@@QEAAAEA_WXZ ; std::deque<wchar_t,std::allocator<wchar_t> >::back
?top@?$stack@_WV?$deque@_WV?$allocator@_W@std@@@std@@@std@@QEAAAEA_WXZ ENDP ; std::stack<wchar_t,std::deque<wchar_t,std::allocator<wchar_t> > >::top
_TEXT	ENDS
;	COMDAT pdata
; File c:\program files\microsoft visual studio 9.0\vc\include\xmemory
pdata	SEGMENT
$pdata$??0?$stack@_WV?$deque@_WV?$allocator@_W@std@@@std@@@std@@QEAA@XZ DD imagerel $LN49
	DD	imagerel $LN49+62
	DD	imagerel $unwind$??0?$stack@_WV?$deque@_WV?$allocator@_W@std@@@std@@@std@@QEAA@XZ
pdata	ENDS
;	COMDAT xdata
xdata	SEGMENT
$unwind$??0?$stack@_WV?$deque@_WV?$allocator@_W@std@@@std@@@std@@QEAA@XZ DD 020601H
	DD	030023206H
; Function compile flags: /Ogtpy
; File c:\program files\microsoft visual studio 9.0\vc\include\stack
xdata	ENDS
;	COMDAT ??0?$stack@_WV?$deque@_WV?$allocator@_W@std@@@std@@@std@@QEAA@XZ
_TEXT	SEGMENT
this$ = 48
??0?$stack@_WV?$deque@_WV?$allocator@_W@std@@@std@@@std@@QEAA@XZ PROC ; std::stack<wchar_t,std::deque<wchar_t,std::allocator<wchar_t> > >::stack<wchar_t,std::deque<wchar_t,std::allocator<wchar_t> > >, COMDAT

; 28   : 		{	// construct with empty container

$LN49:
	push	rbx
	sub	rsp, 32					; 00000020H
	mov	rbx, rcx
	mov	ecx, 8
	call	??2@YAPEAX_K@Z				; operator new
	xor	ecx, ecx
	test	rax, rax
	je	SHORT $LN21@stack@2
	mov	QWORD PTR [rax], rbx
	jmp	SHORT $LN22@stack@2
$LN21@stack@2:
	mov	rax, rcx
$LN22@stack@2:
	mov	QWORD PTR [rbx], rax
	mov	QWORD PTR [rbx+32], rcx
	mov	QWORD PTR [rbx+40], rcx

; 29   : 		}

	mov	rax, rbx
	mov	QWORD PTR [rbx+48], rcx
	mov	QWORD PTR [rbx+56], rcx
	add	rsp, 32					; 00000020H
	pop	rbx
	ret	0
??0?$stack@_WV?$deque@_WV?$allocator@_W@std@@@std@@@std@@QEAA@XZ ENDP ; std::stack<wchar_t,std::deque<wchar_t,std::allocator<wchar_t> > >::stack<wchar_t,std::deque<wchar_t,std::allocator<wchar_t> > >
_TEXT	ENDS
PUBLIC	?AppendEscapedString@SignatureReader@@AEAAXPEB_W@Z ; SignatureReader::AppendEscapedString
;	COMDAT pdata
; File c:\local\sharpdevelop_3.2.0.5777_source\src\addins\misc\profiler\hook\profilermetadata.cpp
pdata	SEGMENT
$pdata$?AppendEscapedString@SignatureReader@@AEAAXPEB_W@Z DD imagerel $LN10
	DD	imagerel $LN10+15
	DD	imagerel $unwind$?AppendEscapedString@SignatureReader@@AEAAXPEB_W@Z
pdata	ENDS
;	COMDAT pdata
pdata	SEGMENT
$pdata$0$?AppendEscapedString@SignatureReader@@AEAAXPEB_W@Z DD imagerel $LN10+15
	DD	imagerel $LN10+81
	DD	imagerel $chain$0$?AppendEscapedString@SignatureReader@@AEAAXPEB_W@Z
pdata	ENDS
;	COMDAT pdata
pdata	SEGMENT
$pdata$1$?AppendEscapedString@SignatureReader@@AEAAXPEB_W@Z DD imagerel $LN10+81
	DD	imagerel $LN10+87
	DD	imagerel $chain$1$?AppendEscapedString@SignatureReader@@AEAAXPEB_W@Z
pdata	ENDS
;	COMDAT xdata
xdata	SEGMENT
$chain$1$?AppendEscapedString@SignatureReader@@AEAAXPEB_W@Z DD 021H
	DD	imagerel $LN10
	DD	imagerel $LN10+15
	DD	imagerel $unwind$?AppendEscapedString@SignatureReader@@AEAAXPEB_W@Z
xdata	ENDS
;	COMDAT xdata
xdata	SEGMENT
$chain$0$?AppendEscapedString@SignatureReader@@AEAAXPEB_W@Z DD 020521H
	DD	067405H
	DD	imagerel $LN10
	DD	imagerel $LN10+15
	DD	imagerel $unwind$?AppendEscapedString@SignatureReader@@AEAAXPEB_W@Z
xdata	ENDS
;	COMDAT xdata
xdata	SEGMENT
$unwind$?AppendEscapedString@SignatureReader@@AEAAXPEB_W@Z DD 020601H
	DD	030023206H
; Function compile flags: /Ogtpy
xdata	ENDS
;	COMDAT ?AppendEscapedString@SignatureReader@@AEAAXPEB_W@Z
_TEXT	SEGMENT
this$ = 48
input$ = 56
?AppendEscapedString@SignatureReader@@AEAAXPEB_W@Z PROC	; SignatureReader::AppendEscapedString, COMDAT

; 595  : {	

$LN10:
	push	rbx
	sub	rsp, 32					; 00000020H

; 596  : 	for (const WCHAR *ptr = input; *ptr != 0; ptr++) {

	cmp	WORD PTR [rdx], 0
	mov	rbx, rdx
	je	SHORT $LN3@AppendEsca
	mov	QWORD PTR [rsp+48], rdi
	lea	rdi, QWORD PTR [rcx+4392]
	npad	5
$LL5@AppendEsca:

; 597  : 		WCHAR c = *ptr;

	movzx	edx, WORD PTR [rbx]

; 598  : 		if (c == '"')

	cmp	dx, 34					; 00000022H
	jne	SHORT $LN2@AppendEsca

; 599  : 			this->output << "\"\"";

	lea	rdx, OFFSET FLAT:??_C@_02JMMFPCED@?$CC?$CC?$AA@
	mov	rcx, rdi
	call	??$?6_WU?$char_traits@_W@std@@@std@@YAAEAV?$basic_ostream@_WU?$char_traits@_W@std@@@0@AEAV10@PEBD@Z ; std::operator<<<wchar_t,std::char_traits<wchar_t> >

; 600  : 		else

	jmp	SHORT $LN4@AppendEsca
$LN2@AppendEsca:

; 601  : 			this->output << c;

	mov	rcx, rdi
	call	??$?6_WU?$char_traits@_W@std@@@std@@YAAEAV?$basic_ostream@_WU?$char_traits@_W@std@@@0@AEAV10@_W@Z ; std::operator<<<wchar_t,std::char_traits<wchar_t> >
$LN4@AppendEsca:
	add	rbx, 2
	cmp	WORD PTR [rbx], 0
	jne	SHORT $LL5@AppendEsca
	mov	rdi, QWORD PTR [rsp+48]
$LN3@AppendEsca:

; 602  : 	}
; 603  : }

	add	rsp, 32					; 00000020H
	pop	rbx
	ret	0
?AppendEscapedString@SignatureReader@@AEAAXPEB_W@Z ENDP	; SignatureReader::AppendEscapedString
_TEXT	ENDS
;	COMDAT pdata
pdata	SEGMENT
$pdata$??1?$stack@V?$basic_string@_WU?$char_traits@_W@std@@V?$allocator@_W@2@@std@@V?$deque@V?$basic_string@_WU?$char_traits@_W@std@@V?$allocator@_W@2@@std@@V?$allocator@V?$basic_string@_WU?$char_traits@_W@std@@V?$allocator@_W@2@@std@@@2@@2@@std@@QEAA@XZ DD imagerel $LN17
	DD	imagerel $LN17+41
	DD	imagerel $unwind$??1?$stack@V?$basic_string@_WU?$char_traits@_W@std@@V?$allocator@_W@2@@std@@V?$deque@V?$basic_string@_WU?$char_traits@_W@std@@V?$allocator@_W@2@@std@@V?$allocator@V?$basic_string@_WU?$char_traits@_W@std@@V?$allocator@_W@2@@std@@@2@@2@@std@@QEAA@XZ
pdata	ENDS
;	COMDAT pdata
pdata	SEGMENT
$pdata$?dtor$1@?0???1?$stack@V?$basic_string@_WU?$char_traits@_W@std@@V?$allocator@_W@2@@std@@V?$deque@V?$basic_string@_WU?$char_traits@_W@std@@V?$allocator@_W@2@@std@@V?$allocator@V?$basic_string@_WU?$char_traits@_W@std@@V?$allocator@_W@2@@std@@@2@@2@@std@@QEAA@XZ@4HA DD imagerel ?dtor$1@?0???1?$stack@V?$basic_string@_WU?$char_traits@_W@std@@V?$allocator@_W@2@@std@@V?$deque@V?$basic_string@_WU?$char_traits@_W@std@@V?$allocator@_W@2@@std@@V?$allocator@V?$basic_string@_WU?$char_traits@_W@std@@V?$allocator@_W@2@@std@@@2@@2@@std@@QEAA@XZ@4HA
	DD	imagerel ?dtor$1@?0???1?$stack@V?$basic_string@_WU?$char_traits@_W@std@@V?$allocator@_W@2@@std@@V?$deque@V?$basic_string@_WU?$char_traits@_W@std@@V?$allocator@_W@2@@std@@V?$allocator@V?$basic_string@_WU?$char_traits@_W@std@@V?$allocator@_W@2@@std@@@2@@2@@std@@QEAA@XZ@4HA+24
	DD	imagerel $unwind$?dtor$1@?0???1?$stack@V?$basic_string@_WU?$char_traits@_W@std@@V?$allocator@_W@2@@std@@V?$deque@V?$basic_string@_WU?$char_traits@_W@std@@V?$allocator@_W@2@@std@@V?$allocator@V?$basic_string@_WU?$char_traits@_W@std@@V?$allocator@_W@2@@std@@@2@@2@@std@@QEAA@XZ@4HA
pdata	ENDS
;	COMDAT xdata
xdata	SEGMENT
$ip2state$??1?$stack@V?$basic_string@_WU?$char_traits@_W@std@@V?$allocator@_W@2@@std@@V?$deque@V?$basic_string@_WU?$char_traits@_W@std@@V?$allocator@_W@2@@std@@V?$allocator@V?$basic_string@_WU?$char_traits@_W@std@@V?$allocator@_W@2@@std@@@2@@2@@std@@QEAA@XZ DD imagerel ??1?$stack@V?$basic_string@_WU?$char_traits@_W@std@@V?$allocator@_W@2@@std@@V?$deque@V?$basic_string@_WU?$char_traits@_W@std@@V?$allocator@_W@2@@std@@V?$allocator@V?$basic_string@_WU?$char_traits@_W@std@@V?$allocator@_W@2@@std@@@2@@2@@std@@QEAA@XZ
	DD	0ffffffffH
	DD	imagerel ??1?$stack@V?$basic_string@_WU?$char_traits@_W@std@@V?$allocator@_W@2@@std@@V?$deque@V?$basic_string@_WU?$char_traits@_W@std@@V?$allocator@_W@2@@std@@V?$allocator@V?$basic_string@_WU?$char_traits@_W@std@@V?$allocator@_W@2@@std@@@2@@2@@std@@QEAA@XZ+22
	DD	00H
	DD	imagerel ??1?$stack@V?$basic_string@_WU?$char_traits@_W@std@@V?$allocator@_W@2@@std@@V?$deque@V?$basic_string@_WU?$char_traits@_W@std@@V?$allocator@_W@2@@std@@V?$allocator@V?$basic_string@_WU?$char_traits@_W@std@@V?$allocator@_W@2@@std@@@2@@2@@std@@QEAA@XZ+28
	DD	0ffffffffH
xdata	ENDS
;	COMDAT xdata
xdata	SEGMENT
$unwind$?dtor$1@?0???1?$stack@V?$basic_string@_WU?$char_traits@_W@std@@V?$allocator@_W@2@@std@@V?$deque@V?$basic_string@_WU?$char_traits@_W@std@@V?$allocator@_W@2@@std@@V?$allocator@V?$basic_string@_WU?$char_traits@_W@std@@V?$allocator@_W@2@@std@@@2@@2@@std@@QEAA@XZ@4HA DD 020601H
	DD	050023206H
xdata	ENDS
;	COMDAT xdata
xdata	SEGMENT
$unwind$??1?$stack@V?$basic_string@_WU?$char_traits@_W@std@@V?$allocator@_W@2@@std@@V?$deque@V?$basic_string@_WU?$char_traits@_W@std@@V?$allocator@_W@2@@std@@V?$allocator@V?$basic_string@_WU?$char_traits@_W@std@@V?$allocator@_W@2@@std@@@2@@2@@std@@QEAA@XZ DD 021311H
	DD	03006520aH
	DD	imagerel __CxxFrameHandler3
	DD	imagerel $cppxdata$??1?$stack@V?$basic_string@_WU?$char_traits@_W@std@@V?$allocator@_W@2@@std@@V?$deque@V?$basic_string@_WU?$char_traits@_W@std@@V?$allocator@_W@2@@std@@V?$allocator@V?$basic_string@_WU?$char_traits@_W@std@@V?$allocator@_W@2@@std@@@2@@2@@std@@QEAA@XZ
xdata	ENDS
;	COMDAT CONST
CONST	SEGMENT
$cppxdata$??1?$stack@V?$basic_string@_WU?$char_traits@_W@std@@V?$allocator@_W@2@@std@@V?$deque@V?$basic_string@_WU?$char_traits@_W@std@@V?$allocator@_W@2@@std@@V?$allocator@V?$basic_string@_WU?$char_traits@_W@std@@V?$allocator@_W@2@@std@@@2@@2@@std@@QEAA@XZ DD 019930522H
	DD	01H
	DD	imagerel $stateUnwindMap$??1?$stack@V?$basic_string@_WU?$char_traits@_W@std@@V?$allocator@_W@2@@std@@V?$deque@V?$basic_string@_WU?$char_traits@_W@std@@V?$allocator@_W@2@@std@@V?$allocator@V?$basic_string@_WU?$char_traits@_W@std@@V?$allocator@_W@2@@std@@@2@@2@@std@@QEAA@XZ
	DD	00H
	DD	00H
	DD	03H
	DD	imagerel $ip2state$??1?$stack@V?$basic_string@_WU?$char_traits@_W@std@@V?$allocator@_W@2@@std@@V?$deque@V?$basic_string@_WU?$char_traits@_W@std@@V?$allocator@_W@2@@std@@V?$allocator@V?$basic_string@_WU?$char_traits@_W@std@@V?$allocator@_W@2@@std@@@2@@2@@std@@QEAA@XZ
	DD	020H
	DD	00H
	DD	01H
CONST	ENDS
;	COMDAT xdata
xdata	SEGMENT
$stateUnwindMap$??1?$stack@V?$basic_string@_WU?$char_traits@_W@std@@V?$allocator@_W@2@@std@@V?$deque@V?$basic_string@_WU?$char_traits@_W@std@@V?$allocator@_W@2@@std@@V?$allocator@V?$basic_string@_WU?$char_traits@_W@std@@V?$allocator@_W@2@@std@@@2@@2@@std@@QEAA@XZ DD 0ffffffffH
	DD	imagerel ?dtor$1@?0???1?$stack@V?$basic_string@_WU?$char_traits@_W@std@@V?$allocator@_W@2@@std@@V?$deque@V?$basic_string@_WU?$char_traits@_W@std@@V?$allocator@_W@2@@std@@V?$allocator@V?$basic_string@_WU?$char_traits@_W@std@@V?$allocator@_W@2@@std@@@2@@2@@std@@QEAA@XZ@4HA
; Function compile flags: /Ogtpy
xdata	ENDS
;	COMDAT ??1?$stack@V?$basic_string@_WU?$char_traits@_W@std@@V?$allocator@_W@2@@std@@V?$deque@V?$basic_string@_WU?$char_traits@_W@std@@V?$allocator@_W@2@@std@@V?$allocator@V?$basic_string@_WU?$char_traits@_W@std@@V?$allocator@_W@2@@std@@@2@@2@@std@@QEAA@XZ
_TEXT	SEGMENT
$T157887 = 32
this$ = 64
??1?$stack@V?$basic_string@_WU?$char_traits@_W@std@@V?$allocator@_W@2@@std@@V?$deque@V?$basic_string@_WU?$char_traits@_W@std@@V?$allocator@_W@2@@std@@V?$allocator@V?$basic_string@_WU?$char_traits@_W@std@@V?$allocator@_W@2@@std@@@2@@2@@std@@QEAA@XZ PROC ; std::stack<std::basic_string<wchar_t,std::char_traits<wchar_t>,std::allocator<wchar_t> >,std::deque<std::basic_string<wchar_t,std::char_traits<wchar_t>,std::allocator<wchar_t> >,std::allocator<std::basic_string<wchar_t,std::char_traits<wchar_t>,std::allocator<wchar_t> > > > >::~stack<std::basic_string<wchar_t,std::char_traits<wchar_t>,std::allocator<wchar_t> >,std::deque<std::basic_string<wchar_t,std::char_traits<wchar_t>,std::allocator<wchar_t> >,std::allocator<std::basic_string<wchar_t,std::char_traits<wchar_t>,std::allocator<wchar_t> > > > >, COMDAT
$LN17:
	mov	QWORD PTR [rsp+8], rcx
	push	rbx
	sub	rsp, 48					; 00000030H
	mov	QWORD PTR $T157887[rsp], -2
	mov	rbx, rcx
	call	?_Tidy@?$deque@V?$basic_string@_WU?$char_traits@_W@std@@V?$allocator@_W@2@@std@@V?$allocator@V?$basic_string@_WU?$char_traits@_W@std@@V?$allocator@_W@2@@std@@@2@@std@@IEAAXXZ ; std::deque<std::basic_string<wchar_t,std::char_traits<wchar_t>,std::allocator<wchar_t> >,std::allocator<std::basic_string<wchar_t,std::char_traits<wchar_t>,std::allocator<wchar_t> > > >::_Tidy
	npad	1
	mov	rcx, QWORD PTR [rbx]
	add	rsp, 48					; 00000030H
	pop	rbx
	jmp	??3@YAXPEAX@Z				; operator delete
??1?$stack@V?$basic_string@_WU?$char_traits@_W@std@@V?$allocator@_W@2@@std@@V?$deque@V?$basic_string@_WU?$char_traits@_W@std@@V?$allocator@_W@2@@std@@V?$allocator@V?$basic_string@_WU?$char_traits@_W@std@@V?$allocator@_W@2@@std@@@2@@2@@std@@QEAA@XZ ENDP ; std::stack<std::basic_string<wchar_t,std::char_traits<wchar_t>,std::allocator<wchar_t> >,std::deque<std::basic_string<wchar_t,std::char_traits<wchar_t>,std::allocator<wchar_t> >,std::allocator<std::basic_string<wchar_t,std::char_traits<wchar_t>,std::allocator<wchar_t> > > > >::~stack<std::basic_string<wchar_t,std::char_traits<wchar_t>,std::allocator<wchar_t> >,std::deque<std::basic_string<wchar_t,std::char_traits<wchar_t>,std::allocator<wchar_t> >,std::allocator<std::basic_string<wchar_t,std::char_traits<wchar_t>,std::allocator<wchar_t> > > > >
; Function compile flags: /Ogtpy
_TEXT	ENDS
;	COMDAT text$x
text$x	SEGMENT
$T157887 = 32
this$ = 64
?dtor$1@?0???1?$stack@V?$basic_string@_WU?$char_traits@_W@std@@V?$allocator@_W@2@@std@@V?$deque@V?$basic_string@_WU?$char_traits@_W@std@@V?$allocator@_W@2@@std@@V?$allocator@V?$basic_string@_WU?$char_traits@_W@std@@V?$allocator@_W@2@@std@@@2@@2@@std@@QEAA@XZ@4HA PROC ; `std::stack<std::basic_string<wchar_t,std::char_traits<wchar_t>,std::allocator<wchar_t> >,std::deque<std::basic_string<wchar_t,std::char_traits<wchar_t>,std::allocator<wchar_t> >,std::allocator<std::basic_string<wchar_t,std::char_traits<wchar_t>,std::allocator<wchar_t> > > > >::~stack<std::basic_string<wchar_t,std::char_traits<wchar_t>,std::allocator<wchar_t> >,std::deque<std::basic_string<wchar_t,std::char_traits<wchar_t>,std::allocator<wchar_t> >,std::allocator<std::basic_string<wchar_t,std::char_traits<wchar_t>,std::allocator<wchar_t> > > > >'::`1'::dtor$1
	push	rbp
	sub	rsp, 32					; 00000020H
	mov	rbp, rdx
	mov	rcx, QWORD PTR this$[rbp]
	call	??1?$_Deque_val@V?$basic_string@_WU?$char_traits@_W@std@@V?$allocator@_W@2@@std@@V?$allocator@V?$basic_string@_WU?$char_traits@_W@std@@V?$allocator@_W@2@@std@@@2@@std@@QEAA@XZ
	add	rsp, 32					; 00000020H
	pop	rbp
	ret	0
?dtor$1@?0???1?$stack@V?$basic_string@_WU?$char_traits@_W@std@@V?$allocator@_W@2@@std@@V?$deque@V?$basic_string@_WU?$char_traits@_W@std@@V?$allocator@_W@2@@std@@V?$allocator@V?$basic_string@_WU?$char_traits@_W@std@@V?$allocator@_W@2@@std@@@2@@2@@std@@QEAA@XZ@4HA ENDP ; `std::stack<std::basic_string<wchar_t,std::char_traits<wchar_t>,std::allocator<wchar_t> >,std::deque<std::basic_string<wchar_t,std::char_traits<wchar_t>,std::allocator<wchar_t> >,std::allocator<std::basic_string<wchar_t,std::char_traits<wchar_t>,std::allocator<wchar_t> > > > >::~stack<std::basic_string<wchar_t,std::char_traits<wchar_t>,std::allocator<wchar_t> >,std::deque<std::basic_string<wchar_t,std::char_traits<wchar_t>,std::allocator<wchar_t> >,std::allocator<std::basic_string<wchar_t,std::char_traits<wchar_t>,std::allocator<wchar_t> > > > >'::`1'::dtor$1
text$x	ENDS
;	COMDAT pdata
pdata	SEGMENT
$pdata$??1?$stack@_WV?$deque@_WV?$allocator@_W@std@@@std@@@std@@QEAA@XZ DD imagerel $LN17
	DD	imagerel $LN17+41
	DD	imagerel $unwind$??1?$stack@_WV?$deque@_WV?$allocator@_W@std@@@std@@@std@@QEAA@XZ
pdata	ENDS
;	COMDAT pdata
pdata	SEGMENT
$pdata$?dtor$1@?0???1?$stack@_WV?$deque@_WV?$allocator@_W@std@@@std@@@std@@QEAA@XZ@4HA DD imagerel ?dtor$1@?0???1?$stack@_WV?$deque@_WV?$allocator@_W@std@@@std@@@std@@QEAA@XZ@4HA
	DD	imagerel ?dtor$1@?0???1?$stack@_WV?$deque@_WV?$allocator@_W@std@@@std@@@std@@QEAA@XZ@4HA+24
	DD	imagerel $unwind$?dtor$1@?0???1?$stack@_WV?$deque@_WV?$allocator@_W@std@@@std@@@std@@QEAA@XZ@4HA
pdata	ENDS
;	COMDAT xdata
xdata	SEGMENT
$ip2state$??1?$stack@_WV?$deque@_WV?$allocator@_W@std@@@std@@@std@@QEAA@XZ DD imagerel ??1?$stack@_WV?$deque@_WV?$allocator@_W@std@@@std@@@std@@QEAA@XZ
	DD	0ffffffffH
	DD	imagerel ??1?$stack@_WV?$deque@_WV?$allocator@_W@std@@@std@@@std@@QEAA@XZ+22
	DD	00H
	DD	imagerel ??1?$stack@_WV?$deque@_WV?$allocator@_W@std@@@std@@@std@@QEAA@XZ+28
	DD	0ffffffffH
xdata	ENDS
;	COMDAT xdata
xdata	SEGMENT
$unwind$?dtor$1@?0???1?$stack@_WV?$deque@_WV?$allocator@_W@std@@@std@@@std@@QEAA@XZ@4HA DD 020601H
	DD	050023206H
xdata	ENDS
;	COMDAT xdata
xdata	SEGMENT
$unwind$??1?$stack@_WV?$deque@_WV?$allocator@_W@std@@@std@@@std@@QEAA@XZ DD 021311H
	DD	03006520aH
	DD	imagerel __CxxFrameHandler3
	DD	imagerel $cppxdata$??1?$stack@_WV?$deque@_WV?$allocator@_W@std@@@std@@@std@@QEAA@XZ
xdata	ENDS
;	COMDAT CONST
CONST	SEGMENT
$cppxdata$??1?$stack@_WV?$deque@_WV?$allocator@_W@std@@@std@@@std@@QEAA@XZ DD 019930522H
	DD	01H
	DD	imagerel $stateUnwindMap$??1?$stack@_WV?$deque@_WV?$allocator@_W@std@@@std@@@std@@QEAA@XZ
	DD	00H
	DD	00H
	DD	03H
	DD	imagerel $ip2state$??1?$stack@_WV?$deque@_WV?$allocator@_W@std@@@std@@@std@@QEAA@XZ
	DD	020H
	DD	00H
	DD	01H
CONST	ENDS
;	COMDAT xdata
xdata	SEGMENT
$stateUnwindMap$??1?$stack@_WV?$deque@_WV?$allocator@_W@std@@@std@@@std@@QEAA@XZ DD 0ffffffffH
	DD	imagerel ?dtor$1@?0???1?$stack@_WV?$deque@_WV?$allocator@_W@std@@@std@@@std@@QEAA@XZ@4HA
; Function compile flags: /Ogtpy
xdata	ENDS
;	COMDAT ??1?$stack@_WV?$deque@_WV?$allocator@_W@std@@@std@@@std@@QEAA@XZ
_TEXT	SEGMENT
$T157963 = 32
this$ = 64
??1?$stack@_WV?$deque@_WV?$allocator@_W@std@@@std@@@std@@QEAA@XZ PROC ; std::stack<wchar_t,std::deque<wchar_t,std::allocator<wchar_t> > >::~stack<wchar_t,std::deque<wchar_t,std::allocator<wchar_t> > >, COMDAT
$LN17:
	mov	QWORD PTR [rsp+8], rcx
	push	rbx
	sub	rsp, 48					; 00000030H
	mov	QWORD PTR $T157963[rsp], -2
	mov	rbx, rcx
	call	?_Tidy@?$deque@_WV?$allocator@_W@std@@@std@@IEAAXXZ ; std::deque<wchar_t,std::allocator<wchar_t> >::_Tidy
	npad	1
	mov	rcx, QWORD PTR [rbx]
	add	rsp, 48					; 00000030H
	pop	rbx
	jmp	??3@YAXPEAX@Z				; operator delete
??1?$stack@_WV?$deque@_WV?$allocator@_W@std@@@std@@@std@@QEAA@XZ ENDP ; std::stack<wchar_t,std::deque<wchar_t,std::allocator<wchar_t> > >::~stack<wchar_t,std::deque<wchar_t,std::allocator<wchar_t> > >
; Function compile flags: /Ogtpy
_TEXT	ENDS
;	COMDAT text$x
text$x	SEGMENT
$T157963 = 32
this$ = 64
?dtor$1@?0???1?$stack@_WV?$deque@_WV?$allocator@_W@std@@@std@@@std@@QEAA@XZ@4HA PROC ; `std::stack<wchar_t,std::deque<wchar_t,std::allocator<wchar_t> > >::~stack<wchar_t,std::deque<wchar_t,std::allocator<wchar_t> > >'::`1'::dtor$1
	push	rbp
	sub	rsp, 32					; 00000020H
	mov	rbp, rdx
	mov	rcx, QWORD PTR this$[rbp]
	call	??1?$_Deque_val@_WV?$allocator@_W@std@@@std@@QEAA@XZ
	add	rsp, 32					; 00000020H
	pop	rbp
	ret	0
?dtor$1@?0???1?$stack@_WV?$deque@_WV?$allocator@_W@std@@@std@@@std@@QEAA@XZ@4HA ENDP ; `std::stack<wchar_t,std::deque<wchar_t,std::allocator<wchar_t> > >::~stack<wchar_t,std::deque<wchar_t,std::allocator<wchar_t> > >'::`1'::dtor$1
text$x	ENDS
PUBLIC	??0SignatureReader@@QEAA@PEAUICorProfilerInfo@@@Z ; SignatureReader::SignatureReader
;	COMDAT pdata
; File c:\program files\microsoft visual studio 9.0\vc\include\xmemory
pdata	SEGMENT
$pdata$??0SignatureReader@@QEAA@PEAUICorProfilerInfo@@@Z DD imagerel $LN55
	DD	imagerel $LN55+151
	DD	imagerel $unwind$??0SignatureReader@@QEAA@PEAUICorProfilerInfo@@@Z
pdata	ENDS
;	COMDAT pdata
pdata	SEGMENT
$pdata$?dtor$0@?0???0SignatureReader@@QEAA@PEAUICorProfilerInfo@@@Z@4HA DD imagerel ?dtor$0@?0???0SignatureReader@@QEAA@PEAUICorProfilerInfo@@@Z@4HA
	DD	imagerel ?dtor$0@?0???0SignatureReader@@QEAA@PEAUICorProfilerInfo@@@Z@4HA+29
	DD	imagerel $unwind$?dtor$0@?0???0SignatureReader@@QEAA@PEAUICorProfilerInfo@@@Z@4HA
pdata	ENDS
;	COMDAT pdata
pdata	SEGMENT
$pdata$?dtor$1@?0???0SignatureReader@@QEAA@PEAUICorProfilerInfo@@@Z@4HA DD imagerel ?dtor$1@?0???0SignatureReader@@QEAA@PEAUICorProfilerInfo@@@Z@4HA
	DD	imagerel ?dtor$1@?0???0SignatureReader@@QEAA@PEAUICorProfilerInfo@@@Z@4HA+32
	DD	imagerel $unwind$?dtor$1@?0???0SignatureReader@@QEAA@PEAUICorProfilerInfo@@@Z@4HA
pdata	ENDS
;	COMDAT xdata
xdata	SEGMENT
$ip2state$??0SignatureReader@@QEAA@PEAUICorProfilerInfo@@@Z DD imagerel ??0SignatureReader@@QEAA@PEAUICorProfilerInfo@@@Z
	DD	0ffffffffH
	DD	imagerel ??0SignatureReader@@QEAA@PEAUICorProfilerInfo@@@Z+55
	DD	00H
	DD	imagerel ??0SignatureReader@@QEAA@PEAUICorProfilerInfo@@@Z+78
	DD	01H
	DD	imagerel ??0SignatureReader@@QEAA@PEAUICorProfilerInfo@@@Z+132
	DD	0ffffffffH
xdata	ENDS
;	COMDAT xdata
xdata	SEGMENT
$unwind$?dtor$1@?0???0SignatureReader@@QEAA@PEAUICorProfilerInfo@@@Z@4HA DD 020601H
	DD	050023206H
xdata	ENDS
;	COMDAT xdata
xdata	SEGMENT
$unwind$?dtor$0@?0???0SignatureReader@@QEAA@PEAUICorProfilerInfo@@@Z@4HA DD 020601H
	DD	050023206H
xdata	ENDS
;	COMDAT xdata
xdata	SEGMENT
$unwind$??0SignatureReader@@QEAA@PEAUICorProfilerInfo@@@Z DD 061d11H
	DD	0a641dH
	DD	093418H
	DD	07006520aH
	DD	imagerel __CxxFrameHandler3
	DD	imagerel $cppxdata$??0SignatureReader@@QEAA@PEAUICorProfilerInfo@@@Z
xdata	ENDS
;	COMDAT CONST
CONST	SEGMENT
$cppxdata$??0SignatureReader@@QEAA@PEAUICorProfilerInfo@@@Z DD 019930522H
	DD	02H
	DD	imagerel $stateUnwindMap$??0SignatureReader@@QEAA@PEAUICorProfilerInfo@@@Z
	DD	00H
	DD	00H
	DD	04H
	DD	imagerel $ip2state$??0SignatureReader@@QEAA@PEAUICorProfilerInfo@@@Z
	DD	020H
	DD	00H
	DD	01H
CONST	ENDS
;	COMDAT xdata
xdata	SEGMENT
$stateUnwindMap$??0SignatureReader@@QEAA@PEAUICorProfilerInfo@@@Z DD 0ffffffffH
	DD	imagerel ?dtor$0@?0???0SignatureReader@@QEAA@PEAUICorProfilerInfo@@@Z@4HA
	DD	00H
	DD	imagerel ?dtor$1@?0???0SignatureReader@@QEAA@PEAUICorProfilerInfo@@@Z@4HA
; Function compile flags: /Ogtpy
; File c:\local\sharpdevelop_3.2.0.5777_source\src\addins\misc\profiler\hook\profilermetadata.cpp
xdata	ENDS
;	COMDAT ??0SignatureReader@@QEAA@PEAUICorProfilerInfo@@@Z
_TEXT	SEGMENT
$T158268 = 32
this$ = 64
profilerInfo$ = 72
??0SignatureReader@@QEAA@PEAUICorProfilerInfo@@@Z PROC	; SignatureReader::SignatureReader, COMDAT

; 15   : {

$LN55:
	mov	QWORD PTR [rsp+8], rcx
	push	rdi
	sub	rsp, 48					; 00000030H
	mov	QWORD PTR $T158268[rsp], -2
	mov	QWORD PTR [rsp+72], rbx
	mov	QWORD PTR [rsp+80], rsi
	mov	rsi, rdx
	mov	rdi, rcx
	add	rcx, 56					; 00000038H
	mov	edx, 2
	lea	r8d, QWORD PTR [rdx-1]
	call	QWORD PTR __imp_??0?$basic_ostringstream@_WU?$char_traits@_W@std@@V?$allocator@_W@2@@std@@QEAA@H@Z
	npad	1
	lea	rcx, QWORD PTR [rdi+4392]
	mov	edx, 2
	lea	r8d, QWORD PTR [rdx-1]
	call	QWORD PTR __imp_??0?$basic_ostringstream@_WU?$char_traits@_W@std@@V?$allocator@_W@2@@std@@QEAA@H@Z
	npad	1
	lea	rbx, QWORD PTR [rdi+4624]
	mov	ecx, 8
	call	??2@YAPEAX_K@Z				; operator new
	xor	ecx, ecx
	test	rax, rax
	je	SHORT $LN26@SignatureR
	mov	QWORD PTR [rax], rbx
	jmp	SHORT $LN27@SignatureR
$LN26@SignatureR:
	mov	rax, rcx
$LN27@SignatureR:
	mov	QWORD PTR [rbx], rax
	mov	QWORD PTR [rbx+32], rcx
	mov	QWORD PTR [rbx+40], rcx
	mov	QWORD PTR [rbx+48], rcx
	mov	QWORD PTR [rbx+56], rcx

; 16   : 	this->profilerInfo = profilerInfo;

	mov	QWORD PTR [rdi], rsi

; 17   : }

	mov	rax, rdi
	mov	rbx, QWORD PTR [rsp+72]
	mov	rsi, QWORD PTR [rsp+80]
	add	rsp, 48					; 00000030H
	pop	rdi
	ret	0
??0SignatureReader@@QEAA@PEAUICorProfilerInfo@@@Z ENDP	; SignatureReader::SignatureReader
; Function compile flags: /Ogtpy
_TEXT	ENDS
;	COMDAT text$x
text$x	SEGMENT
$T158268 = 32
this$ = 64
profilerInfo$ = 72
?dtor$0@?0???0SignatureReader@@QEAA@PEAUICorProfilerInfo@@@Z@4HA PROC ; `SignatureReader::SignatureReader'::`1'::dtor$0
	push	rbp
	sub	rsp, 32					; 00000020H
	mov	rbp, rdx
	mov	rcx, QWORD PTR this$[rbp]
	add	rcx, 56					; 00000038H
	call	QWORD PTR __imp_??_D?$basic_ostringstream@_WU?$char_traits@_W@std@@V?$allocator@_W@2@@std@@QEAAXXZ
	add	rsp, 32					; 00000020H
	pop	rbp
	ret	0
?dtor$0@?0???0SignatureReader@@QEAA@PEAUICorProfilerInfo@@@Z@4HA ENDP ; `SignatureReader::SignatureReader'::`1'::dtor$0
; Function compile flags: /Ogtpy
$T158268 = 32
this$ = 64
profilerInfo$ = 72
?dtor$1@?0???0SignatureReader@@QEAA@PEAUICorProfilerInfo@@@Z@4HA PROC ; `SignatureReader::SignatureReader'::`1'::dtor$1
	push	rbp
	sub	rsp, 32					; 00000020H
	mov	rbp, rdx
	mov	rcx, QWORD PTR this$[rbp]
	add	rcx, 4392				; 00001128H
	call	QWORD PTR __imp_??_D?$basic_ostringstream@_WU?$char_traits@_W@std@@V?$allocator@_W@2@@std@@QEAAXXZ
	add	rsp, 32					; 00000020H
	pop	rbp
	ret	0
?dtor$1@?0???0SignatureReader@@QEAA@PEAUICorProfilerInfo@@@Z@4HA ENDP ; `SignatureReader::SignatureReader'::`1'::dtor$1
; Function compile flags: /Ogtpy
; File c:\program files\microsoft sdks\windows\v7.0\include\cor.h
text$x	ENDS
;	COMDAT ?CorSigUncompressToken@@YAKPEBEPEAI@Z
_TEXT	SEGMENT
pData$ = 8
pToken$ = 16
?CorSigUncompressToken@@YAKPEBEPEAI@Z PROC		; CorSigUncompressToken, COMDAT

; 2395 :     ULONG       cb; 
; 2396 :     mdToken     tk; 
; 2397 :     mdToken     tkType; 
; 2398 : 
; 2399 :     cb = CorSigUncompressData(pData, (ULONG *)&tk); 

	movzx	r8d, BYTE PTR [rcx]
	test	r8b, r8b
	js	SHORT $LN17@CorSigUnco@3
	movzx	r8d, r8b
	mov	eax, 1
	jmp	SHORT $LN4@CorSigUnco@3
$LN17@CorSigUnco@3:
	movzx	eax, r8b
	and	al, 192					; 000000c0H
	cmp	al, 128					; 00000080H
	jne	SHORT $LN13@CorSigUnco@3
	movzx	eax, BYTE PTR [rcx+1]
	movzx	r8d, r8b
	and	r8d, 63					; 0000003fH
	shl	r8d, 8
	or	r8d, eax
	mov	eax, 2
	jmp	SHORT $LN4@CorSigUnco@3
$LN13@CorSigUnco@3:
	movzx	eax, r8b
	and	al, 224					; 000000e0H
	cmp	al, 192					; 000000c0H
	jne	SHORT $LN9@CorSigUnco@3
	movzx	eax, BYTE PTR [rcx+1]
	movzx	r8d, r8b
	and	r8d, 31
	shl	r8d, 8
	or	r8d, eax
	movzx	eax, BYTE PTR [rcx+2]
	shl	r8d, 8
	or	r8d, eax
	movzx	eax, BYTE PTR [rcx+3]
	shl	r8d, 8
	or	r8d, eax
	mov	eax, 4
	jmp	SHORT $LN4@CorSigUnco@3
$LN9@CorSigUnco@3:
	xor	r8d, r8d
	or	eax, -1					; ffffffffH
$LN4@CorSigUnco@3:

; 2400 :     tkType = g_tkCorEncodeToken[tk & 0x3];  
; 2401 :     tk = TokenFromRid(tk >> 2, tkType); 
; 2402 :     *pToken = tk;   

	mov	ecx, r8d
	lea	r9, OFFSET FLAT:?g_tkCorEncodeToken@@3QBIB ; g_tkCorEncodeToken
	shr	r8d, 2
	and	ecx, 3
	mov	ecx, DWORD PTR [r9+rcx*4]
	or	ecx, r8d
	mov	DWORD PTR [rdx], ecx

; 2403 :     return cb;  
; 2404 : }

	ret	0
?CorSigUncompressToken@@YAKPEBEPEAI@Z ENDP		; CorSigUncompressToken
PUBLIC	?AppendEscapedString@SignatureReader@@AEAAXAEBV?$basic_string@_WU?$char_traits@_W@std@@V?$allocator@_W@2@@std@@@Z ; SignatureReader::AppendEscapedString
;	COMDAT pdata
; File c:\local\sharpdevelop_3.2.0.5777_source\src\addins\misc\profiler\hook\profilermetadata.cpp
pdata	SEGMENT
$pdata$?AppendEscapedString@SignatureReader@@AEAAXAEBV?$basic_string@_WU?$char_traits@_W@std@@V?$allocator@_W@2@@std@@@Z DD imagerel $LN18
	DD	imagerel $LN18+29
	DD	imagerel $unwind$?AppendEscapedString@SignatureReader@@AEAAXAEBV?$basic_string@_WU?$char_traits@_W@std@@V?$allocator@_W@2@@std@@@Z
pdata	ENDS
;	COMDAT pdata
pdata	SEGMENT
$pdata$0$?AppendEscapedString@SignatureReader@@AEAAXAEBV?$basic_string@_WU?$char_traits@_W@std@@V?$allocator@_W@2@@std@@@Z DD imagerel $LN18+29
	DD	imagerel $LN18+97
	DD	imagerel $chain$0$?AppendEscapedString@SignatureReader@@AEAAXAEBV?$basic_string@_WU?$char_traits@_W@std@@V?$allocator@_W@2@@std@@@Z
pdata	ENDS
;	COMDAT pdata
pdata	SEGMENT
$pdata$1$?AppendEscapedString@SignatureReader@@AEAAXAEBV?$basic_string@_WU?$char_traits@_W@std@@V?$allocator@_W@2@@std@@@Z DD imagerel $LN18+97
	DD	imagerel $LN18+103
	DD	imagerel $chain$1$?AppendEscapedString@SignatureReader@@AEAAXAEBV?$basic_string@_WU?$char_traits@_W@std@@V?$allocator@_W@2@@std@@@Z
pdata	ENDS
;	COMDAT xdata
xdata	SEGMENT
$chain$1$?AppendEscapedString@SignatureReader@@AEAAXAEBV?$basic_string@_WU?$char_traits@_W@std@@V?$allocator@_W@2@@std@@@Z DD 021H
	DD	imagerel $LN18
	DD	imagerel $LN18+29
	DD	imagerel $unwind$?AppendEscapedString@SignatureReader@@AEAAXAEBV?$basic_string@_WU?$char_traits@_W@std@@V?$allocator@_W@2@@std@@@Z
xdata	ENDS
;	COMDAT xdata
xdata	SEGMENT
$chain$0$?AppendEscapedString@SignatureReader@@AEAAXAEBV?$basic_string@_WU?$char_traits@_W@std@@V?$allocator@_W@2@@std@@@Z DD 020521H
	DD	067405H
	DD	imagerel $LN18
	DD	imagerel $LN18+29
	DD	imagerel $unwind$?AppendEscapedString@SignatureReader@@AEAAXAEBV?$basic_string@_WU?$char_traits@_W@std@@V?$allocator@_W@2@@std@@@Z
xdata	ENDS
;	COMDAT xdata
xdata	SEGMENT
$unwind$?AppendEscapedString@SignatureReader@@AEAAXAEBV?$basic_string@_WU?$char_traits@_W@std@@V?$allocator@_W@2@@std@@@Z DD 020601H
	DD	030023206H
; Function compile flags: /Ogtpy
xdata	ENDS
;	COMDAT ?AppendEscapedString@SignatureReader@@AEAAXAEBV?$basic_string@_WU?$char_traits@_W@std@@V?$allocator@_W@2@@std@@@Z
_TEXT	SEGMENT
this$ = 48
input_string$ = 56
?AppendEscapedString@SignatureReader@@AEAAXAEBV?$basic_string@_WU?$char_traits@_W@std@@V?$allocator@_W@2@@std@@@Z PROC ; SignatureReader::AppendEscapedString, COMDAT

; 606  : {

$LN18:
	push	rbx
	sub	rsp, 32					; 00000020H

; 607  : 	AppendEscapedString(input_string.c_str());

	cmp	QWORD PTR [rdx+32], 8
	jb	SHORT $LN7@AppendEsca@2
	mov	rbx, QWORD PTR [rdx+8]
	jmp	SHORT $LN8@AppendEsca@2
$LN7@AppendEsca@2:
	lea	rbx, QWORD PTR [rdx+8]
$LN8@AppendEsca@2:
	cmp	WORD PTR [rbx], 0
	je	SHORT $LN11@AppendEsca@2
	mov	QWORD PTR [rsp+48], rdi
	lea	rdi, QWORD PTR [rcx+4392]
	npad	7
$LL13@AppendEsca@2:
	movzx	edx, WORD PTR [rbx]
	cmp	dx, 34					; 00000022H
	jne	SHORT $LN10@AppendEsca@2
	lea	rdx, OFFSET FLAT:??_C@_02JMMFPCED@?$CC?$CC?$AA@
	mov	rcx, rdi
	call	??$?6_WU?$char_traits@_W@std@@@std@@YAAEAV?$basic_ostream@_WU?$char_traits@_W@std@@@0@AEAV10@PEBD@Z ; std::operator<<<wchar_t,std::char_traits<wchar_t> >
	jmp	SHORT $LN12@AppendEsca@2
$LN10@AppendEsca@2:
	mov	rcx, rdi
	call	??$?6_WU?$char_traits@_W@std@@@std@@YAAEAV?$basic_ostream@_WU?$char_traits@_W@std@@@0@AEAV10@_W@Z ; std::operator<<<wchar_t,std::char_traits<wchar_t> >
$LN12@AppendEsca@2:
	add	rbx, 2
	cmp	WORD PTR [rbx], 0
	jne	SHORT $LL13@AppendEsca@2
	mov	rdi, QWORD PTR [rsp+48]
$LN11@AppendEsca@2:

; 608  : }

	add	rsp, 32					; 00000020H
	pop	rbx
	ret	0
?AppendEscapedString@SignatureReader@@AEAAXAEBV?$basic_string@_WU?$char_traits@_W@std@@V?$allocator@_W@2@@std@@@Z ENDP ; SignatureReader::AppendEscapedString
_TEXT	ENDS
PUBLIC	?ReadArrayType@SignatureReader@@AEAA_NE@Z	; SignatureReader::ReadArrayType
PUBLIC	?ReadType@SignatureReader@@AEAA_NE@Z		; SignatureReader::ReadType
;	COMDAT pdata
pdata	SEGMENT
$pdata$?ReadType@SignatureReader@@AEAA_NE@Z DD imagerel $LN196
	DD	imagerel $LN196+1456
	DD	imagerel $unwind$?ReadType@SignatureReader@@AEAA_NE@Z
pdata	ENDS
;	COMDAT xdata
xdata	SEGMENT
$unwind$?ReadType@SignatureReader@@AEAA_NE@Z DD 070f01H
	DD	010c340fH
	DD	0108010fH
	DD	060077008H
	DD	05006H
; Function compile flags: /Ogtpy
xdata	ENDS
;	COMDAT ?ReadType@SignatureReader@@AEAA_NE@Z
_TEXT	SEGMENT
zName$119678 = 64
this$ = 2144
length$119679 = 2152
type$ = 2152
number$119725 = 2160
genArgCount$119712 = 2160
tmp2$119701 = 2160
tmp2$119688 = 2160
token$119677 = 2160
tv924 = 2168
?ReadType@SignatureReader@@AEAA_NE@Z PROC		; SignatureReader::ReadType, COMDAT

; 225  : {

$LN196:
	mov	QWORD PTR [rsp+8], rbx
	push	rbp
	push	rsi
	push	rdi
	sub	rsp, 2112				; 00000840H

; 226  :     /*
; 227  :     Type ::= ( BOOLEAN | CHAR | I1 | U1 | U2 | U2 | I4 | U4 | I8 | U8 | R4 | R8 | I | U |
; 228  :                     | VALUETYPE TypeDefOrRefEncoded
; 229  :                     | CLASS TypeDefOrRefEncoded
; 230  :                     | STRING 
; 231  :                     | OBJECT
; 232  :                     | PTR CustomMod* VOID
; 233  :                     | PTR CustomMod* Type
; 234  :                     | FNPTR MethodDefSig
; 235  :                     | FNPTR MethodRefSig
; 236  :                     | ARRAY Type ArrayShape
; 237  :                     | SZARRAY CustomMod* Type
; 238  :                     | GENERICINST (CLASS | VALUETYPE) TypeDefOrRefEncoded GenArgCount Type *
; 239  :                     | VAR Number
; 240  :                     | MVAR Number
; 241  :     */
; 242  : 
; 243  : 	switch (type) {

	movzx	eax, dl
	mov	rdi, rcx
	dec	eax
	cmp	eax, 31
	ja	$LN1@ReadType
	lea	rcx, OFFSET FLAT:__ImageBase
	cdqe
	mov	r8d, DWORD PTR $LN185@ReadType[rcx+rax*4]
	add	r8, rcx
	jmp	r8
$LN48@ReadType:

; 244  : 		case ELEMENT_TYPE_VOID:
; 245  : 			this->output << L"void";

	lea	rdx, OFFSET FLAT:??_C@_19HFFGOOIH@?$AAv?$AAo?$AAi?$AAd?$AA?$AA@

; 246  : 			break;

	jmp	$LN192@ReadType
$LN47@ReadType:

; 247  : 		case ELEMENT_TYPE_BOOLEAN:
; 248  : 			this->output << L"bool";

	lea	rdx, OFFSET FLAT:??_C@_19EIPOAEOH@?$AAb?$AAo?$AAo?$AAl?$AA?$AA@

; 249  : 			break;

	jmp	$LN192@ReadType
$LN46@ReadType:

; 250  : 		case ELEMENT_TYPE_CHAR:
; 251  : 			this->output << L"char"; 

	lea	rdx, OFFSET FLAT:??_C@_19CHDFCHBM@?$AAc?$AAh?$AAa?$AAr?$AA?$AA@

; 252  : 			break;

	jmp	$LN192@ReadType
$LN45@ReadType:

; 253  : 		case ELEMENT_TYPE_I:
; 254  : 			this->output << L"IntPtr";

	lea	rdx, OFFSET FLAT:??_C@_1O@PLMJMAHL@?$AAI?$AAn?$AAt?$AAP?$AAt?$AAr?$AA?$AA@

; 255  : 			break;

	jmp	$LN192@ReadType
$LN44@ReadType:

; 256  : 		case ELEMENT_TYPE_U:
; 257  : 			this->output << L"UIntPtr";

	lea	rdx, OFFSET FLAT:??_C@_1BA@HEMJOHJL@?$AAU?$AAI?$AAn?$AAt?$AAP?$AAt?$AAr?$AA?$AA@

; 258  : 			break;

	jmp	$LN192@ReadType
$LN43@ReadType:

; 259  : 		case ELEMENT_TYPE_I1:
; 260  : 			this->output << L"sbyte"; 

	lea	rdx, OFFSET FLAT:??_C@_1M@CNLIHMIE@?$AAs?$AAb?$AAy?$AAt?$AAe?$AA?$AA@

; 261  : 			break;

	jmp	$LN192@ReadType
$LN42@ReadType:

; 262  : 		case ELEMENT_TYPE_U1:
; 263  : 			this->output << L"byte"; 

	lea	rdx, OFFSET FLAT:??_C@_19OGDDIBJJ@?$AAb?$AAy?$AAt?$AAe?$AA?$AA@

; 264  : 			break;

	jmp	$LN192@ReadType
$LN41@ReadType:

; 265  : 		case ELEMENT_TYPE_I2:
; 266  : 			this->output << L"short"; 

	lea	rdx, OFFSET FLAT:??_C@_1M@LOLCAHAG@?$AAs?$AAh?$AAo?$AAr?$AAt?$AA?$AA@

; 267  : 			break;

	jmp	$LN192@ReadType
$LN40@ReadType:

; 268  : 		case ELEMENT_TYPE_U2:
; 269  : 			this->output << L"ushort"; 

	lea	rdx, OFFSET FLAT:??_C@_1O@HKBAGFIG@?$AAu?$AAs?$AAh?$AAo?$AAr?$AAt?$AA?$AA@

; 270  : 			break;

	jmp	$LN192@ReadType
$LN39@ReadType:

; 271  : 		case ELEMENT_TYPE_I4:
; 272  : 			this->output << L"int"; 

	lea	rdx, OFFSET FLAT:??_C@_17IDNKMCOH@?$AAi?$AAn?$AAt?$AA?$AA@

; 273  : 			break;

	jmp	$LN192@ReadType
$LN38@ReadType:

; 274  : 		case ELEMENT_TYPE_U4:
; 275  : 			this->output << L"uint"; 

	lea	rdx, OFFSET FLAT:??_C@_19BFBCDLCE@?$AAu?$AAi?$AAn?$AAt?$AA?$AA@

; 276  : 			break;

	jmp	$LN192@ReadType
$LN37@ReadType:

; 277  : 		case ELEMENT_TYPE_I8:
; 278  : 			this->output << L"long"; 

	lea	rdx, OFFSET FLAT:??_C@_19EKGKGAPA@?$AAl?$AAo?$AAn?$AAg?$AA?$AA@

; 279  : 			break;

	jmp	$LN192@ReadType
$LN36@ReadType:

; 280  : 		case ELEMENT_TYPE_U8:
; 281  : 			this->output << L"ulong"; 

	lea	rdx, OFFSET FLAT:??_C@_1M@GONMDIAN@?$AAu?$AAl?$AAo?$AAn?$AAg?$AA?$AA@

; 282  : 			break;

	jmp	$LN192@ReadType
$LN35@ReadType:

; 283  : 		case ELEMENT_TYPE_R4:
; 284  : 			this->output << L"float"; 

	lea	rdx, OFFSET FLAT:??_C@_1M@KGKAENKF@?$AAf?$AAl?$AAo?$AAa?$AAt?$AA?$AA@

; 285  : 			break;

	jmp	$LN192@ReadType
$LN34@ReadType:

; 286  : 		case ELEMENT_TYPE_R8:
; 287  : 			this->output << L"double"; 

	lea	rdx, OFFSET FLAT:??_C@_1O@BAJDFEHJ@?$AAd?$AAo?$AAu?$AAb?$AAl?$AAe?$AA?$AA@

; 288  : 			break;

	jmp	$LN192@ReadType
$LN33@ReadType:

; 289  : 		case ELEMENT_TYPE_STRING:
; 290  : 			this->output << L"string"; 

	lea	rdx, OFFSET FLAT:??_C@_1O@DGBBOFII@?$AAs?$AAt?$AAr?$AAi?$AAn?$AAg?$AA?$AA@

; 291  : 			break;

	jmp	$LN192@ReadType
$LN32@ReadType:

; 292  : 		case ELEMENT_TYPE_OBJECT:
; 293  : 			this->output << L"object";

	lea	rdx, OFFSET FLAT:??_C@_1O@EJHDPCJ@?$AAo?$AAb?$AAj?$AAe?$AAc?$AAt?$AA?$AA@

; 294  : 			break;

	jmp	$LN192@ReadType
$LN31@ReadType:

; 295  : 		case ELEMENT_TYPE_CLASS:
; 296  : 		case ELEMENT_TYPE_VALUETYPE:
; 297  : 			mdToken token;
; 298  : 			WCHAR zName[1024];
; 299  : 			ULONG length;
; 300  : 			CorSigUncompressToken(this->data, &token);

	mov	rcx, QWORD PTR [rdi+24]
	lea	rdx, QWORD PTR token$119677[rsp]
	call	?CorSigUncompressToken@@YAKPEBEPEAI@Z	; CorSigUncompressToken

; 301  : 			HRESULT	hr;
; 302  : 			hr = this->metaData->GetTypeRefProps(token, nullptr, zName, 1024, &length);

	mov	rcx, QWORD PTR [rdi+8]
	mov	ebx, DWORD PTR token$119677[rsp]
	mov	rax, QWORD PTR [rcx]
	lea	rdx, QWORD PTR length$119679[rsp]
	lea	r9, QWORD PTR zName$119678[rsp]
	mov	QWORD PTR [rsp+40], rdx
	xor	r8d, r8d
	mov	edx, ebx
	mov	DWORD PTR [rsp+32], 1024		; 00000400H
	call	QWORD PTR [rax+112]

; 303  : 			hr = this->metaData->GetTypeDefProps(token, zName, 1024, &length, nullptr, nullptr);

	mov	rcx, QWORD PTR [rdi+8]
	mov	rax, QWORD PTR [rcx]
	lea	rdx, QWORD PTR length$119679[rsp]
	xor	esi, esi
	mov	QWORD PTR [rsp+48], rsi
	lea	r8, QWORD PTR zName$119678[rsp]
	mov	QWORD PTR [rsp+40], rsi
	mov	QWORD PTR [rsp+32], rdx
	mov	r9d, 1024				; 00000400H
	mov	edx, ebx
	call	QWORD PTR [rax+96]

; 304  : 			if (SUCCEEDED(hr) && length > 0)

	test	eax, eax
	js	SHORT $LN30@ReadType
	cmp	DWORD PTR length$119679[rsp], esi
	jbe	SHORT $LN30@ReadType

; 305  : 				AppendEscapedString(zName);

	lea	rbx, QWORD PTR zName$119678[rsp]
	cmp	WORD PTR zName$119678[rsp], si
	je	$LN27@ReadType
	npad	15
$LL57@ReadType:
	movzx	edx, WORD PTR [rbx]
	lea	rcx, QWORD PTR [rdi+4392]
	cmp	dx, 34					; 00000022H
	jne	SHORT $LN54@ReadType
	lea	rdx, OFFSET FLAT:??_C@_02JMMFPCED@?$CC?$CC?$AA@
	call	??$?6_WU?$char_traits@_W@std@@@std@@YAAEAV?$basic_ostream@_WU?$char_traits@_W@std@@@0@AEAV10@PEBD@Z ; std::operator<<<wchar_t,std::char_traits<wchar_t> >
	jmp	SHORT $LN56@ReadType
$LN54@ReadType:
	call	??$?6_WU?$char_traits@_W@std@@@std@@YAAEAV?$basic_ostream@_WU?$char_traits@_W@std@@@0@AEAV10@_W@Z ; std::operator<<<wchar_t,std::char_traits<wchar_t> >
$LN56@ReadType:
	add	rbx, 2
	cmp	WORD PTR [rbx], si
	jne	SHORT $LL57@ReadType

; 306  : 			else {

	jmp	$LN27@ReadType
$LN30@ReadType:

; 307  : 				hr = this->metaData->GetTypeRefProps(token, nullptr, zName, 1024, &length);

	mov	rcx, QWORD PTR [rdi+8]
	lea	rdx, QWORD PTR length$119679[rsp]
	lea	r9, QWORD PTR zName$119678[rsp]
	mov	rax, QWORD PTR [rcx]
	mov	QWORD PTR [rsp+40], rdx
	xor	r8d, r8d
	mov	edx, ebx
	mov	DWORD PTR [rsp+32], 1024		; 00000400H
	call	QWORD PTR [rax+112]

; 308  : 				hr = this->metaData->GetTypeDefProps(token, zName, 1024, &length, nullptr, nullptr);

	mov	rcx, QWORD PTR [rdi+8]
	lea	rdx, QWORD PTR length$119679[rsp]
	mov	rax, QWORD PTR [rcx]
	mov	QWORD PTR [rsp+48], rsi
	lea	r8, QWORD PTR zName$119678[rsp]
	mov	QWORD PTR [rsp+40], rsi
	mov	QWORD PTR [rsp+32], rdx
	mov	r9d, 1024				; 00000400H
	mov	edx, ebx
	call	QWORD PTR [rax+96]

; 309  : 				if (SUCCEEDED(hr) && length > 0)

	test	eax, eax
	js	SHORT $LN28@ReadType
	cmp	DWORD PTR length$119679[rsp], esi
	jbe	SHORT $LN28@ReadType

; 310  : 					AppendEscapedString(zName);

	lea	rbx, QWORD PTR zName$119678[rsp]
	cmp	WORD PTR zName$119678[rsp], si
	je	SHORT $LN27@ReadType
	npad	15
$LL64@ReadType:
	movzx	edx, WORD PTR [rbx]
	lea	rcx, QWORD PTR [rdi+4392]
	cmp	dx, 34					; 00000022H
	jne	SHORT $LN61@ReadType
	lea	rdx, OFFSET FLAT:??_C@_02JMMFPCED@?$CC?$CC?$AA@
	call	??$?6_WU?$char_traits@_W@std@@@std@@YAAEAV?$basic_ostream@_WU?$char_traits@_W@std@@@0@AEAV10@PEBD@Z ; std::operator<<<wchar_t,std::char_traits<wchar_t> >
	jmp	SHORT $LN63@ReadType
$LN61@ReadType:
	call	??$?6_WU?$char_traits@_W@std@@@std@@YAAEAV?$basic_ostream@_WU?$char_traits@_W@std@@@0@AEAV10@_W@Z ; std::operator<<<wchar_t,std::char_traits<wchar_t> >
$LN63@ReadType:
	add	rbx, 2
	cmp	WORD PTR [rbx], si
	jne	SHORT $LL64@ReadType

; 311  : 				else

	jmp	SHORT $LN27@ReadType
$LN28@ReadType:

; 312  : 					this->output << L"?";

	lea	rcx, QWORD PTR [rdi+4392]
	lea	rdx, OFFSET FLAT:??_C@_13HGPDMIBE@?$AA?$DP?$AA?$AA@
	call	??$?6_WU?$char_traits@_W@std@@@std@@YAAEAV?$basic_ostream@_WU?$char_traits@_W@std@@@0@AEAV10@PEB_W@Z ; std::operator<<<wchar_t,std::char_traits<wchar_t> >
$LN27@ReadType:

; 313  : 			}
; 314  : 			int tmp2;
; 315  : 			if (!this->ReadCompressedInt(&tmp2))

	lea	rdx, QWORD PTR tmp2$119688[rsp]
	mov	rcx, rdi
	call	?ReadCompressedInt@SignatureReader@@AEAA_NPEAH@Z ; SignatureReader::ReadCompressedInt
	test	al, al
	jne	$LN49@ReadType

; 329  : 		case ELEMENT_TYPE_PTR:
; 330  : 			if (!this->ReadByte(&type))

$LN143@ReadType:

; 316  : 				return false;

	xor	al, al
	jmp	$LN51@ReadType
$LN25@ReadType:

; 317  : 			break;
; 318  : 		case ELEMENT_TYPE_ARRAY:
; 319  : 		case ELEMENT_TYPE_SZARRAY:
; 320  : 			this->ReadArrayType(type);

	mov	rcx, rdi
	call	?ReadArrayType@SignatureReader@@AEAA_NE@Z ; SignatureReader::ReadArrayType

; 321  : 			break;

	jmp	$LN49@ReadType
$LN24@ReadType:

; 322  : 		case ELEMENT_TYPE_CMOD_OPT:
; 323  : 		case ELEMENT_TYPE_CMOD_REQD:
; 324  : 			this->output << L"cmod";

	lea	rdx, OFFSET FLAT:??_C@_19CAKNEAEL@?$AAc?$AAm?$AAo?$AAd?$AA?$AA@

; 325  : 			break;

	jmp	$LN192@ReadType
$LN23@ReadType:

; 326  : 		case ELEMENT_TYPE_FNPTR:
; 327  : 			this->output << L"fnptr";

	lea	rdx, OFFSET FLAT:??_C@_1M@HBLOHCOL@?$AAf?$AAn?$AAp?$AAt?$AAr?$AA?$AA@

; 328  : 			break;

	jmp	$LN192@ReadType
$LN22@ReadType:

; 329  : 		case ELEMENT_TYPE_PTR:
; 330  : 			if (!this->ReadByte(&type))

	mov	rax, QWORD PTR [rdi+24]
	cmp	rax, QWORD PTR [rdi+40]
	jae	SHORT $LN143@ReadType
	movzx	edx, BYTE PTR [rax]
	inc	rax
	mov	QWORD PTR [rdi+24], rax

; 331  : 				return false;
; 332  : 			while (type == ELEMENT_TYPE_CMOD_OPT || type == ELEMENT_TYPE_CMOD_REQD) {

	cmp	dl, 32					; 00000020H
	je	SHORT $LN18@ReadType
	cmp	dl, 31
	jne	SHORT $LN19@ReadType
$LN18@ReadType:

; 333  : 				int tmp2;
; 334  : 
; 335  : 				if (!this->ReadCompressedInt(&tmp2))

	lea	rdx, QWORD PTR tmp2$119701[rsp]
	mov	rcx, rdi
	call	?ReadCompressedInt@SignatureReader@@AEAA_NPEAH@Z ; SignatureReader::ReadCompressedInt
	test	al, al
	je	SHORT $LN143@ReadType

; 336  : 					return false;
; 337  : 
; 338  : 				if (!this->ReadByte(&type))
; 339  : 					return false;
; 340  : 			}

	jmp	SHORT $LN22@ReadType
$LN19@ReadType:

; 341  : 
; 342  : 			ReadType(type);

	mov	rcx, rdi
	call	?ReadType@SignatureReader@@AEAA_NE@Z	; SignatureReader::ReadType

; 343  : 			this->output << L"*";

	lea	rdx, OFFSET FLAT:??_C@_13BBDEGPLJ@?$AA?$CK?$AA?$AA@

; 344  : 			break;

	jmp	$LN192@ReadType
$LN15@ReadType:

; 345  : 		case ELEMENT_TYPE_GENERICINST:
; 346  : 			if (!this->ReadByte(&type))

	mov	rcx, QWORD PTR [rdi+24]
	cmp	rcx, QWORD PTR [rdi+40]
	jae	SHORT $LN143@ReadType
	inc	rcx

; 347  : 				return false;
; 348  : 			CorSigUncompressToken(this->data, &token);

	lea	rdx, QWORD PTR token$119677[rsp]
	mov	QWORD PTR [rdi+24], rcx
	call	?CorSigUncompressToken@@YAKPEBEPEAI@Z	; CorSigUncompressToken

; 349  : 			// don't ask me why this is necessary, but it doesn't work without either line of these.
; 350  : 			hr = this->metaData->GetTypeRefProps(token, nullptr, zName, 1024, &length);

	mov	rcx, QWORD PTR [rdi+8]
	mov	ebx, DWORD PTR token$119677[rsp]
	mov	rax, QWORD PTR [rcx]
	lea	rdx, QWORD PTR length$119679[rsp]
	mov	QWORD PTR [rsp+40], rdx
	lea	r9, QWORD PTR zName$119678[rsp]
	xor	r8d, r8d
	mov	edx, ebx
	mov	DWORD PTR [rsp+32], 1024		; 00000400H
	call	QWORD PTR [rax+112]

; 351  : 			hr = this->metaData->GetTypeDefProps(token, zName, 1024, &length, nullptr, nullptr);

	mov	rcx, QWORD PTR [rdi+8]
	lea	rdx, QWORD PTR length$119679[rsp]
	mov	rax, QWORD PTR [rcx]
	xor	esi, esi
	lea	r8, QWORD PTR zName$119678[rsp]
	mov	QWORD PTR [rsp+48], rsi
	mov	QWORD PTR [rsp+40], rsi
	mov	QWORD PTR [rsp+32], rdx
	mov	r9d, 1024				; 00000400H
	mov	edx, ebx
	call	QWORD PTR [rax+96]

; 352  : 			if (SUCCEEDED(hr) && length > 0)

	test	eax, eax
	js	SHORT $LN13@ReadType
	cmp	DWORD PTR length$119679[rsp], esi
	jbe	SHORT $LN13@ReadType

; 353  : 				AppendEscapedString(zName);

	lea	rbx, QWORD PTR zName$119678[rsp]
	cmp	WORD PTR zName$119678[rsp], si
	je	SHORT $LN12@ReadType
	npad	12
$LL156@ReadType:
	movzx	edx, WORD PTR [rbx]
	lea	rcx, QWORD PTR [rdi+4392]
	cmp	dx, 34					; 00000022H
	jne	SHORT $LN153@ReadType
	lea	rdx, OFFSET FLAT:??_C@_02JMMFPCED@?$CC?$CC?$AA@
	call	??$?6_WU?$char_traits@_W@std@@@std@@YAAEAV?$basic_ostream@_WU?$char_traits@_W@std@@@0@AEAV10@PEBD@Z ; std::operator<<<wchar_t,std::char_traits<wchar_t> >
	jmp	SHORT $LN155@ReadType
$LN153@ReadType:
	call	??$?6_WU?$char_traits@_W@std@@@std@@YAAEAV?$basic_ostream@_WU?$char_traits@_W@std@@@0@AEAV10@_W@Z ; std::operator<<<wchar_t,std::char_traits<wchar_t> >
$LN155@ReadType:
	add	rbx, 2
	cmp	WORD PTR [rbx], si
	jne	SHORT $LL156@ReadType

; 354  : 			else

	jmp	SHORT $LN12@ReadType
$LN13@ReadType:

; 355  : 				this->output << L"?";

	lea	rcx, QWORD PTR [rdi+4392]
	lea	rdx, OFFSET FLAT:??_C@_13HGPDMIBE@?$AA?$DP?$AA?$AA@
	call	??$?6_WU?$char_traits@_W@std@@@std@@YAAEAV?$basic_ostream@_WU?$char_traits@_W@std@@@0@AEAV10@PEB_W@Z ; std::operator<<<wchar_t,std::char_traits<wchar_t> >
$LN12@ReadType:

; 356  : 			if (!this->ReadCompressedInt(&tmp2))

	lea	rdx, QWORD PTR tmp2$119688[rsp]
	mov	rcx, rdi
	call	?ReadCompressedInt@SignatureReader@@AEAA_NPEAH@Z ; SignatureReader::ReadCompressedInt
	test	al, al

; 357  : 				return false;

	je	$LN143@ReadType

; 358  : 			this->output << L"<";

	lea	rax, QWORD PTR [rdi+4392]
	lea	rdx, OFFSET FLAT:??_C@_13GEEGGHPK@?$AA?$DM?$AA?$AA@
	mov	rcx, rax
	mov	QWORD PTR tv924[rsp], rax
	call	??$?6_WU?$char_traits@_W@std@@@std@@YAAEAV?$basic_ostream@_WU?$char_traits@_W@std@@@0@AEAV10@PEB_W@Z ; std::operator<<<wchar_t,std::char_traits<wchar_t> >

; 359  : 			int genArgCount;
; 360  : 			if (!this->ReadCompressedInt(&genArgCount))

	lea	rdx, QWORD PTR genArgCount$119712[rsp]
	mov	rcx, rdi
	call	?ReadCompressedInt@SignatureReader@@AEAA_NPEAH@Z ; SignatureReader::ReadCompressedInt
	test	al, al

; 361  : 				return false;

	je	$LN143@ReadType

; 362  : 			for (int i = 0; i < genArgCount; i++) {

	mov	ebp, DWORD PTR genArgCount$119712[rsp]
	test	ebp, ebp
	jle	SHORT $LN7@ReadType
	npad	6
$LL9@ReadType:

; 363  : 				if (!this->ReadByte(&type))

	mov	rax, QWORD PTR [rdi+24]
	cmp	rax, QWORD PTR [rdi+40]
	jae	$LN143@ReadType
	movzx	edx, BYTE PTR [rax]
	inc	rax

; 364  : 					return false;
; 365  : 				this->ReadType(type);

	mov	rcx, rdi
	mov	QWORD PTR [rdi+24], rax
	call	?ReadType@SignatureReader@@AEAA_NE@Z	; SignatureReader::ReadType

; 366  : 				if ((i + 1) < genArgCount)

	lea	ebx, DWORD PTR [rsi+1]
	cmp	ebx, ebp
	jge	SHORT $LN8@ReadType

; 367  : 					this->output << L",";

	lea	rax, QWORD PTR [rdi+4392]
	lea	rdx, OFFSET FLAT:??_C@_13DEFPDAGF@?$AA?0?$AA?$AA@
	mov	rcx, rax
	call	??$?6_WU?$char_traits@_W@std@@@std@@YAAEAV?$basic_ostream@_WU?$char_traits@_W@std@@@0@AEAV10@PEB_W@Z ; std::operator<<<wchar_t,std::char_traits<wchar_t> >
$LN8@ReadType:
	cmp	ebx, ebp
	mov	esi, ebx
	jl	SHORT $LL9@ReadType
$LN7@ReadType:

; 368  : 			}
; 369  : 			this->output << L">";

	mov	rcx, QWORD PTR tv924[rsp]
	lea	rdx, OFFSET FLAT:??_C@_13MOEPKPHB@?$AA?$DO?$AA?$AA@

; 370  : 			break;

	jmp	SHORT $LN194@ReadType
$LN4@ReadType:

; 371  : 		case ELEMENT_TYPE_MVAR: // print "!!number"
; 372  : 			this->output << L"!";

	lea	rcx, QWORD PTR [rdi+4392]
	lea	rdx, OFFSET FLAT:??_C@_13MGDFOILI@?$AA?$CB?$AA?$AA@
	call	??$?6_WU?$char_traits@_W@std@@@std@@YAAEAV?$basic_ostream@_WU?$char_traits@_W@std@@@0@AEAV10@PEB_W@Z ; std::operator<<<wchar_t,std::char_traits<wchar_t> >
$LN3@ReadType:

; 373  : 		case ELEMENT_TYPE_VAR: // print "!number"
; 374  : 			this->output << L"!"; 

	lea	rdx, OFFSET FLAT:??_C@_13MGDFOILI@?$AA?$CB?$AA?$AA@
	lea	rcx, QWORD PTR [rdi+4392]
	call	??$?6_WU?$char_traits@_W@std@@@std@@YAAEAV?$basic_ostream@_WU?$char_traits@_W@std@@@0@AEAV10@PEB_W@Z ; std::operator<<<wchar_t,std::char_traits<wchar_t> >

; 375  : 			int number;
; 376  : 			if (!this->ReadCompressedInt(&number))

	lea	rdx, QWORD PTR number$119725[rsp]
	mov	rcx, rdi
	call	?ReadCompressedInt@SignatureReader@@AEAA_NPEAH@Z ; SignatureReader::ReadCompressedInt
	test	al, al

; 377  : 				return false;

	je	$LN143@ReadType

; 378  : 			this->output << number;

	mov	edx, DWORD PTR number$119725[rsp]
	lea	rcx, QWORD PTR [rdi+4392]
	call	QWORD PTR __imp_??6?$basic_ostream@_WU?$char_traits@_W@std@@@std@@QEAAAEAV01@H@Z

; 379  : 			break;

	jmp	SHORT $LN49@ReadType
$LN1@ReadType:

; 380  : 		default:
; 381  : 			this->output << L"?";

	lea	rdx, OFFSET FLAT:??_C@_13HGPDMIBE@?$AA?$DP?$AA?$AA@
$LN192@ReadType:
	lea	rcx, QWORD PTR [rdi+4392]
$LN194@ReadType:
	call	??$?6_WU?$char_traits@_W@std@@@std@@YAAEAV?$basic_ostream@_WU?$char_traits@_W@std@@@0@AEAV10@PEB_W@Z ; std::operator<<<wchar_t,std::char_traits<wchar_t> >
$LN49@ReadType:

; 382  : 			break;
; 383  : 	}
; 384  : 
; 385  : 	return true;

	mov	al, 1
$LN51@ReadType:

; 386  : }

	mov	rbx, QWORD PTR [rsp+2144]
	add	rsp, 2112				; 00000840H
	pop	rdi
	pop	rsi
	pop	rbp
	ret	0
$LN185@ReadType:
	DD	$LN48@ReadType
	DD	$LN47@ReadType
	DD	$LN46@ReadType
	DD	$LN43@ReadType
	DD	$LN42@ReadType
	DD	$LN41@ReadType
	DD	$LN40@ReadType
	DD	$LN39@ReadType
	DD	$LN38@ReadType
	DD	$LN37@ReadType
	DD	$LN36@ReadType
	DD	$LN35@ReadType
	DD	$LN34@ReadType
	DD	$LN33@ReadType
	DD	$LN22@ReadType
	DD	$LN1@ReadType
	DD	$LN31@ReadType
	DD	$LN31@ReadType
	DD	$LN3@ReadType
	DD	$LN25@ReadType
	DD	$LN15@ReadType
	DD	$LN1@ReadType
	DD	$LN1@ReadType
	DD	$LN45@ReadType
	DD	$LN44@ReadType
	DD	$LN1@ReadType
	DD	$LN23@ReadType
	DD	$LN32@ReadType
	DD	$LN25@ReadType
	DD	$LN4@ReadType
	DD	$LN24@ReadType
	DD	$LN24@ReadType
?ReadType@SignatureReader@@AEAA_NE@Z ENDP		; SignatureReader::ReadType
_TEXT	ENDS
PUBLIC	?ReadMethodDefSig@SignatureReader@@AEAA_NE@Z	; SignatureReader::ReadMethodDefSig
;	COMDAT pdata
pdata	SEGMENT
$pdata$?ReadMethodDefSig@SignatureReader@@AEAA_NE@Z DD imagerel $LN153
	DD	imagerel $LN153+1170
	DD	imagerel $unwind$?ReadMethodDefSig@SignatureReader@@AEAA_NE@Z
pdata	ENDS
;	COMDAT pdata
pdata	SEGMENT
$pdata$?dtor$0@?0??ReadMethodDefSig@SignatureReader@@AEAA_NE@Z@4HA DD imagerel ?dtor$0@?0??ReadMethodDefSig@SignatureReader@@AEAA_NE@Z@4HA
	DD	imagerel ?dtor$0@?0??ReadMethodDefSig@SignatureReader@@AEAA_NE@Z@4HA+25
	DD	imagerel $unwind$?dtor$0@?0??ReadMethodDefSig@SignatureReader@@AEAA_NE@Z@4HA
pdata	ENDS
;	COMDAT xdata
xdata	SEGMENT
$ip2state$?ReadMethodDefSig@SignatureReader@@AEAA_NE@Z DD imagerel ?ReadMethodDefSig@SignatureReader@@AEAA_NE@Z
	DD	0ffffffffH
	DD	imagerel ?ReadMethodDefSig@SignatureReader@@AEAA_NE@Z+377
	DD	00H
	DD	imagerel ?ReadMethodDefSig@SignatureReader@@AEAA_NE@Z+1067
	DD	0ffffffffH
xdata	ENDS
;	COMDAT xdata
xdata	SEGMENT
$unwind$?dtor$0@?0??ReadMethodDefSig@SignatureReader@@AEAA_NE@Z@4HA DD 020601H
	DD	050023206H
xdata	ENDS
;	COMDAT xdata
xdata	SEGMENT
$unwind$?ReadMethodDefSig@SignatureReader@@AEAA_NE@Z DD 092011H
	DD	0560114H
	DD	0d00be00dH
	DD	07007c009H
	DD	050056006H
	DD	03004H
	DD	imagerel __CxxFrameHandler3
	DD	imagerel $cppxdata$?ReadMethodDefSig@SignatureReader@@AEAA_NE@Z
xdata	ENDS
;	COMDAT CONST
CONST	SEGMENT
$cppxdata$?ReadMethodDefSig@SignatureReader@@AEAA_NE@Z DD 019930522H
	DD	01H
	DD	imagerel $stateUnwindMap$?ReadMethodDefSig@SignatureReader@@AEAA_NE@Z
	DD	00H
	DD	00H
	DD	03H
	DD	imagerel $ip2state$?ReadMethodDefSig@SignatureReader@@AEAA_NE@Z
	DD	098H
	DD	00H
	DD	01H
CONST	ENDS
;	COMDAT xdata
xdata	SEGMENT
$stateUnwindMap$?ReadMethodDefSig@SignatureReader@@AEAA_NE@Z DD 0ffffffffH
	DD	imagerel ?dtor$0@?0??ReadMethodDefSig@SignatureReader@@AEAA_NE@Z@4HA
; Function compile flags: /Ogtpy
xdata	ENDS
;	COMDAT ?ReadMethodDefSig@SignatureReader@@AEAA_NE@Z
_TEXT	SEGMENT
pSequence$119610 = 96
pchName$119611 = 100
pcchValue$119612 = 104
pdwCPlusTypeFlag$119614 = 108
name$ = 112
$T171333 = 152
ppValue$119615 = 160
paramName$119609 = 176
this$ = 752
paramDef$119608 = 760
paramCount$ = 760
head$ = 760
pdwAttr$119613 = 768
tmp2$119603 = 776
?ReadMethodDefSig@SignatureReader@@AEAA_NE@Z PROC	; SignatureReader::ReadMethodDefSig, COMDAT

; 109  : {

$LN153:
	mov	rax, rsp
	push	rbx
	push	rbp
	push	rsi
	push	rdi
	push	r12
	push	r13
	push	r14
	sub	rsp, 688				; 000002b0H
	mov	QWORD PTR $T171333[rsp], -2
	mov	rbx, rcx

; 110  : 	// MethodDefSig ::= [[HASTHIS] [EXPLICITTHIS]] (DEFAULT|VARARG|GENERIC GenParamCount) ParamCount RetType Param*
; 111  : 
; 112  : 	int genericParamCount = 0;
; 113  : 	int paramCount = 0;

	xor	r13d, r13d
	mov	DWORD PTR [rax+16], r13d

; 114  : 
; 115  : 	if (head & SIG_GENERIC) {

	test	dl, 16
	je	SHORT $LN35@ReadMethod

; 116  : 		if (!this->ReadCompressedInt(&genericParamCount))

	lea	rdx, QWORD PTR [rax+24]
	call	?ReadCompressedInt@SignatureReader@@AEAA_NPEAH@Z ; SignatureReader::ReadCompressedInt
	test	al, al
	je	$LN37@ReadMethod
$LN35@ReadMethod:

; 117  : 			return false;
; 118  : 	}
; 119  : 
; 120  : 	if (!this->ReadCompressedInt(&paramCount))

	lea	rdx, QWORD PTR paramCount$[rsp]
	mov	rcx, rbx
	call	?ReadCompressedInt@SignatureReader@@AEAA_NPEAH@Z ; SignatureReader::ReadCompressedInt
	test	al, al
	je	$LN37@ReadMethod

; 121  : 		return false;
; 122  : 	
; 123  : 	// Read Return Type
; 124  : 	// RetType ::= CustomMod* ( VOID | TYPEDBYREF | [BYREF] Type )
; 125  : 
; 126  : 	byte type;
; 127  : 
; 128  : 	if (!this->ReadByte(&type))

	mov	rcx, QWORD PTR [rbx+24]
	mov	rdx, QWORD PTR [rbx+40]
	cmp	rcx, rdx
	jae	$LN40@ReadMethod
	movzx	r8d, BYTE PTR [rcx]
	inc	rcx
	mov	QWORD PTR [rbx+24], rcx
$LL32@ReadMethod:

; 130  : 	
; 131  : 	for (;;) {
; 132  : 		if (type != ELEMENT_TYPE_CMOD_OPT && type != ELEMENT_TYPE_CMOD_REQD)

	cmp	r8b, 32					; 00000020H
	je	SHORT $LN30@ReadMethod
	cmp	r8b, 31
	jne	SHORT $LN109@ReadMethod
$LN30@ReadMethod:

; 133  : 			break;
; 134  : 
; 135  : 		int tmp;
; 136  : 
; 137  : 		if (!this->ReadCompressedInt(&tmp)) return false;

	cmp	rcx, rdx
	jae	$LN110@ReadMethod
	movzx	eax, BYTE PTR [rcx]
	inc	rcx
	mov	QWORD PTR [rbx+24], rcx
	cmp	al, 255					; 000000ffH
	je	$LN110@ReadMethod
	test	al, al
	jns	SHORT $LN120@ReadMethod
	cmp	rcx, rdx
	jae	$LN110@ReadMethod
	inc	rcx
	mov	QWORD PTR [rbx+24], rcx
	test	al, 64					; 00000040H
	je	SHORT $LN120@ReadMethod
	test	al, 32					; 00000020H
	jne	$LN110@ReadMethod
	cmp	rcx, rdx
	jae	$LN110@ReadMethod
	lea	rax, QWORD PTR [rcx+1]
	mov	QWORD PTR [rbx+24], rax
	cmp	rax, rdx
	jae	$LN110@ReadMethod
	inc	rax
	mov	QWORD PTR [rbx+24], rax
$LN120@ReadMethod:

; 138  : 
; 139  : 		if (!this->ReadByte(&type)) return false;

	mov	rcx, QWORD PTR [rbx+24]
	cmp	rcx, rdx
	jae	$LN111@ReadMethod
	mov	r8b, BYTE PTR [rcx]
	inc	rcx
	mov	QWORD PTR [rbx+24], rcx

; 140  : 	}

	jmp	$LL32@ReadMethod
$LN109@ReadMethod:

; 141  : 
; 142  : 	switch (type) {

	movzx	r9d, r8b
	sub	r9d, 1
	je	SHORT $LN25@ReadMethod
	sub	r9d, 15
	je	SHORT $LN23@ReadMethod
	cmp	r9d, 6
	je	SHORT $LN26@ReadMethod
	jmp	SHORT $LN22@ReadMethod
$LN23@ReadMethod:

; 145  : 			break;
; 146  : 		case ELEMENT_TYPE_TYPEDBYREF:
; 147  : 			// ignore
; 148  : 			break;
; 149  : 		case ELEMENT_TYPE_BYREF:
; 150  : 			// ignore
; 151  : 			if (!this->ReadByte(&type))

	cmp	rcx, rdx
	jae	SHORT $LN68@ReadMethod
	mov	r8b, BYTE PTR [rcx]
	lea	rax, QWORD PTR [rcx+1]
	mov	QWORD PTR [rbx+24], rax
$LN22@ReadMethod:

; 153  : 		default:
; 154  : 			ReadType(type);

	movzx	edx, r8b
	mov	rcx, rbx
	call	?ReadType@SignatureReader@@AEAA_NE@Z	; SignatureReader::ReadType
	jmp	SHORT $LN26@ReadMethod

; 145  : 			break;
; 146  : 		case ELEMENT_TYPE_TYPEDBYREF:
; 147  : 			// ignore
; 148  : 			break;
; 149  : 		case ELEMENT_TYPE_BYREF:
; 150  : 			// ignore
; 151  : 			if (!this->ReadByte(&type))

$LN68@ReadMethod:

; 152  : 				return false;

	xor	al, al
	jmp	$LN37@ReadMethod
$LN25@ReadMethod:

; 143  : 		case ELEMENT_TYPE_VOID:
; 144  : 			this->output << L"void";

	lea	rcx, QWORD PTR [rbx+4392]
	lea	rdx, OFFSET FLAT:??_C@_19HFFGOOIH@?$AAv?$AAo?$AAi?$AAd?$AA?$AA@
	call	??$?6_WU?$char_traits@_W@std@@@std@@YAAEAV?$basic_ostream@_WU?$char_traits@_W@std@@@0@AEAV10@PEB_W@Z ; std::operator<<<wchar_t,std::char_traits<wchar_t> >
$LN26@ReadMethod:

; 155  : 	}
; 156  : 	
; 157  : 	// Append Name
; 158  : 	
; 159  : 	this->output << L" ";

	lea	rdx, OFFSET FLAT:??_C@_13HOIJIPNN@?$AA?5?$AA?$AA@
	lea	rcx, QWORD PTR [rbx+4392]
	call	??$?6_WU?$char_traits@_W@std@@@std@@YAAEAV?$basic_ostream@_WU?$char_traits@_W@std@@@0@AEAV10@PEB_W@Z ; std::operator<<<wchar_t,std::char_traits<wchar_t> >

; 160  : 	this->output << '"';

	mov	dl, 34					; 00000022H
	lea	rcx, QWORD PTR [rbx+4392]
	call	??$?6_WU?$char_traits@_W@std@@@std@@YAAEAV?$basic_ostream@_WU?$char_traits@_W@std@@@0@AEAV10@D@Z ; std::operator<<<wchar_t,std::char_traits<wchar_t> >

; 161  : 	std::wstring name = className.str();

	lea	rcx, QWORD PTR [rbx+56]
	lea	rdx, QWORD PTR name$[rsp]
	call	QWORD PTR __imp_?str@?$basic_ostringstream@_WU?$char_traits@_W@std@@V?$allocator@_W@2@@std@@QEBA?AV?$basic_string@_WU?$char_traits@_W@std@@V?$allocator@_W@2@@2@XZ
	npad	1

; 162  : 	AppendEscapedString(name);

	lea	rdi, QWORD PTR name$[rsp+8]
	cmp	QWORD PTR name$[rsp+32], 8
	cmovae	rdi, QWORD PTR name$[rsp+8]
	cmp	WORD PTR [rdi], 0
	je	SHORT $LN81@ReadMethod
$LL83@ReadMethod:
	movzx	edx, WORD PTR [rdi]
	cmp	dx, 34					; 00000022H
	jne	SHORT $LN80@ReadMethod
	lea	rdx, OFFSET FLAT:??_C@_02JMMFPCED@?$CC?$CC?$AA@
	lea	rcx, QWORD PTR [rbx+4392]
	call	??$?6_WU?$char_traits@_W@std@@@std@@YAAEAV?$basic_ostream@_WU?$char_traits@_W@std@@@0@AEAV10@PEBD@Z ; std::operator<<<wchar_t,std::char_traits<wchar_t> >
	jmp	SHORT $LN82@ReadMethod
$LN80@ReadMethod:
	lea	rcx, QWORD PTR [rbx+4392]
	call	??$?6_WU?$char_traits@_W@std@@@std@@YAAEAV?$basic_ostream@_WU?$char_traits@_W@std@@@0@AEAV10@_W@Z ; std::operator<<<wchar_t,std::char_traits<wchar_t> >
$LN82@ReadMethod:
	add	rdi, 2
	cmp	WORD PTR [rdi], 0
	jne	SHORT $LL83@ReadMethod
$LN81@ReadMethod:

; 163  : 	this->output << L".";

	lea	rdx, OFFSET FLAT:??_C@_13JOFGPIOO@?$AA?4?$AA?$AA@
	lea	rcx, QWORD PTR [rbx+4392]
	call	??$?6_WU?$char_traits@_W@std@@@std@@YAAEAV?$basic_ostream@_WU?$char_traits@_W@std@@@0@AEAV10@PEB_W@Z ; std::operator<<<wchar_t,std::char_traits<wchar_t> >

; 164  : 	AppendEscapedString(szFunction);

	lea	rdx, QWORD PTR [rbx+288]
	mov	rcx, rbx
	call	?AppendEscapedString@SignatureReader@@AEAAXPEB_W@Z ; SignatureReader::AppendEscapedString

; 165  : 	this->output << '"';

	mov	dl, 34					; 00000022H
	lea	rcx, QWORD PTR [rbx+4392]
	call	??$?6_WU?$char_traits@_W@std@@@std@@YAAEAV?$basic_ostream@_WU?$char_traits@_W@std@@@0@AEAV10@D@Z ; std::operator<<<wchar_t,std::char_traits<wchar_t> >

; 166  : 	this->output << L" ";

	lea	rdx, OFFSET FLAT:??_C@_13HOIJIPNN@?$AA?5?$AA?$AA@
	lea	rcx, QWORD PTR [rbx+4392]
	call	??$?6_WU?$char_traits@_W@std@@@std@@YAAEAV?$basic_ostream@_WU?$char_traits@_W@std@@@0@AEAV10@PEB_W@Z ; std::operator<<<wchar_t,std::char_traits<wchar_t> >

; 167  : 
; 168  : 	// Read Parameters
; 169  : 	// Param ::= CustomMod* ( TYPEDBYREF | [BYREF] Type )
; 170  : 
; 171  : 	for (int i = 0; i < paramCount; i++) {

	mov	r14d, DWORD PTR paramCount$[rsp]
	test	r14d, r14d
	jle	$LN18@ReadMethod
	npad	5
$LL20@ReadMethod:

; 172  : 		if (!this->ReadByte(&type))

	mov	rax, QWORD PTR [rbx+24]
	cmp	rax, QWORD PTR [rbx+40]
	jae	$LN114@ReadMethod
	movzx	edi, BYTE PTR [rax]
	inc	rax
	mov	QWORD PTR [rbx+24], rax
$LL16@ReadMethod:

; 174  : 		
; 175  : 		while (type == ELEMENT_TYPE_CMOD_OPT || type == ELEMENT_TYPE_CMOD_REQD) {

	cmp	dil, 32					; 00000020H
	je	SHORT $LN14@ReadMethod
	cmp	dil, 31
	jne	SHORT $LN15@ReadMethod
$LN14@ReadMethod:

; 176  : 			int tmp2;
; 177  : 
; 178  : 			if (!this->ReadCompressedInt(&tmp2))

	lea	rdx, QWORD PTR tmp2$119603[rsp]
	mov	rcx, rbx
	call	?ReadCompressedInt@SignatureReader@@AEAA_NPEAH@Z ; SignatureReader::ReadCompressedInt
	test	al, al
	je	$LN112@ReadMethod

; 180  : 
; 181  : 			if (!this->ReadByte(&type))

	mov	rax, QWORD PTR [rbx+24]
	cmp	rax, QWORD PTR [rbx+40]
	jae	$LN113@ReadMethod
	mov	dil, BYTE PTR [rax]
	inc	rax
	mov	QWORD PTR [rbx+24], rax

; 183  : 		}

	jmp	SHORT $LL16@ReadMethod
$LN15@ReadMethod:

; 184  : 		
; 185  : 		mdParamDef paramDef;
; 186  : 
; 187  : 		WCHAR paramName[256];
; 188  : 		ULONG pSequence, pchName, pcchValue;
; 189  : 		DWORD pdwAttr, pdwCPlusTypeFlag;
; 190  : 		UVCP_CONSTANT ppValue;
; 191  : 
; 192  : 		if (!FAILED(this->metaData->GetParamForMethodIndex(this->methodDefiniton, i + 1, &paramDef))) {

	mov	rcx, QWORD PTR [rbx+8]
	lea	r12d, DWORD PTR [r13+1]
	mov	rax, QWORD PTR [rcx]
	lea	r9, QWORD PTR paramDef$119608[rsp]
	mov	r8d, r12d
	mov	edx, DWORD PTR [rbx+16]
	call	QWORD PTR [rax+416]
	test	eax, eax
	js	$LN10@ReadMethod

; 193  : 			if (!FAILED(this->metaData->GetParamProps(paramDef, &this->methodDefiniton, &pSequence, paramName, 256, &pchName, &pdwAttr, &pdwCPlusTypeFlag, &ppValue, &pcchValue))) {

	mov	rcx, QWORD PTR [rbx+8]
	mov	rax, QWORD PTR [rcx]
	lea	rdx, QWORD PTR pcchValue$119612[rsp]
	mov	QWORD PTR [rsp+80], rdx
	lea	rdx, QWORD PTR ppValue$119615[rsp]
	mov	QWORD PTR [rsp+72], rdx
	lea	rdx, QWORD PTR pdwCPlusTypeFlag$119614[rsp]
	mov	QWORD PTR [rsp+64], rdx
	lea	rdx, QWORD PTR pdwAttr$119613[rsp]
	mov	QWORD PTR [rsp+56], rdx
	lea	rdx, QWORD PTR pchName$119611[rsp]
	mov	QWORD PTR [rsp+48], rdx
	mov	DWORD PTR [rsp+40], 256			; 00000100H
	lea	rdx, QWORD PTR paramName$119609[rsp]
	mov	QWORD PTR [rsp+32], rdx
	lea	r9, QWORD PTR pSequence$119610[rsp]
	lea	r8, QWORD PTR [rbx+16]
	mov	edx, DWORD PTR paramDef$119608[rsp]
	call	QWORD PTR [rax+472]
	test	eax, eax
	js	$LN10@ReadMethod

; 194  : 				this->output << '"';

	mov	dl, 34					; 00000022H
	lea	rcx, QWORD PTR [rbx+4392]
	call	??$?6_WU?$char_traits@_W@std@@@std@@YAAEAV?$basic_ostream@_WU?$char_traits@_W@std@@@0@AEAV10@D@Z ; std::operator<<<wchar_t,std::char_traits<wchar_t> >

; 195  : 				switch (type) {

	cmp	dil, 16
	je	SHORT $LN6@ReadMethod
	cmp	dil, 22
	jne	SHORT $LN2@ReadMethod

; 196  : 					case ELEMENT_TYPE_TYPEDBYREF:
; 197  : 						// ignore
; 198  : 						break;

	jmp	SHORT $LN8@ReadMethod
$LN6@ReadMethod:

; 199  : 					case ELEMENT_TYPE_BYREF:
; 200  : 						if (!this->ReadByte(&type))

	mov	rax, QWORD PTR [rbx+24]
	cmp	rax, QWORD PTR [rbx+40]
	jae	$LN115@ReadMethod
	mov	dil, BYTE PTR [rax]
	inc	rax
	mov	QWORD PTR [rbx+24], rax

; 202  : 						if ((pdwAttr & 0x2) !=  0) // if Bit 1 == 1 -> out

	test	BYTE PTR pdwAttr$119613[rsp], 2
	je	SHORT $LN4@ReadMethod

; 203  : 							this->output << L"out";

	lea	rdx, OFFSET FLAT:??_C@_17CMKEDJDI@?$AAo?$AAu?$AAt?$AA?$AA@
	lea	rcx, QWORD PTR [rbx+4392]
	call	??$?6_WU?$char_traits@_W@std@@@std@@YAAEAV?$basic_ostream@_WU?$char_traits@_W@std@@@0@AEAV10@PEB_W@Z ; std::operator<<<wchar_t,std::char_traits<wchar_t> >

; 204  : 						else

	jmp	SHORT $LN3@ReadMethod
$LN4@ReadMethod:

; 205  : 							this->output << L"ref";

	lea	rdx, OFFSET FLAT:??_C@_17DCNMIAEN@?$AAr?$AAe?$AAf?$AA?$AA@
	lea	rcx, QWORD PTR [rbx+4392]
	call	??$?6_WU?$char_traits@_W@std@@@std@@YAAEAV?$basic_ostream@_WU?$char_traits@_W@std@@@0@AEAV10@PEB_W@Z ; std::operator<<<wchar_t,std::char_traits<wchar_t> >
$LN3@ReadMethod:

; 206  : 						this->output << L" ";

	lea	rdx, OFFSET FLAT:??_C@_13HOIJIPNN@?$AA?5?$AA?$AA@
	lea	rcx, QWORD PTR [rbx+4392]
	call	??$?6_WU?$char_traits@_W@std@@@std@@YAAEAV?$basic_ostream@_WU?$char_traits@_W@std@@@0@AEAV10@PEB_W@Z ; std::operator<<<wchar_t,std::char_traits<wchar_t> >
$LN2@ReadMethod:

; 207  : 					default:
; 208  : 						ReadType(type);

	movzx	edx, dil
	mov	rcx, rbx
	call	?ReadType@SignatureReader@@AEAA_NE@Z	; SignatureReader::ReadType
$LN8@ReadMethod:

; 209  : 				}
; 210  : 				
; 211  : 				this->output << L" ";

	lea	rdx, OFFSET FLAT:??_C@_13HOIJIPNN@?$AA?5?$AA?$AA@
	lea	rcx, QWORD PTR [rbx+4392]
	call	??$?6_WU?$char_traits@_W@std@@@std@@YAAEAV?$basic_ostream@_WU?$char_traits@_W@std@@@0@AEAV10@PEB_W@Z ; std::operator<<<wchar_t,std::char_traits<wchar_t> >

; 212  : 				AppendEscapedString(paramName);

	lea	rdi, QWORD PTR paramName$119609[rsp]
	cmp	WORD PTR paramName$119609[rsp], 0
	je	SHORT $LN97@ReadMethod
	npad	6
$LL99@ReadMethod:
	movzx	edx, WORD PTR [rdi]
	cmp	dx, 34					; 00000022H
	jne	SHORT $LN96@ReadMethod
	lea	rdx, OFFSET FLAT:??_C@_02JMMFPCED@?$CC?$CC?$AA@
	lea	rcx, QWORD PTR [rbx+4392]
	call	??$?6_WU?$char_traits@_W@std@@@std@@YAAEAV?$basic_ostream@_WU?$char_traits@_W@std@@@0@AEAV10@PEBD@Z ; std::operator<<<wchar_t,std::char_traits<wchar_t> >
	jmp	SHORT $LN98@ReadMethod
$LN96@ReadMethod:
	lea	rcx, QWORD PTR [rbx+4392]
	call	??$?6_WU?$char_traits@_W@std@@@std@@YAAEAV?$basic_ostream@_WU?$char_traits@_W@std@@@0@AEAV10@_W@Z ; std::operator<<<wchar_t,std::char_traits<wchar_t> >
$LN98@ReadMethod:
	add	rdi, 2
	cmp	WORD PTR [rdi], 0
	jne	SHORT $LL99@ReadMethod
$LN97@ReadMethod:

; 213  : 				this->output << '"';

	mov	dl, 34					; 00000022H
	lea	rcx, QWORD PTR [rbx+4392]
	call	??$?6_WU?$char_traits@_W@std@@@std@@YAAEAV?$basic_ostream@_WU?$char_traits@_W@std@@@0@AEAV10@D@Z ; std::operator<<<wchar_t,std::char_traits<wchar_t> >
$LN10@ReadMethod:

; 214  : 			}
; 215  : 		}
; 216  : 
; 217  : 		if (i < paramCount - 1)

	lea	eax, DWORD PTR [r14-1]
	cmp	r13d, eax
	jge	SHORT $LN19@ReadMethod

; 218  : 			this->output << L" ";

	lea	rdx, OFFSET FLAT:??_C@_13HOIJIPNN@?$AA?5?$AA?$AA@
	lea	rcx, QWORD PTR [rbx+4392]
	call	??$?6_WU?$char_traits@_W@std@@@std@@YAAEAV?$basic_ostream@_WU?$char_traits@_W@std@@@0@AEAV10@PEB_W@Z ; std::operator<<<wchar_t,std::char_traits<wchar_t> >
$LN19@ReadMethod:

; 167  : 
; 168  : 	// Read Parameters
; 169  : 	// Param ::= CustomMod* ( TYPEDBYREF | [BYREF] Type )
; 170  : 
; 171  : 	for (int i = 0; i < paramCount; i++) {

	mov	r13d, r12d
	cmp	r12d, r14d
	jge	SHORT $LN18@ReadMethod

; 130  : 	
; 131  : 	for (;;) {
; 132  : 		if (type != ELEMENT_TYPE_CMOD_OPT && type != ELEMENT_TYPE_CMOD_REQD)

	jmp	$LL20@ReadMethod
$LN115@ReadMethod:

; 201  : 							return false;

	lea	rcx, QWORD PTR name$[rsp]
	call	QWORD PTR __imp_??1?$basic_string@_WU?$char_traits@_W@std@@V?$allocator@_W@2@@std@@QEAA@XZ
	xor	al, al
	jmp	SHORT $LN37@ReadMethod
$LN113@ReadMethod:

; 182  : 				return false;

	lea	rcx, QWORD PTR name$[rsp]
	call	QWORD PTR __imp_??1?$basic_string@_WU?$char_traits@_W@std@@V?$allocator@_W@2@@std@@QEAA@XZ
	xor	al, al
	jmp	SHORT $LN37@ReadMethod
$LN112@ReadMethod:

; 179  : 				return false;

	lea	rcx, QWORD PTR name$[rsp]
	call	QWORD PTR __imp_??1?$basic_string@_WU?$char_traits@_W@std@@V?$allocator@_W@2@@std@@QEAA@XZ
	xor	al, al
	jmp	SHORT $LN37@ReadMethod
$LN114@ReadMethod:

; 173  : 			return false;

	lea	rcx, QWORD PTR name$[rsp]
	call	QWORD PTR __imp_??1?$basic_string@_WU?$char_traits@_W@std@@V?$allocator@_W@2@@std@@QEAA@XZ
	xor	al, al
	jmp	SHORT $LN37@ReadMethod
$LN18@ReadMethod:

; 219  : 	}
; 220  : 
; 221  : 	return true;

	lea	rcx, QWORD PTR name$[rsp]
	call	QWORD PTR __imp_??1?$basic_string@_WU?$char_traits@_W@std@@V?$allocator@_W@2@@std@@QEAA@XZ
	mov	al, 1
	jmp	SHORT $LN37@ReadMethod
$LN111@ReadMethod:

; 138  : 
; 139  : 		if (!this->ReadByte(&type)) return false;

	xor	al, al
	jmp	SHORT $LN37@ReadMethod
$LN110@ReadMethod:

; 133  : 			break;
; 134  : 
; 135  : 		int tmp;
; 136  : 
; 137  : 		if (!this->ReadCompressedInt(&tmp)) return false;

	xor	al, al
	jmp	SHORT $LN37@ReadMethod

; 121  : 		return false;
; 122  : 	
; 123  : 	// Read Return Type
; 124  : 	// RetType ::= CustomMod* ( VOID | TYPEDBYREF | [BYREF] Type )
; 125  : 
; 126  : 	byte type;
; 127  : 
; 128  : 	if (!this->ReadByte(&type))

$LN40@ReadMethod:

; 129  : 		return false;

	xor	al, al
$LN37@ReadMethod:

; 222  : }

	add	rsp, 688				; 000002b0H
	pop	r14
	pop	r13
	pop	r12
	pop	rdi
	pop	rsi
	pop	rbp
	pop	rbx
	ret	0
?ReadMethodDefSig@SignatureReader@@AEAA_NE@Z ENDP	; SignatureReader::ReadMethodDefSig
; Function compile flags: /Ogtpy
_TEXT	ENDS
;	COMDAT text$x
text$x	SEGMENT
pSequence$119610 = 96
pchName$119611 = 100
pcchValue$119612 = 104
pdwCPlusTypeFlag$119614 = 108
name$ = 112
$T171333 = 152
ppValue$119615 = 160
paramName$119609 = 176
this$ = 752
paramDef$119608 = 760
paramCount$ = 760
head$ = 760
pdwAttr$119613 = 768
tmp2$119603 = 776
?dtor$0@?0??ReadMethodDefSig@SignatureReader@@AEAA_NE@Z@4HA PROC ; `SignatureReader::ReadMethodDefSig'::`1'::dtor$0
	push	rbp
	sub	rsp, 32					; 00000020H
	mov	rbp, rdx
	lea	rcx, QWORD PTR name$[rbp]
	call	QWORD PTR __imp_??1?$basic_string@_WU?$char_traits@_W@std@@V?$allocator@_W@2@@std@@QEAA@XZ
	add	rsp, 32					; 00000020H
	pop	rbp
	ret	0
?dtor$0@?0??ReadMethodDefSig@SignatureReader@@AEAA_NE@Z@4HA ENDP ; `SignatureReader::ReadMethodDefSig'::`1'::dtor$0
text$x	ENDS
PUBLIC	?Parse@SignatureReader@@AEAA_NXZ		; SignatureReader::Parse
; Function compile flags: /Ogtpy
;	COMDAT ?Parse@SignatureReader@@AEAA_NXZ
_TEXT	SEGMENT
this$ = 8
?Parse@SignatureReader@@AEAA_NXZ PROC			; SignatureReader::Parse, COMDAT

; 88   : 	byte elementType;
; 89   : 	
; 90   : 	if (!this->ReadByte(&elementType))

	mov	rax, QWORD PTR [rcx+24]
	cmp	rax, QWORD PTR [rcx+40]
	jae	SHORT $LN7@Parse
	movzx	edx, BYTE PTR [rax]
	inc	rax
	mov	QWORD PTR [rcx+24], rax

; 92   : 
; 93   : 	switch (elementType & 0xF)

	mov	eax, edx
	and	eax, 15
	cmp	eax, 5
	ja	SHORT $LN2@Parse

; 106  : }

	jmp	?ReadMethodDefSig@SignatureReader@@AEAA_NE@Z ; SignatureReader::ReadMethodDefSig
$LN2@Parse:

; 94   : 	{
; 95   : 		case SIG_METHOD_DEFAULT:  // default calling convention
; 96   : 		case SIG_METHOD_C:        // C calling convention
; 97   : 		case SIG_METHOD_STDCALL:  // Stdcall calling convention
; 98   : 		case SIG_METHOD_THISCALL: // thiscall  calling convention
; 99   : 		case SIG_METHOD_FASTCALL: // fastcall calling convention
; 100  : 		case SIG_METHOD_VARARG:   // vararg calling convention
; 101  : 			return ReadMethodDefSig(elementType);
; 102  : 			break;
; 103  : 	}
; 104  : 
; 105  : 	return true;

	mov	al, 1

; 106  : }

	ret	0

; 88   : 	byte elementType;
; 89   : 	
; 90   : 	if (!this->ReadByte(&elementType))

$LN7@Parse:

; 91   : 		return false;

	xor	al, al

; 106  : }

	ret	0
?Parse@SignatureReader@@AEAA_NXZ ENDP			; SignatureReader::Parse
_TEXT	ENDS
PUBLIC	?Parse@SignatureReader@@QEAA?AV?$basic_string@_WU?$char_traits@_W@std@@V?$allocator@_W@2@@std@@_K@Z ; SignatureReader::Parse
;	COMDAT pdata
; File c:\program files\microsoft visual studio 9.0\vc\include\xutility
pdata	SEGMENT
$pdata$?Parse@SignatureReader@@QEAA?AV?$basic_string@_WU?$char_traits@_W@std@@V?$allocator@_W@2@@std@@_K@Z DD imagerel $LN200
	DD	imagerel $LN200+1339
	DD	imagerel $unwind$?Parse@SignatureReader@@QEAA?AV?$basic_string@_WU?$char_traits@_W@std@@V?$allocator@_W@2@@std@@_K@Z
pdata	ENDS
;	COMDAT pdata
pdata	SEGMENT
$pdata$?dtor$0@?0??Parse@SignatureReader@@QEAA?AV?$basic_string@_WU?$char_traits@_W@std@@V?$allocator@_W@2@@std@@_K@Z@4HA DD imagerel ?dtor$0@?0??Parse@SignatureReader@@QEAA?AV?$basic_string@_WU?$char_traits@_W@std@@V?$allocator@_W@2@@std@@_K@Z@4HA
	DD	imagerel ?dtor$0@?0??Parse@SignatureReader@@QEAA?AV?$basic_string@_WU?$char_traits@_W@std@@V?$allocator@_W@2@@std@@_K@Z@4HA+28
	DD	imagerel $unwind$?dtor$0@?0??Parse@SignatureReader@@QEAA?AV?$basic_string@_WU?$char_traits@_W@std@@V?$allocator@_W@2@@std@@_K@Z@4HA
pdata	ENDS
;	COMDAT pdata
pdata	SEGMENT
$pdata$?dtor$1@?0??Parse@SignatureReader@@QEAA?AV?$basic_string@_WU?$char_traits@_W@std@@V?$allocator@_W@2@@std@@_K@Z@4HA DD imagerel ?dtor$1@?0??Parse@SignatureReader@@QEAA?AV?$basic_string@_WU?$char_traits@_W@std@@V?$allocator@_W@2@@std@@_K@Z@4HA
	DD	imagerel ?dtor$1@?0??Parse@SignatureReader@@QEAA?AV?$basic_string@_WU?$char_traits@_W@std@@V?$allocator@_W@2@@std@@_K@Z@4HA+28
	DD	imagerel $unwind$?dtor$1@?0??Parse@SignatureReader@@QEAA?AV?$basic_string@_WU?$char_traits@_W@std@@V?$allocator@_W@2@@std@@_K@Z@4HA
pdata	ENDS
;	COMDAT pdata
pdata	SEGMENT
$pdata$?dtor$2@?0??Parse@SignatureReader@@QEAA?AV?$basic_string@_WU?$char_traits@_W@std@@V?$allocator@_W@2@@std@@_K@Z@4HA DD imagerel ?dtor$2@?0??Parse@SignatureReader@@QEAA?AV?$basic_string@_WU?$char_traits@_W@std@@V?$allocator@_W@2@@std@@_K@Z@4HA
	DD	imagerel ?dtor$2@?0??Parse@SignatureReader@@QEAA?AV?$basic_string@_WU?$char_traits@_W@std@@V?$allocator@_W@2@@std@@_K@Z@4HA+24
	DD	imagerel $unwind$?dtor$2@?0??Parse@SignatureReader@@QEAA?AV?$basic_string@_WU?$char_traits@_W@std@@V?$allocator@_W@2@@std@@_K@Z@4HA
pdata	ENDS
;	COMDAT pdata
pdata	SEGMENT
$pdata$?dtor$3@?0??Parse@SignatureReader@@QEAA?AV?$basic_string@_WU?$char_traits@_W@std@@V?$allocator@_W@2@@std@@_K@Z@4HA DD imagerel ?dtor$3@?0??Parse@SignatureReader@@QEAA?AV?$basic_string@_WU?$char_traits@_W@std@@V?$allocator@_W@2@@std@@_K@Z@4HA
	DD	imagerel ?dtor$3@?0??Parse@SignatureReader@@QEAA?AV?$basic_string@_WU?$char_traits@_W@std@@V?$allocator@_W@2@@std@@_K@Z@4HA+28
	DD	imagerel $unwind$?dtor$3@?0??Parse@SignatureReader@@QEAA?AV?$basic_string@_WU?$char_traits@_W@std@@V?$allocator@_W@2@@std@@_K@Z@4HA
pdata	ENDS
;	COMDAT pdata
pdata	SEGMENT
$pdata$?dtor$10@?0??Parse@SignatureReader@@QEAA?AV?$basic_string@_WU?$char_traits@_W@std@@V?$allocator@_W@2@@std@@_K@Z@4HA DD imagerel ?dtor$10@?0??Parse@SignatureReader@@QEAA?AV?$basic_string@_WU?$char_traits@_W@std@@V?$allocator@_W@2@@std@@_K@Z@4HA
	DD	imagerel ?dtor$10@?0??Parse@SignatureReader@@QEAA?AV?$basic_string@_WU?$char_traits@_W@std@@V?$allocator@_W@2@@std@@_K@Z@4HA+34
	DD	imagerel $unwind$?dtor$10@?0??Parse@SignatureReader@@QEAA?AV?$basic_string@_WU?$char_traits@_W@std@@V?$allocator@_W@2@@std@@_K@Z@4HA
pdata	ENDS
;	COMDAT pdata
pdata	SEGMENT
$pdata$?dtor$12@?0??Parse@SignatureReader@@QEAA?AV?$basic_string@_WU?$char_traits@_W@std@@V?$allocator@_W@2@@std@@_K@Z@4HA DD imagerel ?dtor$12@?0??Parse@SignatureReader@@QEAA?AV?$basic_string@_WU?$char_traits@_W@std@@V?$allocator@_W@2@@std@@_K@Z@4HA
	DD	imagerel ?dtor$12@?0??Parse@SignatureReader@@QEAA?AV?$basic_string@_WU?$char_traits@_W@std@@V?$allocator@_W@2@@std@@_K@Z@4HA+24
	DD	imagerel $unwind$?dtor$12@?0??Parse@SignatureReader@@QEAA?AV?$basic_string@_WU?$char_traits@_W@std@@V?$allocator@_W@2@@std@@_K@Z@4HA
pdata	ENDS
;	COMDAT xdata
xdata	SEGMENT
$ip2state$?Parse@SignatureReader@@QEAA?AV?$basic_string@_WU?$char_traits@_W@std@@V?$allocator@_W@2@@std@@_K@Z DD imagerel ?Parse@SignatureReader@@QEAA?AV?$basic_string@_WU?$char_traits@_W@std@@V?$allocator@_W@2@@std@@_K@Z
	DD	0ffffffffH
	DD	imagerel ?Parse@SignatureReader@@QEAA?AV?$basic_string@_WU?$char_traits@_W@std@@V?$allocator@_W@2@@std@@_K@Z+84
	DD	00H
	DD	imagerel ?Parse@SignatureReader@@QEAA?AV?$basic_string@_WU?$char_traits@_W@std@@V?$allocator@_W@2@@std@@_K@Z+118
	DD	0ffffffffH
	DD	imagerel ?Parse@SignatureReader@@QEAA?AV?$basic_string@_WU?$char_traits@_W@std@@V?$allocator@_W@2@@std@@_K@Z+154
	DD	01H
	DD	imagerel ?Parse@SignatureReader@@QEAA?AV?$basic_string@_WU?$char_traits@_W@std@@V?$allocator@_W@2@@std@@_K@Z+174
	DD	0ffffffffH
	DD	imagerel ?Parse@SignatureReader@@QEAA?AV?$basic_string@_WU?$char_traits@_W@std@@V?$allocator@_W@2@@std@@_K@Z+398
	DD	02H
	DD	imagerel ?Parse@SignatureReader@@QEAA?AV?$basic_string@_WU?$char_traits@_W@std@@V?$allocator@_W@2@@std@@_K@Z+505
	DD	03H
	DD	imagerel ?Parse@SignatureReader@@QEAA?AV?$basic_string@_WU?$char_traits@_W@std@@V?$allocator@_W@2@@std@@_K@Z+644
	DD	04H
	DD	imagerel ?Parse@SignatureReader@@QEAA?AV?$basic_string@_WU?$char_traits@_W@std@@V?$allocator@_W@2@@std@@_K@Z+659
	DD	03H
	DD	imagerel ?Parse@SignatureReader@@QEAA?AV?$basic_string@_WU?$char_traits@_W@std@@V?$allocator@_W@2@@std@@_K@Z+667
	DD	02H
	DD	imagerel ?Parse@SignatureReader@@QEAA?AV?$basic_string@_WU?$char_traits@_W@std@@V?$allocator@_W@2@@std@@_K@Z+1079
	DD	05H
	DD	imagerel ?Parse@SignatureReader@@QEAA?AV?$basic_string@_WU?$char_traits@_W@std@@V?$allocator@_W@2@@std@@_K@Z+1268
	DD	0ffffffffH
xdata	ENDS
;	COMDAT xdata
xdata	SEGMENT
$unwind$?dtor$12@?0??Parse@SignatureReader@@QEAA?AV?$basic_string@_WU?$char_traits@_W@std@@V?$allocator@_W@2@@std@@_K@Z@4HA DD 020601H
	DD	050023206H
xdata	ENDS
;	COMDAT xdata
xdata	SEGMENT
$unwind$?dtor$10@?0??Parse@SignatureReader@@QEAA?AV?$basic_string@_WU?$char_traits@_W@std@@V?$allocator@_W@2@@std@@_K@Z@4HA DD 020601H
	DD	050023206H
xdata	ENDS
;	COMDAT xdata
xdata	SEGMENT
$unwind$?dtor$3@?0??Parse@SignatureReader@@QEAA?AV?$basic_string@_WU?$char_traits@_W@std@@V?$allocator@_W@2@@std@@_K@Z@4HA DD 020601H
	DD	050023206H
xdata	ENDS
;	COMDAT xdata
xdata	SEGMENT
$unwind$?dtor$2@?0??Parse@SignatureReader@@QEAA?AV?$basic_string@_WU?$char_traits@_W@std@@V?$allocator@_W@2@@std@@_K@Z@4HA DD 020601H
	DD	050023206H
xdata	ENDS
;	COMDAT xdata
xdata	SEGMENT
$unwind$?dtor$1@?0??Parse@SignatureReader@@QEAA?AV?$basic_string@_WU?$char_traits@_W@std@@V?$allocator@_W@2@@std@@_K@Z@4HA DD 020601H
	DD	050023206H
xdata	ENDS
;	COMDAT xdata
xdata	SEGMENT
$unwind$?dtor$0@?0??Parse@SignatureReader@@QEAA?AV?$basic_string@_WU?$char_traits@_W@std@@V?$allocator@_W@2@@std@@_K@Z@4HA DD 020601H
	DD	050023206H
xdata	ENDS
;	COMDAT xdata
xdata	SEGMENT
$unwind$?Parse@SignatureReader@@QEAA?AV?$basic_string@_WU?$char_traits@_W@std@@V?$allocator@_W@2@@std@@_K@Z DD 0b2511H
	DD	02b3425H
	DD	0220115H
	DD	0e00cf00eH
	DD	0c008d00aH
	DD	060057006H
	DD	05004H
	DD	imagerel __CxxFrameHandler3
	DD	imagerel $cppxdata$?Parse@SignatureReader@@QEAA?AV?$basic_string@_WU?$char_traits@_W@std@@V?$allocator@_W@2@@std@@_K@Z
xdata	ENDS
;	COMDAT CONST
CONST	SEGMENT
$cppxdata$?Parse@SignatureReader@@QEAA?AV?$basic_string@_WU?$char_traits@_W@std@@V?$allocator@_W@2@@std@@_K@Z DD 019930522H
	DD	06H
	DD	imagerel $stateUnwindMap$?Parse@SignatureReader@@QEAA?AV?$basic_string@_WU?$char_traits@_W@std@@V?$allocator@_W@2@@std@@_K@Z
	DD	00H
	DD	00H
	DD	0cH
	DD	imagerel $ip2state$?Parse@SignatureReader@@QEAA?AV?$basic_string@_WU?$char_traits@_W@std@@V?$allocator@_W@2@@std@@_K@Z
	DD	0108H
	DD	00H
	DD	01H
CONST	ENDS
;	COMDAT xdata
xdata	SEGMENT
$stateUnwindMap$?Parse@SignatureReader@@QEAA?AV?$basic_string@_WU?$char_traits@_W@std@@V?$allocator@_W@2@@std@@_K@Z DD 0ffffffffH
	DD	imagerel ?dtor$0@?0??Parse@SignatureReader@@QEAA?AV?$basic_string@_WU?$char_traits@_W@std@@V?$allocator@_W@2@@std@@_K@Z@4HA
	DD	0ffffffffH
	DD	imagerel ?dtor$1@?0??Parse@SignatureReader@@QEAA?AV?$basic_string@_WU?$char_traits@_W@std@@V?$allocator@_W@2@@std@@_K@Z@4HA
	DD	0ffffffffH
	DD	imagerel ?dtor$2@?0??Parse@SignatureReader@@QEAA?AV?$basic_string@_WU?$char_traits@_W@std@@V?$allocator@_W@2@@std@@_K@Z@4HA
	DD	02H
	DD	imagerel ?dtor$3@?0??Parse@SignatureReader@@QEAA?AV?$basic_string@_WU?$char_traits@_W@std@@V?$allocator@_W@2@@std@@_K@Z@4HA
	DD	03H
	DD	imagerel ?dtor$10@?0??Parse@SignatureReader@@QEAA?AV?$basic_string@_WU?$char_traits@_W@std@@V?$allocator@_W@2@@std@@_K@Z@4HA
	DD	0ffffffffH
	DD	imagerel ?dtor$12@?0??Parse@SignatureReader@@QEAA?AV?$basic_string@_WU?$char_traits@_W@std@@V?$allocator@_W@2@@std@@_K@Z@4HA
; Function compile flags: /Ogtpy
; File c:\local\sharpdevelop_3.2.0.5777_source\src\addins\misc\profiler\hook\profilermetadata.cpp
xdata	ENDS
;	COMDAT ?Parse@SignatureReader@@QEAA?AV?$basic_string@_WU?$char_traits@_W@std@@V?$allocator@_W@2@@std@@_K@Z
_TEXT	SEGMENT
funcToken$ = 96
sigLength$ = 100
classStack$119500 = 112
cchClass$119060 = 176
signature$ = 184
tv889 = 192
cchFunction$119059 = 200
$T171368 = 208
$T171367 = 208
$T171366 = 208
$T171768 = 248
_Vptr$171774 = 256
$T172132 = 264
$T171381 = 336
classTypeDef$119058 = 336
this$ = 336
__$ReturnUdt$ = 344
functionID$ = 352
classFlags$119063 = 360
?Parse@SignatureReader@@QEAA?AV?$basic_string@_WU?$char_traits@_W@std@@V?$allocator@_W@2@@std@@_K@Z PROC ; SignatureReader::Parse, COMDAT

; 20   : {

$LN200:
	mov	rax, rsp
	push	rbp
	push	rsi
	push	rdi
	push	r12
	push	r13
	push	r14
	push	r15
	sub	rsp, 272				; 00000110H
	mov	QWORD PTR $T172132[rsp], -2
	mov	QWORD PTR [rax+16], rbx
	mov	rbx, r8
	mov	r15, rdx
	mov	r12, rcx
	xor	esi, esi
	mov	DWORD PTR $T171381[rsp], esi

; 21   : 	mdToken funcToken;
; 22   : 
; 23   : 	HRESULT hr = S_OK;
; 24   : 	PCCOR_SIGNATURE signature = 0;

	mov	QWORD PTR [rax-144], rsi

; 25   : 	ULONG sigLength = 0;

	mov	DWORD PTR sigLength$[rsp], esi

; 26   : 
; 27   : 	this->output.str(L"");

	lea	rdx, OFFSET FLAT:??_C@_11LOCGONAA@?$AA?$AA@
	lea	rcx, QWORD PTR [rax-120]
	call	QWORD PTR __imp_??0?$basic_string@_WU?$char_traits@_W@std@@V?$allocator@_W@2@@std@@QEAA@PEB_W@Z
	npad	1
	lea	rdi, QWORD PTR [r12+4392]
	mov	QWORD PTR tv889[rsp], rdi
	lea	rdx, QWORD PTR $T171366[rsp]
	mov	rcx, rdi
	call	QWORD PTR __imp_?str@?$basic_ostringstream@_WU?$char_traits@_W@std@@V?$allocator@_W@2@@std@@QEAAXAEBV?$basic_string@_WU?$char_traits@_W@std@@V?$allocator@_W@2@@2@@Z
	npad	1
	lea	rcx, QWORD PTR $T171366[rsp]
	call	QWORD PTR __imp_??1?$basic_string@_WU?$char_traits@_W@std@@V?$allocator@_W@2@@std@@QEAA@XZ

; 28   : 	this->className.str(L"");

	lea	rdx, OFFSET FLAT:??_C@_11LOCGONAA@?$AA?$AA@
	lea	rcx, QWORD PTR $T171367[rsp]
	call	QWORD PTR __imp_??0?$basic_string@_WU?$char_traits@_W@std@@V?$allocator@_W@2@@std@@QEAA@PEB_W@Z
	npad	1
	lea	rdx, QWORD PTR $T171367[rsp]
	lea	rcx, QWORD PTR [r12+56]
	call	QWORD PTR __imp_?str@?$basic_ostringstream@_WU?$char_traits@_W@std@@V?$allocator@_W@2@@std@@QEAAXAEBV?$basic_string@_WU?$char_traits@_W@std@@V?$allocator@_W@2@@2@@Z
	npad	1
	lea	rcx, QWORD PTR $T171367[rsp]
	call	QWORD PTR __imp_??1?$basic_string@_WU?$char_traits@_W@std@@V?$allocator@_W@2@@std@@QEAA@XZ

; 29   : 
; 30   : 	// get the token for the function which we will use to get its name
; 31   : 	hr = profilerInfo->GetTokenAndMetaDataFromFunction(functionID, IID_IMetaDataImport, (LPUNKNOWN *) &metaData, &funcToken);

	mov	rcx, QWORD PTR [r12]
	mov	rax, QWORD PTR [rcx]
	lea	rdx, QWORD PTR funcToken$[rsp]
	mov	QWORD PTR [rsp+32], rdx
	lea	r9, QWORD PTR [r12+8]
	lea	r8, OFFSET FLAT:IID_IMetaDataImport
	mov	rdx, rbx
	call	QWORD PTR [rax+152]

; 32   : 	if(SUCCEEDED(hr))

	test	eax, eax
	js	$LN11@Parse@2

; 33   : 	{
; 34   : 		mdTypeDef classTypeDef;
; 35   : 		ULONG cchFunction;
; 36   : 		ULONG cchClass;
; 37   : 
; 38   : 		// retrieve the function properties based on the token
; 39   : 		hr = metaData->GetMethodProps(funcToken, &classTypeDef, szFunction, NAME_BUFFER_SIZE, &cchFunction, 0, &signature, &sigLength, 0, 0);

	mov	rcx, QWORD PTR [r12+8]
	mov	rax, QWORD PTR [rcx]
	lea	r9, QWORD PTR [r12+288]
	mov	QWORD PTR [rsp+80], rsi
	mov	QWORD PTR [rsp+72], rsi
	lea	rdx, QWORD PTR sigLength$[rsp]
	mov	QWORD PTR [rsp+64], rdx
	lea	rdx, QWORD PTR signature$[rsp]
	mov	QWORD PTR [rsp+56], rdx
	mov	QWORD PTR [rsp+48], rsi
	lea	rdx, QWORD PTR cchFunction$119059[rsp]
	mov	QWORD PTR [rsp+40], rdx
	mov	DWORD PTR [rsp+32], 1024		; 00000400H
	lea	r8, QWORD PTR classTypeDef$119058[rsp]
	mov	edx, DWORD PTR funcToken$[rsp]
	call	QWORD PTR [rax+240]

; 40   : 		if (SUCCEEDED(hr))

	test	eax, eax
	js	$LN172@Parse@2

; 41   : 		{
; 42   : 			DWORD classFlags;
; 43   : 			std::stack<std::wstring> classStack;

	lea	ecx, QWORD PTR [rsi+8]
	call	??2@YAPEAX_K@Z				; operator new
	test	rax, rax
	je	SHORT $LN40@Parse@2
	lea	rcx, QWORD PTR classStack$119500[rsp]
	mov	QWORD PTR [rax], rcx
	jmp	SHORT $LN41@Parse@2
$LN40@Parse@2:
	mov	rax, rsi
$LN41@Parse@2:
	mov	QWORD PTR classStack$119500[rsp], rax
	mov	QWORD PTR classStack$119500[rsp+32], rsi
	mov	QWORD PTR classStack$119500[rsp+40], rsi
	mov	QWORD PTR classStack$119500[rsp+48], rsi
	mov	QWORD PTR classStack$119500[rsp+56], rsi

; 44   : 			for (;;)
; 45   : 			{
; 46   : 				// get the class name
; 47   : 				hr = metaData->GetTypeDefProps(classTypeDef, szClass, NAME_BUFFER_SIZE, &cchClass, &classFlags, 0);

	mov	rcx, QWORD PTR [r12+8]
	mov	rax, QWORD PTR [rcx]
	mov	QWORD PTR [rsp+48], rsi
	lea	rdx, QWORD PTR classFlags$119063[rsp]
	mov	QWORD PTR [rsp+40], rdx
	lea	rdx, QWORD PTR cchClass$119060[rsp]
	mov	QWORD PTR [rsp+32], rdx
	mov	r9d, 1024				; 00000400H
	lea	r8, QWORD PTR [r12+2336]
	mov	edx, DWORD PTR classTypeDef$119058[rsp]
	call	QWORD PTR [rax+96]
	mov	edi, eax

; 48   : 				if (!SUCCEEDED(hr))

	test	eax, eax
	js	$LN180@Parse@2
	npad	9
$LL9@Parse@2:

; 49   : 					break;
; 50   : 
; 51   : 				classStack.push(std::wstring(szClass));

	lea	rdx, QWORD PTR [r12+2336]
	lea	rcx, QWORD PTR $T171368[rsp]
	call	QWORD PTR __imp_??0?$basic_string@_WU?$char_traits@_W@std@@V?$allocator@_W@2@@std@@QEAA@PEB_W@Z
	mov	rsi, rax
	mov	rcx, QWORD PTR classStack$119500[rsp+56]
	inc	rcx
	mov	rdx, QWORD PTR classStack$119500[rsp+40]
	cmp	rdx, rcx
	ja	SHORT $LN73@Parse@2
	mov	edx, 1
	lea	rcx, QWORD PTR classStack$119500[rsp]
	call	?_Growmap@?$deque@V?$basic_string@_WU?$char_traits@_W@std@@V?$allocator@_W@2@@std@@V?$allocator@V?$basic_string@_WU?$char_traits@_W@std@@V?$allocator@_W@2@@std@@@2@@std@@IEAAX_K@Z ; std::deque<std::basic_string<wchar_t,std::char_traits<wchar_t>,std::allocator<wchar_t> >,std::allocator<std::basic_string<wchar_t,std::char_traits<wchar_t>,std::allocator<wchar_t> > > >::_Growmap
	mov	rdx, QWORD PTR classStack$119500[rsp+40]
$LN73@Parse@2:
	mov	rcx, QWORD PTR classStack$119500[rsp+48]
	mov	rbx, QWORD PTR classStack$119500[rsp+56]
	add	rbx, rcx
	cmp	rdx, rbx
	ja	SHORT $LN72@Parse@2
	sub	rbx, rdx
$LN72@Parse@2:
	mov	rcx, QWORD PTR classStack$119500[rsp+32]
	cmp	QWORD PTR [rcx+rbx*8], 0
	jne	SHORT $LN71@Parse@2
	mov	ecx, 40					; 00000028H
	call	??2@YAPEAX_K@Z				; operator new
	mov	rcx, QWORD PTR classStack$119500[rsp+32]
	mov	QWORD PTR [rcx+rbx*8], rax
	mov	rcx, QWORD PTR classStack$119500[rsp+32]
$LN71@Parse@2:
	mov	rcx, QWORD PTR [rcx+rbx*8]
	mov	QWORD PTR _Vptr$171774[rsp], rcx
	mov	QWORD PTR $T171768[rsp], rcx
	test	rcx, rcx
	je	SHORT $LN91@Parse@2
	mov	rdx, rsi
	call	QWORD PTR __imp_??0?$basic_string@_WU?$char_traits@_W@std@@V?$allocator@_W@2@@std@@QEAA@AEBV01@@Z
	npad	1
$LN91@Parse@2:
	inc	QWORD PTR classStack$119500[rsp+56]
	lea	rcx, QWORD PTR $T171368[rsp]
	call	QWORD PTR __imp_??1?$basic_string@_WU?$char_traits@_W@std@@V?$allocator@_W@2@@std@@QEAA@XZ

; 52   : 
; 53   : 				if (!IsTdNested(classFlags))

	mov	r11d, DWORD PTR classFlags$119063[rsp]
	and	r11b, 7
	cmp	r11b, 2
	jb	SHORT $LN199@Parse@2

; 54   : 					break;
; 55   : 
; 56   : 				hr = metaData->GetNestedClassProps(classTypeDef, &classTypeDef);

	mov	rcx, QWORD PTR [r12+8]
	mov	rax, QWORD PTR [rcx]
	lea	r8, QWORD PTR classTypeDef$119058[rsp]
	mov	edx, DWORD PTR classTypeDef$119058[rsp]
	call	QWORD PTR [rax+496]
	mov	edi, eax

; 57   : 
; 58   : 				if (!SUCCEEDED(hr))

	test	eax, eax
	js	SHORT $LN198@Parse@2

; 44   : 			for (;;)
; 45   : 			{
; 46   : 				// get the class name
; 47   : 				hr = metaData->GetTypeDefProps(classTypeDef, szClass, NAME_BUFFER_SIZE, &cchClass, &classFlags, 0);

	mov	rcx, QWORD PTR [r12+8]
	mov	rax, QWORD PTR [rcx]
	xor	esi, esi
	mov	QWORD PTR [rsp+48], rsi
	lea	rdx, QWORD PTR classFlags$119063[rsp]
	mov	QWORD PTR [rsp+40], rdx
	lea	rdx, QWORD PTR cchClass$119060[rsp]
	mov	QWORD PTR [rsp+32], rdx
	mov	r9d, 1024				; 00000400H
	lea	r8, QWORD PTR [r12+2336]
	mov	edx, DWORD PTR classTypeDef$119058[rsp]
	call	QWORD PTR [rax+96]
	mov	edi, eax

; 48   : 				if (!SUCCEEDED(hr))

	test	eax, eax
	jns	$LL9@Parse@2
	jmp	SHORT $LN180@Parse@2
$LN198@Parse@2:

; 26   : 
; 27   : 	this->output.str(L"");

	xor	esi, esi
	jmp	SHORT $LN180@Parse@2
$LN199@Parse@2:

; 48   : 				if (!SUCCEEDED(hr))

	xor	esi, esi
$LN180@Parse@2:

; 59   : 					break;
; 60   : 			}
; 61   : 
; 62   : 			while (!classStack.empty()) {

	mov	rdx, QWORD PTR classStack$119500[rsp+56]
	test	rdx, rdx
	je	$LN190@Parse@2
$LL4@Parse@2:

; 63   : 				this->className << classStack.top();

	lea	rcx, QWORD PTR classStack$119500[rsp]
	call	?back@?$deque@V?$basic_string@_WU?$char_traits@_W@std@@V?$allocator@_W@2@@std@@V?$allocator@V?$basic_string@_WU?$char_traits@_W@std@@V?$allocator@_W@2@@std@@@2@@std@@QEAAAEAV?$basic_string@_WU?$char_traits@_W@std@@V?$allocator@_W@2@@2@XZ ; std::deque<std::basic_string<wchar_t,std::char_traits<wchar_t>,std::allocator<wchar_t> >,std::allocator<std::basic_string<wchar_t,std::char_traits<wchar_t>,std::allocator<wchar_t> > > >::back
	mov	rdx, rax
	lea	rcx, QWORD PTR [r12+56]
	call	QWORD PTR __imp_??$?6_WU?$char_traits@_W@std@@V?$allocator@_W@1@@std@@YAAEAV?$basic_ostream@_WU?$char_traits@_W@std@@@0@AEAV10@AEBV?$basic_string@_WU?$char_traits@_W@std@@V?$allocator@_W@2@@0@@Z

; 64   : 				classStack.pop();

	mov	rdx, QWORD PTR classStack$119500[rsp+56]
	test	rdx, rdx
	je	SHORT $LN190@Parse@2
	mov	rax, QWORD PTR classStack$119500[rsp+48]
	lea	rcx, QWORD PTR [rdx+rax-1]
	mov	rax, QWORD PTR classStack$119500[rsp+40]
	cmp	rax, rcx
	ja	SHORT $LN106@Parse@2
	sub	rcx, rax
$LN106@Parse@2:
	mov	rax, QWORD PTR classStack$119500[rsp+32]
	mov	rcx, QWORD PTR [rax+rcx*8]
	call	QWORD PTR __imp_??1?$basic_string@_WU?$char_traits@_W@std@@V?$allocator@_W@2@@std@@QEAA@XZ
	mov	rdx, QWORD PTR classStack$119500[rsp+56]
	sub	rdx, 1
	mov	QWORD PTR classStack$119500[rsp+56], rdx
	je	SHORT $LN189@Parse@2

; 65   : 				if (!classStack.empty())
; 66   : 					this->className << L"+";

	lea	rdx, OFFSET FLAT:??_C@_13KJIIAINM@?$AA?$CL?$AA?$AA@
	lea	rcx, QWORD PTR [r12+56]
	call	??$?6_WU?$char_traits@_W@std@@@std@@YAAEAV?$basic_ostream@_WU?$char_traits@_W@std@@@0@AEAV10@PEB_W@Z ; std::operator<<<wchar_t,std::char_traits<wchar_t> >

; 59   : 					break;
; 60   : 			}
; 61   : 
; 62   : 			while (!classStack.empty()) {

	mov	rdx, QWORD PTR classStack$119500[rsp+56]
	test	rdx, rdx
	je	SHORT $LN190@Parse@2
	jmp	$LL4@Parse@2
$LN189@Parse@2:

; 64   : 				classStack.pop();

	mov	QWORD PTR classStack$119500[rsp+48], rsi
$LN190@Parse@2:

; 67   : 			}
; 68   : 
; 69   : 			if (SUCCEEDED(hr)) {

	test	edi, edi
	js	SHORT $LN124@Parse@2

; 70   : 				this->data = (unsigned char *)signature;

	mov	r8, QWORD PTR signature$[rsp]
	mov	QWORD PTR [r12+24], r8

; 71   : 				this->dataLength = sigLength;

	mov	eax, DWORD PTR sigLength$[rsp]
	mov	DWORD PTR [r12+48], eax

; 72   : 				this->startPosition = this->data;

	mov	QWORD PTR [r12+32], r8

; 73   : 				this->endPosition = this->data + sigLength;

	lea	rcx, QWORD PTR [r8+rax]
	mov	QWORD PTR [r12+40], rcx

; 74   : 				this->methodDefiniton = funcToken;

	mov	eax, DWORD PTR funcToken$[rsp]
	mov	DWORD PTR [r12+16], eax

; 75   : 
; 76   : 				this->Parse();

	cmp	r8, rcx
	jae	SHORT $LN124@Parse@2
	movzx	ecx, BYTE PTR [r8]
	lea	rax, QWORD PTR [r8+1]
	mov	QWORD PTR [r12+24], rax
	mov	eax, ecx
	and	eax, 15
	cmp	eax, 5
	ja	SHORT $LN124@Parse@2
	movzx	edx, cl
	mov	rcx, r12
	call	?ReadMethodDefSig@SignatureReader@@AEAA_NE@Z ; SignatureReader::ReadMethodDefSig
	mov	rdx, QWORD PTR classStack$119500[rsp+56]
$LN124@Parse@2:

; 77   : 			}
; 78   : 		}

	test	rdx, rdx
	je	SHORT $LN185@Parse@2
	npad	4
$LL143@Parse@2:
	test	rdx, rdx
	je	SHORT $LN185@Parse@2
	mov	rax, QWORD PTR classStack$119500[rsp+48]
	lea	rcx, QWORD PTR [rdx+rax-1]
	mov	rax, QWORD PTR classStack$119500[rsp+40]
	cmp	rax, rcx
	ja	SHORT $LN149@Parse@2
	sub	rcx, rax
$LN149@Parse@2:
	mov	rax, QWORD PTR classStack$119500[rsp+32]
	mov	rcx, QWORD PTR [rax+rcx*8]
	call	QWORD PTR __imp_??1?$basic_string@_WU?$char_traits@_W@std@@V?$allocator@_W@2@@std@@QEAA@XZ
	mov	rdx, QWORD PTR classStack$119500[rsp+56]
	sub	rdx, 1
	mov	QWORD PTR classStack$119500[rsp+56], rdx
	jne	SHORT $LL143@Parse@2
	mov	QWORD PTR classStack$119500[rsp+48], rsi
$LN185@Parse@2:
	mov	rbx, QWORD PTR classStack$119500[rsp+40]
	test	rbx, rbx
	je	SHORT $LN192@Parse@2
	mov	rcx, QWORD PTR classStack$119500[rsp+32]
	npad	9
$LL141@Parse@2:
	dec	rbx
	cmp	QWORD PTR [rcx+rbx*8], 0
	je	SHORT $LN162@Parse@2
	mov	rcx, QWORD PTR [rcx+rbx*8]
	call	??3@YAXPEAX@Z				; operator delete
	mov	rcx, QWORD PTR classStack$119500[rsp+32]
$LN162@Parse@2:
	test	rbx, rbx
	jne	SHORT $LL141@Parse@2
	jmp	SHORT $LN140@Parse@2
$LN192@Parse@2:
	mov	rcx, QWORD PTR classStack$119500[rsp+32]
$LN140@Parse@2:
	test	rcx, rcx
	je	SHORT $LN164@Parse@2
	call	??3@YAXPEAX@Z				; operator delete
$LN164@Parse@2:
	mov	QWORD PTR classStack$119500[rsp+40], rsi
	mov	QWORD PTR classStack$119500[rsp+32], rsi
	mov	rcx, QWORD PTR classStack$119500[rsp]
	call	??3@YAXPEAX@Z				; operator delete
	mov	rdi, QWORD PTR tv889[rsp]
$LN172@Parse@2:

; 79   : 		// release our reference to the metadata
; 80   : 		metaData->Release();

	mov	rcx, QWORD PTR [r12+8]
	mov	rax, QWORD PTR [rcx]
	call	QWORD PTR [rax+16]
$LN11@Parse@2:

; 81   : 	}
; 82   : 
; 83   : 	return this->output.str();

	mov	rdx, r15
	mov	rcx, rdi
	call	QWORD PTR __imp_?str@?$basic_ostringstream@_WU?$char_traits@_W@std@@V?$allocator@_W@2@@std@@QEBA?AV?$basic_string@_WU?$char_traits@_W@std@@V?$allocator@_W@2@@2@XZ
	mov	rax, r15

; 84   : }

	mov	rbx, QWORD PTR [rsp+344]
	add	rsp, 272				; 00000110H
	pop	r15
	pop	r14
	pop	r13
	pop	r12
	pop	rdi
	pop	rsi
	pop	rbp
	ret	0
?Parse@SignatureReader@@QEAA?AV?$basic_string@_WU?$char_traits@_W@std@@V?$allocator@_W@2@@std@@_K@Z ENDP ; SignatureReader::Parse
; Function compile flags: /Ogtpy
_TEXT	ENDS
;	COMDAT text$x
text$x	SEGMENT
funcToken$ = 96
sigLength$ = 100
classStack$119500 = 112
cchClass$119060 = 176
signature$ = 184
tv889 = 192
cchFunction$119059 = 200
$T171368 = 208
$T171367 = 208
$T171366 = 208
$T171768 = 248
_Vptr$171774 = 256
$T172132 = 264
$T171381 = 336
classTypeDef$119058 = 336
this$ = 336
__$ReturnUdt$ = 344
functionID$ = 352
classFlags$119063 = 360
?dtor$0@?0??Parse@SignatureReader@@QEAA?AV?$basic_string@_WU?$char_traits@_W@std@@V?$allocator@_W@2@@std@@_K@Z@4HA PROC ; `SignatureReader::Parse'::`1'::dtor$0
	push	rbp
	sub	rsp, 32					; 00000020H
	mov	rbp, rdx
	lea	rcx, QWORD PTR $T171366[rbp]
	call	QWORD PTR __imp_??1?$basic_string@_WU?$char_traits@_W@std@@V?$allocator@_W@2@@std@@QEAA@XZ
	add	rsp, 32					; 00000020H
	pop	rbp
	ret	0
?dtor$0@?0??Parse@SignatureReader@@QEAA?AV?$basic_string@_WU?$char_traits@_W@std@@V?$allocator@_W@2@@std@@_K@Z@4HA ENDP ; `SignatureReader::Parse'::`1'::dtor$0
; Function compile flags: /Ogtpy
funcToken$ = 96
sigLength$ = 100
classStack$119500 = 112
cchClass$119060 = 176
signature$ = 184
tv889 = 192
cchFunction$119059 = 200
$T171368 = 208
$T171367 = 208
$T171366 = 208
$T171768 = 248
_Vptr$171774 = 256
$T172132 = 264
$T171381 = 336
classTypeDef$119058 = 336
this$ = 336
__$ReturnUdt$ = 344
functionID$ = 352
classFlags$119063 = 360
?dtor$1@?0??Parse@SignatureReader@@QEAA?AV?$basic_string@_WU?$char_traits@_W@std@@V?$allocator@_W@2@@std@@_K@Z@4HA PROC ; `SignatureReader::Parse'::`1'::dtor$1
	push	rbp
	sub	rsp, 32					; 00000020H
	mov	rbp, rdx
	lea	rcx, QWORD PTR $T171367[rbp]
	call	QWORD PTR __imp_??1?$basic_string@_WU?$char_traits@_W@std@@V?$allocator@_W@2@@std@@QEAA@XZ
	add	rsp, 32					; 00000020H
	pop	rbp
	ret	0
?dtor$1@?0??Parse@SignatureReader@@QEAA?AV?$basic_string@_WU?$char_traits@_W@std@@V?$allocator@_W@2@@std@@_K@Z@4HA ENDP ; `SignatureReader::Parse'::`1'::dtor$1
; Function compile flags: /Ogtpy
funcToken$ = 96
sigLength$ = 100
classStack$119500 = 112
cchClass$119060 = 176
signature$ = 184
tv889 = 192
cchFunction$119059 = 200
$T171368 = 208
$T171367 = 208
$T171366 = 208
$T171768 = 248
_Vptr$171774 = 256
$T172132 = 264
$T171381 = 336
classTypeDef$119058 = 336
this$ = 336
__$ReturnUdt$ = 344
functionID$ = 352
classFlags$119063 = 360
?dtor$2@?0??Parse@SignatureReader@@QEAA?AV?$basic_string@_WU?$char_traits@_W@std@@V?$allocator@_W@2@@std@@_K@Z@4HA PROC ; `SignatureReader::Parse'::`1'::dtor$2
	push	rbp
	sub	rsp, 32					; 00000020H
	mov	rbp, rdx
	lea	rcx, QWORD PTR classStack$119500[rbp]
	call	??1?$stack@V?$basic_string@_WU?$char_traits@_W@std@@V?$allocator@_W@2@@std@@V?$deque@V?$basic_string@_WU?$char_traits@_W@std@@V?$allocator@_W@2@@std@@V?$allocator@V?$basic_string@_WU?$char_traits@_W@std@@V?$allocator@_W@2@@std@@@2@@2@@std@@QEAA@XZ
	add	rsp, 32					; 00000020H
	pop	rbp
	ret	0
?dtor$2@?0??Parse@SignatureReader@@QEAA?AV?$basic_string@_WU?$char_traits@_W@std@@V?$allocator@_W@2@@std@@_K@Z@4HA ENDP ; `SignatureReader::Parse'::`1'::dtor$2
; Function compile flags: /Ogtpy
funcToken$ = 96
sigLength$ = 100
classStack$119500 = 112
cchClass$119060 = 176
signature$ = 184
tv889 = 192
cchFunction$119059 = 200
$T171368 = 208
$T171367 = 208
$T171366 = 208
$T171768 = 248
_Vptr$171774 = 256
$T172132 = 264
$T171381 = 336
classTypeDef$119058 = 336
this$ = 336
__$ReturnUdt$ = 344
functionID$ = 352
classFlags$119063 = 360
?dtor$3@?0??Parse@SignatureReader@@QEAA?AV?$basic_string@_WU?$char_traits@_W@std@@V?$allocator@_W@2@@std@@_K@Z@4HA PROC ; `SignatureReader::Parse'::`1'::dtor$3
	push	rbp
	sub	rsp, 32					; 00000020H
	mov	rbp, rdx
	lea	rcx, QWORD PTR $T171368[rbp]
	call	QWORD PTR __imp_??1?$basic_string@_WU?$char_traits@_W@std@@V?$allocator@_W@2@@std@@QEAA@XZ
	add	rsp, 32					; 00000020H
	pop	rbp
	ret	0
?dtor$3@?0??Parse@SignatureReader@@QEAA?AV?$basic_string@_WU?$char_traits@_W@std@@V?$allocator@_W@2@@std@@_K@Z@4HA ENDP ; `SignatureReader::Parse'::`1'::dtor$3
; Function compile flags: /Ogtpy
funcToken$ = 96
sigLength$ = 100
classStack$119500 = 112
cchClass$119060 = 176
signature$ = 184
tv889 = 192
cchFunction$119059 = 200
$T171368 = 208
$T171367 = 208
$T171366 = 208
$T171768 = 248
_Vptr$171774 = 256
$T172132 = 264
$T171381 = 336
classTypeDef$119058 = 336
this$ = 336
__$ReturnUdt$ = 344
functionID$ = 352
classFlags$119063 = 360
?dtor$10@?0??Parse@SignatureReader@@QEAA?AV?$basic_string@_WU?$char_traits@_W@std@@V?$allocator@_W@2@@std@@_K@Z@4HA PROC ; `SignatureReader::Parse'::`1'::dtor$10
	push	rbp
	sub	rsp, 32					; 00000020H
	mov	rbp, rdx
	mov	rdx, QWORD PTR _Vptr$171774[rbp]
	mov	rcx, QWORD PTR $T171768[rbp]
	call	??3@YAXPEAX0@Z				; operator delete
	add	rsp, 32					; 00000020H
	pop	rbp
	ret	0
?dtor$10@?0??Parse@SignatureReader@@QEAA?AV?$basic_string@_WU?$char_traits@_W@std@@V?$allocator@_W@2@@std@@_K@Z@4HA ENDP ; `SignatureReader::Parse'::`1'::dtor$10
; Function compile flags: /Ogtpy
funcToken$ = 96
sigLength$ = 100
classStack$119500 = 112
cchClass$119060 = 176
signature$ = 184
tv889 = 192
cchFunction$119059 = 200
$T171368 = 208
$T171367 = 208
$T171366 = 208
$T171768 = 248
_Vptr$171774 = 256
$T172132 = 264
$T171381 = 336
classTypeDef$119058 = 336
this$ = 336
__$ReturnUdt$ = 344
functionID$ = 352
classFlags$119063 = 360
?dtor$12@?0??Parse@SignatureReader@@QEAA?AV?$basic_string@_WU?$char_traits@_W@std@@V?$allocator@_W@2@@std@@_K@Z@4HA PROC ; `SignatureReader::Parse'::`1'::dtor$12
	push	rbp
	sub	rsp, 32					; 00000020H
	mov	rbp, rdx
	lea	rcx, QWORD PTR classStack$119500[rbp]
	call	??1?$_Deque_val@V?$basic_string@_WU?$char_traits@_W@std@@V?$allocator@_W@2@@std@@V?$allocator@V?$basic_string@_WU?$char_traits@_W@std@@V?$allocator@_W@2@@std@@@2@@std@@QEAA@XZ
	add	rsp, 32					; 00000020H
	pop	rbp
	ret	0
?dtor$12@?0??Parse@SignatureReader@@QEAA?AV?$basic_string@_WU?$char_traits@_W@std@@V?$allocator@_W@2@@std@@_K@Z@4HA ENDP ; `SignatureReader::Parse'::`1'::dtor$12
PUBLIC	?ReadShapedArray@SignatureReader@@AEAA_NE@Z	; SignatureReader::ReadShapedArray
PUBLIC	?ReadSzArray@SignatureReader@@AEAA_NE@Z		; SignatureReader::ReadSzArray
;	COMDAT pdata
; File c:\program files\microsoft visual studio 9.0\vc\include\deque
pdata	SEGMENT
$pdata$?ReadSzArray@SignatureReader@@AEAA_NE@Z DD imagerel $LN120
	DD	imagerel $LN120+164
	DD	imagerel $unwind$?ReadSzArray@SignatureReader@@AEAA_NE@Z
pdata	ENDS
;	COMDAT pdata
pdata	SEGMENT
$pdata$1$?ReadSzArray@SignatureReader@@AEAA_NE@Z DD imagerel $LN120+164
	DD	imagerel $LN120+606
	DD	imagerel $chain$1$?ReadSzArray@SignatureReader@@AEAA_NE@Z
pdata	ENDS
;	COMDAT pdata
pdata	SEGMENT
$pdata$2$?ReadSzArray@SignatureReader@@AEAA_NE@Z DD imagerel $LN120+606
	DD	imagerel $LN120+614
	DD	imagerel $chain$2$?ReadSzArray@SignatureReader@@AEAA_NE@Z
pdata	ENDS
;	COMDAT xdata
xdata	SEGMENT
$chain$2$?ReadSzArray@SignatureReader@@AEAA_NE@Z DD 021H
	DD	imagerel $LN120
	DD	imagerel $LN120+164
	DD	imagerel $unwind$?ReadSzArray@SignatureReader@@AEAA_NE@Z
xdata	ENDS
;	COMDAT xdata
xdata	SEGMENT
$chain$1$?ReadSzArray@SignatureReader@@AEAA_NE@Z DD 040a21H
	DD	08740aH
	DD	076405H
	DD	imagerel $LN120
	DD	imagerel $LN120+164
	DD	imagerel $unwind$?ReadSzArray@SignatureReader@@AEAA_NE@Z
xdata	ENDS
;	COMDAT xdata
xdata	SEGMENT
$unwind$?ReadSzArray@SignatureReader@@AEAA_NE@Z DD 020601H
	DD	030023206H
; Function compile flags: /Ogtpy
; File c:\local\sharpdevelop_3.2.0.5777_source\src\addins\misc\profiler\hook\profilermetadata.cpp
xdata	ENDS
;	COMDAT ?ReadSzArray@SignatureReader@@AEAA_NE@Z
_TEXT	SEGMENT
$T183917 = 48
$T183916 = 48
this$ = 48
type$ = 56
?ReadSzArray@SignatureReader@@AEAA_NE@Z PROC		; SignatureReader::ReadSzArray, COMDAT

; 389  : {

$LN120:
	push	rbx
	sub	rsp, 32					; 00000020H

; 390  : 	// type ::= SZARRAY CustomMod* Type
; 391  : 
; 392  : 	if (!this->ReadByte(&type))

	mov	rax, QWORD PTR [rcx+24]
	mov	rbx, rcx
	mov	rcx, QWORD PTR [rcx+40]
	cmp	rax, rcx
	jae	$LN14@ReadSzArra
	movzx	edx, BYTE PTR [rax]
	inc	rax
	mov	QWORD PTR [rbx+24], rax
$LL10@ReadSzArra:

; 394  : 	while (type == ELEMENT_TYPE_CMOD_OPT || type == ELEMENT_TYPE_CMOD_REQD) {

	cmp	dl, 32					; 00000020H
	je	SHORT $LN8@ReadSzArra
	cmp	dl, 31
	jne	SHORT $LN9@ReadSzArra
$LN8@ReadSzArra:

; 395  : 		int tmp2;
; 396  : 
; 397  : 		if (!this->ReadCompressedInt(&tmp2))

	cmp	rax, rcx
	jae	$LN14@ReadSzArra
	movzx	edx, BYTE PTR [rax]
	inc	rax
	mov	QWORD PTR [rbx+24], rax
	cmp	dl, 255					; 000000ffH
	je	$LN14@ReadSzArra
	test	dl, dl
	jns	SHORT $LN109@ReadSzArra
	cmp	rax, rcx
	jae	$LN14@ReadSzArra
	inc	rax
	mov	QWORD PTR [rbx+24], rax
	test	dl, 64					; 00000040H
	je	SHORT $LN109@ReadSzArra
	test	dl, 32					; 00000020H
	jne	$LN14@ReadSzArra
	cmp	rax, rcx
	jae	$LN14@ReadSzArra
	inc	rax
	mov	QWORD PTR [rbx+24], rax
	cmp	rax, rcx
	jae	$LN14@ReadSzArra
	inc	rax
	mov	QWORD PTR [rbx+24], rax
$LN109@ReadSzArra:

; 398  : 			return false;
; 399  : 
; 400  : 		if (!this->ReadByte(&type))

	mov	rax, QWORD PTR [rbx+24]
	cmp	rax, rcx
	jae	$LN14@ReadSzArra
	mov	dl, BYTE PTR [rax]
	inc	rax
	mov	QWORD PTR [rbx+24], rax

; 401  : 			return false;
; 402  : 	}

	jmp	SHORT $LL10@ReadSzArra
$LN9@ReadSzArra:
	mov	QWORD PTR [rsp+56], rsi
	mov	QWORD PTR [rsp+64], rdi

; 403  : 
; 404  : 	switch (type) {

	cmp	dl, 20
	je	SHORT $LN3@ReadSzArra
	cmp	dl, 29
	je	SHORT $LN2@ReadSzArra

; 411  : 		default:
; 412  : 			this->ReadType(type);

	mov	rcx, rbx
	call	?ReadType@SignatureReader@@AEAA_NE@Z	; SignatureReader::ReadType

; 413  : 			break;

	jmp	SHORT $LN4@ReadSzArra
$LN2@ReadSzArra:

; 407  : 			break;
; 408  : 		case ELEMENT_TYPE_SZARRAY:
; 409  : 			this->ReadSzArray(type);

	mov	dl, 29
	mov	rcx, rbx
	call	?ReadSzArray@SignatureReader@@AEAA_NE@Z	; SignatureReader::ReadSzArray

; 410  : 			break;

	jmp	SHORT $LN4@ReadSzArra
$LN3@ReadSzArra:

; 405  : 		case ELEMENT_TYPE_ARRAY:
; 406  : 			this->ReadShapedArray(type);

	mov	dl, 20
	mov	rcx, rbx
	call	?ReadShapedArray@SignatureReader@@AEAA_NE@Z ; SignatureReader::ReadShapedArray
$LN4@ReadSzArra:

; 414  : 	}
; 415  : 
; 416  : 	this->buffer.push(L']');

	mov	rcx, QWORD PTR [rbx+4680]
	mov	eax, 93					; 0000005dH
	mov	WORD PTR $T183916[rsp], ax
	movzx	eax, BYTE PTR [rbx+4672]
	add	al, cl
	test	al, 7
	jne	SHORT $LN93@ReadSzArra
	lea	rax, QWORD PTR [rcx+8]
	shr	rax, 3
	cmp	QWORD PTR [rbx+4664], rax
	ja	SHORT $LN93@ReadSzArra
	lea	rcx, QWORD PTR [rbx+4624]
	mov	edx, 1
	call	?_Growmap@?$deque@_WV?$allocator@_W@std@@@std@@IEAAX_K@Z ; std::deque<wchar_t,std::allocator<wchar_t> >::_Growmap
$LN93@ReadSzArra:
	mov	rsi, QWORD PTR [rbx+4672]
	mov	rax, QWORD PTR [rbx+4664]
	add	rsi, QWORD PTR [rbx+4680]
	mov	rdi, rsi
	shr	rdi, 3
	cmp	rax, rdi
	ja	SHORT $LN92@ReadSzArra
	sub	rdi, rax
$LN92@ReadSzArra:
	mov	rax, QWORD PTR [rbx+4656]
	cmp	QWORD PTR [rax+rdi*8], 0
	jne	SHORT $LN91@ReadSzArra
	lea	rcx, QWORD PTR [rbx+4648]
	mov	edx, 8
	call	QWORD PTR __imp_?allocate@?$allocator@_W@std@@QEAAPEA_W_K@Z
	mov	rcx, QWORD PTR [rbx+4656]
	mov	QWORD PTR [rcx+rdi*8], rax
$LN91@ReadSzArra:
	mov	rax, QWORD PTR [rbx+4656]
	and	esi, 7
	lea	rcx, QWORD PTR [rbx+4648]
	mov	rax, QWORD PTR [rax+rdi*8]
	lea	r8, QWORD PTR $T183916[rsp]
	lea	rdx, QWORD PTR [rax+rsi*2]
	call	QWORD PTR __imp_?construct@?$allocator@_W@std@@QEAAXPEA_WAEB_W@Z
	inc	QWORD PTR [rbx+4680]

; 417  : 	this->buffer.push(L'[');

	mov	rcx, QWORD PTR [rbx+4680]
	mov	eax, 91					; 0000005bH
	mov	WORD PTR $T183917[rsp], ax
	movzx	eax, BYTE PTR [rbx+4672]
	add	al, cl
	test	al, 7
	jne	SHORT $LN100@ReadSzArra
	lea	rax, QWORD PTR [rcx+8]
	shr	rax, 3
	cmp	QWORD PTR [rbx+4664], rax
	ja	SHORT $LN100@ReadSzArra
	lea	rcx, QWORD PTR [rbx+4624]
	mov	edx, 1
	call	?_Growmap@?$deque@_WV?$allocator@_W@std@@@std@@IEAAX_K@Z ; std::deque<wchar_t,std::allocator<wchar_t> >::_Growmap
$LN100@ReadSzArra:
	mov	rsi, QWORD PTR [rbx+4672]
	mov	rax, QWORD PTR [rbx+4664]
	add	rsi, QWORD PTR [rbx+4680]
	mov	rdi, rsi
	shr	rdi, 3
	cmp	rax, rdi
	ja	SHORT $LN99@ReadSzArra
	sub	rdi, rax
$LN99@ReadSzArra:
	mov	rax, QWORD PTR [rbx+4656]
	cmp	QWORD PTR [rax+rdi*8], 0
	jne	SHORT $LN98@ReadSzArra
	lea	rcx, QWORD PTR [rbx+4648]
	mov	edx, 8
	call	QWORD PTR __imp_?allocate@?$allocator@_W@std@@QEAAPEA_W_K@Z
	mov	rcx, QWORD PTR [rbx+4656]
	mov	QWORD PTR [rcx+rdi*8], rax
$LN98@ReadSzArra:
	mov	rax, QWORD PTR [rbx+4656]
	and	esi, 7
	lea	rcx, QWORD PTR [rbx+4648]
	mov	rax, QWORD PTR [rax+rdi*8]
	lea	r8, QWORD PTR $T183917[rsp]
	lea	rdx, QWORD PTR [rax+rsi*2]
	call	QWORD PTR __imp_?construct@?$allocator@_W@std@@QEAAXPEA_WAEB_W@Z
	inc	QWORD PTR [rbx+4680]
	mov	rdi, QWORD PTR [rsp+64]
	mov	rsi, QWORD PTR [rsp+56]

; 418  : 
; 419  : 	return true;

	mov	al, 1

; 420  : }

	add	rsp, 32					; 00000020H
	pop	rbx
	ret	0

; 390  : 	// type ::= SZARRAY CustomMod* Type
; 391  : 
; 392  : 	if (!this->ReadByte(&type))

$LN14@ReadSzArra:

; 393  : 		return false;

	xor	al, al

; 420  : }

	add	rsp, 32					; 00000020H
	pop	rbx
	ret	0
?ReadSzArray@SignatureReader@@AEAA_NE@Z ENDP		; SignatureReader::ReadSzArray
;	COMDAT pdata
; File c:\program files\microsoft visual studio 9.0\vc\include\deque
pdata	SEGMENT
$pdata$?ReadShapedArray@SignatureReader@@AEAA_NE@Z DD imagerel $LN60
	DD	imagerel $LN60+117
	DD	imagerel $unwind$?ReadShapedArray@SignatureReader@@AEAA_NE@Z
pdata	ENDS
;	COMDAT pdata
pdata	SEGMENT
$pdata$2$?ReadShapedArray@SignatureReader@@AEAA_NE@Z DD imagerel $LN60+117
	DD	imagerel $LN60+741
	DD	imagerel $chain$2$?ReadShapedArray@SignatureReader@@AEAA_NE@Z
pdata	ENDS
;	COMDAT pdata
pdata	SEGMENT
$pdata$4$?ReadShapedArray@SignatureReader@@AEAA_NE@Z DD imagerel $LN60+741
	DD	imagerel $LN60+745
	DD	imagerel $chain$4$?ReadShapedArray@SignatureReader@@AEAA_NE@Z
pdata	ENDS
;	COMDAT pdata
pdata	SEGMENT
$pdata$5$?ReadShapedArray@SignatureReader@@AEAA_NE@Z DD imagerel $LN60+745
	DD	imagerel $LN60+753
	DD	imagerel $chain$5$?ReadShapedArray@SignatureReader@@AEAA_NE@Z
pdata	ENDS
;	COMDAT xdata
xdata	SEGMENT
$chain$5$?ReadShapedArray@SignatureReader@@AEAA_NE@Z DD 021H
	DD	imagerel $LN60
	DD	imagerel $LN60+117
	DD	imagerel $unwind$?ReadShapedArray@SignatureReader@@AEAA_NE@Z
xdata	ENDS
;	COMDAT xdata
xdata	SEGMENT
$chain$4$?ReadShapedArray@SignatureReader@@AEAA_NE@Z DD 060021H
	DD	047400H
	DD	056400H
	DD	085400H
	DD	imagerel $LN60
	DD	imagerel $LN60+117
	DD	imagerel $unwind$?ReadShapedArray@SignatureReader@@AEAA_NE@Z
xdata	ENDS
;	COMDAT xdata
xdata	SEGMENT
$chain$2$?ReadShapedArray@SignatureReader@@AEAA_NE@Z DD 061321H
	DD	047413H
	DD	05640eH
	DD	085405H
	DD	imagerel $LN60
	DD	imagerel $LN60+117
	DD	imagerel $unwind$?ReadShapedArray@SignatureReader@@AEAA_NE@Z
xdata	ENDS
;	COMDAT xdata
xdata	SEGMENT
$unwind$?ReadShapedArray@SignatureReader@@AEAA_NE@Z DD 020601H
	DD	030025206H
; Function compile flags: /Ogtpy
; File c:\local\sharpdevelop_3.2.0.5777_source\src\addins\misc\profiler\hook\profilermetadata.cpp
xdata	ENDS
;	COMDAT ?ReadShapedArray@SignatureReader@@AEAA_NE@Z
_TEXT	SEGMENT
this$ = 64
$T187021 = 72
$T187020 = 72
$T187019 = 72
tmpLoBound$119766 = 72
numLoBounds$119764 = 72
tmpSize$119765 = 72
numSizes$119763 = 72
type$ = 72
rank$119762 = 80
?ReadShapedArray@SignatureReader@@AEAA_NE@Z PROC	; SignatureReader::ReadShapedArray, COMDAT

; 423  : {

$LN60:
	push	rbx
	sub	rsp, 48					; 00000030H
	mov	rbx, rcx

; 424  : 	// type ::= ARRAY Type ArrayShape
; 425  : 	if (type == ELEMENT_TYPE_ARRAY) {

	cmp	dl, 20
	jne	$LN24@ReadShaped

; 426  : 		if (!this->ReadByte(&type))

	mov	rax, QWORD PTR [rcx+24]
	cmp	rax, QWORD PTR [rcx+40]
	jae	$LN24@ReadShaped
	movzx	edx, BYTE PTR [rax]
	inc	rax
	mov	QWORD PTR [rcx+24], rax

; 428  : 		switch (type) {

	cmp	dl, 20
	je	SHORT $LN17@ReadShaped
	cmp	dl, 29
	je	SHORT $LN16@ReadShaped

; 435  : 			default:
; 436  : 				this->ReadType(type);

	call	?ReadType@SignatureReader@@AEAA_NE@Z	; SignatureReader::ReadType

; 437  : 				break;

	jmp	SHORT $LN18@ReadShaped
$LN16@ReadShaped:

; 431  : 				break;
; 432  : 			case ELEMENT_TYPE_SZARRAY:
; 433  : 				this->ReadSzArray(type);

	mov	dl, 29
	call	?ReadSzArray@SignatureReader@@AEAA_NE@Z	; SignatureReader::ReadSzArray

; 434  : 				break;

	jmp	SHORT $LN18@ReadShaped
$LN17@ReadShaped:

; 429  : 			case ELEMENT_TYPE_ARRAY:
; 430  : 				this->ReadShapedArray(type);

	mov	dl, 20
	call	?ReadShapedArray@SignatureReader@@AEAA_NE@Z ; SignatureReader::ReadShapedArray
$LN18@ReadShaped:

; 438  : 		}
; 439  : 
; 440  : 		// Read array shape
; 441  : 		// ArrayShape ::= Rank NumSizes Size* NumLoBounds LoBound*
; 442  : 		int rank, numSizes, numLoBounds, tmpSize, tmpLoBound;
; 443  : 		if (!ReadCompressedInt(&rank))

	lea	rdx, QWORD PTR rank$119762[rsp]
	mov	rcx, rbx
	call	?ReadCompressedInt@SignatureReader@@AEAA_NPEAH@Z ; SignatureReader::ReadCompressedInt
	test	al, al

; 444  : 			return false;

	je	$LN24@ReadShaped

; 445  : 		if (!ReadCompressedInt(&numSizes))

	lea	rdx, QWORD PTR numSizes$119763[rsp]
	mov	rcx, rbx
	call	?ReadCompressedInt@SignatureReader@@AEAA_NPEAH@Z ; SignatureReader::ReadCompressedInt
	test	al, al

; 446  : 			return false;

	je	$LN24@ReadShaped
	mov	QWORD PTR [rsp+64], rbp

; 447  : 		for (int i = 0; i < numSizes; i++) {

	mov	ebp, DWORD PTR numSizes$119763[rsp]
	mov	QWORD PTR [rsp+40], rsi
	mov	QWORD PTR [rsp+32], rdi
	xor	edi, edi
	mov	esi, edi
	test	ebp, ebp
	jle	SHORT $LN10@ReadShaped
$LL12@ReadShaped:

; 448  : 			if (!ReadCompressedInt(&tmpSize))

	lea	rdx, QWORD PTR tmpSize$119765[rsp]
	mov	rcx, rbx
	call	?ReadCompressedInt@SignatureReader@@AEAA_NPEAH@Z ; SignatureReader::ReadCompressedInt
	test	al, al
	je	$LN52@ReadShaped
	inc	esi
	cmp	esi, ebp
	jl	SHORT $LL12@ReadShaped
$LN10@ReadShaped:

; 449  : 				return false;
; 450  : 		}
; 451  : 		if (!ReadCompressedInt(&numLoBounds))

	lea	rdx, QWORD PTR numLoBounds$119764[rsp]
	mov	rcx, rbx
	call	?ReadCompressedInt@SignatureReader@@AEAA_NPEAH@Z ; SignatureReader::ReadCompressedInt
	test	al, al

; 452  : 			return false;

	je	$LN52@ReadShaped

; 453  : 		for (int i = 0; i < numLoBounds; i++) {

	mov	esi, DWORD PTR numLoBounds$119764[rsp]
	test	esi, esi
	jle	SHORT $LN5@ReadShaped
	npad	8
$LL7@ReadShaped:

; 454  : 			if (!ReadCompressedInt(&tmpLoBound))

	lea	rdx, QWORD PTR tmpLoBound$119766[rsp]
	mov	rcx, rbx
	call	?ReadCompressedInt@SignatureReader@@AEAA_NPEAH@Z ; SignatureReader::ReadCompressedInt
	test	al, al
	je	$LN52@ReadShaped
	inc	edi
	cmp	edi, esi
	jl	SHORT $LL7@ReadShaped
$LN5@ReadShaped:

; 456  : 		}
; 457  : 		this->buffer.push(L']');

	add	rbx, 4624				; 00001210H
	mov	eax, 93					; 0000005dH
	mov	rcx, QWORD PTR [rbx+56]
	mov	WORD PTR $T187019[rsp], ax
	movzx	eax, BYTE PTR [rbx+48]
	add	al, cl
	test	al, 7
	jne	SHORT $LN31@ReadShaped
	lea	rax, QWORD PTR [rcx+8]
	shr	rax, 3
	cmp	QWORD PTR [rbx+40], rax
	ja	SHORT $LN31@ReadShaped
	mov	edx, 1
	mov	rcx, rbx
	call	?_Growmap@?$deque@_WV?$allocator@_W@std@@@std@@IEAAX_K@Z ; std::deque<wchar_t,std::allocator<wchar_t> >::_Growmap
$LN31@ReadShaped:
	mov	rsi, QWORD PTR [rbx+48]
	mov	rax, QWORD PTR [rbx+40]
	add	rsi, QWORD PTR [rbx+56]
	mov	rdi, rsi
	shr	rdi, 3
	cmp	rax, rdi
	ja	SHORT $LN30@ReadShaped
	sub	rdi, rax
$LN30@ReadShaped:
	mov	rax, QWORD PTR [rbx+32]
	cmp	QWORD PTR [rax+rdi*8], 0
	jne	SHORT $LN29@ReadShaped
	lea	rcx, QWORD PTR [rbx+24]
	mov	edx, 8
	call	QWORD PTR __imp_?allocate@?$allocator@_W@std@@QEAAPEA_W_K@Z
	mov	rcx, QWORD PTR [rbx+32]
	mov	QWORD PTR [rcx+rdi*8], rax
$LN29@ReadShaped:
	mov	rax, QWORD PTR [rbx+32]
	and	esi, 7
	lea	rcx, QWORD PTR [rbx+24]
	mov	rax, QWORD PTR [rax+rdi*8]
	lea	r8, QWORD PTR $T187019[rsp]
	lea	rdx, QWORD PTR [rax+rsi*2]
	call	QWORD PTR __imp_?construct@?$allocator@_W@std@@QEAAXPEA_WAEB_W@Z

; 458  : 		for (int i = 1; i < rank; i++)

	mov	eax, DWORD PTR rank$119762[rsp]
	inc	QWORD PTR [rbx+56]
	cmp	eax, 1
	jle	$LN1@ReadShaped
	lea	ebp, DWORD PTR [rax-1]
	mov	eax, 44					; 0000002cH
	npad	7
$LL3@ReadShaped:

; 459  : 			this->buffer.push(L',');

	mov	rcx, QWORD PTR [rbx+56]
	mov	WORD PTR $T187020[rsp], ax
	movzx	eax, cl
	add	al, BYTE PTR [rbx+48]
	test	al, 7
	jne	SHORT $LN38@ReadShaped
	lea	rax, QWORD PTR [rcx+8]
	shr	rax, 3
	cmp	QWORD PTR [rbx+40], rax
	ja	SHORT $LN38@ReadShaped
	mov	edx, 1
	mov	rcx, rbx
	call	?_Growmap@?$deque@_WV?$allocator@_W@std@@@std@@IEAAX_K@Z ; std::deque<wchar_t,std::allocator<wchar_t> >::_Growmap
$LN38@ReadShaped:
	mov	rsi, QWORD PTR [rbx+48]
	mov	rax, QWORD PTR [rbx+40]
	add	rsi, QWORD PTR [rbx+56]
	mov	rdi, rsi
	shr	rdi, 3
	cmp	rax, rdi
	ja	SHORT $LN37@ReadShaped
	sub	rdi, rax
$LN37@ReadShaped:
	mov	rax, QWORD PTR [rbx+32]
	cmp	QWORD PTR [rax+rdi*8], 0
	jne	SHORT $LN36@ReadShaped
	lea	rcx, QWORD PTR [rbx+24]
	mov	edx, 8
	call	QWORD PTR __imp_?allocate@?$allocator@_W@std@@QEAAPEA_W_K@Z
	mov	rcx, QWORD PTR [rbx+32]
	mov	QWORD PTR [rcx+rdi*8], rax
$LN36@ReadShaped:
	mov	rax, QWORD PTR [rbx+32]
	and	esi, 7
	lea	rcx, QWORD PTR [rbx+24]
	mov	rax, QWORD PTR [rax+rdi*8]
	lea	r8, QWORD PTR $T187020[rsp]
	lea	rdx, QWORD PTR [rax+rsi*2]
	call	QWORD PTR __imp_?construct@?$allocator@_W@std@@QEAAXPEA_WAEB_W@Z
	inc	QWORD PTR [rbx+56]
	sub	rbp, 1
	mov	eax, 44					; 0000002cH
	jne	$LL3@ReadShaped
$LN1@ReadShaped:

; 460  : 		this->buffer.push(L'[');

	mov	rcx, QWORD PTR [rbx+56]
	mov	eax, 91					; 0000005bH
	mov	WORD PTR $T187021[rsp], ax
	movzx	eax, cl
	add	al, BYTE PTR [rbx+48]
	test	al, 7
	jne	SHORT $LN45@ReadShaped
	lea	rax, QWORD PTR [rcx+8]
	shr	rax, 3
	cmp	QWORD PTR [rbx+40], rax
	ja	SHORT $LN45@ReadShaped
	mov	edx, 1
	mov	rcx, rbx
	call	?_Growmap@?$deque@_WV?$allocator@_W@std@@@std@@IEAAX_K@Z ; std::deque<wchar_t,std::allocator<wchar_t> >::_Growmap
$LN45@ReadShaped:
	mov	rsi, QWORD PTR [rbx+56]
	mov	rax, QWORD PTR [rbx+40]
	add	rsi, QWORD PTR [rbx+48]
	mov	rdi, rsi
	shr	rdi, 3
	cmp	rax, rdi
	ja	SHORT $LN44@ReadShaped
	sub	rdi, rax
$LN44@ReadShaped:
	mov	rax, QWORD PTR [rbx+32]
	cmp	QWORD PTR [rax+rdi*8], 0
	jne	SHORT $LN43@ReadShaped
	lea	rcx, QWORD PTR [rbx+24]
	mov	edx, 8
	call	QWORD PTR __imp_?allocate@?$allocator@_W@std@@QEAAPEA_W_K@Z
	mov	rcx, QWORD PTR [rbx+32]
	mov	QWORD PTR [rcx+rdi*8], rax
$LN43@ReadShaped:
	mov	rax, QWORD PTR [rbx+32]
	and	esi, 7
	lea	rcx, QWORD PTR [rbx+24]
	mov	rax, QWORD PTR [rax+rdi*8]
	lea	r8, QWORD PTR $T187021[rsp]
	lea	rdx, QWORD PTR [rax+rsi*2]
	call	QWORD PTR __imp_?construct@?$allocator@_W@std@@QEAAXPEA_WAEB_W@Z
	inc	QWORD PTR [rbx+56]

; 461  : 
; 462  : 		return true;

	mov	al, 1
$LN59@ReadShaped:
	mov	rsi, QWORD PTR [rsp+40]
	mov	rbp, QWORD PTR [rsp+64]
	mov	rdi, QWORD PTR [rsp+32]

; 463  : 	}
; 464  : 
; 465  : 	return false;
; 466  : }

	add	rsp, 48					; 00000030H
	pop	rbx
	ret	0
$LN52@ReadShaped:

; 455  : 				return false;

	xor	al, al
	jmp	SHORT $LN59@ReadShaped

; 426  : 		if (!this->ReadByte(&type))

$LN24@ReadShaped:

; 427  : 			return false;

	xor	al, al

; 463  : 	}
; 464  : 
; 465  : 	return false;
; 466  : }

	add	rsp, 48					; 00000030H
	pop	rbx
	ret	0
?ReadShapedArray@SignatureReader@@AEAA_NE@Z ENDP	; SignatureReader::ReadShapedArray
;	COMDAT pdata
; File c:\program files\microsoft visual studio 9.0\vc\include\deque
pdata	SEGMENT
$pdata$?ReadArrayType@SignatureReader@@AEAA_NE@Z DD imagerel $LN24
	DD	imagerel $LN24+45
	DD	imagerel $unwind$?ReadArrayType@SignatureReader@@AEAA_NE@Z
pdata	ENDS
;	COMDAT pdata
pdata	SEGMENT
$pdata$2$?ReadArrayType@SignatureReader@@AEAA_NE@Z DD imagerel $LN24+45
	DD	imagerel $LN24+213
	DD	imagerel $chain$2$?ReadArrayType@SignatureReader@@AEAA_NE@Z
pdata	ENDS
;	COMDAT pdata
pdata	SEGMENT
$pdata$3$?ReadArrayType@SignatureReader@@AEAA_NE@Z DD imagerel $LN24+213
	DD	imagerel $LN24+221
	DD	imagerel $chain$3$?ReadArrayType@SignatureReader@@AEAA_NE@Z
pdata	ENDS
;	COMDAT xdata
xdata	SEGMENT
$chain$3$?ReadArrayType@SignatureReader@@AEAA_NE@Z DD 021H
	DD	imagerel $LN24
	DD	imagerel $LN24+45
	DD	imagerel $unwind$?ReadArrayType@SignatureReader@@AEAA_NE@Z
xdata	ENDS
;	COMDAT xdata
xdata	SEGMENT
$chain$2$?ReadArrayType@SignatureReader@@AEAA_NE@Z DD 060f21H
	DD	08640fH
	DD	07540aH
	DD	063405H
	DD	imagerel $LN24
	DD	imagerel $LN24+45
	DD	imagerel $unwind$?ReadArrayType@SignatureReader@@AEAA_NE@Z
xdata	ENDS
;	COMDAT xdata
xdata	SEGMENT
$unwind$?ReadArrayType@SignatureReader@@AEAA_NE@Z DD 020601H
	DD	070023206H
; Function compile flags: /Ogtpy
; File c:\local\sharpdevelop_3.2.0.5777_source\src\addins\misc\profiler\hook\profilermetadata.cpp
xdata	ENDS
;	COMDAT ?ReadArrayType@SignatureReader@@AEAA_NE@Z
_TEXT	SEGMENT
this$ = 48
type$ = 56
?ReadArrayType@SignatureReader@@AEAA_NE@Z PROC		; SignatureReader::ReadArrayType, COMDAT

; 469  : {

$LN24:
	push	rdi
	sub	rsp, 32					; 00000020H
	mov	rdi, rcx

; 470  : 	if (type == ELEMENT_TYPE_ARRAY)

	cmp	dl, 20
	jne	SHORT $LN4@ReadArrayT

; 471  : 		this->ReadShapedArray(type);

	call	?ReadShapedArray@SignatureReader@@AEAA_NE@Z ; SignatureReader::ReadShapedArray

; 472  : 	
; 473  : 	if (type == ELEMENT_TYPE_SZARRAY)

	jmp	SHORT $LN22@ReadArrayT
$LN4@ReadArrayT:
	cmp	dl, 29
	jne	SHORT $LN22@ReadArrayT

; 474  : 		this->ReadSzArray(type);

	call	?ReadSzArray@SignatureReader@@AEAA_NE@Z	; SignatureReader::ReadSzArray
$LN22@ReadArrayT:

; 475  : 
; 476  : 	while (!buffer.empty()) {

	cmp	QWORD PTR [rdi+4680], 0
	je	$LN23@ReadArrayT
	mov	QWORD PTR [rsp+48], rbx
	mov	QWORD PTR [rsp+56], rbp
	mov	QWORD PTR [rsp+64], rsi

; 477  : 		this->output << buffer.top();
; 478  : 		buffer.pop();

	xor	ebp, ebp
	npad	2
$LL2@ReadArrayT:
	lea	rcx, QWORD PTR [rdi+4624]
	call	?back@?$deque@_WV?$allocator@_W@std@@@std@@QEAAAEA_WXZ ; std::deque<wchar_t,std::allocator<wchar_t> >::back
	lea	rcx, QWORD PTR [rdi+4392]
	movzx	edx, WORD PTR [rax]
	call	??$?6_WU?$char_traits@_W@std@@@std@@YAAEAV?$basic_ostream@_WU?$char_traits@_W@std@@@0@AEAV10@_W@Z ; std::operator<<<wchar_t,std::char_traits<wchar_t> >
	mov	r11, QWORD PTR [rdi+4680]
	test	r11, r11
	je	SHORT $LN15@ReadArrayT
	mov	rax, QWORD PTR [rdi+4672]
	lea	rdx, QWORD PTR [rax+r11-1]
	mov	rax, QWORD PTR [rdi+4664]
	mov	rcx, rdx
	shr	rcx, 3
	cmp	rax, rcx
	ja	SHORT $LN16@ReadArrayT
	sub	rcx, rax
$LN16@ReadArrayT:
	mov	rax, QWORD PTR [rdi+4656]
	and	edx, 7
	mov	rax, QWORD PTR [rax+rcx*8]
	lea	rcx, QWORD PTR [rdi+4648]
	lea	rdx, QWORD PTR [rax+rdx*2]
	call	QWORD PTR __imp_?destroy@?$allocator@_W@std@@QEAAXPEA_W@Z
	add	QWORD PTR [rdi+4680], -1
	jne	SHORT $LN15@ReadArrayT
	mov	QWORD PTR [rdi+4672], rbp
$LN15@ReadArrayT:

; 475  : 
; 476  : 	while (!buffer.empty()) {

	cmp	QWORD PTR [rdi+4680], rbp
	jne	$LL2@ReadArrayT
	mov	rsi, QWORD PTR [rsp+64]
	mov	rbp, QWORD PTR [rsp+56]
	mov	rbx, QWORD PTR [rsp+48]
$LN23@ReadArrayT:

; 479  : 	}
; 480  : 
; 481  : 	return true;

	mov	al, 1

; 482  : }

	add	rsp, 32					; 00000020H
	pop	rdi
	ret	0
?ReadArrayType@SignatureReader@@AEAA_NE@Z ENDP		; SignatureReader::ReadArrayType
END
