; Listing generated by Microsoft (R) Optimizing Compiler Version 15.00.30729.01 

include listing.inc

INCLUDELIB OLDNAMES

PUBLIC	?ThreadNameChanged@CProfiler@@UEAAJ_KKQEA_W@Z	; CProfiler::ThreadNameChanged
PUBLIC	?ExceptionCLRCatcherExecute@CProfiler@@UEAAJXZ	; CProfiler::ExceptionCLRCatcherExecute
PUBLIC	?ExceptionCLRCatcherFound@CProfiler@@UEAAJXZ	; CProfiler::ExceptionCLRCatcherFound
PUBLIC	?ExceptionCatcherLeave@CProfiler@@UEAAJXZ	; CProfiler::ExceptionCatcherLeave
PUBLIC	?ExceptionCatcherEnter@CProfiler@@UEAAJ_K0@Z	; CProfiler::ExceptionCatcherEnter
PUBLIC	?ExceptionUnwindFinallyLeave@CProfiler@@UEAAJXZ	; CProfiler::ExceptionUnwindFinallyLeave
PUBLIC	?ExceptionUnwindFinallyEnter@CProfiler@@UEAAJ_K@Z ; CProfiler::ExceptionUnwindFinallyEnter
PUBLIC	?ExceptionUnwindFunctionLeave@CProfiler@@UEAAJXZ ; CProfiler::ExceptionUnwindFunctionLeave
PUBLIC	?ExceptionUnwindFunctionEnter@CProfiler@@UEAAJ_K@Z ; CProfiler::ExceptionUnwindFunctionEnter
PUBLIC	?ExceptionOSHandlerLeave@CProfiler@@UEAAJ_K@Z	; CProfiler::ExceptionOSHandlerLeave
PUBLIC	?ExceptionOSHandlerEnter@CProfiler@@UEAAJ_K@Z	; CProfiler::ExceptionOSHandlerEnter
PUBLIC	?ExceptionSearchCatcherFound@CProfiler@@UEAAJ_K@Z ; CProfiler::ExceptionSearchCatcherFound
PUBLIC	?ExceptionSearchFilterLeave@CProfiler@@UEAAJXZ	; CProfiler::ExceptionSearchFilterLeave
PUBLIC	?ExceptionSearchFilterEnter@CProfiler@@UEAAJ_K@Z ; CProfiler::ExceptionSearchFilterEnter
PUBLIC	?ExceptionSearchFunctionLeave@CProfiler@@UEAAJXZ ; CProfiler::ExceptionSearchFunctionLeave
PUBLIC	?ExceptionSearchFunctionEnter@CProfiler@@UEAAJ_K@Z ; CProfiler::ExceptionSearchFunctionEnter
PUBLIC	?ExceptionThrown@CProfiler@@UEAAJ_K@Z		; CProfiler::ExceptionThrown
PUBLIC	?ThreadAssignedToOSThread@CProfiler@@UEAAJ_KK@Z	; CProfiler::ThreadAssignedToOSThread
PUBLIC	?ThreadDestroyed@CProfiler@@UEAAJ_K@Z		; CProfiler::ThreadDestroyed
PUBLIC	?ThreadCreated@CProfiler@@UEAAJ_K@Z		; CProfiler::ThreadCreated
PUBLIC	?FunctionUnloadStarted@CProfiler@@UEAAJ_K@Z	; CProfiler::FunctionUnloadStarted
PUBLIC	?Shutdown@CProfiler@@UEAAJXZ			; CProfiler::Shutdown
PUBLIC	?Initialize@CProfiler@@UEAAJPEAUIUnknown@@@Z	; CProfiler::Initialize
PUBLIC	?Release@CProfiler@@UEAAKXZ			; CProfiler::Release
PUBLIC	?AddRef@CProfiler@@UEAAKXZ			; CProfiler::AddRef
PUBLIC	?QueryInterface@CProfiler@@UEAAJAEBU_GUID@@PEAPEAX@Z ; CProfiler::QueryInterface
PUBLIC	??0StackEntry@@QEAA@PEAUFunctionInfo@@_K@Z	; StackEntry::StackEntry
PUBLIC	?hasAtLeastTwoElements@?$LightweightStack@UStackEntry@@@@QEAA_NXZ ; LightweightStack<StackEntry>::hasAtLeastTwoElements
PUBLIC	?belowTop@?$LightweightStack@UStackEntry@@@@QEAAAEAUStackEntry@@XZ ; LightweightStack<StackEntry>::belowTop
PUBLIC	?Enlarge@?$LightweightStack@UStackEntry@@@@QEAAXXZ ; LightweightStack<StackEntry>::Enlarge
PUBLIC	?push@?$LightweightStack@UStackEntry@@@@QEAAXAEBUStackEntry@@@Z ; LightweightStack<StackEntry>::push
PUBLIC	?empty@?$LightweightStack@UStackEntry@@@@QEAA_NXZ ; LightweightStack<StackEntry>::empty
PUBLIC	?top@?$LightweightStack@UStackEntry@@@@QEAAAEAUStackEntry@@XZ ; LightweightStack<StackEntry>::top
PUBLIC	?pop@?$LightweightStack@UStackEntry@@@@QEAAXXZ	; LightweightStack<StackEntry>::pop
PUBLIC	?max_size@?$allocator@U?$pair@$$CB_KH@std@@@std@@QEBA_KXZ ; std::allocator<std::pair<unsigned __int64 const ,int> >::max_size
PUBLIC	?max_size@?$_Tree@V?$_Tmap_traits@_KHU?$less@_K@std@@V?$allocator@U?$pair@$$CB_KH@std@@@2@$0A@@std@@@std@@QEBA_KXZ ; std::_Tree<std::_Tmap_traits<unsigned __int64,int,std::less<unsigned __int64>,std::allocator<std::pair<unsigned __int64 const ,int> >,0> >::max_size
PUBLIC	??0_Node@?$_Tree_nod@V?$_Tmap_traits@_KHU?$less@_K@std@@V?$allocator@U?$pair@$$CB_KH@std@@@2@$0A@@std@@@std@@QEAA@PEAU012@00AEBU?$pair@$$CB_KH@2@D@Z ; std::_Tree_nod<std::_Tmap_traits<unsigned __int64,int,std::less<unsigned __int64>,std::allocator<std::pair<unsigned __int64 const ,int> >,0> >::_Node::_Node
PUBLIC	?_Buynode@?$_Tree@V?$_Tmap_traits@_KHU?$less@_K@std@@V?$allocator@U?$pair@$$CB_KH@std@@@2@$0A@@std@@@std@@IEAAPEAU_Node@?$_Tree_nod@V?$_Tmap_traits@_KHU?$less@_K@std@@V?$allocator@U?$pair@$$CB_KH@std@@@2@$0A@@std@@@2@PEAU342@00AEBU?$pair@$$CB_KH@2@D@Z ; std::_Tree<std::_Tmap_traits<unsigned __int64,int,std::less<unsigned __int64>,std::allocator<std::pair<unsigned __int64 const ,int> >,0> >::_Buynode
PUBLIC	?_Insert@?$_Tree@V?$_Tmap_traits@_KHU?$less@_K@std@@V?$allocator@U?$pair@$$CB_KH@std@@@2@$0A@@std@@@std@@IEAA?AViterator@12@_NPEAU_Node@?$_Tree_nod@V?$_Tmap_traits@_KHU?$less@_K@std@@V?$allocator@U?$pair@$$CB_KH@std@@@2@$0A@@std@@@2@AEBU?$pair@$$CB_KH@2@@Z ; std::_Tree<std::_Tmap_traits<unsigned __int64,int,std::less<unsigned __int64>,std::allocator<std::pair<unsigned __int64 const ,int> >,0> >::_Insert
PUBLIC	?_Dec@const_iterator@?$_Tree@V?$_Tmap_traits@_KHU?$less@_K@std@@V?$allocator@U?$pair@$$CB_KH@std@@@2@$0A@@std@@@std@@QEAAXXZ ; std::_Tree<std::_Tmap_traits<unsigned __int64,int,std::less<unsigned __int64>,std::allocator<std::pair<unsigned __int64 const ,int> >,0> >::const_iterator::_Dec
PUBLIC	??Fconst_iterator@?$_Tree@V?$_Tmap_traits@_KHU?$less@_K@std@@V?$allocator@U?$pair@$$CB_KH@std@@@2@$0A@@std@@@std@@QEAAAEAV012@XZ ; std::_Tree<std::_Tmap_traits<unsigned __int64,int,std::less<unsigned __int64>,std::allocator<std::pair<unsigned __int64 const ,int> >,0> >::const_iterator::operator--
PUBLIC	??Fiterator@?$_Tree@V?$_Tmap_traits@_KHU?$less@_K@std@@V?$allocator@U?$pair@$$CB_KH@std@@@2@$0A@@std@@@std@@QEAAAEAV012@XZ ; std::_Tree<std::_Tmap_traits<unsigned __int64,int,std::less<unsigned __int64>,std::allocator<std::pair<unsigned __int64 const ,int> >,0> >::iterator::operator--
PUBLIC	??0?$pair@Viterator@?$_Tree@V?$_Tmap_traits@_KHU?$less@_K@std@@V?$allocator@U?$pair@$$CB_KH@std@@@2@$0A@@std@@@std@@_N@std@@QEAA@AEBViterator@?$_Tree@V?$_Tmap_traits@_KHU?$less@_K@std@@V?$allocator@U?$pair@$$CB_KH@std@@@2@$0A@@std@@@1@AEB_N@Z ; std::pair<std::_Tree<std::_Tmap_traits<unsigned __int64,int,std::less<unsigned __int64>,std::allocator<std::pair<unsigned __int64 const ,int> >,0> >::iterator,bool>::pair<std::_Tree<std::_Tmap_traits<unsigned __int64,int,std::less<unsigned __int64>,std::allocator<std::pair<unsigned __int64 const ,int> >,0> >::iterator,bool>
PUBLIC	?insert@?$_Tree@V?$_Tmap_traits@_KHU?$less@_K@std@@V?$allocator@U?$pair@$$CB_KH@std@@@2@$0A@@std@@@std@@QEAA?AU?$pair@Viterator@?$_Tree@V?$_Tmap_traits@_KHU?$less@_K@std@@V?$allocator@U?$pair@$$CB_KH@std@@@2@$0A@@std@@@std@@_N@2@AEBU?$pair@$$CB_KH@2@@Z ; std::_Tree<std::_Tmap_traits<unsigned __int64,int,std::less<unsigned __int64>,std::allocator<std::pair<unsigned __int64 const ,int> >,0> >::insert
PUBLIC	?_Lbound@?$_Tree@V?$_Tmap_traits@_KHU?$less@_K@std@@V?$allocator@U?$pair@$$CB_KH@std@@@2@$0A@@std@@@std@@IEBAPEAU_Node@?$_Tree_nod@V?$_Tmap_traits@_KHU?$less@_K@std@@V?$allocator@U?$pair@$$CB_KH@std@@@2@$0A@@std@@@2@AEB_K@Z ; std::_Tree<std::_Tmap_traits<unsigned __int64,int,std::less<unsigned __int64>,std::allocator<std::pair<unsigned __int64 const ,int> >,0> >::_Lbound
PUBLIC	?lower_bound@?$_Tree@V?$_Tmap_traits@_KHU?$less@_K@std@@V?$allocator@U?$pair@$$CB_KH@std@@@2@$0A@@std@@@std@@QEAA?AViterator@12@AEB_K@Z ; std::_Tree<std::_Tmap_traits<unsigned __int64,int,std::less<unsigned __int64>,std::allocator<std::pair<unsigned __int64 const ,int> >,0> >::lower_bound
PUBLIC	?find@?$_Tree@V?$_Tmap_traits@_KHU?$less@_K@std@@V?$allocator@U?$pair@$$CB_KH@std@@@2@$0A@@std@@@std@@QEAA?AViterator@12@AEB_K@Z ; std::_Tree<std::_Tmap_traits<unsigned __int64,int,std::less<unsigned __int64>,std::allocator<std::pair<unsigned __int64 const ,int> >,0> >::find
PUBLIC	??Dconst_iterator@?$_Tree@V?$_Tmap_traits@_KHU?$less@_K@std@@V?$allocator@U?$pair@$$CB_KH@std@@@2@$0A@@std@@@std@@QEBAAEBU?$pair@$$CB_KH@2@XZ ; std::_Tree<std::_Tmap_traits<unsigned __int64,int,std::less<unsigned __int64>,std::allocator<std::pair<unsigned __int64 const ,int> >,0> >::const_iterator::operator*
PUBLIC	??Diterator@?$_Tree@V?$_Tmap_traits@_KHU?$less@_K@std@@V?$allocator@U?$pair@$$CB_KH@std@@@2@$0A@@std@@@std@@QEBAAEAU?$pair@$$CB_KH@2@XZ ; std::_Tree<std::_Tmap_traits<unsigned __int64,int,std::less<unsigned __int64>,std::allocator<std::pair<unsigned __int64 const ,int> >,0> >::iterator::operator*
PUBLIC	??Citerator@?$_Tree@V?$_Tmap_traits@_KHU?$less@_K@std@@V?$allocator@U?$pair@$$CB_KH@std@@@2@$0A@@std@@@std@@QEBAPEAU?$pair@$$CB_KH@2@XZ ; std::_Tree<std::_Tmap_traits<unsigned __int64,int,std::less<unsigned __int64>,std::allocator<std::pair<unsigned __int64 const ,int> >,0> >::iterator::operator->
PUBLIC	??0?$pair@_KH@std@@QEAA@AEB_KAEBH@Z		; std::pair<unsigned __int64,int>::pair<unsigned __int64,int>
PUBLIC	??$?0_KH@?$pair@$$CB_KH@std@@QEAA@AEBU?$pair@_KH@1@@Z ; std::pair<unsigned __int64 const ,int>::pair<unsigned __int64 const ,int><unsigned __int64,int>
PUBLIC	?size@?$_Tree@V?$_Tmap_traits@KPEAVThreadInfo@@U?$less@K@std@@V?$allocator@U?$pair@$$CBKPEAVThreadInfo@@@std@@@3@$0A@@std@@@std@@QEBA_KXZ ; std::_Tree<std::_Tmap_traits<unsigned long,ThreadInfo * __ptr64,std::less<unsigned long>,std::allocator<std::pair<unsigned long const ,ThreadInfo * __ptr64> >,0> >::size
PUBLIC	??0const_iterator@?$_Tree@V?$_Tmap_traits@KPEAVThreadInfo@@U?$less@K@std@@V?$allocator@U?$pair@$$CBKPEAVThreadInfo@@@std@@@3@$0A@@std@@@std@@QEAA@XZ ; std::_Tree<std::_Tmap_traits<unsigned long,ThreadInfo * __ptr64,std::less<unsigned long>,std::allocator<std::pair<unsigned long const ,ThreadInfo * __ptr64> >,0> >::const_iterator::const_iterator
PUBLIC	?insert@?$_Tree@V?$_Tmap_traits@KPEAVThreadInfo@@U?$less@K@std@@V?$allocator@U?$pair@$$CBKPEAVThreadInfo@@@std@@@3@$0A@@std@@@std@@QEAA?AViterator@12@Vconst_iterator@12@AEBU?$pair@$$CBKPEAVThreadInfo@@@2@@Z ; std::_Tree<std::_Tmap_traits<unsigned long,ThreadInfo * __ptr64,std::less<unsigned long>,std::allocator<std::pair<unsigned long const ,ThreadInfo * __ptr64> >,0> >::insert
PUBLIC	??Dconst_iterator@?$_Tree@V?$_Tmap_traits@KPEAVThreadInfo@@U?$less@K@std@@V?$allocator@U?$pair@$$CBKPEAVThreadInfo@@@std@@@3@$0A@@std@@@std@@QEBAAEBU?$pair@$$CBKPEAVThreadInfo@@@2@XZ ; std::_Tree<std::_Tmap_traits<unsigned long,ThreadInfo * __ptr64,std::less<unsigned long>,std::allocator<std::pair<unsigned long const ,ThreadInfo * __ptr64> >,0> >::const_iterator::operator*
PUBLIC	??Diterator@?$_Tree@V?$_Tmap_traits@KPEAVThreadInfo@@U?$less@K@std@@V?$allocator@U?$pair@$$CBKPEAVThreadInfo@@@std@@@3@$0A@@std@@@std@@QEBAAEAU?$pair@$$CBKPEAVThreadInfo@@@2@XZ ; std::_Tree<std::_Tmap_traits<unsigned long,ThreadInfo * __ptr64,std::less<unsigned long>,std::allocator<std::pair<unsigned long const ,ThreadInfo * __ptr64> >,0> >::iterator::operator*
PUBLIC	??0?$pair@$$CBKPEAVThreadInfo@@@std@@QEAA@AEBKAEBQEAVThreadInfo@@@Z ; std::pair<unsigned long const ,ThreadInfo * __ptr64>::pair<unsigned long const ,ThreadInfo * __ptr64>
PUBLIC	??A?$map@KPEAVThreadInfo@@U?$less@K@std@@V?$allocator@U?$pair@$$CBKPEAVThreadInfo@@@std@@@3@@std@@QEAAAEAPEAVThreadInfo@@AEBK@Z ; std::map<unsigned long,ThreadInfo * __ptr64,std::less<unsigned long>,std::allocator<std::pair<unsigned long const ,ThreadInfo * __ptr64> > >::operator[]
PUBLIC	??0CriticalSection@@QEAA@XZ			; CriticalSection::CriticalSection
PUBLIC	??0?$allocator@U?$pair@$$CB_KH@std@@@std@@QEAA@XZ ; std::allocator<std::pair<unsigned __int64 const ,int> >::allocator<std::pair<unsigned __int64 const ,int> >
PUBLIC	??$?0U?$pair@$$CB_KH@std@@@?$allocator@V_Aux_cont@std@@@std@@QEAA@AEBV?$allocator@U?$pair@$$CB_KH@std@@@1@@Z ; std::allocator<std::_Aux_cont>::allocator<std::_Aux_cont><std::pair<unsigned __int64 const ,int> >
PUBLIC	??0?$_Container_base_aux_alloc_real@V?$allocator@U?$pair@$$CB_KH@std@@@std@@@std@@IEAA@V?$allocator@U?$pair@$$CB_KH@std@@@1@@Z ; std::_Container_base_aux_alloc_real<std::allocator<std::pair<unsigned __int64 const ,int> > >::_Container_base_aux_alloc_real<std::allocator<std::pair<unsigned __int64 const ,int> > >
PUBLIC	??0?$allocator@U?$pair@$$CB_KH@std@@@std@@QEAA@AEBV01@@Z ; std::allocator<std::pair<unsigned __int64 const ,int> >::allocator<std::pair<unsigned __int64 const ,int> >
PUBLIC	??0?$_Tmap_traits@_KHU?$less@_K@std@@V?$allocator@U?$pair@$$CB_KH@std@@@2@$0A@@std@@QEAA@U?$less@_K@1@V?$allocator@U?$pair@$$CB_KH@std@@@1@@Z ; std::_Tmap_traits<unsigned __int64,int,std::less<unsigned __int64>,std::allocator<std::pair<unsigned __int64 const ,int> >,0>::_Tmap_traits<unsigned __int64,int,std::less<unsigned __int64>,std::allocator<std::pair<unsigned __int64 const ,int> >,0>
PUBLIC	??$?0U?$pair@$$CB_KH@std@@@?$allocator@U_Node@?$_Tree_nod@V?$_Tmap_traits@_KHU?$less@_K@std@@V?$allocator@U?$pair@$$CB_KH@std@@@2@$0A@@std@@@std@@@std@@QEAA@AEBV?$allocator@U?$pair@$$CB_KH@std@@@1@@Z ; std::allocator<std::_Tree_nod<std::_Tmap_traits<unsigned __int64,int,std::less<unsigned __int64>,std::allocator<std::pair<unsigned __int64 const ,int> >,0> >::_Node>::allocator<std::_Tree_nod<std::_Tmap_traits<unsigned __int64,int,std::less<unsigned __int64>,std::allocator<std::pair<unsigned __int64 const ,int> >,0> >::_Node><std::pair<unsigned __int64 const ,int> >
PUBLIC	??0?$_Tree_nod@V?$_Tmap_traits@_KHU?$less@_K@std@@V?$allocator@U?$pair@$$CB_KH@std@@@2@$0A@@std@@@std@@IEAA@AEBU?$less@_K@1@V?$allocator@U?$pair@$$CB_KH@std@@@1@@Z ; std::_Tree_nod<std::_Tmap_traits<unsigned __int64,int,std::less<unsigned __int64>,std::allocator<std::pair<unsigned __int64 const ,int> >,0> >::_Tree_nod<std::_Tmap_traits<unsigned __int64,int,std::less<unsigned __int64>,std::allocator<std::pair<unsigned __int64 const ,int> >,0> >
PUBLIC	??$?0U?$pair@$$CB_KH@std@@@?$allocator@PEAU_Node@?$_Tree_nod@V?$_Tmap_traits@_KHU?$less@_K@std@@V?$allocator@U?$pair@$$CB_KH@std@@@2@$0A@@std@@@std@@@std@@QEAA@AEBV?$allocator@U?$pair@$$CB_KH@std@@@1@@Z ; std::allocator<std::_Tree_nod<std::_Tmap_traits<unsigned __int64,int,std::less<unsigned __int64>,std::allocator<std::pair<unsigned __int64 const ,int> >,0> >::_Node * __ptr64>::allocator<std::_Tree_nod<std::_Tmap_traits<unsigned __int64,int,std::less<unsigned __int64>,std::allocator<std::pair<unsigned __int64 const ,int> >,0> >::_Node * __ptr64><std::pair<unsigned __int64 const ,int> >
PUBLIC	??0?$_Tree_ptr@V?$_Tmap_traits@_KHU?$less@_K@std@@V?$allocator@U?$pair@$$CB_KH@std@@@2@$0A@@std@@@std@@IEAA@AEBU?$less@_K@1@V?$allocator@U?$pair@$$CB_KH@std@@@1@@Z ; std::_Tree_ptr<std::_Tmap_traits<unsigned __int64,int,std::less<unsigned __int64>,std::allocator<std::pair<unsigned __int64 const ,int> >,0> >::_Tree_ptr<std::_Tmap_traits<unsigned __int64,int,std::less<unsigned __int64>,std::allocator<std::pair<unsigned __int64 const ,int> >,0> >
PUBLIC	??0?$_Tree_val@V?$_Tmap_traits@_KHU?$less@_K@std@@V?$allocator@U?$pair@$$CB_KH@std@@@2@$0A@@std@@@std@@IEAA@AEBU?$less@_K@1@V?$allocator@U?$pair@$$CB_KH@std@@@1@@Z ; std::_Tree_val<std::_Tmap_traits<unsigned __int64,int,std::less<unsigned __int64>,std::allocator<std::pair<unsigned __int64 const ,int> >,0> >::_Tree_val<std::_Tmap_traits<unsigned __int64,int,std::less<unsigned __int64>,std::allocator<std::pair<unsigned __int64 const ,int> >,0> >
PUBLIC	??$_Allocate@U_Node@?$_Tree_nod@V?$_Tmap_traits@_KHU?$less@_K@std@@V?$allocator@U?$pair@$$CB_KH@std@@@2@$0A@@std@@@std@@@std@@YAPEAU_Node@?$_Tree_nod@V?$_Tmap_traits@_KHU?$less@_K@std@@V?$allocator@U?$pair@$$CB_KH@std@@@2@$0A@@std@@@0@_KPEAU120@@Z ; std::_Allocate<std::_Tree_nod<std::_Tmap_traits<unsigned __int64,int,std::less<unsigned __int64>,std::allocator<std::pair<unsigned __int64 const ,int> >,0> >::_Node>
PUBLIC	?allocate@?$allocator@U_Node@?$_Tree_nod@V?$_Tmap_traits@_KHU?$less@_K@std@@V?$allocator@U?$pair@$$CB_KH@std@@@2@$0A@@std@@@std@@@std@@QEAAPEAU_Node@?$_Tree_nod@V?$_Tmap_traits@_KHU?$less@_K@std@@V?$allocator@U?$pair@$$CB_KH@std@@@2@$0A@@std@@@2@_K@Z ; std::allocator<std::_Tree_nod<std::_Tmap_traits<unsigned __int64,int,std::less<unsigned __int64>,std::allocator<std::pair<unsigned __int64 const ,int> >,0> >::_Node>::allocate
PUBLIC	??$_Construct@PEAU_Node@?$_Tree_nod@V?$_Tmap_traits@_KHU?$less@_K@std@@V?$allocator@U?$pair@$$CB_KH@std@@@2@$0A@@std@@@std@@PEAU123@@std@@YAXPEAPEAU_Node@?$_Tree_nod@V?$_Tmap_traits@_KHU?$less@_K@std@@V?$allocator@U?$pair@$$CB_KH@std@@@2@$0A@@std@@@0@AEBQEAU120@@Z ; std::_Construct<std::_Tree_nod<std::_Tmap_traits<unsigned __int64,int,std::less<unsigned __int64>,std::allocator<std::pair<unsigned __int64 const ,int> >,0> >::_Node * __ptr64,std::_Tree_nod<std::_Tmap_traits<unsigned __int64,int,std::less<unsigned __int64>,std::allocator<std::pair<unsigned __int64 const ,int> >,0> >::_Node * __ptr64>
PUBLIC	?construct@?$allocator@PEAU_Node@?$_Tree_nod@V?$_Tmap_traits@_KHU?$less@_K@std@@V?$allocator@U?$pair@$$CB_KH@std@@@2@$0A@@std@@@std@@@std@@QEAAXPEAPEAU_Node@?$_Tree_nod@V?$_Tmap_traits@_KHU?$less@_K@std@@V?$allocator@U?$pair@$$CB_KH@std@@@2@$0A@@std@@@2@AEBQEAU342@@Z ; std::allocator<std::_Tree_nod<std::_Tmap_traits<unsigned __int64,int,std::less<unsigned __int64>,std::allocator<std::pair<unsigned __int64 const ,int> >,0> >::_Node * __ptr64>::construct
PUBLIC	?_Buynode@?$_Tree@V?$_Tmap_traits@_KHU?$less@_K@std@@V?$allocator@U?$pair@$$CB_KH@std@@@2@$0A@@std@@@std@@IEAAPEAU_Node@?$_Tree_nod@V?$_Tmap_traits@_KHU?$less@_K@std@@V?$allocator@U?$pair@$$CB_KH@std@@@2@$0A@@std@@@2@XZ ; std::_Tree<std::_Tmap_traits<unsigned __int64,int,std::less<unsigned __int64>,std::allocator<std::pair<unsigned __int64 const ,int> >,0> >::_Buynode
PUBLIC	?_Init@?$_Tree@V?$_Tmap_traits@_KHU?$less@_K@std@@V?$allocator@U?$pair@$$CB_KH@std@@@2@$0A@@std@@@std@@IEAAXXZ ; std::_Tree<std::_Tmap_traits<unsigned __int64,int,std::less<unsigned __int64>,std::allocator<std::pair<unsigned __int64 const ,int> >,0> >::_Init
PUBLIC	??0?$_Tree@V?$_Tmap_traits@_KHU?$less@_K@std@@V?$allocator@U?$pair@$$CB_KH@std@@@2@$0A@@std@@@std@@QEAA@AEBU?$less@_K@1@AEBV?$allocator@U?$pair@$$CB_KH@std@@@1@@Z ; std::_Tree<std::_Tmap_traits<unsigned __int64,int,std::less<unsigned __int64>,std::allocator<std::pair<unsigned __int64 const ,int> >,0> >::_Tree<std::_Tmap_traits<unsigned __int64,int,std::less<unsigned __int64>,std::allocator<std::pair<unsigned __int64 const ,int> >,0> >
PUBLIC	??0?$map@_KHU?$less@_K@std@@V?$allocator@U?$pair@$$CB_KH@std@@@2@@std@@QEAA@XZ ; std::map<unsigned __int64,int,std::less<unsigned __int64>,std::allocator<std::pair<unsigned __int64 const ,int> > >::map<unsigned __int64,int,std::less<unsigned __int64>,std::allocator<std::pair<unsigned __int64 const ,int> > >
PUBLIC	??0?$allocator@U?$pair@$$CB_KPEAVThreadInfo@@@std@@@std@@QEAA@XZ ; std::allocator<std::pair<unsigned __int64 const ,ThreadInfo * __ptr64> >::allocator<std::pair<unsigned __int64 const ,ThreadInfo * __ptr64> >
PUBLIC	??$?0U?$pair@$$CB_KPEAVThreadInfo@@@std@@@?$allocator@V_Aux_cont@std@@@std@@QEAA@AEBV?$allocator@U?$pair@$$CB_KPEAVThreadInfo@@@std@@@1@@Z ; std::allocator<std::_Aux_cont>::allocator<std::_Aux_cont><std::pair<unsigned __int64 const ,ThreadInfo * __ptr64> >
PUBLIC	??0?$_Container_base_aux_alloc_real@V?$allocator@U?$pair@$$CB_KPEAVThreadInfo@@@std@@@std@@@std@@IEAA@V?$allocator@U?$pair@$$CB_KPEAVThreadInfo@@@std@@@1@@Z ; std::_Container_base_aux_alloc_real<std::allocator<std::pair<unsigned __int64 const ,ThreadInfo * __ptr64> > >::_Container_base_aux_alloc_real<std::allocator<std::pair<unsigned __int64 const ,ThreadInfo * __ptr64> > >
PUBLIC	??0?$allocator@U?$pair@$$CB_KPEAVThreadInfo@@@std@@@std@@QEAA@AEBV01@@Z ; std::allocator<std::pair<unsigned __int64 const ,ThreadInfo * __ptr64> >::allocator<std::pair<unsigned __int64 const ,ThreadInfo * __ptr64> >
PUBLIC	??0?$_Tmap_traits@_KPEAVThreadInfo@@U?$less@_K@std@@V?$allocator@U?$pair@$$CB_KPEAVThreadInfo@@@std@@@3@$0A@@std@@QEAA@U?$less@_K@1@V?$allocator@U?$pair@$$CB_KPEAVThreadInfo@@@std@@@1@@Z ; std::_Tmap_traits<unsigned __int64,ThreadInfo * __ptr64,std::less<unsigned __int64>,std::allocator<std::pair<unsigned __int64 const ,ThreadInfo * __ptr64> >,0>::_Tmap_traits<unsigned __int64,ThreadInfo * __ptr64,std::less<unsigned __int64>,std::allocator<std::pair<unsigned __int64 const ,ThreadInfo * __ptr64> >,0>
PUBLIC	??$?0U?$pair@$$CB_KPEAVThreadInfo@@@std@@@?$allocator@U_Node@?$_Tree_nod@V?$_Tmap_traits@_KPEAVThreadInfo@@U?$less@_K@std@@V?$allocator@U?$pair@$$CB_KPEAVThreadInfo@@@std@@@3@$0A@@std@@@std@@@std@@QEAA@AEBV?$allocator@U?$pair@$$CB_KPEAVThreadInfo@@@std@@@1@@Z ; std::allocator<std::_Tree_nod<std::_Tmap_traits<unsigned __int64,ThreadInfo * __ptr64,std::less<unsigned __int64>,std::allocator<std::pair<unsigned __int64 const ,ThreadInfo * __ptr64> >,0> >::_Node>::allocator<std::_Tree_nod<std::_Tmap_traits<unsigned __int64,ThreadInfo * __ptr64,std::less<unsigned __int64>,std::allocator<std::pair<unsigned __int64 const ,ThreadInfo * __ptr64> >,0> >::_Node><std::pair<unsigned __int64 const ,ThreadInfo * __ptr64> >
PUBLIC	??0?$_Tree_nod@V?$_Tmap_traits@_KPEAVThreadInfo@@U?$less@_K@std@@V?$allocator@U?$pair@$$CB_KPEAVThreadInfo@@@std@@@3@$0A@@std@@@std@@IEAA@AEBU?$less@_K@1@V?$allocator@U?$pair@$$CB_KPEAVThreadInfo@@@std@@@1@@Z ; std::_Tree_nod<std::_Tmap_traits<unsigned __int64,ThreadInfo * __ptr64,std::less<unsigned __int64>,std::allocator<std::pair<unsigned __int64 const ,ThreadInfo * __ptr64> >,0> >::_Tree_nod<std::_Tmap_traits<unsigned __int64,ThreadInfo * __ptr64,std::less<unsigned __int64>,std::allocator<std::pair<unsigned __int64 const ,ThreadInfo * __ptr64> >,0> >
PUBLIC	??$?0U?$pair@$$CB_KPEAVThreadInfo@@@std@@@?$allocator@PEAU_Node@?$_Tree_nod@V?$_Tmap_traits@_KPEAVThreadInfo@@U?$less@_K@std@@V?$allocator@U?$pair@$$CB_KPEAVThreadInfo@@@std@@@3@$0A@@std@@@std@@@std@@QEAA@AEBV?$allocator@U?$pair@$$CB_KPEAVThreadInfo@@@std@@@1@@Z ; std::allocator<std::_Tree_nod<std::_Tmap_traits<unsigned __int64,ThreadInfo * __ptr64,std::less<unsigned __int64>,std::allocator<std::pair<unsigned __int64 const ,ThreadInfo * __ptr64> >,0> >::_Node * __ptr64>::allocator<std::_Tree_nod<std::_Tmap_traits<unsigned __int64,ThreadInfo * __ptr64,std::less<unsigned __int64>,std::allocator<std::pair<unsigned __int64 const ,ThreadInfo * __ptr64> >,0> >::_Node * __ptr64><std::pair<unsigned __int64 const ,ThreadInfo * __ptr64> >
PUBLIC	??0?$_Tree_ptr@V?$_Tmap_traits@_KPEAVThreadInfo@@U?$less@_K@std@@V?$allocator@U?$pair@$$CB_KPEAVThreadInfo@@@std@@@3@$0A@@std@@@std@@IEAA@AEBU?$less@_K@1@V?$allocator@U?$pair@$$CB_KPEAVThreadInfo@@@std@@@1@@Z ; std::_Tree_ptr<std::_Tmap_traits<unsigned __int64,ThreadInfo * __ptr64,std::less<unsigned __int64>,std::allocator<std::pair<unsigned __int64 const ,ThreadInfo * __ptr64> >,0> >::_Tree_ptr<std::_Tmap_traits<unsigned __int64,ThreadInfo * __ptr64,std::less<unsigned __int64>,std::allocator<std::pair<unsigned __int64 const ,ThreadInfo * __ptr64> >,0> >
PUBLIC	??0?$_Tree_val@V?$_Tmap_traits@_KPEAVThreadInfo@@U?$less@_K@std@@V?$allocator@U?$pair@$$CB_KPEAVThreadInfo@@@std@@@3@$0A@@std@@@std@@IEAA@AEBU?$less@_K@1@V?$allocator@U?$pair@$$CB_KPEAVThreadInfo@@@std@@@1@@Z ; std::_Tree_val<std::_Tmap_traits<unsigned __int64,ThreadInfo * __ptr64,std::less<unsigned __int64>,std::allocator<std::pair<unsigned __int64 const ,ThreadInfo * __ptr64> >,0> >::_Tree_val<std::_Tmap_traits<unsigned __int64,ThreadInfo * __ptr64,std::less<unsigned __int64>,std::allocator<std::pair<unsigned __int64 const ,ThreadInfo * __ptr64> >,0> >
PUBLIC	??$_Construct@PEAU_Node@?$_Tree_nod@V?$_Tmap_traits@_KPEAVThreadInfo@@U?$less@_K@std@@V?$allocator@U?$pair@$$CB_KPEAVThreadInfo@@@std@@@3@$0A@@std@@@std@@PEAU123@@std@@YAXPEAPEAU_Node@?$_Tree_nod@V?$_Tmap_traits@_KPEAVThreadInfo@@U?$less@_K@std@@V?$allocator@U?$pair@$$CB_KPEAVThreadInfo@@@std@@@3@$0A@@std@@@0@AEBQEAU120@@Z ; std::_Construct<std::_Tree_nod<std::_Tmap_traits<unsigned __int64,ThreadInfo * __ptr64,std::less<unsigned __int64>,std::allocator<std::pair<unsigned __int64 const ,ThreadInfo * __ptr64> >,0> >::_Node * __ptr64,std::_Tree_nod<std::_Tmap_traits<unsigned __int64,ThreadInfo * __ptr64,std::less<unsigned __int64>,std::allocator<std::pair<unsigned __int64 const ,ThreadInfo * __ptr64> >,0> >::_Node * __ptr64>
PUBLIC	?construct@?$allocator@PEAU_Node@?$_Tree_nod@V?$_Tmap_traits@_KPEAVThreadInfo@@U?$less@_K@std@@V?$allocator@U?$pair@$$CB_KPEAVThreadInfo@@@std@@@3@$0A@@std@@@std@@@std@@QEAAXPEAPEAU_Node@?$_Tree_nod@V?$_Tmap_traits@_KPEAVThreadInfo@@U?$less@_K@std@@V?$allocator@U?$pair@$$CB_KPEAVThreadInfo@@@std@@@3@$0A@@std@@@2@AEBQEAU342@@Z ; std::allocator<std::_Tree_nod<std::_Tmap_traits<unsigned __int64,ThreadInfo * __ptr64,std::less<unsigned __int64>,std::allocator<std::pair<unsigned __int64 const ,ThreadInfo * __ptr64> >,0> >::_Node * __ptr64>::construct
PUBLIC	?_Buynode@?$_Tree@V?$_Tmap_traits@_KPEAVThreadInfo@@U?$less@_K@std@@V?$allocator@U?$pair@$$CB_KPEAVThreadInfo@@@std@@@3@$0A@@std@@@std@@IEAAPEAU_Node@?$_Tree_nod@V?$_Tmap_traits@_KPEAVThreadInfo@@U?$less@_K@std@@V?$allocator@U?$pair@$$CB_KPEAVThreadInfo@@@std@@@3@$0A@@std@@@2@XZ ; std::_Tree<std::_Tmap_traits<unsigned __int64,ThreadInfo * __ptr64,std::less<unsigned __int64>,std::allocator<std::pair<unsigned __int64 const ,ThreadInfo * __ptr64> >,0> >::_Buynode
PUBLIC	?_Init@?$_Tree@V?$_Tmap_traits@_KPEAVThreadInfo@@U?$less@_K@std@@V?$allocator@U?$pair@$$CB_KPEAVThreadInfo@@@std@@@3@$0A@@std@@@std@@IEAAXXZ ; std::_Tree<std::_Tmap_traits<unsigned __int64,ThreadInfo * __ptr64,std::less<unsigned __int64>,std::allocator<std::pair<unsigned __int64 const ,ThreadInfo * __ptr64> >,0> >::_Init
PUBLIC	??0?$_Tree@V?$_Tmap_traits@_KPEAVThreadInfo@@U?$less@_K@std@@V?$allocator@U?$pair@$$CB_KPEAVThreadInfo@@@std@@@3@$0A@@std@@@std@@QEAA@AEBU?$less@_K@1@AEBV?$allocator@U?$pair@$$CB_KPEAVThreadInfo@@@std@@@1@@Z ; std::_Tree<std::_Tmap_traits<unsigned __int64,ThreadInfo * __ptr64,std::less<unsigned __int64>,std::allocator<std::pair<unsigned __int64 const ,ThreadInfo * __ptr64> >,0> >::_Tree<std::_Tmap_traits<unsigned __int64,ThreadInfo * __ptr64,std::less<unsigned __int64>,std::allocator<std::pair<unsigned __int64 const ,ThreadInfo * __ptr64> >,0> >
PUBLIC	??0?$map@_KPEAVThreadInfo@@U?$less@_K@std@@V?$allocator@U?$pair@$$CB_KPEAVThreadInfo@@@std@@@3@@std@@QEAA@XZ ; std::map<unsigned __int64,ThreadInfo * __ptr64,std::less<unsigned __int64>,std::allocator<std::pair<unsigned __int64 const ,ThreadInfo * __ptr64> > >::map<unsigned __int64,ThreadInfo * __ptr64,std::less<unsigned __int64>,std::allocator<std::pair<unsigned __int64 const ,ThreadInfo * __ptr64> > >
PUBLIC	??0?$allocator@U?$pair@$$CBKPEAVThreadInfo@@@std@@@std@@QEAA@XZ ; std::allocator<std::pair<unsigned long const ,ThreadInfo * __ptr64> >::allocator<std::pair<unsigned long const ,ThreadInfo * __ptr64> >
PUBLIC	??0_Aux_cont@std@@QEAA@QEBV_Container_base_aux@1@@Z ; std::_Aux_cont::_Aux_cont
PUBLIC	??0_Container_base_aux@std@@QEAA@XZ		; std::_Container_base_aux::_Container_base_aux
PUBLIC	??$_Allocate@V_Aux_cont@std@@@std@@YAPEAV_Aux_cont@0@_KPEAV10@@Z ; std::_Allocate<std::_Aux_cont>
PUBLIC	?allocate@?$allocator@V_Aux_cont@std@@@std@@QEAAPEAV_Aux_cont@2@_K@Z ; std::allocator<std::_Aux_cont>::allocate
PUBLIC	??$?0U?$pair@$$CBKPEAVThreadInfo@@@std@@@?$allocator@V_Aux_cont@std@@@std@@QEAA@AEBV?$allocator@U?$pair@$$CBKPEAVThreadInfo@@@std@@@1@@Z ; std::allocator<std::_Aux_cont>::allocator<std::_Aux_cont><std::pair<unsigned long const ,ThreadInfo * __ptr64> >
PUBLIC	??0?$_Container_base_aux_alloc_real@V?$allocator@U?$pair@$$CBKPEAVThreadInfo@@@std@@@std@@@std@@IEAA@V?$allocator@U?$pair@$$CBKPEAVThreadInfo@@@std@@@1@@Z ; std::_Container_base_aux_alloc_real<std::allocator<std::pair<unsigned long const ,ThreadInfo * __ptr64> > >::_Container_base_aux_alloc_real<std::allocator<std::pair<unsigned long const ,ThreadInfo * __ptr64> > >
PUBLIC	??0?$allocator@U?$pair@$$CBKPEAVThreadInfo@@@std@@@std@@QEAA@AEBV01@@Z ; std::allocator<std::pair<unsigned long const ,ThreadInfo * __ptr64> >::allocator<std::pair<unsigned long const ,ThreadInfo * __ptr64> >
PUBLIC	??0?$_Tmap_traits@KPEAVThreadInfo@@U?$less@K@std@@V?$allocator@U?$pair@$$CBKPEAVThreadInfo@@@std@@@3@$0A@@std@@QEAA@U?$less@K@1@V?$allocator@U?$pair@$$CBKPEAVThreadInfo@@@std@@@1@@Z ; std::_Tmap_traits<unsigned long,ThreadInfo * __ptr64,std::less<unsigned long>,std::allocator<std::pair<unsigned long const ,ThreadInfo * __ptr64> >,0>::_Tmap_traits<unsigned long,ThreadInfo * __ptr64,std::less<unsigned long>,std::allocator<std::pair<unsigned long const ,ThreadInfo * __ptr64> >,0>
PUBLIC	??$?0U?$pair@$$CBKPEAVThreadInfo@@@std@@@?$allocator@U_Node@?$_Tree_nod@V?$_Tmap_traits@KPEAVThreadInfo@@U?$less@K@std@@V?$allocator@U?$pair@$$CBKPEAVThreadInfo@@@std@@@3@$0A@@std@@@std@@@std@@QEAA@AEBV?$allocator@U?$pair@$$CBKPEAVThreadInfo@@@std@@@1@@Z ; std::allocator<std::_Tree_nod<std::_Tmap_traits<unsigned long,ThreadInfo * __ptr64,std::less<unsigned long>,std::allocator<std::pair<unsigned long const ,ThreadInfo * __ptr64> >,0> >::_Node>::allocator<std::_Tree_nod<std::_Tmap_traits<unsigned long,ThreadInfo * __ptr64,std::less<unsigned long>,std::allocator<std::pair<unsigned long const ,ThreadInfo * __ptr64> >,0> >::_Node><std::pair<unsigned long const ,ThreadInfo * __ptr64> >
PUBLIC	??0?$_Tree_nod@V?$_Tmap_traits@KPEAVThreadInfo@@U?$less@K@std@@V?$allocator@U?$pair@$$CBKPEAVThreadInfo@@@std@@@3@$0A@@std@@@std@@IEAA@AEBU?$less@K@1@V?$allocator@U?$pair@$$CBKPEAVThreadInfo@@@std@@@1@@Z ; std::_Tree_nod<std::_Tmap_traits<unsigned long,ThreadInfo * __ptr64,std::less<unsigned long>,std::allocator<std::pair<unsigned long const ,ThreadInfo * __ptr64> >,0> >::_Tree_nod<std::_Tmap_traits<unsigned long,ThreadInfo * __ptr64,std::less<unsigned long>,std::allocator<std::pair<unsigned long const ,ThreadInfo * __ptr64> >,0> >
PUBLIC	??$?0U?$pair@$$CBKPEAVThreadInfo@@@std@@@?$allocator@PEAU_Node@?$_Tree_nod@V?$_Tmap_traits@KPEAVThreadInfo@@U?$less@K@std@@V?$allocator@U?$pair@$$CBKPEAVThreadInfo@@@std@@@3@$0A@@std@@@std@@@std@@QEAA@AEBV?$allocator@U?$pair@$$CBKPEAVThreadInfo@@@std@@@1@@Z ; std::allocator<std::_Tree_nod<std::_Tmap_traits<unsigned long,ThreadInfo * __ptr64,std::less<unsigned long>,std::allocator<std::pair<unsigned long const ,ThreadInfo * __ptr64> >,0> >::_Node * __ptr64>::allocator<std::_Tree_nod<std::_Tmap_traits<unsigned long,ThreadInfo * __ptr64,std::less<unsigned long>,std::allocator<std::pair<unsigned long const ,ThreadInfo * __ptr64> >,0> >::_Node * __ptr64><std::pair<unsigned long const ,ThreadInfo * __ptr64> >
PUBLIC	??0?$_Tree_ptr@V?$_Tmap_traits@KPEAVThreadInfo@@U?$less@K@std@@V?$allocator@U?$pair@$$CBKPEAVThreadInfo@@@std@@@3@$0A@@std@@@std@@IEAA@AEBU?$less@K@1@V?$allocator@U?$pair@$$CBKPEAVThreadInfo@@@std@@@1@@Z ; std::_Tree_ptr<std::_Tmap_traits<unsigned long,ThreadInfo * __ptr64,std::less<unsigned long>,std::allocator<std::pair<unsigned long const ,ThreadInfo * __ptr64> >,0> >::_Tree_ptr<std::_Tmap_traits<unsigned long,ThreadInfo * __ptr64,std::less<unsigned long>,std::allocator<std::pair<unsigned long const ,ThreadInfo * __ptr64> >,0> >
PUBLIC	??0?$_Tree_val@V?$_Tmap_traits@KPEAVThreadInfo@@U?$less@K@std@@V?$allocator@U?$pair@$$CBKPEAVThreadInfo@@@std@@@3@$0A@@std@@@std@@IEAA@AEBU?$less@K@1@V?$allocator@U?$pair@$$CBKPEAVThreadInfo@@@std@@@1@@Z ; std::_Tree_val<std::_Tmap_traits<unsigned long,ThreadInfo * __ptr64,std::less<unsigned long>,std::allocator<std::pair<unsigned long const ,ThreadInfo * __ptr64> >,0> >::_Tree_val<std::_Tmap_traits<unsigned long,ThreadInfo * __ptr64,std::less<unsigned long>,std::allocator<std::pair<unsigned long const ,ThreadInfo * __ptr64> >,0> >
PUBLIC	??$_Construct@PEAU_Node@?$_Tree_nod@V?$_Tmap_traits@KPEAVThreadInfo@@U?$less@K@std@@V?$allocator@U?$pair@$$CBKPEAVThreadInfo@@@std@@@3@$0A@@std@@@std@@PEAU123@@std@@YAXPEAPEAU_Node@?$_Tree_nod@V?$_Tmap_traits@KPEAVThreadInfo@@U?$less@K@std@@V?$allocator@U?$pair@$$CBKPEAVThreadInfo@@@std@@@3@$0A@@std@@@0@AEBQEAU120@@Z ; std::_Construct<std::_Tree_nod<std::_Tmap_traits<unsigned long,ThreadInfo * __ptr64,std::less<unsigned long>,std::allocator<std::pair<unsigned long const ,ThreadInfo * __ptr64> >,0> >::_Node * __ptr64,std::_Tree_nod<std::_Tmap_traits<unsigned long,ThreadInfo * __ptr64,std::less<unsigned long>,std::allocator<std::pair<unsigned long const ,ThreadInfo * __ptr64> >,0> >::_Node * __ptr64>
PUBLIC	?construct@?$allocator@PEAU_Node@?$_Tree_nod@V?$_Tmap_traits@KPEAVThreadInfo@@U?$less@K@std@@V?$allocator@U?$pair@$$CBKPEAVThreadInfo@@@std@@@3@$0A@@std@@@std@@@std@@QEAAXPEAPEAU_Node@?$_Tree_nod@V?$_Tmap_traits@KPEAVThreadInfo@@U?$less@K@std@@V?$allocator@U?$pair@$$CBKPEAVThreadInfo@@@std@@@3@$0A@@std@@@2@AEBQEAU342@@Z ; std::allocator<std::_Tree_nod<std::_Tmap_traits<unsigned long,ThreadInfo * __ptr64,std::less<unsigned long>,std::allocator<std::pair<unsigned long const ,ThreadInfo * __ptr64> >,0> >::_Node * __ptr64>::construct
PUBLIC	?_Buynode@?$_Tree@V?$_Tmap_traits@KPEAVThreadInfo@@U?$less@K@std@@V?$allocator@U?$pair@$$CBKPEAVThreadInfo@@@std@@@3@$0A@@std@@@std@@IEAAPEAU_Node@?$_Tree_nod@V?$_Tmap_traits@KPEAVThreadInfo@@U?$less@K@std@@V?$allocator@U?$pair@$$CBKPEAVThreadInfo@@@std@@@3@$0A@@std@@@2@XZ ; std::_Tree<std::_Tmap_traits<unsigned long,ThreadInfo * __ptr64,std::less<unsigned long>,std::allocator<std::pair<unsigned long const ,ThreadInfo * __ptr64> >,0> >::_Buynode
PUBLIC	?_Init@?$_Tree@V?$_Tmap_traits@KPEAVThreadInfo@@U?$less@K@std@@V?$allocator@U?$pair@$$CBKPEAVThreadInfo@@@std@@@3@$0A@@std@@@std@@IEAAXXZ ; std::_Tree<std::_Tmap_traits<unsigned long,ThreadInfo * __ptr64,std::less<unsigned long>,std::allocator<std::pair<unsigned long const ,ThreadInfo * __ptr64> >,0> >::_Init
PUBLIC	??0?$_Tree@V?$_Tmap_traits@KPEAVThreadInfo@@U?$less@K@std@@V?$allocator@U?$pair@$$CBKPEAVThreadInfo@@@std@@@3@$0A@@std@@@std@@QEAA@AEBU?$less@K@1@AEBV?$allocator@U?$pair@$$CBKPEAVThreadInfo@@@std@@@1@@Z ; std::_Tree<std::_Tmap_traits<unsigned long,ThreadInfo * __ptr64,std::less<unsigned long>,std::allocator<std::pair<unsigned long const ,ThreadInfo * __ptr64> >,0> >::_Tree<std::_Tmap_traits<unsigned long,ThreadInfo * __ptr64,std::less<unsigned long>,std::allocator<std::pair<unsigned long const ,ThreadInfo * __ptr64> >,0> >
PUBLIC	??0?$map@KPEAVThreadInfo@@U?$less@K@std@@V?$allocator@U?$pair@$$CBKPEAVThreadInfo@@@std@@@3@@std@@QEAA@XZ ; std::map<unsigned long,ThreadInfo * __ptr64,std::less<unsigned long>,std::allocator<std::pair<unsigned long const ,ThreadInfo * __ptr64> > >::map<unsigned long,ThreadInfo * __ptr64,std::less<unsigned long>,std::allocator<std::pair<unsigned long const ,ThreadInfo * __ptr64> > >
PUBLIC	?max_size@?$allocator@U?$pair@$$CBKPEAVThreadInfo@@@std@@@std@@QEBA_KXZ ; std::allocator<std::pair<unsigned long const ,ThreadInfo * __ptr64> >::max_size
PUBLIC	?max_size@?$_Tree@V?$_Tmap_traits@KPEAVThreadInfo@@U?$less@K@std@@V?$allocator@U?$pair@$$CBKPEAVThreadInfo@@@std@@@3@$0A@@std@@@std@@QEBA_KXZ ; std::_Tree<std::_Tmap_traits<unsigned long,ThreadInfo * __ptr64,std::less<unsigned long>,std::allocator<std::pair<unsigned long const ,ThreadInfo * __ptr64> >,0> >::max_size
PUBLIC	??$_Allocate@U_Node@?$_Tree_nod@V?$_Tmap_traits@KPEAVThreadInfo@@U?$less@K@std@@V?$allocator@U?$pair@$$CBKPEAVThreadInfo@@@std@@@3@$0A@@std@@@std@@@std@@YAPEAU_Node@?$_Tree_nod@V?$_Tmap_traits@KPEAVThreadInfo@@U?$less@K@std@@V?$allocator@U?$pair@$$CBKPEAVThreadInfo@@@std@@@3@$0A@@std@@@0@_KPEAU120@@Z ; std::_Allocate<std::_Tree_nod<std::_Tmap_traits<unsigned long,ThreadInfo * __ptr64,std::less<unsigned long>,std::allocator<std::pair<unsigned long const ,ThreadInfo * __ptr64> >,0> >::_Node>
PUBLIC	?allocate@?$allocator@U_Node@?$_Tree_nod@V?$_Tmap_traits@KPEAVThreadInfo@@U?$less@K@std@@V?$allocator@U?$pair@$$CBKPEAVThreadInfo@@@std@@@3@$0A@@std@@@std@@@std@@QEAAPEAU_Node@?$_Tree_nod@V?$_Tmap_traits@KPEAVThreadInfo@@U?$less@K@std@@V?$allocator@U?$pair@$$CBKPEAVThreadInfo@@@std@@@3@$0A@@std@@@2@_K@Z ; std::allocator<std::_Tree_nod<std::_Tmap_traits<unsigned long,ThreadInfo * __ptr64,std::less<unsigned long>,std::allocator<std::pair<unsigned long const ,ThreadInfo * __ptr64> >,0> >::_Node>::allocate
PUBLIC	??0_Node@?$_Tree_nod@V?$_Tmap_traits@KPEAVThreadInfo@@U?$less@K@std@@V?$allocator@U?$pair@$$CBKPEAVThreadInfo@@@std@@@3@$0A@@std@@@std@@QEAA@PEAU012@00AEBU?$pair@$$CBKPEAVThreadInfo@@@2@D@Z ; std::_Tree_nod<std::_Tmap_traits<unsigned long,ThreadInfo * __ptr64,std::less<unsigned long>,std::allocator<std::pair<unsigned long const ,ThreadInfo * __ptr64> >,0> >::_Node::_Node
PUBLIC	?_Buynode@?$_Tree@V?$_Tmap_traits@KPEAVThreadInfo@@U?$less@K@std@@V?$allocator@U?$pair@$$CBKPEAVThreadInfo@@@std@@@3@$0A@@std@@@std@@IEAAPEAU_Node@?$_Tree_nod@V?$_Tmap_traits@KPEAVThreadInfo@@U?$less@K@std@@V?$allocator@U?$pair@$$CBKPEAVThreadInfo@@@std@@@3@$0A@@std@@@2@PEAU342@00AEBU?$pair@$$CBKPEAVThreadInfo@@@2@D@Z ; std::_Tree<std::_Tmap_traits<unsigned long,ThreadInfo * __ptr64,std::less<unsigned long>,std::allocator<std::pair<unsigned long const ,ThreadInfo * __ptr64> >,0> >::_Buynode
PUBLIC	?_Insert@?$_Tree@V?$_Tmap_traits@KPEAVThreadInfo@@U?$less@K@std@@V?$allocator@U?$pair@$$CBKPEAVThreadInfo@@@std@@@3@$0A@@std@@@std@@IEAA?AViterator@12@_NPEAU_Node@?$_Tree_nod@V?$_Tmap_traits@KPEAVThreadInfo@@U?$less@K@std@@V?$allocator@U?$pair@$$CBKPEAVThreadInfo@@@std@@@3@$0A@@std@@@2@AEBU?$pair@$$CBKPEAVThreadInfo@@@2@@Z ; std::_Tree<std::_Tmap_traits<unsigned long,ThreadInfo * __ptr64,std::less<unsigned long>,std::allocator<std::pair<unsigned long const ,ThreadInfo * __ptr64> >,0> >::_Insert
PUBLIC	?_Dec@const_iterator@?$_Tree@V?$_Tmap_traits@KPEAVThreadInfo@@U?$less@K@std@@V?$allocator@U?$pair@$$CBKPEAVThreadInfo@@@std@@@3@$0A@@std@@@std@@QEAAXXZ ; std::_Tree<std::_Tmap_traits<unsigned long,ThreadInfo * __ptr64,std::less<unsigned long>,std::allocator<std::pair<unsigned long const ,ThreadInfo * __ptr64> >,0> >::const_iterator::_Dec
PUBLIC	??Fconst_iterator@?$_Tree@V?$_Tmap_traits@KPEAVThreadInfo@@U?$less@K@std@@V?$allocator@U?$pair@$$CBKPEAVThreadInfo@@@std@@@3@$0A@@std@@@std@@QEAAAEAV012@XZ ; std::_Tree<std::_Tmap_traits<unsigned long,ThreadInfo * __ptr64,std::less<unsigned long>,std::allocator<std::pair<unsigned long const ,ThreadInfo * __ptr64> >,0> >::const_iterator::operator--
PUBLIC	??Fiterator@?$_Tree@V?$_Tmap_traits@KPEAVThreadInfo@@U?$less@K@std@@V?$allocator@U?$pair@$$CBKPEAVThreadInfo@@@std@@@3@$0A@@std@@@std@@QEAAAEAV012@XZ ; std::_Tree<std::_Tmap_traits<unsigned long,ThreadInfo * __ptr64,std::less<unsigned long>,std::allocator<std::pair<unsigned long const ,ThreadInfo * __ptr64> >,0> >::iterator::operator--
PUBLIC	??0?$pair@Viterator@?$_Tree@V?$_Tmap_traits@KPEAVThreadInfo@@U?$less@K@std@@V?$allocator@U?$pair@$$CBKPEAVThreadInfo@@@std@@@3@$0A@@std@@@std@@_N@std@@QEAA@AEBViterator@?$_Tree@V?$_Tmap_traits@KPEAVThreadInfo@@U?$less@K@std@@V?$allocator@U?$pair@$$CBKPEAVThreadInfo@@@std@@@3@$0A@@std@@@1@AEB_N@Z ; std::pair<std::_Tree<std::_Tmap_traits<unsigned long,ThreadInfo * __ptr64,std::less<unsigned long>,std::allocator<std::pair<unsigned long const ,ThreadInfo * __ptr64> >,0> >::iterator,bool>::pair<std::_Tree<std::_Tmap_traits<unsigned long,ThreadInfo * __ptr64,std::less<unsigned long>,std::allocator<std::pair<unsigned long const ,ThreadInfo * __ptr64> >,0> >::iterator,bool>
PUBLIC	?insert@?$_Tree@V?$_Tmap_traits@KPEAVThreadInfo@@U?$less@K@std@@V?$allocator@U?$pair@$$CBKPEAVThreadInfo@@@std@@@3@$0A@@std@@@std@@QEAA?AU?$pair@Viterator@?$_Tree@V?$_Tmap_traits@KPEAVThreadInfo@@U?$less@K@std@@V?$allocator@U?$pair@$$CBKPEAVThreadInfo@@@std@@@3@$0A@@std@@@std@@_N@2@AEBU?$pair@$$CBKPEAVThreadInfo@@@2@@Z ; std::_Tree<std::_Tmap_traits<unsigned long,ThreadInfo * __ptr64,std::less<unsigned long>,std::allocator<std::pair<unsigned long const ,ThreadInfo * __ptr64> >,0> >::insert
PUBLIC	?_Lbound@?$_Tree@V?$_Tmap_traits@KPEAVThreadInfo@@U?$less@K@std@@V?$allocator@U?$pair@$$CBKPEAVThreadInfo@@@std@@@3@$0A@@std@@@std@@IEBAPEAU_Node@?$_Tree_nod@V?$_Tmap_traits@KPEAVThreadInfo@@U?$less@K@std@@V?$allocator@U?$pair@$$CBKPEAVThreadInfo@@@std@@@3@$0A@@std@@@2@AEBK@Z ; std::_Tree<std::_Tmap_traits<unsigned long,ThreadInfo * __ptr64,std::less<unsigned long>,std::allocator<std::pair<unsigned long const ,ThreadInfo * __ptr64> >,0> >::_Lbound
PUBLIC	?lower_bound@?$_Tree@V?$_Tmap_traits@KPEAVThreadInfo@@U?$less@K@std@@V?$allocator@U?$pair@$$CBKPEAVThreadInfo@@@std@@@3@$0A@@std@@@std@@QEAA?AViterator@12@AEBK@Z ; std::_Tree<std::_Tmap_traits<unsigned long,ThreadInfo * __ptr64,std::less<unsigned long>,std::allocator<std::pair<unsigned long const ,ThreadInfo * __ptr64> >,0> >::lower_bound
PUBLIC	?find@?$_Tree@V?$_Tmap_traits@KPEAVThreadInfo@@U?$less@K@std@@V?$allocator@U?$pair@$$CBKPEAVThreadInfo@@@std@@@3@$0A@@std@@@std@@QEAA?AViterator@12@AEBK@Z ; std::_Tree<std::_Tmap_traits<unsigned long,ThreadInfo * __ptr64,std::less<unsigned long>,std::allocator<std::pair<unsigned long const ,ThreadInfo * __ptr64> >,0> >::find
PUBLIC	??0?$pair@KPEAVThreadInfo@@@std@@QEAA@AEBKAEBQEAVThreadInfo@@@Z ; std::pair<unsigned long,ThreadInfo * __ptr64>::pair<unsigned long,ThreadInfo * __ptr64>
PUBLIC	??$?0KPEAVThreadInfo@@@?$pair@$$CBKPEAVThreadInfo@@@std@@QEAA@AEBU?$pair@KPEAVThreadInfo@@@1@@Z ; std::pair<unsigned long const ,ThreadInfo * __ptr64>::pair<unsigned long const ,ThreadInfo * __ptr64><unsigned long,ThreadInfo * __ptr64>
PUBLIC	?_Kfn@?$_Tmap_traits@_KHU?$less@_K@std@@V?$allocator@U?$pair@$$CB_KH@std@@@2@$0A@@std@@SAAEB_KAEBU?$pair@$$CB_KH@2@@Z ; std::_Tmap_traits<unsigned __int64,int,std::less<unsigned __int64>,std::allocator<std::pair<unsigned __int64 const ,int> >,0>::_Kfn
PUBLIC	?_Myval@?$_Tree@V?$_Tmap_traits@_KHU?$less@_K@std@@V?$allocator@U?$pair@$$CB_KH@std@@@2@$0A@@std@@@std@@KAAEAU?$pair@$$CB_KH@2@PEAU_Node@?$_Tree_nod@V?$_Tmap_traits@_KHU?$less@_K@std@@V?$allocator@U?$pair@$$CB_KH@std@@@2@$0A@@std@@@2@@Z ; std::_Tree<std::_Tmap_traits<unsigned __int64,int,std::less<unsigned __int64>,std::allocator<std::pair<unsigned __int64 const ,int> >,0> >::_Myval
PUBLIC	?_Key@?$_Tree@V?$_Tmap_traits@_KHU?$less@_K@std@@V?$allocator@U?$pair@$$CB_KH@std@@@2@$0A@@std@@@std@@KAAEB_KPEAU_Node@?$_Tree_nod@V?$_Tmap_traits@_KHU?$less@_K@std@@V?$allocator@U?$pair@$$CB_KH@std@@@2@$0A@@std@@@2@@Z ; std::_Tree<std::_Tmap_traits<unsigned __int64,int,std::less<unsigned __int64>,std::allocator<std::pair<unsigned __int64 const ,int> >,0> >::_Key
PUBLIC	??0?$pair@Viterator@?$_Tree@V?$_Tmap_traits@_KHU?$less@_K@std@@V?$allocator@U?$pair@$$CB_KH@std@@@2@$0A@@std@@@std@@V123@@std@@QEAA@AEBViterator@?$_Tree@V?$_Tmap_traits@_KHU?$less@_K@std@@V?$allocator@U?$pair@$$CB_KH@std@@@2@$0A@@std@@@1@0@Z ; std::pair<std::_Tree<std::_Tmap_traits<unsigned __int64,int,std::less<unsigned __int64>,std::allocator<std::pair<unsigned __int64 const ,int> >,0> >::iterator,std::_Tree<std::_Tmap_traits<unsigned __int64,int,std::less<unsigned __int64>,std::allocator<std::pair<unsigned __int64 const ,int> >,0> >::iterator>::pair<std::_Tree<std::_Tmap_traits<unsigned __int64,int,std::less<unsigned __int64>,std::allocator<std::pair<unsigned __int64 const ,int> >,0> >::iterator,std::_Tree<std::_Tmap_traits<unsigned __int64,int,std::less<unsigned __int64>,std::allocator<std::pair<unsigned __int64 const ,int> >,0> >::iterator>
PUBLIC	?_Eqrange@?$_Tree@V?$_Tmap_traits@_KHU?$less@_K@std@@V?$allocator@U?$pair@$$CB_KH@std@@@2@$0A@@std@@@std@@IEAA?AU?$pair@Viterator@?$_Tree@V?$_Tmap_traits@_KHU?$less@_K@std@@V?$allocator@U?$pair@$$CB_KH@std@@@2@$0A@@std@@@std@@V123@@2@AEB_K@Z ; std::_Tree<std::_Tmap_traits<unsigned __int64,int,std::less<unsigned __int64>,std::allocator<std::pair<unsigned __int64 const ,int> >,0> >::_Eqrange
PUBLIC	?equal_range@?$_Tree@V?$_Tmap_traits@_KHU?$less@_K@std@@V?$allocator@U?$pair@$$CB_KH@std@@@2@$0A@@std@@@std@@QEAA?AU?$pair@Viterator@?$_Tree@V?$_Tmap_traits@_KHU?$less@_K@std@@V?$allocator@U?$pair@$$CB_KH@std@@@2@$0A@@std@@@std@@V123@@2@AEB_K@Z ; std::_Tree<std::_Tmap_traits<unsigned __int64,int,std::less<unsigned __int64>,std::allocator<std::pair<unsigned __int64 const ,int> >,0> >::equal_range
PUBLIC	??$_Iter_cat@Viterator@?$_Tree@V?$_Tmap_traits@_KHU?$less@_K@std@@V?$allocator@U?$pair@$$CB_KH@std@@@2@$0A@@std@@@std@@@std@@YA?AUbidirectional_iterator_tag@0@AEBViterator@?$_Tree@V?$_Tmap_traits@_KHU?$less@_K@std@@V?$allocator@U?$pair@$$CB_KH@std@@@2@$0A@@std@@@0@@Z ; std::_Iter_cat<std::_Tree<std::_Tmap_traits<unsigned __int64,int,std::less<unsigned __int64>,std::allocator<std::pair<unsigned __int64 const ,int> >,0> >::iterator>
PUBLIC	??Eiterator@?$_Tree@V?$_Tmap_traits@_KHU?$less@_K@std@@V?$allocator@U?$pair@$$CB_KH@std@@@2@$0A@@std@@@std@@QEAAAEAV012@XZ ; std::_Tree<std::_Tmap_traits<unsigned __int64,int,std::less<unsigned __int64>,std::allocator<std::pair<unsigned __int64 const ,int> >,0> >::iterator::operator++
PUBLIC	??$_Distance2@Viterator@?$_Tree@V?$_Tmap_traits@_KHU?$less@_K@std@@V?$allocator@U?$pair@$$CB_KH@std@@@2@$0A@@std@@@std@@_K@std@@YAXViterator@?$_Tree@V?$_Tmap_traits@_KHU?$less@_K@std@@V?$allocator@U?$pair@$$CB_KH@std@@@2@$0A@@std@@@0@0AEA_KUbidirectional_iterator_tag@0@@Z ; std::_Distance2<std::_Tree<std::_Tmap_traits<unsigned __int64,int,std::less<unsigned __int64>,std::allocator<std::pair<unsigned __int64 const ,int> >,0> >::iterator,unsigned __int64>
PUBLIC	??$_Distance@Viterator@?$_Tree@V?$_Tmap_traits@_KHU?$less@_K@std@@V?$allocator@U?$pair@$$CB_KH@std@@@2@$0A@@std@@@std@@_K@std@@YAXViterator@?$_Tree@V?$_Tmap_traits@_KHU?$less@_K@std@@V?$allocator@U?$pair@$$CB_KH@std@@@2@$0A@@std@@@0@0AEA_K@Z ; std::_Distance<std::_Tree<std::_Tmap_traits<unsigned __int64,int,std::less<unsigned __int64>,std::allocator<std::pair<unsigned __int64 const ,int> >,0> >::iterator,unsigned __int64>
PUBLIC	?erase@?$_Tree@V?$_Tmap_traits@_KHU?$less@_K@std@@V?$allocator@U?$pair@$$CB_KH@std@@@2@$0A@@std@@@std@@QEAA_KAEB_K@Z ; std::_Tree<std::_Tmap_traits<unsigned __int64,int,std::less<unsigned __int64>,std::allocator<std::pair<unsigned __int64 const ,int> >,0> >::erase
PUBLIC	??0length_error@std@@QEAA@AEBV?$basic_string@DU?$char_traits@D@std@@V?$allocator@D@2@@1@@Z ; std::length_error::length_error
PUBLIC	?max_size@?$allocator@U?$pair@$$CB_KPEAVThreadInfo@@@std@@@std@@QEBA_KXZ ; std::allocator<std::pair<unsigned __int64 const ,ThreadInfo * __ptr64> >::max_size
PUBLIC	?max_size@?$_Tree@V?$_Tmap_traits@_KPEAVThreadInfo@@U?$less@_K@std@@V?$allocator@U?$pair@$$CB_KPEAVThreadInfo@@@std@@@3@$0A@@std@@@std@@QEBA_KXZ ; std::_Tree<std::_Tmap_traits<unsigned __int64,ThreadInfo * __ptr64,std::less<unsigned __int64>,std::allocator<std::pair<unsigned __int64 const ,ThreadInfo * __ptr64> >,0> >::max_size
PUBLIC	??0bad_alloc@std@@QEAA@PEBD@Z			; std::bad_alloc::bad_alloc
PUBLIC	??1bad_alloc@std@@UEAA@XZ			; std::bad_alloc::~bad_alloc
PUBLIC	??_Gbad_alloc@std@@UEAAPEAXI@Z			; std::bad_alloc::`scalar deleting destructor'
PUBLIC	??0bad_alloc@std@@QEAA@AEBV01@@Z		; std::bad_alloc::bad_alloc
PUBLIC	??$_Allocate@U_Node@?$_Tree_nod@V?$_Tmap_traits@_KPEAVThreadInfo@@U?$less@_K@std@@V?$allocator@U?$pair@$$CB_KPEAVThreadInfo@@@std@@@3@$0A@@std@@@std@@@std@@YAPEAU_Node@?$_Tree_nod@V?$_Tmap_traits@_KPEAVThreadInfo@@U?$less@_K@std@@V?$allocator@U?$pair@$$CB_KPEAVThreadInfo@@@std@@@3@$0A@@std@@@0@_KPEAU120@@Z ; std::_Allocate<std::_Tree_nod<std::_Tmap_traits<unsigned __int64,ThreadInfo * __ptr64,std::less<unsigned __int64>,std::allocator<std::pair<unsigned __int64 const ,ThreadInfo * __ptr64> >,0> >::_Node>
PUBLIC	?allocate@?$allocator@U_Node@?$_Tree_nod@V?$_Tmap_traits@_KPEAVThreadInfo@@U?$less@_K@std@@V?$allocator@U?$pair@$$CB_KPEAVThreadInfo@@@std@@@3@$0A@@std@@@std@@@std@@QEAAPEAU_Node@?$_Tree_nod@V?$_Tmap_traits@_KPEAVThreadInfo@@U?$less@_K@std@@V?$allocator@U?$pair@$$CB_KPEAVThreadInfo@@@std@@@3@$0A@@std@@@2@_K@Z ; std::allocator<std::_Tree_nod<std::_Tmap_traits<unsigned __int64,ThreadInfo * __ptr64,std::less<unsigned __int64>,std::allocator<std::pair<unsigned __int64 const ,ThreadInfo * __ptr64> >,0> >::_Node>::allocate
PUBLIC	??0_Node@?$_Tree_nod@V?$_Tmap_traits@_KPEAVThreadInfo@@U?$less@_K@std@@V?$allocator@U?$pair@$$CB_KPEAVThreadInfo@@@std@@@3@$0A@@std@@@std@@QEAA@PEAU012@00AEBU?$pair@$$CB_KPEAVThreadInfo@@@2@D@Z ; std::_Tree_nod<std::_Tmap_traits<unsigned __int64,ThreadInfo * __ptr64,std::less<unsigned __int64>,std::allocator<std::pair<unsigned __int64 const ,ThreadInfo * __ptr64> >,0> >::_Node::_Node
PUBLIC	?_Buynode@?$_Tree@V?$_Tmap_traits@_KPEAVThreadInfo@@U?$less@_K@std@@V?$allocator@U?$pair@$$CB_KPEAVThreadInfo@@@std@@@3@$0A@@std@@@std@@IEAAPEAU_Node@?$_Tree_nod@V?$_Tmap_traits@_KPEAVThreadInfo@@U?$less@_K@std@@V?$allocator@U?$pair@$$CB_KPEAVThreadInfo@@@std@@@3@$0A@@std@@@2@PEAU342@00AEBU?$pair@$$CB_KPEAVThreadInfo@@@2@D@Z ; std::_Tree<std::_Tmap_traits<unsigned __int64,ThreadInfo * __ptr64,std::less<unsigned __int64>,std::allocator<std::pair<unsigned __int64 const ,ThreadInfo * __ptr64> >,0> >::_Buynode
PUBLIC	??1length_error@std@@UEAA@XZ			; std::length_error::~length_error
PUBLIC	??_Glength_error@std@@UEAAPEAXI@Z		; std::length_error::`scalar deleting destructor'
PUBLIC	??0length_error@std@@QEAA@AEBV01@@Z		; std::length_error::length_error
PUBLIC	?_Insert@?$_Tree@V?$_Tmap_traits@_KPEAVThreadInfo@@U?$less@_K@std@@V?$allocator@U?$pair@$$CB_KPEAVThreadInfo@@@std@@@3@$0A@@std@@@std@@IEAA?AViterator@12@_NPEAU_Node@?$_Tree_nod@V?$_Tmap_traits@_KPEAVThreadInfo@@U?$less@_K@std@@V?$allocator@U?$pair@$$CB_KPEAVThreadInfo@@@std@@@3@$0A@@std@@@2@AEBU?$pair@$$CB_KPEAVThreadInfo@@@2@@Z ; std::_Tree<std::_Tmap_traits<unsigned __int64,ThreadInfo * __ptr64,std::less<unsigned __int64>,std::allocator<std::pair<unsigned __int64 const ,ThreadInfo * __ptr64> >,0> >::_Insert
PUBLIC	?_Dec@const_iterator@?$_Tree@V?$_Tmap_traits@_KPEAVThreadInfo@@U?$less@_K@std@@V?$allocator@U?$pair@$$CB_KPEAVThreadInfo@@@std@@@3@$0A@@std@@@std@@QEAAXXZ ; std::_Tree<std::_Tmap_traits<unsigned __int64,ThreadInfo * __ptr64,std::less<unsigned __int64>,std::allocator<std::pair<unsigned __int64 const ,ThreadInfo * __ptr64> >,0> >::const_iterator::_Dec
PUBLIC	??Fconst_iterator@?$_Tree@V?$_Tmap_traits@_KPEAVThreadInfo@@U?$less@_K@std@@V?$allocator@U?$pair@$$CB_KPEAVThreadInfo@@@std@@@3@$0A@@std@@@std@@QEAAAEAV012@XZ ; std::_Tree<std::_Tmap_traits<unsigned __int64,ThreadInfo * __ptr64,std::less<unsigned __int64>,std::allocator<std::pair<unsigned __int64 const ,ThreadInfo * __ptr64> >,0> >::const_iterator::operator--
PUBLIC	??Fiterator@?$_Tree@V?$_Tmap_traits@_KPEAVThreadInfo@@U?$less@_K@std@@V?$allocator@U?$pair@$$CB_KPEAVThreadInfo@@@std@@@3@$0A@@std@@@std@@QEAAAEAV012@XZ ; std::_Tree<std::_Tmap_traits<unsigned __int64,ThreadInfo * __ptr64,std::less<unsigned __int64>,std::allocator<std::pair<unsigned __int64 const ,ThreadInfo * __ptr64> >,0> >::iterator::operator--
PUBLIC	??0?$pair@Viterator@?$_Tree@V?$_Tmap_traits@_KPEAVThreadInfo@@U?$less@_K@std@@V?$allocator@U?$pair@$$CB_KPEAVThreadInfo@@@std@@@3@$0A@@std@@@std@@_N@std@@QEAA@AEBViterator@?$_Tree@V?$_Tmap_traits@_KPEAVThreadInfo@@U?$less@_K@std@@V?$allocator@U?$pair@$$CB_KPEAVThreadInfo@@@std@@@3@$0A@@std@@@1@AEB_N@Z ; std::pair<std::_Tree<std::_Tmap_traits<unsigned __int64,ThreadInfo * __ptr64,std::less<unsigned __int64>,std::allocator<std::pair<unsigned __int64 const ,ThreadInfo * __ptr64> >,0> >::iterator,bool>::pair<std::_Tree<std::_Tmap_traits<unsigned __int64,ThreadInfo * __ptr64,std::less<unsigned __int64>,std::allocator<std::pair<unsigned __int64 const ,ThreadInfo * __ptr64> >,0> >::iterator,bool>
PUBLIC	?insert@?$_Tree@V?$_Tmap_traits@_KPEAVThreadInfo@@U?$less@_K@std@@V?$allocator@U?$pair@$$CB_KPEAVThreadInfo@@@std@@@3@$0A@@std@@@std@@QEAA?AU?$pair@Viterator@?$_Tree@V?$_Tmap_traits@_KPEAVThreadInfo@@U?$less@_K@std@@V?$allocator@U?$pair@$$CB_KPEAVThreadInfo@@@std@@@3@$0A@@std@@@std@@_N@2@AEBU?$pair@$$CB_KPEAVThreadInfo@@@2@@Z ; std::_Tree<std::_Tmap_traits<unsigned __int64,ThreadInfo * __ptr64,std::less<unsigned __int64>,std::allocator<std::pair<unsigned __int64 const ,ThreadInfo * __ptr64> >,0> >::insert
PUBLIC	??0ThreadInfo@@QEAA@XZ				; ThreadInfo::ThreadInfo
PUBLIC	??0?$pair@_KPEAVThreadInfo@@@std@@QEAA@AEB_KAEBQEAVThreadInfo@@@Z ; std::pair<unsigned __int64,ThreadInfo * __ptr64>::pair<unsigned __int64,ThreadInfo * __ptr64>
PUBLIC	??$?0_KPEAVThreadInfo@@@?$pair@$$CB_KPEAVThreadInfo@@@std@@QEAA@AEBU?$pair@_KPEAVThreadInfo@@@1@@Z ; std::pair<unsigned __int64 const ,ThreadInfo * __ptr64>::pair<unsigned __int64 const ,ThreadInfo * __ptr64><unsigned __int64,ThreadInfo * __ptr64>
PUBLIC	?Enter@CriticalSection@@QEAAXXZ			; CriticalSection::Enter
PUBLIC	?Leave@CriticalSection@@QEAAXXZ			; CriticalSection::Leave
PUBLIC	??0?$pair@Viterator@?$_Tree@V?$_Tmap_traits@_KPEAVThreadInfo@@U?$less@_K@std@@V?$allocator@U?$pair@$$CB_KPEAVThreadInfo@@@std@@@3@$0A@@std@@@std@@V123@@std@@QEAA@AEBViterator@?$_Tree@V?$_Tmap_traits@_KPEAVThreadInfo@@U?$less@_K@std@@V?$allocator@U?$pair@$$CB_KPEAVThreadInfo@@@std@@@3@$0A@@std@@@1@0@Z ; std::pair<std::_Tree<std::_Tmap_traits<unsigned __int64,ThreadInfo * __ptr64,std::less<unsigned __int64>,std::allocator<std::pair<unsigned __int64 const ,ThreadInfo * __ptr64> >,0> >::iterator,std::_Tree<std::_Tmap_traits<unsigned __int64,ThreadInfo * __ptr64,std::less<unsigned __int64>,std::allocator<std::pair<unsigned __int64 const ,ThreadInfo * __ptr64> >,0> >::iterator>::pair<std::_Tree<std::_Tmap_traits<unsigned __int64,ThreadInfo * __ptr64,std::less<unsigned __int64>,std::allocator<std::pair<unsigned __int64 const ,ThreadInfo * __ptr64> >,0> >::iterator,std::_Tree<std::_Tmap_traits<unsigned __int64,ThreadInfo * __ptr64,std::less<unsigned __int64>,std::allocator<std::pair<unsigned __int64 const ,ThreadInfo * __ptr64> >,0> >::iterator>
PUBLIC	?_Eqrange@?$_Tree@V?$_Tmap_traits@_KPEAVThreadInfo@@U?$less@_K@std@@V?$allocator@U?$pair@$$CB_KPEAVThreadInfo@@@std@@@3@$0A@@std@@@std@@IEAA?AU?$pair@Viterator@?$_Tree@V?$_Tmap_traits@_KPEAVThreadInfo@@U?$less@_K@std@@V?$allocator@U?$pair@$$CB_KPEAVThreadInfo@@@std@@@3@$0A@@std@@@std@@V123@@2@AEB_K@Z ; std::_Tree<std::_Tmap_traits<unsigned __int64,ThreadInfo * __ptr64,std::less<unsigned __int64>,std::allocator<std::pair<unsigned __int64 const ,ThreadInfo * __ptr64> >,0> >::_Eqrange
PUBLIC	?equal_range@?$_Tree@V?$_Tmap_traits@_KPEAVThreadInfo@@U?$less@_K@std@@V?$allocator@U?$pair@$$CB_KPEAVThreadInfo@@@std@@@3@$0A@@std@@@std@@QEAA?AU?$pair@Viterator@?$_Tree@V?$_Tmap_traits@_KPEAVThreadInfo@@U?$less@_K@std@@V?$allocator@U?$pair@$$CB_KPEAVThreadInfo@@@std@@@3@$0A@@std@@@std@@V123@@2@AEB_K@Z ; std::_Tree<std::_Tmap_traits<unsigned __int64,ThreadInfo * __ptr64,std::less<unsigned __int64>,std::allocator<std::pair<unsigned __int64 const ,ThreadInfo * __ptr64> >,0> >::equal_range
PUBLIC	??$_Iter_cat@Viterator@?$_Tree@V?$_Tmap_traits@_KPEAVThreadInfo@@U?$less@_K@std@@V?$allocator@U?$pair@$$CB_KPEAVThreadInfo@@@std@@@3@$0A@@std@@@std@@@std@@YA?AUbidirectional_iterator_tag@0@AEBViterator@?$_Tree@V?$_Tmap_traits@_KPEAVThreadInfo@@U?$less@_K@std@@V?$allocator@U?$pair@$$CB_KPEAVThreadInfo@@@std@@@3@$0A@@std@@@0@@Z ; std::_Iter_cat<std::_Tree<std::_Tmap_traits<unsigned __int64,ThreadInfo * __ptr64,std::less<unsigned __int64>,std::allocator<std::pair<unsigned __int64 const ,ThreadInfo * __ptr64> >,0> >::iterator>
PUBLIC	??Eiterator@?$_Tree@V?$_Tmap_traits@_KPEAVThreadInfo@@U?$less@_K@std@@V?$allocator@U?$pair@$$CB_KPEAVThreadInfo@@@std@@@3@$0A@@std@@@std@@QEAAAEAV012@XZ ; std::_Tree<std::_Tmap_traits<unsigned __int64,ThreadInfo * __ptr64,std::less<unsigned __int64>,std::allocator<std::pair<unsigned __int64 const ,ThreadInfo * __ptr64> >,0> >::iterator::operator++
PUBLIC	??$_Distance2@Viterator@?$_Tree@V?$_Tmap_traits@_KPEAVThreadInfo@@U?$less@_K@std@@V?$allocator@U?$pair@$$CB_KPEAVThreadInfo@@@std@@@3@$0A@@std@@@std@@_K@std@@YAXViterator@?$_Tree@V?$_Tmap_traits@_KPEAVThreadInfo@@U?$less@_K@std@@V?$allocator@U?$pair@$$CB_KPEAVThreadInfo@@@std@@@3@$0A@@std@@@0@0AEA_KUbidirectional_iterator_tag@0@@Z ; std::_Distance2<std::_Tree<std::_Tmap_traits<unsigned __int64,ThreadInfo * __ptr64,std::less<unsigned __int64>,std::allocator<std::pair<unsigned __int64 const ,ThreadInfo * __ptr64> >,0> >::iterator,unsigned __int64>
PUBLIC	??$_Distance@Viterator@?$_Tree@V?$_Tmap_traits@_KPEAVThreadInfo@@U?$less@_K@std@@V?$allocator@U?$pair@$$CB_KPEAVThreadInfo@@@std@@@3@$0A@@std@@@std@@_K@std@@YAXViterator@?$_Tree@V?$_Tmap_traits@_KPEAVThreadInfo@@U?$less@_K@std@@V?$allocator@U?$pair@$$CB_KPEAVThreadInfo@@@std@@@3@$0A@@std@@@0@0AEA_K@Z ; std::_Distance<std::_Tree<std::_Tmap_traits<unsigned __int64,ThreadInfo * __ptr64,std::less<unsigned __int64>,std::allocator<std::pair<unsigned __int64 const ,ThreadInfo * __ptr64> >,0> >::iterator,unsigned __int64>
PUBLIC	?erase@?$_Tree@V?$_Tmap_traits@_KPEAVThreadInfo@@U?$less@_K@std@@V?$allocator@U?$pair@$$CB_KPEAVThreadInfo@@@std@@@3@$0A@@std@@@std@@QEAA_KAEB_K@Z ; std::_Tree<std::_Tmap_traits<unsigned __int64,ThreadInfo * __ptr64,std::less<unsigned __int64>,std::allocator<std::pair<unsigned __int64 const ,ThreadInfo * __ptr64> >,0> >::erase
PUBLIC	??R?$less@_K@std@@QEBA_NAEB_K0@Z		; std::less<unsigned __int64>::operator()
PUBLIC	?_Kfn@?$_Tmap_traits@_KPEAVThreadInfo@@U?$less@_K@std@@V?$allocator@U?$pair@$$CB_KPEAVThreadInfo@@@std@@@3@$0A@@std@@SAAEB_KAEBU?$pair@$$CB_KPEAVThreadInfo@@@2@@Z ; std::_Tmap_traits<unsigned __int64,ThreadInfo * __ptr64,std::less<unsigned __int64>,std::allocator<std::pair<unsigned __int64 const ,ThreadInfo * __ptr64> >,0>::_Kfn
PUBLIC	?_Key@?$_Tree@V?$_Tmap_traits@_KPEAVThreadInfo@@U?$less@_K@std@@V?$allocator@U?$pair@$$CB_KPEAVThreadInfo@@@std@@@3@$0A@@std@@@std@@KAAEB_KPEAU_Node@?$_Tree_nod@V?$_Tmap_traits@_KPEAVThreadInfo@@U?$less@_K@std@@V?$allocator@U?$pair@$$CB_KPEAVThreadInfo@@@std@@@3@$0A@@std@@@2@@Z ; std::_Tree<std::_Tmap_traits<unsigned __int64,ThreadInfo * __ptr64,std::less<unsigned __int64>,std::allocator<std::pair<unsigned __int64 const ,ThreadInfo * __ptr64> >,0> >::_Key
PUBLIC	?_Lbound@?$_Tree@V?$_Tmap_traits@_KPEAVThreadInfo@@U?$less@_K@std@@V?$allocator@U?$pair@$$CB_KPEAVThreadInfo@@@std@@@3@$0A@@std@@@std@@IEBAPEAU_Node@?$_Tree_nod@V?$_Tmap_traits@_KPEAVThreadInfo@@U?$less@_K@std@@V?$allocator@U?$pair@$$CB_KPEAVThreadInfo@@@std@@@3@$0A@@std@@@2@AEB_K@Z ; std::_Tree<std::_Tmap_traits<unsigned __int64,ThreadInfo * __ptr64,std::less<unsigned __int64>,std::allocator<std::pair<unsigned __int64 const ,ThreadInfo * __ptr64> >,0> >::_Lbound
PUBLIC	?lower_bound@?$_Tree@V?$_Tmap_traits@_KPEAVThreadInfo@@U?$less@_K@std@@V?$allocator@U?$pair@$$CB_KPEAVThreadInfo@@@std@@@3@$0A@@std@@@std@@QEAA?AViterator@12@AEB_K@Z ; std::_Tree<std::_Tmap_traits<unsigned __int64,ThreadInfo * __ptr64,std::less<unsigned __int64>,std::allocator<std::pair<unsigned __int64 const ,ThreadInfo * __ptr64> >,0> >::lower_bound
PUBLIC	?find@?$_Tree@V?$_Tmap_traits@_KPEAVThreadInfo@@U?$less@_K@std@@V?$allocator@U?$pair@$$CB_KPEAVThreadInfo@@@std@@@3@$0A@@std@@@std@@QEAA?AViterator@12@AEB_K@Z ; std::_Tree<std::_Tmap_traits<unsigned __int64,ThreadInfo * __ptr64,std::less<unsigned __int64>,std::allocator<std::pair<unsigned __int64 const ,ThreadInfo * __ptr64> >,0> >::find
PUBLIC	??R?$less@K@std@@QEBA_NAEBK0@Z			; std::less<unsigned long>::operator()
PUBLIC	?_Kfn@?$_Tmap_traits@KPEAVThreadInfo@@U?$less@K@std@@V?$allocator@U?$pair@$$CBKPEAVThreadInfo@@@std@@@3@$0A@@std@@SAAEBKAEBU?$pair@$$CBKPEAVThreadInfo@@@2@@Z ; std::_Tmap_traits<unsigned long,ThreadInfo * __ptr64,std::less<unsigned long>,std::allocator<std::pair<unsigned long const ,ThreadInfo * __ptr64> >,0>::_Kfn
PUBLIC	?_Myval@?$_Tree@V?$_Tmap_traits@KPEAVThreadInfo@@U?$less@K@std@@V?$allocator@U?$pair@$$CBKPEAVThreadInfo@@@std@@@3@$0A@@std@@@std@@KAAEAU?$pair@$$CBKPEAVThreadInfo@@@2@PEAU_Node@?$_Tree_nod@V?$_Tmap_traits@KPEAVThreadInfo@@U?$less@K@std@@V?$allocator@U?$pair@$$CBKPEAVThreadInfo@@@std@@@3@$0A@@std@@@2@@Z ; std::_Tree<std::_Tmap_traits<unsigned long,ThreadInfo * __ptr64,std::less<unsigned long>,std::allocator<std::pair<unsigned long const ,ThreadInfo * __ptr64> >,0> >::_Myval
PUBLIC	?_Key@?$_Tree@V?$_Tmap_traits@KPEAVThreadInfo@@U?$less@K@std@@V?$allocator@U?$pair@$$CBKPEAVThreadInfo@@@std@@@3@$0A@@std@@@std@@KAAEBKPEAU_Node@?$_Tree_nod@V?$_Tmap_traits@KPEAVThreadInfo@@U?$less@K@std@@V?$allocator@U?$pair@$$CBKPEAVThreadInfo@@@std@@@3@$0A@@std@@@2@@Z ; std::_Tree<std::_Tmap_traits<unsigned long,ThreadInfo * __ptr64,std::less<unsigned long>,std::allocator<std::pair<unsigned long const ,ThreadInfo * __ptr64> >,0> >::_Key
PUBLIC	??0?$pair@Viterator@?$_Tree@V?$_Tmap_traits@KPEAVThreadInfo@@U?$less@K@std@@V?$allocator@U?$pair@$$CBKPEAVThreadInfo@@@std@@@3@$0A@@std@@@std@@V123@@std@@QEAA@AEBViterator@?$_Tree@V?$_Tmap_traits@KPEAVThreadInfo@@U?$less@K@std@@V?$allocator@U?$pair@$$CBKPEAVThreadInfo@@@std@@@3@$0A@@std@@@1@0@Z ; std::pair<std::_Tree<std::_Tmap_traits<unsigned long,ThreadInfo * __ptr64,std::less<unsigned long>,std::allocator<std::pair<unsigned long const ,ThreadInfo * __ptr64> >,0> >::iterator,std::_Tree<std::_Tmap_traits<unsigned long,ThreadInfo * __ptr64,std::less<unsigned long>,std::allocator<std::pair<unsigned long const ,ThreadInfo * __ptr64> >,0> >::iterator>::pair<std::_Tree<std::_Tmap_traits<unsigned long,ThreadInfo * __ptr64,std::less<unsigned long>,std::allocator<std::pair<unsigned long const ,ThreadInfo * __ptr64> >,0> >::iterator,std::_Tree<std::_Tmap_traits<unsigned long,ThreadInfo * __ptr64,std::less<unsigned long>,std::allocator<std::pair<unsigned long const ,ThreadInfo * __ptr64> >,0> >::iterator>
PUBLIC	?_Eqrange@?$_Tree@V?$_Tmap_traits@KPEAVThreadInfo@@U?$less@K@std@@V?$allocator@U?$pair@$$CBKPEAVThreadInfo@@@std@@@3@$0A@@std@@@std@@IEAA?AU?$pair@Viterator@?$_Tree@V?$_Tmap_traits@KPEAVThreadInfo@@U?$less@K@std@@V?$allocator@U?$pair@$$CBKPEAVThreadInfo@@@std@@@3@$0A@@std@@@std@@V123@@2@AEBK@Z ; std::_Tree<std::_Tmap_traits<unsigned long,ThreadInfo * __ptr64,std::less<unsigned long>,std::allocator<std::pair<unsigned long const ,ThreadInfo * __ptr64> >,0> >::_Eqrange
PUBLIC	?equal_range@?$_Tree@V?$_Tmap_traits@KPEAVThreadInfo@@U?$less@K@std@@V?$allocator@U?$pair@$$CBKPEAVThreadInfo@@@std@@@3@$0A@@std@@@std@@QEAA?AU?$pair@Viterator@?$_Tree@V?$_Tmap_traits@KPEAVThreadInfo@@U?$less@K@std@@V?$allocator@U?$pair@$$CBKPEAVThreadInfo@@@std@@@3@$0A@@std@@@std@@V123@@2@AEBK@Z ; std::_Tree<std::_Tmap_traits<unsigned long,ThreadInfo * __ptr64,std::less<unsigned long>,std::allocator<std::pair<unsigned long const ,ThreadInfo * __ptr64> >,0> >::equal_range
PUBLIC	??$_Iter_cat@Viterator@?$_Tree@V?$_Tmap_traits@KPEAVThreadInfo@@U?$less@K@std@@V?$allocator@U?$pair@$$CBKPEAVThreadInfo@@@std@@@3@$0A@@std@@@std@@@std@@YA?AUbidirectional_iterator_tag@0@AEBViterator@?$_Tree@V?$_Tmap_traits@KPEAVThreadInfo@@U?$less@K@std@@V?$allocator@U?$pair@$$CBKPEAVThreadInfo@@@std@@@3@$0A@@std@@@0@@Z ; std::_Iter_cat<std::_Tree<std::_Tmap_traits<unsigned long,ThreadInfo * __ptr64,std::less<unsigned long>,std::allocator<std::pair<unsigned long const ,ThreadInfo * __ptr64> >,0> >::iterator>
PUBLIC	??Eiterator@?$_Tree@V?$_Tmap_traits@KPEAVThreadInfo@@U?$less@K@std@@V?$allocator@U?$pair@$$CBKPEAVThreadInfo@@@std@@@3@$0A@@std@@@std@@QEAAAEAV012@XZ ; std::_Tree<std::_Tmap_traits<unsigned long,ThreadInfo * __ptr64,std::less<unsigned long>,std::allocator<std::pair<unsigned long const ,ThreadInfo * __ptr64> >,0> >::iterator::operator++
PUBLIC	??$_Distance2@Viterator@?$_Tree@V?$_Tmap_traits@KPEAVThreadInfo@@U?$less@K@std@@V?$allocator@U?$pair@$$CBKPEAVThreadInfo@@@std@@@3@$0A@@std@@@std@@_K@std@@YAXViterator@?$_Tree@V?$_Tmap_traits@KPEAVThreadInfo@@U?$less@K@std@@V?$allocator@U?$pair@$$CBKPEAVThreadInfo@@@std@@@3@$0A@@std@@@0@0AEA_KUbidirectional_iterator_tag@0@@Z ; std::_Distance2<std::_Tree<std::_Tmap_traits<unsigned long,ThreadInfo * __ptr64,std::less<unsigned long>,std::allocator<std::pair<unsigned long const ,ThreadInfo * __ptr64> >,0> >::iterator,unsigned __int64>
PUBLIC	??$_Distance@Viterator@?$_Tree@V?$_Tmap_traits@KPEAVThreadInfo@@U?$less@K@std@@V?$allocator@U?$pair@$$CBKPEAVThreadInfo@@@std@@@3@$0A@@std@@@std@@_K@std@@YAXViterator@?$_Tree@V?$_Tmap_traits@KPEAVThreadInfo@@U?$less@K@std@@V?$allocator@U?$pair@$$CBKPEAVThreadInfo@@@std@@@3@$0A@@std@@@0@0AEA_K@Z ; std::_Distance<std::_Tree<std::_Tmap_traits<unsigned long,ThreadInfo * __ptr64,std::less<unsigned long>,std::allocator<std::pair<unsigned long const ,ThreadInfo * __ptr64> >,0> >::iterator,unsigned __int64>
PUBLIC	?erase@?$_Tree@V?$_Tmap_traits@KPEAVThreadInfo@@U?$less@K@std@@V?$allocator@U?$pair@$$CBKPEAVThreadInfo@@@std@@@3@$0A@@std@@@std@@QEAA_KAEBK@Z ; std::_Tree<std::_Tmap_traits<unsigned long,ThreadInfo * __ptr64,std::less<unsigned long>,std::allocator<std::pair<unsigned long const ,ThreadInfo * __ptr64> >,0> >::erase
PUBLIC	??1ThreadInfo@@QEAA@XZ				; ThreadInfo::~ThreadInfo
PUBLIC	??_GThreadInfo@@QEAAPEAXI@Z			; ThreadInfo::`scalar deleting destructor'
PUBLIC	?_Getcont@_Aux_cont@std@@QEBAPEBV_Container_base_aux@2@XZ ; std::_Aux_cont::_Getcont
PUBLIC	?_Getmycont@_Iterator_base_aux@std@@QEBAPEBV_Container_base_aux@2@XZ ; std::_Iterator_base_aux::_Getmycont
PUBLIC	?_Myval@?$_Tree@V?$_Tmap_traits@_KPEAVThreadInfo@@U?$less@_K@std@@V?$allocator@U?$pair@$$CB_KPEAVThreadInfo@@@std@@@3@$0A@@std@@@std@@KAAEAU?$pair@$$CB_KPEAVThreadInfo@@@2@PEAU_Node@?$_Tree_nod@V?$_Tmap_traits@_KPEAVThreadInfo@@U?$less@_K@std@@V?$allocator@U?$pair@$$CB_KPEAVThreadInfo@@@std@@@3@$0A@@std@@@2@@Z ; std::_Tree<std::_Tmap_traits<unsigned __int64,ThreadInfo * __ptr64,std::less<unsigned __int64>,std::allocator<std::pair<unsigned __int64 const ,ThreadInfo * __ptr64> >,0> >::_Myval
PUBLIC	??Dconst_iterator@?$_Tree@V?$_Tmap_traits@_KPEAVThreadInfo@@U?$less@_K@std@@V?$allocator@U?$pair@$$CB_KPEAVThreadInfo@@@std@@@3@$0A@@std@@@std@@QEBAAEBU?$pair@$$CB_KPEAVThreadInfo@@@2@XZ ; std::_Tree<std::_Tmap_traits<unsigned __int64,ThreadInfo * __ptr64,std::less<unsigned __int64>,std::allocator<std::pair<unsigned __int64 const ,ThreadInfo * __ptr64> >,0> >::const_iterator::operator*
PUBLIC	??Diterator@?$_Tree@V?$_Tmap_traits@_KPEAVThreadInfo@@U?$less@_K@std@@V?$allocator@U?$pair@$$CB_KPEAVThreadInfo@@@std@@@3@$0A@@std@@@std@@QEBAAEAU?$pair@$$CB_KPEAVThreadInfo@@@2@XZ ; std::_Tree<std::_Tmap_traits<unsigned __int64,ThreadInfo * __ptr64,std::less<unsigned __int64>,std::allocator<std::pair<unsigned __int64 const ,ThreadInfo * __ptr64> >,0> >::iterator::operator*
PUBLIC	??Citerator@?$_Tree@V?$_Tmap_traits@_KPEAVThreadInfo@@U?$less@_K@std@@V?$allocator@U?$pair@$$CB_KPEAVThreadInfo@@@std@@@3@$0A@@std@@@std@@QEBAPEAU?$pair@$$CB_KPEAVThreadInfo@@@2@XZ ; std::_Tree<std::_Tmap_traits<unsigned __int64,ThreadInfo * __ptr64,std::less<unsigned __int64>,std::allocator<std::pair<unsigned __int64 const ,ThreadInfo * __ptr64> >,0> >::iterator::operator->
PUBLIC	??_C@_0CF@LIBDMEPI@Couldn?8t?5initialize?5critical?5sec@ ; `string'
PUBLIC	??_R0PEAD@8					; char * __ptr64 `RTTI Type Descriptor'
PUBLIC	??_R0PEAX@8					; void * __ptr64 `RTTI Type Descriptor'
PUBLIC	_CT??_R0PEAD@88
PUBLIC	_CT??_R0PEAX@88
PUBLIC	_CTA2PEAD
PUBLIC	_TI2PEAD
PUBLIC	?nextPosFunctionID@@3JC				; nextPosFunctionID
PUBLIC	??_C@_1BM@IMNIDHAD@?$AAm?$AAa?$AAp?$AA?5?$AA?$CF?$AAd?$AA?5?$AA?$CF?$AAI?$AAd?$AA?5?$AA?$CF?$AAs?$AA?$AA@ ; `string'
PUBLIC	??_C@_1EA@LIAAHHAL@?$AAm?$AAa?$AAp?$AAt?$AAh?$AAr?$AAe?$AAa?$AAd?$AA?5?$AA?$CF?$AAd?$AA?5?$AA0?$AA?5?$AA?$CC?$AAT?$AAh?$AAr?$AAe?$AAa?$AAd?$AA?$CD?$AA?$CF?$AAd?$AA?$CC?$AA?5?$AA?$CC?$AA?$CF?$AAs?$AA?$CC?$AA?$AA@ ; `string'
PUBLIC	??_C@_01GBGANLPD@0?$AA@				; `string'
PUBLIC	??_C@_0BF@IEBMFIMJ@COR_ENABLE_PROFILING?$AA@	; `string'
PUBLIC	??_C@_1CA@CPAJBOA@?$AAI?$AAn?$AAi?$AAt?$AAi?$AAa?$AAl?$AAi?$AAz?$AAi?$AAn?$AAg?$AA?4?$AA?4?$AA?4?$AA?$AA@ ; `string'
PUBLIC	??_C@_1IA@ICOEBLFH@?$AAF?$AAA?$AAT?$AAA?$AAL?$AA?5?$AAE?$AAR?$AAR?$AAO?$AAR?$AA?3?$AA?5?$AAU?$AAn?$AAs?$AAu?$AAp?$AAp?$AAo?$AAr?$AAt?$AAe?$AAd?$AA?5?$AA?4?$AAN?$AAE?$AAT?$AA?5?$AAv?$AAe@ ; `string'
PUBLIC	??_C@_1DK@JNGEKABN@?$AAE?$AAr?$AAr?$AAo?$AAr?$AA?5?$AAs?$AAe?$AAt?$AAt?$AAi?$AAn?$AAg?$AA?5?$AAt?$AAh?$AAe?$AA?5?$AAe?$AAv?$AAe?$AAn?$AAt?$AA?5?$AAm?$AAa?$AAs?$AAk?$AA?$AA@ ; `string'
PUBLIC	??_C@_1GE@MBLADCNK@?$AAE?$AAr?$AAr?$AAo?$AAr?$AA?5?$AAs?$AAe?$AAt?$AAt?$AAi?$AAn?$AAg?$AA?5?$AAt?$AAh?$AAe?$AA?5?$AAe?$AAn?$AAt?$AAe?$AAr?$AA?0?$AA?5?$AAl?$AAe?$AAa?$AAv?$AAe?$AA?5?$AAa@ ; `string'
PUBLIC	??_C@_1EG@BIFPEPFJ@?$AAS?$AAu?$AAc?$AAc?$AAe?$AAs?$AAs?$AAf?$AAu?$AAl?$AAl?$AAy?$AA?5?$AAi?$AAn?$AAi?$AAt?$AAi?$AAa?$AAl?$AAi?$AAz?$AAe?$AAd?$AA?5?$AAp?$AAr?$AAo?$AAf?$AAi?$AAl?$AAi@ ; `string'
PUBLIC	??_C@_1BI@LJPPCMFK@?$AAS?$AAh?$AAu?$AAt?$AAd?$AAo?$AAw?$AAn?$AA?4?$AA?4?$AA?4?$AA?$AA@ ; `string'
PUBLIC	??_C@_0BB@EIHAAPLC@SharedMemoryName?$AA@	; `string'
PUBLIC	??_C@_0P@NHBFFJJG@Profiler?5Error?$AA@		; `string'
PUBLIC	??_C@_0FF@CHALMHHG@Could?5not?5find?5environment?5varia@ ; `string'
PUBLIC	??_C@_0P@OEJKFADD@Unknown?5error?$CB?$AA@	; `string'
PUBLIC	??_C@_09OHDMFPFI@MutexName?$AA@			; `string'
PUBLIC	??_C@_0EO@MELDENFF@Could?5not?5find?5environment?5varia@ ; `string'
PUBLIC	??_C@_0BA@DKCEJMG@AccessEventName?$AA@		; `string'
PUBLIC	??_C@_0FE@HNFKMMLK@Could?5not?5find?5environment?5varia@ ; `string'
PUBLIC	??_C@_1FK@PMAJBODM@?$AAe?$AAr?$AAr?$AAo?$AAr?$AA?9?$AAT?$AAh?$AAr?$AAe?$AAa?$AAd?$AA?5?$AA?$CF?$AAd?$AA?5?$AA?$CI?$AA?$CF?$AAd?$AA?$CJ?$AA?5?$AAa?$AAl?$AAr?$AAe?$AAa?$AAd?$AAy?$AA?5?$AAe?$AAx?$AAi@ ; `string'
PUBLIC	??_C@_0BE@JONHPENG@map?1set?$DMT?$DO?5too?5long?$AA@ ; `string'
PUBLIC	??_R0?AVlength_error@std@@@8			; std::length_error `RTTI Type Descriptor'
PUBLIC	_CT??_R0?AVlength_error@std@@@8??0length_error@std@@QEAA@AEBV01@@Z64
PUBLIC	_CTA3?AVlength_error@std@@
PUBLIC	_TI3?AVlength_error@std@@
PUBLIC	??_R0?AVbad_alloc@std@@@8			; std::bad_alloc `RTTI Type Descriptor'
PUBLIC	_CT??_R0?AVbad_alloc@std@@@8??0bad_alloc@std@@QEAA@AEBV01@@Z24
PUBLIC	_CTA2?AVbad_alloc@std@@
PUBLIC	_TI2?AVbad_alloc@std@@
PUBLIC	??_7bad_alloc@std@@6B@				; std::bad_alloc::`vftable'
PUBLIC	??_7length_error@std@@6B@			; std::length_error::`vftable'
PUBLIC	??_7CProfiler@@6B@				; CProfiler::`vftable'
EXTRN	?what@exception@std@@UEBAPEBDXZ:PROC		; std::exception::what
EXTRN	IID_ICorProfilerCallback:BYTE
EXTRN	IID_ICorProfilerCallback2:BYTE
EXTRN	__imp_?_Myptr@?$basic_string@_WU?$char_traits@_W@std@@V?$allocator@_W@2@@std@@IEBAPEB_WXZ:PROC
EXTRN	__imp_?c_str@?$basic_string@_WU?$char_traits@_W@std@@V?$allocator@_W@2@@std@@QEBAPEB_WXZ:PROC
EXTRN	__imp_InitializeCriticalSectionAndSpinCount:PROC
EXTRN	__imp_SetEnvironmentVariableA:PROC
EXTRN	IID_ICorProfilerInfo:BYTE
EXTRN	IID_ICorProfilerInfo2:BYTE
EXTRN	FunctionEnterNaked:PROC
EXTRN	FunctionLeaveNaked:PROC
EXTRN	FunctionTailcallNaked:PROC
EXTRN	__imp_GetLastError:PROC
EXTRN	__imp_OpenMutexA:PROC
EXTRN	__imp_GetEnvironmentVariableA:PROC
EXTRN	__imp_vswprintf_s:PROC
EXTRN	__imp_?assign@?$basic_string@_WU?$char_traits@_W@std@@V?$allocator@_W@2@@std@@QEAAAEAV12@PEB_W_K@Z:PROC
EXTRN	__imp_??0exception@std@@QEAA@AEBQEBD@Z:PROC
EXTRN	__imp_?what@exception@std@@UEBAPEBDXZ:PROC
EXTRN	??_Ebad_alloc@std@@UEAAPEAXI@Z:PROC		; std::bad_alloc::`vector deleting destructor'
EXTRN	??_Elength_error@std@@UEAAPEAXI@Z:PROC		; std::length_error::`vector deleting destructor'
EXTRN	__imp_??0?$basic_string@_WU?$char_traits@_W@std@@V?$allocator@_W@2@@std@@QEAA@XZ:PROC
EXTRN	__imp_EnterCriticalSection:PROC
EXTRN	__imp_LeaveCriticalSection:PROC
EXTRN	__imp_??1?$basic_string@_WU?$char_traits@_W@std@@V?$allocator@_W@2@@std@@QEAA@XZ:PROC
?nextPosFunctionID@@3JC DD 01H DUP (?)			; nextPosFunctionID
;	COMDAT ??_7CProfiler@@6B@
CONST	SEGMENT
??_7CProfiler@@6B@ DQ FLAT:?QueryInterface@CProfiler@@UEAAJAEBU_GUID@@PEAPEAX@Z ; CProfiler::`vftable'
	DQ	FLAT:?AddRef@CProfiler@@UEAAKXZ
	DQ	FLAT:?Release@CProfiler@@UEAAKXZ
	DQ	FLAT:?Initialize@CProfiler@@UEAAJPEAUIUnknown@@@Z
	DQ	FLAT:?Shutdown@CProfiler@@UEAAJXZ
	DQ	FLAT:?AppDomainCreationStarted@CCorProfilerCallbackImpl@@UEAAJ_K@Z
	DQ	FLAT:?AppDomainCreationFinished@CCorProfilerCallbackImpl@@UEAAJ_KJ@Z
	DQ	FLAT:?AppDomainShutdownStarted@CCorProfilerCallbackImpl@@UEAAJ_K@Z
	DQ	FLAT:?AppDomainShutdownFinished@CCorProfilerCallbackImpl@@UEAAJ_KJ@Z
	DQ	FLAT:?AssemblyLoadStarted@CCorProfilerCallbackImpl@@UEAAJ_K@Z
	DQ	FLAT:?AssemblyLoadFinished@CCorProfilerCallbackImpl@@UEAAJ_KJ@Z
	DQ	FLAT:?AssemblyUnloadStarted@CCorProfilerCallbackImpl@@UEAAJ_K@Z
	DQ	FLAT:?AssemblyUnloadFinished@CCorProfilerCallbackImpl@@UEAAJ_KJ@Z
	DQ	FLAT:?ModuleLoadStarted@CCorProfilerCallbackImpl@@UEAAJ_K@Z
	DQ	FLAT:?ModuleLoadFinished@CCorProfilerCallbackImpl@@UEAAJ_KJ@Z
	DQ	FLAT:?ModuleUnloadStarted@CCorProfilerCallbackImpl@@UEAAJ_K@Z
	DQ	FLAT:?ModuleUnloadFinished@CCorProfilerCallbackImpl@@UEAAJ_KJ@Z
	DQ	FLAT:?ModuleAttachedToAssembly@CCorProfilerCallbackImpl@@UEAAJ_K0@Z
	DQ	FLAT:?ClassLoadStarted@CCorProfilerCallbackImpl@@UEAAJ_K@Z
	DQ	FLAT:?ClassLoadFinished@CCorProfilerCallbackImpl@@UEAAJ_KJ@Z
	DQ	FLAT:?ClassUnloadStarted@CCorProfilerCallbackImpl@@UEAAJ_K@Z
	DQ	FLAT:?ClassUnloadFinished@CCorProfilerCallbackImpl@@UEAAJ_KJ@Z
	DQ	FLAT:?FunctionUnloadStarted@CProfiler@@UEAAJ_K@Z
	DQ	FLAT:?JITCompilationStarted@CCorProfilerCallbackImpl@@UEAAJ_KH@Z
	DQ	FLAT:?JITCompilationFinished@CCorProfilerCallbackImpl@@UEAAJ_KJH@Z
	DQ	FLAT:?JITCachedFunctionSearchStarted@CCorProfilerCallbackImpl@@UEAAJ_KPEAH@Z
	DQ	FLAT:?JITCachedFunctionSearchFinished@CCorProfilerCallbackImpl@@UEAAJ_KW4__MIDL___MIDL_itf_corprof_0000_0004@@@Z
	DQ	FLAT:?JITFunctionPitched@CCorProfilerCallbackImpl@@UEAAJ_K@Z
	DQ	FLAT:?JITInlining@CCorProfilerCallbackImpl@@UEAAJ_K0PEAH@Z
	DQ	FLAT:?ThreadCreated@CProfiler@@UEAAJ_K@Z
	DQ	FLAT:?ThreadDestroyed@CProfiler@@UEAAJ_K@Z
	DQ	FLAT:?ThreadAssignedToOSThread@CProfiler@@UEAAJ_KK@Z
	DQ	FLAT:?RemotingClientInvocationStarted@CCorProfilerCallbackImpl@@UEAAJXZ
	DQ	FLAT:?RemotingClientSendingMessage@CCorProfilerCallbackImpl@@UEAAJPEAU_GUID@@H@Z
	DQ	FLAT:?RemotingClientReceivingReply@CCorProfilerCallbackImpl@@UEAAJPEAU_GUID@@H@Z
	DQ	FLAT:?RemotingClientInvocationFinished@CCorProfilerCallbackImpl@@UEAAJXZ
	DQ	FLAT:?RemotingServerReceivingMessage@CCorProfilerCallbackImpl@@UEAAJPEAU_GUID@@H@Z
	DQ	FLAT:?RemotingServerInvocationStarted@CCorProfilerCallbackImpl@@UEAAJXZ
	DQ	FLAT:?RemotingServerInvocationReturned@CCorProfilerCallbackImpl@@UEAAJXZ
	DQ	FLAT:?RemotingServerSendingReply@CCorProfilerCallbackImpl@@UEAAJPEAU_GUID@@H@Z
	DQ	FLAT:?UnmanagedToManagedTransition@CCorProfilerCallbackImpl@@UEAAJ_KW4__MIDL___MIDL_itf_corprof_0000_0005@@@Z
	DQ	FLAT:?ManagedToUnmanagedTransition@CCorProfilerCallbackImpl@@UEAAJ_KW4__MIDL___MIDL_itf_corprof_0000_0005@@@Z
	DQ	FLAT:?RuntimeSuspendStarted@CCorProfilerCallbackImpl@@UEAAJW4__MIDL___MIDL_itf_corprof_0000_0006@@@Z
	DQ	FLAT:?RuntimeSuspendFinished@CCorProfilerCallbackImpl@@UEAAJXZ
	DQ	FLAT:?RuntimeSuspendAborted@CCorProfilerCallbackImpl@@UEAAJXZ
	DQ	FLAT:?RuntimeResumeStarted@CCorProfilerCallbackImpl@@UEAAJXZ
	DQ	FLAT:?RuntimeResumeFinished@CCorProfilerCallbackImpl@@UEAAJXZ
	DQ	FLAT:?RuntimeThreadSuspended@CCorProfilerCallbackImpl@@UEAAJ_K@Z
	DQ	FLAT:?RuntimeThreadResumed@CCorProfilerCallbackImpl@@UEAAJ_K@Z
	DQ	FLAT:?MovedReferences@CCorProfilerCallbackImpl@@UEAAJKQEA_K0QEAK@Z
	DQ	FLAT:?ObjectAllocated@CCorProfilerCallbackImpl@@UEAAJ_K0@Z
	DQ	FLAT:?ObjectsAllocatedByClass@CCorProfilerCallbackImpl@@UEAAJKQEA_KQEAK@Z
	DQ	FLAT:?ObjectReferences@CCorProfilerCallbackImpl@@UEAAJ_K0KQEA_K@Z
	DQ	FLAT:?RootReferences@CCorProfilerCallbackImpl@@UEAAJKQEA_K@Z
	DQ	FLAT:?ExceptionThrown@CProfiler@@UEAAJ_K@Z
	DQ	FLAT:?ExceptionSearchFunctionEnter@CProfiler@@UEAAJ_K@Z
	DQ	FLAT:?ExceptionSearchFunctionLeave@CProfiler@@UEAAJXZ
	DQ	FLAT:?ExceptionSearchFilterEnter@CProfiler@@UEAAJ_K@Z
	DQ	FLAT:?ExceptionSearchFilterLeave@CProfiler@@UEAAJXZ
	DQ	FLAT:?ExceptionSearchCatcherFound@CProfiler@@UEAAJ_K@Z
	DQ	FLAT:?ExceptionOSHandlerEnter@CProfiler@@UEAAJ_K@Z
	DQ	FLAT:?ExceptionOSHandlerLeave@CProfiler@@UEAAJ_K@Z
	DQ	FLAT:?ExceptionUnwindFunctionEnter@CProfiler@@UEAAJ_K@Z
	DQ	FLAT:?ExceptionUnwindFunctionLeave@CProfiler@@UEAAJXZ
	DQ	FLAT:?ExceptionUnwindFinallyEnter@CProfiler@@UEAAJ_K@Z
	DQ	FLAT:?ExceptionUnwindFinallyLeave@CProfiler@@UEAAJXZ
	DQ	FLAT:?ExceptionCatcherEnter@CProfiler@@UEAAJ_K0@Z
	DQ	FLAT:?ExceptionCatcherLeave@CProfiler@@UEAAJXZ
	DQ	FLAT:?COMClassicVTableCreated@CCorProfilerCallbackImpl@@UEAAJ_KAEBU_GUID@@PEAXK@Z
	DQ	FLAT:?COMClassicVTableDestroyed@CCorProfilerCallbackImpl@@UEAAJ_KAEBU_GUID@@PEAX@Z
	DQ	FLAT:?ExceptionCLRCatcherFound@CProfiler@@UEAAJXZ
	DQ	FLAT:?ExceptionCLRCatcherExecute@CProfiler@@UEAAJXZ
	DQ	FLAT:?ThreadNameChanged@CProfiler@@UEAAJ_KKQEA_W@Z
	DQ	FLAT:?GarbageCollectionStarted@CCorProfilerCallbackImpl@@UEAAJHQEAHW4__MIDL___MIDL_itf_corprof_0011_0006@@@Z
	DQ	FLAT:?SurvivingReferences@CCorProfilerCallbackImpl@@UEAAJKQEA_KQEAK@Z
	DQ	FLAT:?GarbageCollectionFinished@CCorProfilerCallbackImpl@@UEAAJXZ
	DQ	FLAT:?FinalizeableObjectQueued@CCorProfilerCallbackImpl@@UEAAJK_K@Z
	DQ	FLAT:?RootReferences2@CCorProfilerCallbackImpl@@UEAAJKQEA_KQEAW4__MIDL___MIDL_itf_corprof_0011_0001@@QEAW4__MIDL___MIDL_itf_corprof_0011_0002@@0@Z
	DQ	FLAT:?HandleCreated@CCorProfilerCallbackImpl@@UEAAJ_K0@Z
	DQ	FLAT:?HandleDestroyed@CCorProfilerCallbackImpl@@UEAAJ_K@Z
CONST	ENDS
;	COMDAT ??_7length_error@std@@6B@
CONST	SEGMENT
??_7length_error@std@@6B@ DQ FLAT:??_Elength_error@std@@UEAAPEAXI@Z ; std::length_error::`vftable'
	DQ	FLAT:?what@logic_error@std@@UEBAPEBDXZ
CONST	ENDS
;	COMDAT ??_7bad_alloc@std@@6B@
CONST	SEGMENT
??_7bad_alloc@std@@6B@ DQ FLAT:??_Ebad_alloc@std@@UEAAPEAXI@Z ; std::bad_alloc::`vftable'
	DQ	FLAT:?what@exception@std@@UEBAPEBDXZ
CONST	ENDS
;	COMDAT _TI2?AVbad_alloc@std@@
xdata$x	SEGMENT
_TI2?AVbad_alloc@std@@ DD 00H
	DD	imagerel ??1bad_alloc@std@@UEAA@XZ
	DD	00H
	DD	imagerel _CTA2?AVbad_alloc@std@@
xdata$x	ENDS
;	COMDAT _CTA2?AVbad_alloc@std@@
xdata$x	SEGMENT
_CTA2?AVbad_alloc@std@@ DD 02H
	DD	imagerel _CT??_R0?AVbad_alloc@std@@@8??0bad_alloc@std@@QEAA@AEBV01@@Z24
	DD	imagerel _CT??_R0?AVexception@std@@@8??0exception@std@@QEAA@AEBV01@@Z24
xdata$x	ENDS
;	COMDAT _CT??_R0?AVbad_alloc@std@@@8??0bad_alloc@std@@QEAA@AEBV01@@Z24
xdata$x	SEGMENT
_CT??_R0?AVbad_alloc@std@@@8??0bad_alloc@std@@QEAA@AEBV01@@Z24 DD 00H
	DD	imagerel ??_R0?AVbad_alloc@std@@@8
	DD	00H
	DD	0ffffffffH
	ORG $+4
	DD	018H
	DD	imagerel ??0bad_alloc@std@@QEAA@AEBV01@@Z
xdata$x	ENDS
;	COMDAT ??_R0?AVbad_alloc@std@@@8
_DATA	SEGMENT
??_R0?AVbad_alloc@std@@@8 DQ FLAT:??_7type_info@@6B@	; std::bad_alloc `RTTI Type Descriptor'
	DQ	0000000000000000H
	DB	'.?AVbad_alloc@std@@', 00H
_DATA	ENDS
;	COMDAT _TI3?AVlength_error@std@@
xdata$x	SEGMENT
_TI3?AVlength_error@std@@ DD 00H
	DD	imagerel ??1length_error@std@@UEAA@XZ
	DD	00H
	DD	imagerel _CTA3?AVlength_error@std@@
xdata$x	ENDS
;	COMDAT _CTA3?AVlength_error@std@@
xdata$x	SEGMENT
_CTA3?AVlength_error@std@@ DD 03H
	DD	imagerel _CT??_R0?AVlength_error@std@@@8??0length_error@std@@QEAA@AEBV01@@Z64
	DD	imagerel _CT??_R0?AVlogic_error@std@@@8??0logic_error@std@@QEAA@AEBV01@@Z64
	DD	imagerel _CT??_R0?AVexception@std@@@8??0exception@std@@QEAA@AEBV01@@Z24
xdata$x	ENDS
;	COMDAT _CT??_R0?AVlength_error@std@@@8??0length_error@std@@QEAA@AEBV01@@Z64
xdata$x	SEGMENT
_CT??_R0?AVlength_error@std@@@8??0length_error@std@@QEAA@AEBV01@@Z64 DD 00H
	DD	imagerel ??_R0?AVlength_error@std@@@8
	DD	00H
	DD	0ffffffffH
	ORG $+4
	DD	040H
	DD	imagerel ??0length_error@std@@QEAA@AEBV01@@Z
xdata$x	ENDS
;	COMDAT ??_R0?AVlength_error@std@@@8
_DATA	SEGMENT
??_R0?AVlength_error@std@@@8 DQ FLAT:??_7type_info@@6B@	; std::length_error `RTTI Type Descriptor'
	DQ	0000000000000000H
	DB	'.?AVlength_error@std@@', 00H
_DATA	ENDS
;	COMDAT ??_C@_0BE@JONHPENG@map?1set?$DMT?$DO?5too?5long?$AA@
CONST	SEGMENT
??_C@_0BE@JONHPENG@map?1set?$DMT?$DO?5too?5long?$AA@ DB 'map/set<T> too l'
	DB	'ong', 00H					; `string'
CONST	ENDS
;	COMDAT ??_C@_1FK@PMAJBODM@?$AAe?$AAr?$AAr?$AAo?$AAr?$AA?9?$AAT?$AAh?$AAr?$AAe?$AAa?$AAd?$AA?5?$AA?$CF?$AAd?$AA?5?$AA?$CI?$AA?$CF?$AAd?$AA?$CJ?$AA?5?$AAa?$AAl?$AAr?$AAe?$AAa?$AAd?$AAy?$AA?5?$AAe?$AAx?$AAi@
CONST	SEGMENT
??_C@_1FK@PMAJBODM@?$AAe?$AAr?$AAr?$AAo?$AAr?$AA?9?$AAT?$AAh?$AAr?$AAe?$AAa?$AAd?$AA?5?$AA?$CF?$AAd?$AA?5?$AA?$CI?$AA?$CF?$AAd?$AA?$CJ?$AA?5?$AAa?$AAl?$AAr?$AAe?$AAa?$AAd?$AAy?$AA?5?$AAe?$AAx?$AAi@ DB 'e'
	DB	00H, 'r', 00H, 'r', 00H, 'o', 00H, 'r', 00H, '-', 00H, 'T', 00H
	DB	'h', 00H, 'r', 00H, 'e', 00H, 'a', 00H, 'd', 00H, ' ', 00H, '%'
	DB	00H, 'd', 00H, ' ', 00H, '(', 00H, '%', 00H, 'd', 00H, ')', 00H
	DB	' ', 00H, 'a', 00H, 'l', 00H, 'r', 00H, 'e', 00H, 'a', 00H, 'd'
	DB	00H, 'y', 00H, ' ', 00H, 'e', 00H, 'x', 00H, 'i', 00H, 's', 00H
	DB	't', 00H, 's', 00H, ' ', 00H, 'i', 00H, 'n', 00H, ' ', 00H, 'm'
	DB	00H, 'a', 00H, 'p', 00H, '!', 00H, '-', 00H, 00H, 00H ; `string'
CONST	ENDS
;	COMDAT ??_C@_0FE@HNFKMMLK@Could?5not?5find?5environment?5varia@
CONST	SEGMENT
??_C@_0FE@HNFKMMLK@Could?5not?5find?5environment?5varia@ DB 'Could not fi'
	DB	'nd environment variable ''AccessEventName'', please restart t'
	DB	'he profiler!', 00H				; `string'
CONST	ENDS
;	COMDAT ??_C@_0BA@DKCEJMG@AccessEventName?$AA@
CONST	SEGMENT
??_C@_0BA@DKCEJMG@AccessEventName?$AA@ DB 'AccessEventName', 00H ; `string'
CONST	ENDS
;	COMDAT ??_C@_0EO@MELDENFF@Could?5not?5find?5environment?5varia@
CONST	SEGMENT
??_C@_0EO@MELDENFF@Could?5not?5find?5environment?5varia@ DB 'Could not fi'
	DB	'nd environment variable ''MutexName'', please restart the pro'
	DB	'filer!', 00H				; `string'
CONST	ENDS
;	COMDAT ??_C@_09OHDMFPFI@MutexName?$AA@
CONST	SEGMENT
??_C@_09OHDMFPFI@MutexName?$AA@ DB 'MutexName', 00H	; `string'
CONST	ENDS
;	COMDAT ??_C@_0P@OEJKFADD@Unknown?5error?$CB?$AA@
CONST	SEGMENT
??_C@_0P@OEJKFADD@Unknown?5error?$CB?$AA@ DB 'Unknown error!', 00H ; `string'
CONST	ENDS
;	COMDAT ??_C@_0FF@CHALMHHG@Could?5not?5find?5environment?5varia@
CONST	SEGMENT
??_C@_0FF@CHALMHHG@Could?5not?5find?5environment?5varia@ DB 'Could not fi'
	DB	'nd environment variable ''SharedMemoryName'', please restart '
	DB	'the profiler!', 00H				; `string'
CONST	ENDS
;	COMDAT ??_C@_0P@NHBFFJJG@Profiler?5Error?$AA@
CONST	SEGMENT
??_C@_0P@NHBFFJJG@Profiler?5Error?$AA@ DB 'Profiler Error', 00H ; `string'
CONST	ENDS
;	COMDAT ??_C@_0BB@EIHAAPLC@SharedMemoryName?$AA@
CONST	SEGMENT
??_C@_0BB@EIHAAPLC@SharedMemoryName?$AA@ DB 'SharedMemoryName', 00H ; `string'
CONST	ENDS
;	COMDAT ??_C@_1BI@LJPPCMFK@?$AAS?$AAh?$AAu?$AAt?$AAd?$AAo?$AAw?$AAn?$AA?4?$AA?4?$AA?4?$AA?$AA@
CONST	SEGMENT
??_C@_1BI@LJPPCMFK@?$AAS?$AAh?$AAu?$AAt?$AAd?$AAo?$AAw?$AAn?$AA?4?$AA?4?$AA?4?$AA?$AA@ DB 'S'
	DB	00H, 'h', 00H, 'u', 00H, 't', 00H, 'd', 00H, 'o', 00H, 'w', 00H
	DB	'n', 00H, '.', 00H, '.', 00H, '.', 00H, 00H, 00H ; `string'
CONST	ENDS
;	COMDAT ??_C@_1EG@BIFPEPFJ@?$AAS?$AAu?$AAc?$AAc?$AAe?$AAs?$AAs?$AAf?$AAu?$AAl?$AAl?$AAy?$AA?5?$AAi?$AAn?$AAi?$AAt?$AAi?$AAa?$AAl?$AAi?$AAz?$AAe?$AAd?$AA?5?$AAp?$AAr?$AAo?$AAf?$AAi?$AAl?$AAi@
CONST	SEGMENT
??_C@_1EG@BIFPEPFJ@?$AAS?$AAu?$AAc?$AAc?$AAe?$AAs?$AAs?$AAf?$AAu?$AAl?$AAl?$AAy?$AA?5?$AAi?$AAn?$AAi?$AAt?$AAi?$AAa?$AAl?$AAi?$AAz?$AAe?$AAd?$AA?5?$AAp?$AAr?$AAo?$AAf?$AAi?$AAl?$AAi@ DB 'S'
	DB	00H, 'u', 00H, 'c', 00H, 'c', 00H, 'e', 00H, 's', 00H, 's', 00H
	DB	'f', 00H, 'u', 00H, 'l', 00H, 'l', 00H, 'y', 00H, ' ', 00H, 'i'
	DB	00H, 'n', 00H, 'i', 00H, 't', 00H, 'i', 00H, 'a', 00H, 'l', 00H
	DB	'i', 00H, 'z', 00H, 'e', 00H, 'd', 00H, ' ', 00H, 'p', 00H, 'r'
	DB	00H, 'o', 00H, 'f', 00H, 'i', 00H, 'l', 00H, 'i', 00H, 'n', 00H
	DB	'g', 00H, 00H, 00H				; `string'
CONST	ENDS
;	COMDAT ??_C@_1GE@MBLADCNK@?$AAE?$AAr?$AAr?$AAo?$AAr?$AA?5?$AAs?$AAe?$AAt?$AAt?$AAi?$AAn?$AAg?$AA?5?$AAt?$AAh?$AAe?$AA?5?$AAe?$AAn?$AAt?$AAe?$AAr?$AA?0?$AA?5?$AAl?$AAe?$AAa?$AAv?$AAe?$AA?5?$AAa@
CONST	SEGMENT
??_C@_1GE@MBLADCNK@?$AAE?$AAr?$AAr?$AAo?$AAr?$AA?5?$AAs?$AAe?$AAt?$AAt?$AAi?$AAn?$AAg?$AA?5?$AAt?$AAh?$AAe?$AA?5?$AAe?$AAn?$AAt?$AAe?$AAr?$AA?0?$AA?5?$AAl?$AAe?$AAa?$AAv?$AAe?$AA?5?$AAa@ DB 'E'
	DB	00H, 'r', 00H, 'r', 00H, 'o', 00H, 'r', 00H, ' ', 00H, 's', 00H
	DB	'e', 00H, 't', 00H, 't', 00H, 'i', 00H, 'n', 00H, 'g', 00H, ' '
	DB	00H, 't', 00H, 'h', 00H, 'e', 00H, ' ', 00H, 'e', 00H, 'n', 00H
	DB	't', 00H, 'e', 00H, 'r', 00H, ',', 00H, ' ', 00H, 'l', 00H, 'e'
	DB	00H, 'a', 00H, 'v', 00H, 'e', 00H, ' ', 00H, 'a', 00H, 'n', 00H
	DB	'd', 00H, ' ', 00H, 't', 00H, 'a', 00H, 'i', 00H, 'l', 00H, 'c'
	DB	00H, 'a', 00H, 'l', 00H, 'l', 00H, ' ', 00H, 'h', 00H, 'o', 00H
	DB	'o', 00H, 'k', 00H, 's', 00H, 00H, 00H	; `string'
CONST	ENDS
;	COMDAT ??_C@_1DK@JNGEKABN@?$AAE?$AAr?$AAr?$AAo?$AAr?$AA?5?$AAs?$AAe?$AAt?$AAt?$AAi?$AAn?$AAg?$AA?5?$AAt?$AAh?$AAe?$AA?5?$AAe?$AAv?$AAe?$AAn?$AAt?$AA?5?$AAm?$AAa?$AAs?$AAk?$AA?$AA@
CONST	SEGMENT
??_C@_1DK@JNGEKABN@?$AAE?$AAr?$AAr?$AAo?$AAr?$AA?5?$AAs?$AAe?$AAt?$AAt?$AAi?$AAn?$AAg?$AA?5?$AAt?$AAh?$AAe?$AA?5?$AAe?$AAv?$AAe?$AAn?$AAt?$AA?5?$AAm?$AAa?$AAs?$AAk?$AA?$AA@ DB 'E'
	DB	00H, 'r', 00H, 'r', 00H, 'o', 00H, 'r', 00H, ' ', 00H, 's', 00H
	DB	'e', 00H, 't', 00H, 't', 00H, 'i', 00H, 'n', 00H, 'g', 00H, ' '
	DB	00H, 't', 00H, 'h', 00H, 'e', 00H, ' ', 00H, 'e', 00H, 'v', 00H
	DB	'e', 00H, 'n', 00H, 't', 00H, ' ', 00H, 'm', 00H, 'a', 00H, 's'
	DB	00H, 'k', 00H, 00H, 00H			; `string'
CONST	ENDS
;	COMDAT ??_C@_1IA@ICOEBLFH@?$AAF?$AAA?$AAT?$AAA?$AAL?$AA?5?$AAE?$AAR?$AAR?$AAO?$AAR?$AA?3?$AA?5?$AAU?$AAn?$AAs?$AAu?$AAp?$AAp?$AAo?$AAr?$AAt?$AAe?$AAd?$AA?5?$AA?4?$AAN?$AAE?$AAT?$AA?5?$AAv?$AAe@
CONST	SEGMENT
??_C@_1IA@ICOEBLFH@?$AAF?$AAA?$AAT?$AAA?$AAL?$AA?5?$AAE?$AAR?$AAR?$AAO?$AAR?$AA?3?$AA?5?$AAU?$AAn?$AAs?$AAu?$AAp?$AAp?$AAo?$AAr?$AAt?$AAe?$AAd?$AA?5?$AA?4?$AAN?$AAE?$AAT?$AA?5?$AAv?$AAe@ DB 'F'
	DB	00H, 'A', 00H, 'T', 00H, 'A', 00H, 'L', 00H, ' ', 00H, 'E', 00H
	DB	'R', 00H, 'R', 00H, 'O', 00H, 'R', 00H, ':', 00H, ' ', 00H, 'U'
	DB	00H, 'n', 00H, 's', 00H, 'u', 00H, 'p', 00H, 'p', 00H, 'o', 00H
	DB	'r', 00H, 't', 00H, 'e', 00H, 'd', 00H, ' ', 00H, '.', 00H, 'N'
	DB	00H, 'E', 00H, 'T', 00H, ' ', 00H, 'v', 00H, 'e', 00H, 'r', 00H
	DB	's', 00H, 'i', 00H, 'o', 00H, 'n', 00H, ' ', 00H, 'n', 00H, 'e'
	DB	00H, 'e', 00H, 'd', 00H, 's', 00H, ' ', 00H, 't', 00H, 'o', 00H
	DB	' ', 00H, 'b', 00H, 'e', 00H, ' ', 00H, 'a', 00H, 't', 00H, ' '
	DB	00H, 'l', 00H, 'e', 00H, 'a', 00H, 's', 00H, 't', 00H, ' ', 00H
	DB	'2', 00H, '.', 00H, '0', 00H, '!', 00H, 00H, 00H ; `string'
CONST	ENDS
;	COMDAT ??_C@_1CA@CPAJBOA@?$AAI?$AAn?$AAi?$AAt?$AAi?$AAa?$AAl?$AAi?$AAz?$AAi?$AAn?$AAg?$AA?4?$AA?4?$AA?4?$AA?$AA@
CONST	SEGMENT
??_C@_1CA@CPAJBOA@?$AAI?$AAn?$AAi?$AAt?$AAi?$AAa?$AAl?$AAi?$AAz?$AAi?$AAn?$AAg?$AA?4?$AA?4?$AA?4?$AA?$AA@ DB 'I'
	DB	00H, 'n', 00H, 'i', 00H, 't', 00H, 'i', 00H, 'a', 00H, 'l', 00H
	DB	'i', 00H, 'z', 00H, 'i', 00H, 'n', 00H, 'g', 00H, '.', 00H, '.'
	DB	00H, '.', 00H, 00H, 00H			; `string'
CONST	ENDS
;	COMDAT ??_C@_0BF@IEBMFIMJ@COR_ENABLE_PROFILING?$AA@
CONST	SEGMENT
??_C@_0BF@IEBMFIMJ@COR_ENABLE_PROFILING?$AA@ DB 'COR_ENABLE_PROFILING', 00H ; `string'
CONST	ENDS
;	COMDAT ??_C@_01GBGANLPD@0?$AA@
CONST	SEGMENT
??_C@_01GBGANLPD@0?$AA@ DB '0', 00H			; `string'
CONST	ENDS
;	COMDAT ??_C@_1EA@LIAAHHAL@?$AAm?$AAa?$AAp?$AAt?$AAh?$AAr?$AAe?$AAa?$AAd?$AA?5?$AA?$CF?$AAd?$AA?5?$AA0?$AA?5?$AA?$CC?$AAT?$AAh?$AAr?$AAe?$AAa?$AAd?$AA?$CD?$AA?$CF?$AAd?$AA?$CC?$AA?5?$AA?$CC?$AA?$CF?$AAs?$AA?$CC?$AA?$AA@
CONST	SEGMENT
??_C@_1EA@LIAAHHAL@?$AAm?$AAa?$AAp?$AAt?$AAh?$AAr?$AAe?$AAa?$AAd?$AA?5?$AA?$CF?$AAd?$AA?5?$AA0?$AA?5?$AA?$CC?$AAT?$AAh?$AAr?$AAe?$AAa?$AAd?$AA?$CD?$AA?$CF?$AAd?$AA?$CC?$AA?5?$AA?$CC?$AA?$CF?$AAs?$AA?$CC?$AA?$AA@ DB 'm'
	DB	00H, 'a', 00H, 'p', 00H, 't', 00H, 'h', 00H, 'r', 00H, 'e', 00H
	DB	'a', 00H, 'd', 00H, ' ', 00H, '%', 00H, 'd', 00H, ' ', 00H, '0'
	DB	00H, ' ', 00H, '"', 00H, 'T', 00H, 'h', 00H, 'r', 00H, 'e', 00H
	DB	'a', 00H, 'd', 00H, '#', 00H, '%', 00H, 'd', 00H, '"', 00H, ' '
	DB	00H, '"', 00H, '%', 00H, 's', 00H, '"', 00H, 00H, 00H ; `string'
CONST	ENDS
;	COMDAT ??_C@_1BM@IMNIDHAD@?$AAm?$AAa?$AAp?$AA?5?$AA?$CF?$AAd?$AA?5?$AA?$CF?$AAI?$AAd?$AA?5?$AA?$CF?$AAs?$AA?$AA@
CONST	SEGMENT
??_C@_1BM@IMNIDHAD@?$AAm?$AAa?$AAp?$AA?5?$AA?$CF?$AAd?$AA?5?$AA?$CF?$AAI?$AAd?$AA?5?$AA?$CF?$AAs?$AA?$AA@ DB 'm'
	DB	00H, 'a', 00H, 'p', 00H, ' ', 00H, '%', 00H, 'd', 00H, ' ', 00H
	DB	'%', 00H, 'I', 00H, 'd', 00H, ' ', 00H, '%', 00H, 's', 00H, 00H
	DB	00H						; `string'
CONST	ENDS
;	COMDAT _TI2PEAD
xdata$x	SEGMENT
_TI2PEAD DD	00H
	DD	00H
	DD	00H
	DD	imagerel _CTA2PEAD
xdata$x	ENDS
;	COMDAT _CTA2PEAD
xdata$x	SEGMENT
_CTA2PEAD DD	02H
	DD	imagerel _CT??_R0PEAD@88
	DD	imagerel _CT??_R0PEAX@88
xdata$x	ENDS
;	COMDAT _CT??_R0PEAX@88
xdata$x	SEGMENT
_CT??_R0PEAX@88 DD 01H
	DD	imagerel ??_R0PEAX@8
	DD	00H
	DD	0ffffffffH
	ORG $+4
	DD	08H
	DD	00H
xdata$x	ENDS
;	COMDAT _CT??_R0PEAD@88
xdata$x	SEGMENT
_CT??_R0PEAD@88 DD 01H
	DD	imagerel ??_R0PEAD@8
	DD	00H
	DD	0ffffffffH
	ORG $+4
	DD	08H
	DD	00H
xdata$x	ENDS
;	COMDAT ??_R0PEAX@8
_DATA	SEGMENT
??_R0PEAX@8 DQ	FLAT:??_7type_info@@6B@			; void * __ptr64 `RTTI Type Descriptor'
	DQ	0000000000000000H
	DB	'.PEAX', 00H
_DATA	ENDS
;	COMDAT ??_R0PEAD@8
_DATA	SEGMENT
??_R0PEAD@8 DQ	FLAT:??_7type_info@@6B@			; char * __ptr64 `RTTI Type Descriptor'
	DQ	0000000000000000H
	DB	'.PEAD', 00H
_DATA	ENDS
;	COMDAT ??_C@_0CF@LIBDMEPI@Couldn?8t?5initialize?5critical?5sec@
CONST	SEGMENT
??_C@_0CF@LIBDMEPI@Couldn?8t?5initialize?5critical?5sec@ DB 'Couldn''t in'
	DB	'itialize critical section', 00H		; `string'
_bad_alloc_Message DQ FLAT:??_C@_0P@GHFPNOJB@bad?5allocation?$AA@
; Function compile flags: /Ogtpy
; File c:\program files\microsoft visual studio 9.0\vc\include\xutility
;	COMDAT ??$_Iter_cat@Viterator@?$_Tree@V?$_Tmap_traits@KPEAVThreadInfo@@U?$less@K@std@@V?$allocator@U?$pair@$$CBKPEAVThreadInfo@@@std@@@3@$0A@@std@@@std@@@std@@YA?AUbidirectional_iterator_tag@0@AEBViterator@?$_Tree@V?$_Tmap_traits@KPEAVThreadInfo@@U?$less@K@std@@V?$allocator@U?$pair@$$CBKPEAVThreadInfo@@@std@@@3@$0A@@std@@@0@@Z
_TEXT	SEGMENT
__$ReturnUdt$ = 8
__formal$ = 16
??$_Iter_cat@Viterator@?$_Tree@V?$_Tmap_traits@KPEAVThreadInfo@@U?$less@K@std@@V?$allocator@U?$pair@$$CBKPEAVThreadInfo@@@std@@@3@$0A@@std@@@std@@@std@@YA?AUbidirectional_iterator_tag@0@AEBViterator@?$_Tree@V?$_Tmap_traits@KPEAVThreadInfo@@U?$less@K@std@@V?$allocator@U?$pair@$$CBKPEAVThreadInfo@@@std@@@3@$0A@@std@@@0@@Z PROC ; std::_Iter_cat<std::_Tree<std::_Tmap_traits<unsigned long,ThreadInfo * __ptr64,std::less<unsigned long>,std::allocator<std::pair<unsigned long const ,ThreadInfo * __ptr64> >,0> >::iterator>, COMDAT

; 953  : 	typename iterator_traits<_Iter>::iterator_category _Cat;
; 954  : 	return (_Cat);

	mov	rax, rcx

; 955  : 	}

	ret	0
??$_Iter_cat@Viterator@?$_Tree@V?$_Tmap_traits@KPEAVThreadInfo@@U?$less@K@std@@V?$allocator@U?$pair@$$CBKPEAVThreadInfo@@@std@@@3@$0A@@std@@@std@@@std@@YA?AUbidirectional_iterator_tag@0@AEBViterator@?$_Tree@V?$_Tmap_traits@KPEAVThreadInfo@@U?$less@K@std@@V?$allocator@U?$pair@$$CBKPEAVThreadInfo@@@std@@@3@$0A@@std@@@0@@Z ENDP ; std::_Iter_cat<std::_Tree<std::_Tmap_traits<unsigned long,ThreadInfo * __ptr64,std::less<unsigned long>,std::allocator<std::pair<unsigned long const ,ThreadInfo * __ptr64> >,0> >::iterator>
; Function compile flags: /Ogtpy
_TEXT	ENDS
;	COMDAT ??$_Iter_cat@Viterator@?$_Tree@V?$_Tmap_traits@_KPEAVThreadInfo@@U?$less@_K@std@@V?$allocator@U?$pair@$$CB_KPEAVThreadInfo@@@std@@@3@$0A@@std@@@std@@@std@@YA?AUbidirectional_iterator_tag@0@AEBViterator@?$_Tree@V?$_Tmap_traits@_KPEAVThreadInfo@@U?$less@_K@std@@V?$allocator@U?$pair@$$CB_KPEAVThreadInfo@@@std@@@3@$0A@@std@@@0@@Z
_TEXT	SEGMENT
__$ReturnUdt$ = 8
__formal$ = 16
??$_Iter_cat@Viterator@?$_Tree@V?$_Tmap_traits@_KPEAVThreadInfo@@U?$less@_K@std@@V?$allocator@U?$pair@$$CB_KPEAVThreadInfo@@@std@@@3@$0A@@std@@@std@@@std@@YA?AUbidirectional_iterator_tag@0@AEBViterator@?$_Tree@V?$_Tmap_traits@_KPEAVThreadInfo@@U?$less@_K@std@@V?$allocator@U?$pair@$$CB_KPEAVThreadInfo@@@std@@@3@$0A@@std@@@0@@Z PROC ; std::_Iter_cat<std::_Tree<std::_Tmap_traits<unsigned __int64,ThreadInfo * __ptr64,std::less<unsigned __int64>,std::allocator<std::pair<unsigned __int64 const ,ThreadInfo * __ptr64> >,0> >::iterator>, COMDAT

; 953  : 	typename iterator_traits<_Iter>::iterator_category _Cat;
; 954  : 	return (_Cat);

	mov	rax, rcx

; 955  : 	}

	ret	0
??$_Iter_cat@Viterator@?$_Tree@V?$_Tmap_traits@_KPEAVThreadInfo@@U?$less@_K@std@@V?$allocator@U?$pair@$$CB_KPEAVThreadInfo@@@std@@@3@$0A@@std@@@std@@@std@@YA?AUbidirectional_iterator_tag@0@AEBViterator@?$_Tree@V?$_Tmap_traits@_KPEAVThreadInfo@@U?$less@_K@std@@V?$allocator@U?$pair@$$CB_KPEAVThreadInfo@@@std@@@3@$0A@@std@@@0@@Z ENDP ; std::_Iter_cat<std::_Tree<std::_Tmap_traits<unsigned __int64,ThreadInfo * __ptr64,std::less<unsigned __int64>,std::allocator<std::pair<unsigned __int64 const ,ThreadInfo * __ptr64> >,0> >::iterator>
; Function compile flags: /Ogtpy
_TEXT	ENDS
;	COMDAT ??$_Iter_cat@Viterator@?$_Tree@V?$_Tmap_traits@_KHU?$less@_K@std@@V?$allocator@U?$pair@$$CB_KH@std@@@2@$0A@@std@@@std@@@std@@YA?AUbidirectional_iterator_tag@0@AEBViterator@?$_Tree@V?$_Tmap_traits@_KHU?$less@_K@std@@V?$allocator@U?$pair@$$CB_KH@std@@@2@$0A@@std@@@0@@Z
_TEXT	SEGMENT
__$ReturnUdt$ = 8
__formal$ = 16
??$_Iter_cat@Viterator@?$_Tree@V?$_Tmap_traits@_KHU?$less@_K@std@@V?$allocator@U?$pair@$$CB_KH@std@@@2@$0A@@std@@@std@@@std@@YA?AUbidirectional_iterator_tag@0@AEBViterator@?$_Tree@V?$_Tmap_traits@_KHU?$less@_K@std@@V?$allocator@U?$pair@$$CB_KH@std@@@2@$0A@@std@@@0@@Z PROC ; std::_Iter_cat<std::_Tree<std::_Tmap_traits<unsigned __int64,int,std::less<unsigned __int64>,std::allocator<std::pair<unsigned __int64 const ,int> >,0> >::iterator>, COMDAT

; 953  : 	typename iterator_traits<_Iter>::iterator_category _Cat;
; 954  : 	return (_Cat);

	mov	rax, rcx

; 955  : 	}

	ret	0
??$_Iter_cat@Viterator@?$_Tree@V?$_Tmap_traits@_KHU?$less@_K@std@@V?$allocator@U?$pair@$$CB_KH@std@@@2@$0A@@std@@@std@@@std@@YA?AUbidirectional_iterator_tag@0@AEBViterator@?$_Tree@V?$_Tmap_traits@_KHU?$less@_K@std@@V?$allocator@U?$pair@$$CB_KH@std@@@2@$0A@@std@@@0@@Z ENDP ; std::_Iter_cat<std::_Tree<std::_Tmap_traits<unsigned __int64,int,std::less<unsigned __int64>,std::allocator<std::pair<unsigned __int64 const ,int> >,0> >::iterator>
_TEXT	ENDS
;	COMDAT pdata
pdata	SEGMENT
$pdata$??0bad_alloc@std@@QEAA@AEBV01@@Z DD imagerel $LN4
	DD	imagerel $LN4+34
	DD	imagerel $unwind$??0bad_alloc@std@@QEAA@AEBV01@@Z
pdata	ENDS
;	COMDAT xdata
xdata	SEGMENT
$unwind$??0bad_alloc@std@@QEAA@AEBV01@@Z DD 020601H
	DD	030023206H
; Function compile flags: /Ogtpy
xdata	ENDS
;	COMDAT ??0bad_alloc@std@@QEAA@AEBV01@@Z
_TEXT	SEGMENT
this$ = 48
__that$ = 56
??0bad_alloc@std@@QEAA@AEBV01@@Z PROC			; std::bad_alloc::bad_alloc, COMDAT
$LN4:
	push	rbx
	sub	rsp, 32					; 00000020H
	mov	rbx, rcx
	call	QWORD PTR __imp_??0exception@std@@QEAA@AEBV01@@Z
	lea	r11, OFFSET FLAT:??_7bad_alloc@std@@6B@
	mov	QWORD PTR [rbx], r11
	mov	rax, rbx
	add	rsp, 32					; 00000020H
	pop	rbx
	ret	0
??0bad_alloc@std@@QEAA@AEBV01@@Z ENDP			; std::bad_alloc::bad_alloc
; Function compile flags: /Ogtpy
; File c:\program files\microsoft visual studio 9.0\vc\include\xmemory
_TEXT	ENDS
;	COMDAT ??$?0U?$pair@$$CBKPEAVThreadInfo@@@std@@@?$allocator@V_Aux_cont@std@@@std@@QEAA@AEBV?$allocator@U?$pair@$$CBKPEAVThreadInfo@@@std@@@1@@Z
_TEXT	SEGMENT
this$ = 8
__formal$ = 16
??$?0U?$pair@$$CBKPEAVThreadInfo@@@std@@@?$allocator@V_Aux_cont@std@@@std@@QEAA@AEBV?$allocator@U?$pair@$$CBKPEAVThreadInfo@@@std@@@1@@Z PROC ; std::allocator<std::_Aux_cont>::allocator<std::_Aux_cont><std::pair<unsigned long const ,ThreadInfo * __ptr64> >, COMDAT

; 129  : 		{	// construct from a related allocator (do nothing)
; 130  : 		}

	mov	rax, rcx
	ret	0
??$?0U?$pair@$$CBKPEAVThreadInfo@@@std@@@?$allocator@V_Aux_cont@std@@@std@@QEAA@AEBV?$allocator@U?$pair@$$CBKPEAVThreadInfo@@@std@@@1@@Z ENDP ; std::allocator<std::_Aux_cont>::allocator<std::_Aux_cont><std::pair<unsigned long const ,ThreadInfo * __ptr64> >
; Function compile flags: /Ogtpy
_TEXT	ENDS
;	COMDAT ??$?0U?$pair@$$CB_KPEAVThreadInfo@@@std@@@?$allocator@V_Aux_cont@std@@@std@@QEAA@AEBV?$allocator@U?$pair@$$CB_KPEAVThreadInfo@@@std@@@1@@Z
_TEXT	SEGMENT
this$ = 8
__formal$ = 16
??$?0U?$pair@$$CB_KPEAVThreadInfo@@@std@@@?$allocator@V_Aux_cont@std@@@std@@QEAA@AEBV?$allocator@U?$pair@$$CB_KPEAVThreadInfo@@@std@@@1@@Z PROC ; std::allocator<std::_Aux_cont>::allocator<std::_Aux_cont><std::pair<unsigned __int64 const ,ThreadInfo * __ptr64> >, COMDAT

; 129  : 		{	// construct from a related allocator (do nothing)
; 130  : 		}

	mov	rax, rcx
	ret	0
??$?0U?$pair@$$CB_KPEAVThreadInfo@@@std@@@?$allocator@V_Aux_cont@std@@@std@@QEAA@AEBV?$allocator@U?$pair@$$CB_KPEAVThreadInfo@@@std@@@1@@Z ENDP ; std::allocator<std::_Aux_cont>::allocator<std::_Aux_cont><std::pair<unsigned __int64 const ,ThreadInfo * __ptr64> >
; Function compile flags: /Ogtpy
_TEXT	ENDS
;	COMDAT ??$?0U?$pair@$$CB_KH@std@@@?$allocator@V_Aux_cont@std@@@std@@QEAA@AEBV?$allocator@U?$pair@$$CB_KH@std@@@1@@Z
_TEXT	SEGMENT
this$ = 8
__formal$ = 16
??$?0U?$pair@$$CB_KH@std@@@?$allocator@V_Aux_cont@std@@@std@@QEAA@AEBV?$allocator@U?$pair@$$CB_KH@std@@@1@@Z PROC ; std::allocator<std::_Aux_cont>::allocator<std::_Aux_cont><std::pair<unsigned __int64 const ,int> >, COMDAT

; 129  : 		{	// construct from a related allocator (do nothing)
; 130  : 		}

	mov	rax, rcx
	ret	0
??$?0U?$pair@$$CB_KH@std@@@?$allocator@V_Aux_cont@std@@@std@@QEAA@AEBV?$allocator@U?$pair@$$CB_KH@std@@@1@@Z ENDP ; std::allocator<std::_Aux_cont>::allocator<std::_Aux_cont><std::pair<unsigned __int64 const ,int> >
; Function compile flags: /Ogtpy
_TEXT	ENDS
;	COMDAT ??$?0U?$pair@$$CBKPEAVThreadInfo@@@std@@@?$allocator@U_Node@?$_Tree_nod@V?$_Tmap_traits@KPEAVThreadInfo@@U?$less@K@std@@V?$allocator@U?$pair@$$CBKPEAVThreadInfo@@@std@@@3@$0A@@std@@@std@@@std@@QEAA@AEBV?$allocator@U?$pair@$$CBKPEAVThreadInfo@@@std@@@1@@Z
_TEXT	SEGMENT
this$ = 8
__formal$ = 16
??$?0U?$pair@$$CBKPEAVThreadInfo@@@std@@@?$allocator@U_Node@?$_Tree_nod@V?$_Tmap_traits@KPEAVThreadInfo@@U?$less@K@std@@V?$allocator@U?$pair@$$CBKPEAVThreadInfo@@@std@@@3@$0A@@std@@@std@@@std@@QEAA@AEBV?$allocator@U?$pair@$$CBKPEAVThreadInfo@@@std@@@1@@Z PROC ; std::allocator<std::_Tree_nod<std::_Tmap_traits<unsigned long,ThreadInfo * __ptr64,std::less<unsigned long>,std::allocator<std::pair<unsigned long const ,ThreadInfo * __ptr64> >,0> >::_Node>::allocator<std::_Tree_nod<std::_Tmap_traits<unsigned long,ThreadInfo * __ptr64,std::less<unsigned long>,std::allocator<std::pair<unsigned long const ,ThreadInfo * __ptr64> >,0> >::_Node><std::pair<unsigned long const ,ThreadInfo * __ptr64> >, COMDAT

; 129  : 		{	// construct from a related allocator (do nothing)
; 130  : 		}

	mov	rax, rcx
	ret	0
??$?0U?$pair@$$CBKPEAVThreadInfo@@@std@@@?$allocator@U_Node@?$_Tree_nod@V?$_Tmap_traits@KPEAVThreadInfo@@U?$less@K@std@@V?$allocator@U?$pair@$$CBKPEAVThreadInfo@@@std@@@3@$0A@@std@@@std@@@std@@QEAA@AEBV?$allocator@U?$pair@$$CBKPEAVThreadInfo@@@std@@@1@@Z ENDP ; std::allocator<std::_Tree_nod<std::_Tmap_traits<unsigned long,ThreadInfo * __ptr64,std::less<unsigned long>,std::allocator<std::pair<unsigned long const ,ThreadInfo * __ptr64> >,0> >::_Node>::allocator<std::_Tree_nod<std::_Tmap_traits<unsigned long,ThreadInfo * __ptr64,std::less<unsigned long>,std::allocator<std::pair<unsigned long const ,ThreadInfo * __ptr64> >,0> >::_Node><std::pair<unsigned long const ,ThreadInfo * __ptr64> >
; Function compile flags: /Ogtpy
_TEXT	ENDS
;	COMDAT ??$?0U?$pair@$$CB_KPEAVThreadInfo@@@std@@@?$allocator@U_Node@?$_Tree_nod@V?$_Tmap_traits@_KPEAVThreadInfo@@U?$less@_K@std@@V?$allocator@U?$pair@$$CB_KPEAVThreadInfo@@@std@@@3@$0A@@std@@@std@@@std@@QEAA@AEBV?$allocator@U?$pair@$$CB_KPEAVThreadInfo@@@std@@@1@@Z
_TEXT	SEGMENT
this$ = 8
__formal$ = 16
??$?0U?$pair@$$CB_KPEAVThreadInfo@@@std@@@?$allocator@U_Node@?$_Tree_nod@V?$_Tmap_traits@_KPEAVThreadInfo@@U?$less@_K@std@@V?$allocator@U?$pair@$$CB_KPEAVThreadInfo@@@std@@@3@$0A@@std@@@std@@@std@@QEAA@AEBV?$allocator@U?$pair@$$CB_KPEAVThreadInfo@@@std@@@1@@Z PROC ; std::allocator<std::_Tree_nod<std::_Tmap_traits<unsigned __int64,ThreadInfo * __ptr64,std::less<unsigned __int64>,std::allocator<std::pair<unsigned __int64 const ,ThreadInfo * __ptr64> >,0> >::_Node>::allocator<std::_Tree_nod<std::_Tmap_traits<unsigned __int64,ThreadInfo * __ptr64,std::less<unsigned __int64>,std::allocator<std::pair<unsigned __int64 const ,ThreadInfo * __ptr64> >,0> >::_Node><std::pair<unsigned __int64 const ,ThreadInfo * __ptr64> >, COMDAT

; 129  : 		{	// construct from a related allocator (do nothing)
; 130  : 		}

	mov	rax, rcx
	ret	0
??$?0U?$pair@$$CB_KPEAVThreadInfo@@@std@@@?$allocator@U_Node@?$_Tree_nod@V?$_Tmap_traits@_KPEAVThreadInfo@@U?$less@_K@std@@V?$allocator@U?$pair@$$CB_KPEAVThreadInfo@@@std@@@3@$0A@@std@@@std@@@std@@QEAA@AEBV?$allocator@U?$pair@$$CB_KPEAVThreadInfo@@@std@@@1@@Z ENDP ; std::allocator<std::_Tree_nod<std::_Tmap_traits<unsigned __int64,ThreadInfo * __ptr64,std::less<unsigned __int64>,std::allocator<std::pair<unsigned __int64 const ,ThreadInfo * __ptr64> >,0> >::_Node>::allocator<std::_Tree_nod<std::_Tmap_traits<unsigned __int64,ThreadInfo * __ptr64,std::less<unsigned __int64>,std::allocator<std::pair<unsigned __int64 const ,ThreadInfo * __ptr64> >,0> >::_Node><std::pair<unsigned __int64 const ,ThreadInfo * __ptr64> >
; Function compile flags: /Ogtpy
_TEXT	ENDS
;	COMDAT ??$?0U?$pair@$$CB_KH@std@@@?$allocator@U_Node@?$_Tree_nod@V?$_Tmap_traits@_KHU?$less@_K@std@@V?$allocator@U?$pair@$$CB_KH@std@@@2@$0A@@std@@@std@@@std@@QEAA@AEBV?$allocator@U?$pair@$$CB_KH@std@@@1@@Z
_TEXT	SEGMENT
this$ = 8
__formal$ = 16
??$?0U?$pair@$$CB_KH@std@@@?$allocator@U_Node@?$_Tree_nod@V?$_Tmap_traits@_KHU?$less@_K@std@@V?$allocator@U?$pair@$$CB_KH@std@@@2@$0A@@std@@@std@@@std@@QEAA@AEBV?$allocator@U?$pair@$$CB_KH@std@@@1@@Z PROC ; std::allocator<std::_Tree_nod<std::_Tmap_traits<unsigned __int64,int,std::less<unsigned __int64>,std::allocator<std::pair<unsigned __int64 const ,int> >,0> >::_Node>::allocator<std::_Tree_nod<std::_Tmap_traits<unsigned __int64,int,std::less<unsigned __int64>,std::allocator<std::pair<unsigned __int64 const ,int> >,0> >::_Node><std::pair<unsigned __int64 const ,int> >, COMDAT

; 129  : 		{	// construct from a related allocator (do nothing)
; 130  : 		}

	mov	rax, rcx
	ret	0
??$?0U?$pair@$$CB_KH@std@@@?$allocator@U_Node@?$_Tree_nod@V?$_Tmap_traits@_KHU?$less@_K@std@@V?$allocator@U?$pair@$$CB_KH@std@@@2@$0A@@std@@@std@@@std@@QEAA@AEBV?$allocator@U?$pair@$$CB_KH@std@@@1@@Z ENDP ; std::allocator<std::_Tree_nod<std::_Tmap_traits<unsigned __int64,int,std::less<unsigned __int64>,std::allocator<std::pair<unsigned __int64 const ,int> >,0> >::_Node>::allocator<std::_Tree_nod<std::_Tmap_traits<unsigned __int64,int,std::less<unsigned __int64>,std::allocator<std::pair<unsigned __int64 const ,int> >,0> >::_Node><std::pair<unsigned __int64 const ,int> >
; Function compile flags: /Ogtpy
_TEXT	ENDS
;	COMDAT ??$?0U?$pair@$$CBKPEAVThreadInfo@@@std@@@?$allocator@PEAU_Node@?$_Tree_nod@V?$_Tmap_traits@KPEAVThreadInfo@@U?$less@K@std@@V?$allocator@U?$pair@$$CBKPEAVThreadInfo@@@std@@@3@$0A@@std@@@std@@@std@@QEAA@AEBV?$allocator@U?$pair@$$CBKPEAVThreadInfo@@@std@@@1@@Z
_TEXT	SEGMENT
this$ = 8
__formal$ = 16
??$?0U?$pair@$$CBKPEAVThreadInfo@@@std@@@?$allocator@PEAU_Node@?$_Tree_nod@V?$_Tmap_traits@KPEAVThreadInfo@@U?$less@K@std@@V?$allocator@U?$pair@$$CBKPEAVThreadInfo@@@std@@@3@$0A@@std@@@std@@@std@@QEAA@AEBV?$allocator@U?$pair@$$CBKPEAVThreadInfo@@@std@@@1@@Z PROC ; std::allocator<std::_Tree_nod<std::_Tmap_traits<unsigned long,ThreadInfo * __ptr64,std::less<unsigned long>,std::allocator<std::pair<unsigned long const ,ThreadInfo * __ptr64> >,0> >::_Node * __ptr64>::allocator<std::_Tree_nod<std::_Tmap_traits<unsigned long,ThreadInfo * __ptr64,std::less<unsigned long>,std::allocator<std::pair<unsigned long const ,ThreadInfo * __ptr64> >,0> >::_Node * __ptr64><std::pair<unsigned long const ,ThreadInfo * __ptr64> >, COMDAT

; 129  : 		{	// construct from a related allocator (do nothing)
; 130  : 		}

	mov	rax, rcx
	ret	0
??$?0U?$pair@$$CBKPEAVThreadInfo@@@std@@@?$allocator@PEAU_Node@?$_Tree_nod@V?$_Tmap_traits@KPEAVThreadInfo@@U?$less@K@std@@V?$allocator@U?$pair@$$CBKPEAVThreadInfo@@@std@@@3@$0A@@std@@@std@@@std@@QEAA@AEBV?$allocator@U?$pair@$$CBKPEAVThreadInfo@@@std@@@1@@Z ENDP ; std::allocator<std::_Tree_nod<std::_Tmap_traits<unsigned long,ThreadInfo * __ptr64,std::less<unsigned long>,std::allocator<std::pair<unsigned long const ,ThreadInfo * __ptr64> >,0> >::_Node * __ptr64>::allocator<std::_Tree_nod<std::_Tmap_traits<unsigned long,ThreadInfo * __ptr64,std::less<unsigned long>,std::allocator<std::pair<unsigned long const ,ThreadInfo * __ptr64> >,0> >::_Node * __ptr64><std::pair<unsigned long const ,ThreadInfo * __ptr64> >
; Function compile flags: /Ogtpy
_TEXT	ENDS
;	COMDAT ??$?0U?$pair@$$CB_KPEAVThreadInfo@@@std@@@?$allocator@PEAU_Node@?$_Tree_nod@V?$_Tmap_traits@_KPEAVThreadInfo@@U?$less@_K@std@@V?$allocator@U?$pair@$$CB_KPEAVThreadInfo@@@std@@@3@$0A@@std@@@std@@@std@@QEAA@AEBV?$allocator@U?$pair@$$CB_KPEAVThreadInfo@@@std@@@1@@Z
_TEXT	SEGMENT
this$ = 8
__formal$ = 16
??$?0U?$pair@$$CB_KPEAVThreadInfo@@@std@@@?$allocator@PEAU_Node@?$_Tree_nod@V?$_Tmap_traits@_KPEAVThreadInfo@@U?$less@_K@std@@V?$allocator@U?$pair@$$CB_KPEAVThreadInfo@@@std@@@3@$0A@@std@@@std@@@std@@QEAA@AEBV?$allocator@U?$pair@$$CB_KPEAVThreadInfo@@@std@@@1@@Z PROC ; std::allocator<std::_Tree_nod<std::_Tmap_traits<unsigned __int64,ThreadInfo * __ptr64,std::less<unsigned __int64>,std::allocator<std::pair<unsigned __int64 const ,ThreadInfo * __ptr64> >,0> >::_Node * __ptr64>::allocator<std::_Tree_nod<std::_Tmap_traits<unsigned __int64,ThreadInfo * __ptr64,std::less<unsigned __int64>,std::allocator<std::pair<unsigned __int64 const ,ThreadInfo * __ptr64> >,0> >::_Node * __ptr64><std::pair<unsigned __int64 const ,ThreadInfo * __ptr64> >, COMDAT

; 129  : 		{	// construct from a related allocator (do nothing)
; 130  : 		}

	mov	rax, rcx
	ret	0
??$?0U?$pair@$$CB_KPEAVThreadInfo@@@std@@@?$allocator@PEAU_Node@?$_Tree_nod@V?$_Tmap_traits@_KPEAVThreadInfo@@U?$less@_K@std@@V?$allocator@U?$pair@$$CB_KPEAVThreadInfo@@@std@@@3@$0A@@std@@@std@@@std@@QEAA@AEBV?$allocator@U?$pair@$$CB_KPEAVThreadInfo@@@std@@@1@@Z ENDP ; std::allocator<std::_Tree_nod<std::_Tmap_traits<unsigned __int64,ThreadInfo * __ptr64,std::less<unsigned __int64>,std::allocator<std::pair<unsigned __int64 const ,ThreadInfo * __ptr64> >,0> >::_Node * __ptr64>::allocator<std::_Tree_nod<std::_Tmap_traits<unsigned __int64,ThreadInfo * __ptr64,std::less<unsigned __int64>,std::allocator<std::pair<unsigned __int64 const ,ThreadInfo * __ptr64> >,0> >::_Node * __ptr64><std::pair<unsigned __int64 const ,ThreadInfo * __ptr64> >
; Function compile flags: /Ogtpy
_TEXT	ENDS
;	COMDAT ??$?0U?$pair@$$CB_KH@std@@@?$allocator@PEAU_Node@?$_Tree_nod@V?$_Tmap_traits@_KHU?$less@_K@std@@V?$allocator@U?$pair@$$CB_KH@std@@@2@$0A@@std@@@std@@@std@@QEAA@AEBV?$allocator@U?$pair@$$CB_KH@std@@@1@@Z
_TEXT	SEGMENT
this$ = 8
__formal$ = 16
??$?0U?$pair@$$CB_KH@std@@@?$allocator@PEAU_Node@?$_Tree_nod@V?$_Tmap_traits@_KHU?$less@_K@std@@V?$allocator@U?$pair@$$CB_KH@std@@@2@$0A@@std@@@std@@@std@@QEAA@AEBV?$allocator@U?$pair@$$CB_KH@std@@@1@@Z PROC ; std::allocator<std::_Tree_nod<std::_Tmap_traits<unsigned __int64,int,std::less<unsigned __int64>,std::allocator<std::pair<unsigned __int64 const ,int> >,0> >::_Node * __ptr64>::allocator<std::_Tree_nod<std::_Tmap_traits<unsigned __int64,int,std::less<unsigned __int64>,std::allocator<std::pair<unsigned __int64 const ,int> >,0> >::_Node * __ptr64><std::pair<unsigned __int64 const ,int> >, COMDAT

; 129  : 		{	// construct from a related allocator (do nothing)
; 130  : 		}

	mov	rax, rcx
	ret	0
??$?0U?$pair@$$CB_KH@std@@@?$allocator@PEAU_Node@?$_Tree_nod@V?$_Tmap_traits@_KHU?$less@_K@std@@V?$allocator@U?$pair@$$CB_KH@std@@@2@$0A@@std@@@std@@@std@@QEAA@AEBV?$allocator@U?$pair@$$CB_KH@std@@@1@@Z ENDP ; std::allocator<std::_Tree_nod<std::_Tmap_traits<unsigned __int64,int,std::less<unsigned __int64>,std::allocator<std::pair<unsigned __int64 const ,int> >,0> >::_Node * __ptr64>::allocator<std::_Tree_nod<std::_Tmap_traits<unsigned __int64,int,std::less<unsigned __int64>,std::allocator<std::pair<unsigned __int64 const ,int> >,0> >::_Node * __ptr64><std::pair<unsigned __int64 const ,int> >
; Function compile flags: /Ogtpy
; File c:\program files\microsoft visual studio 9.0\vc\include\utility
_TEXT	ENDS
;	COMDAT ??$?0_KPEAVThreadInfo@@@?$pair@$$CB_KPEAVThreadInfo@@@std@@QEAA@AEBU?$pair@_KPEAVThreadInfo@@@1@@Z
_TEXT	SEGMENT
this$ = 8
_Right$ = 16
??$?0_KPEAVThreadInfo@@@?$pair@$$CB_KPEAVThreadInfo@@@std@@QEAA@AEBU?$pair@_KPEAVThreadInfo@@@1@@Z PROC ; std::pair<unsigned __int64 const ,ThreadInfo * __ptr64>::pair<unsigned __int64 const ,ThreadInfo * __ptr64><unsigned __int64,ThreadInfo * __ptr64>, COMDAT

; 57   : 		{	// construct from compatible pair

	mov	rax, QWORD PTR [rdx]
	mov	QWORD PTR [rcx], rax
	mov	rax, QWORD PTR [rdx+8]
	mov	QWORD PTR [rcx+8], rax

; 58   : 		}

	mov	rax, rcx
	ret	0
??$?0_KPEAVThreadInfo@@@?$pair@$$CB_KPEAVThreadInfo@@@std@@QEAA@AEBU?$pair@_KPEAVThreadInfo@@@1@@Z ENDP ; std::pair<unsigned __int64 const ,ThreadInfo * __ptr64>::pair<unsigned __int64 const ,ThreadInfo * __ptr64><unsigned __int64,ThreadInfo * __ptr64>
; Function compile flags: /Ogtpy
_TEXT	ENDS
;	COMDAT ??$?0KPEAVThreadInfo@@@?$pair@$$CBKPEAVThreadInfo@@@std@@QEAA@AEBU?$pair@KPEAVThreadInfo@@@1@@Z
_TEXT	SEGMENT
this$ = 8
_Right$ = 16
??$?0KPEAVThreadInfo@@@?$pair@$$CBKPEAVThreadInfo@@@std@@QEAA@AEBU?$pair@KPEAVThreadInfo@@@1@@Z PROC ; std::pair<unsigned long const ,ThreadInfo * __ptr64>::pair<unsigned long const ,ThreadInfo * __ptr64><unsigned long,ThreadInfo * __ptr64>, COMDAT

; 57   : 		{	// construct from compatible pair

	mov	eax, DWORD PTR [rdx]
	mov	DWORD PTR [rcx], eax
	mov	rax, QWORD PTR [rdx+8]
	mov	QWORD PTR [rcx+8], rax

; 58   : 		}

	mov	rax, rcx
	ret	0
??$?0KPEAVThreadInfo@@@?$pair@$$CBKPEAVThreadInfo@@@std@@QEAA@AEBU?$pair@KPEAVThreadInfo@@@1@@Z ENDP ; std::pair<unsigned long const ,ThreadInfo * __ptr64>::pair<unsigned long const ,ThreadInfo * __ptr64><unsigned long,ThreadInfo * __ptr64>
; Function compile flags: /Ogtpy
_TEXT	ENDS
;	COMDAT ??$?0_KH@?$pair@$$CB_KH@std@@QEAA@AEBU?$pair@_KH@1@@Z
_TEXT	SEGMENT
this$ = 8
_Right$ = 16
??$?0_KH@?$pair@$$CB_KH@std@@QEAA@AEBU?$pair@_KH@1@@Z PROC ; std::pair<unsigned __int64 const ,int>::pair<unsigned __int64 const ,int><unsigned __int64,int>, COMDAT

; 57   : 		{	// construct from compatible pair

	mov	rax, QWORD PTR [rdx]
	mov	QWORD PTR [rcx], rax
	mov	eax, DWORD PTR [rdx+8]
	mov	DWORD PTR [rcx+8], eax

; 58   : 		}

	mov	rax, rcx
	ret	0
??$?0_KH@?$pair@$$CB_KH@std@@QEAA@AEBU?$pair@_KH@1@@Z ENDP ; std::pair<unsigned __int64 const ,int>::pair<unsigned __int64 const ,int><unsigned __int64,int>
; Function compile flags: /Ogtpy
; File c:\program files\microsoft visual studio 9.0\vc\include\xtree
_TEXT	ENDS
;	COMDAT ??0_Node@?$_Tree_nod@V?$_Tmap_traits@KPEAVThreadInfo@@U?$less@K@std@@V?$allocator@U?$pair@$$CBKPEAVThreadInfo@@@std@@@3@$0A@@std@@@std@@QEAA@PEAU012@00AEBU?$pair@$$CBKPEAVThreadInfo@@@2@D@Z
_TEXT	SEGMENT
this$ = 8
_Larg$ = 16
_Parg$ = 24
_Rarg$ = 32
_Val$ = 40
_Carg$ = 48
??0_Node@?$_Tree_nod@V?$_Tmap_traits@KPEAVThreadInfo@@U?$less@K@std@@V?$allocator@U?$pair@$$CBKPEAVThreadInfo@@@std@@@3@$0A@@std@@@std@@QEAA@PEAU012@00AEBU?$pair@$$CBKPEAVThreadInfo@@@2@D@Z PROC ; std::_Tree_nod<std::_Tmap_traits<unsigned long,ThreadInfo * __ptr64,std::less<unsigned long>,std::allocator<std::pair<unsigned long const ,ThreadInfo * __ptr64> >,0> >::_Node::_Node, COMDAT

; 38   : 			{	// construct a node with value

	mov	QWORD PTR [rcx], rdx
	mov	rdx, QWORD PTR _Val$[rsp]
	mov	QWORD PTR [rcx+8], r8
	mov	QWORD PTR [rcx+16], r9
	mov	rax, QWORD PTR [rdx]
	mov	QWORD PTR [rcx+24], rax
	mov	rax, QWORD PTR [rdx+8]
	mov	BYTE PTR [rcx+40], 0
	mov	QWORD PTR [rcx+32], rax

; 39   : 			}

	mov	rax, rcx
	mov	BYTE PTR [rcx+41], 0
	ret	0
??0_Node@?$_Tree_nod@V?$_Tmap_traits@KPEAVThreadInfo@@U?$less@K@std@@V?$allocator@U?$pair@$$CBKPEAVThreadInfo@@@std@@@3@$0A@@std@@@std@@QEAA@PEAU012@00AEBU?$pair@$$CBKPEAVThreadInfo@@@2@D@Z ENDP ; std::_Tree_nod<std::_Tmap_traits<unsigned long,ThreadInfo * __ptr64,std::less<unsigned long>,std::allocator<std::pair<unsigned long const ,ThreadInfo * __ptr64> >,0> >::_Node::_Node
; Function compile flags: /Ogtpy
_TEXT	ENDS
;	COMDAT ??0_Node@?$_Tree_nod@V?$_Tmap_traits@_KPEAVThreadInfo@@U?$less@_K@std@@V?$allocator@U?$pair@$$CB_KPEAVThreadInfo@@@std@@@3@$0A@@std@@@std@@QEAA@PEAU012@00AEBU?$pair@$$CB_KPEAVThreadInfo@@@2@D@Z
_TEXT	SEGMENT
this$ = 8
_Larg$ = 16
_Parg$ = 24
_Rarg$ = 32
_Val$ = 40
_Carg$ = 48
??0_Node@?$_Tree_nod@V?$_Tmap_traits@_KPEAVThreadInfo@@U?$less@_K@std@@V?$allocator@U?$pair@$$CB_KPEAVThreadInfo@@@std@@@3@$0A@@std@@@std@@QEAA@PEAU012@00AEBU?$pair@$$CB_KPEAVThreadInfo@@@2@D@Z PROC ; std::_Tree_nod<std::_Tmap_traits<unsigned __int64,ThreadInfo * __ptr64,std::less<unsigned __int64>,std::allocator<std::pair<unsigned __int64 const ,ThreadInfo * __ptr64> >,0> >::_Node::_Node, COMDAT

; 38   : 			{	// construct a node with value

	mov	QWORD PTR [rcx], rdx
	mov	rdx, QWORD PTR _Val$[rsp]
	mov	QWORD PTR [rcx+8], r8
	mov	QWORD PTR [rcx+16], r9
	mov	rax, QWORD PTR [rdx]
	mov	QWORD PTR [rcx+24], rax
	mov	rax, QWORD PTR [rdx+8]
	mov	BYTE PTR [rcx+40], 0
	mov	QWORD PTR [rcx+32], rax

; 39   : 			}

	mov	rax, rcx
	mov	BYTE PTR [rcx+41], 0
	ret	0
??0_Node@?$_Tree_nod@V?$_Tmap_traits@_KPEAVThreadInfo@@U?$less@_K@std@@V?$allocator@U?$pair@$$CB_KPEAVThreadInfo@@@std@@@3@$0A@@std@@@std@@QEAA@PEAU012@00AEBU?$pair@$$CB_KPEAVThreadInfo@@@2@D@Z ENDP ; std::_Tree_nod<std::_Tmap_traits<unsigned __int64,ThreadInfo * __ptr64,std::less<unsigned __int64>,std::allocator<std::pair<unsigned __int64 const ,ThreadInfo * __ptr64> >,0> >::_Node::_Node
; Function compile flags: /Ogtpy
_TEXT	ENDS
;	COMDAT ??0_Node@?$_Tree_nod@V?$_Tmap_traits@_KHU?$less@_K@std@@V?$allocator@U?$pair@$$CB_KH@std@@@2@$0A@@std@@@std@@QEAA@PEAU012@00AEBU?$pair@$$CB_KH@2@D@Z
_TEXT	SEGMENT
this$ = 8
_Larg$ = 16
_Parg$ = 24
_Rarg$ = 32
_Val$ = 40
_Carg$ = 48
??0_Node@?$_Tree_nod@V?$_Tmap_traits@_KHU?$less@_K@std@@V?$allocator@U?$pair@$$CB_KH@std@@@2@$0A@@std@@@std@@QEAA@PEAU012@00AEBU?$pair@$$CB_KH@2@D@Z PROC ; std::_Tree_nod<std::_Tmap_traits<unsigned __int64,int,std::less<unsigned __int64>,std::allocator<std::pair<unsigned __int64 const ,int> >,0> >::_Node::_Node, COMDAT

; 38   : 			{	// construct a node with value

	mov	QWORD PTR [rcx], rdx
	mov	rdx, QWORD PTR _Val$[rsp]
	mov	QWORD PTR [rcx+8], r8
	mov	QWORD PTR [rcx+16], r9
	mov	rax, QWORD PTR [rdx]
	mov	QWORD PTR [rcx+24], rax
	mov	rax, QWORD PTR [rdx+8]
	mov	BYTE PTR [rcx+40], 0
	mov	QWORD PTR [rcx+32], rax

; 39   : 			}

	mov	rax, rcx
	mov	BYTE PTR [rcx+41], 0
	ret	0
??0_Node@?$_Tree_nod@V?$_Tmap_traits@_KHU?$less@_K@std@@V?$allocator@U?$pair@$$CB_KH@std@@@2@$0A@@std@@@std@@QEAA@PEAU012@00AEBU?$pair@$$CB_KH@2@D@Z ENDP ; std::_Tree_nod<std::_Tmap_traits<unsigned __int64,int,std::less<unsigned __int64>,std::allocator<std::pair<unsigned __int64 const ,int> >,0> >::_Node::_Node
; Function compile flags: /Ogtpy
; File c:\program files\microsoft visual studio 9.0\vc\include\utility
_TEXT	ENDS
;	COMDAT ??0?$pair@Viterator@?$_Tree@V?$_Tmap_traits@KPEAVThreadInfo@@U?$less@K@std@@V?$allocator@U?$pair@$$CBKPEAVThreadInfo@@@std@@@3@$0A@@std@@@std@@V123@@std@@QEAA@AEBViterator@?$_Tree@V?$_Tmap_traits@KPEAVThreadInfo@@U?$less@K@std@@V?$allocator@U?$pair@$$CBKPEAVThreadInfo@@@std@@@3@$0A@@std@@@1@0@Z
_TEXT	SEGMENT
this$ = 8
_Val1$ = 16
_Val2$ = 24
??0?$pair@Viterator@?$_Tree@V?$_Tmap_traits@KPEAVThreadInfo@@U?$less@K@std@@V?$allocator@U?$pair@$$CBKPEAVThreadInfo@@@std@@@3@$0A@@std@@@std@@V123@@std@@QEAA@AEBViterator@?$_Tree@V?$_Tmap_traits@KPEAVThreadInfo@@U?$less@K@std@@V?$allocator@U?$pair@$$CBKPEAVThreadInfo@@@std@@@3@$0A@@std@@@1@0@Z PROC ; std::pair<std::_Tree<std::_Tmap_traits<unsigned long,ThreadInfo * __ptr64,std::less<unsigned long>,std::allocator<std::pair<unsigned long const ,ThreadInfo * __ptr64> >,0> >::iterator,std::_Tree<std::_Tmap_traits<unsigned long,ThreadInfo * __ptr64,std::less<unsigned long>,std::allocator<std::pair<unsigned long const ,ThreadInfo * __ptr64> >,0> >::iterator>::pair<std::_Tree<std::_Tmap_traits<unsigned long,ThreadInfo * __ptr64,std::less<unsigned long>,std::allocator<std::pair<unsigned long const ,ThreadInfo * __ptr64> >,0> >::iterator,std::_Tree<std::_Tmap_traits<unsigned long,ThreadInfo * __ptr64,std::less<unsigned long>,std::allocator<std::pair<unsigned long const ,ThreadInfo * __ptr64> >,0> >::iterator>, COMDAT

; 50   : 		{	// construct from specified values

	mov	rax, QWORD PTR [rdx]
	mov	QWORD PTR [rcx], rax
	mov	rax, QWORD PTR [rdx+8]
	mov	QWORD PTR [rcx+8], rax
	mov	rax, QWORD PTR [r8]
	mov	QWORD PTR [rcx+16], rax
	mov	rax, QWORD PTR [r8+8]
	mov	QWORD PTR [rcx+24], rax

; 51   : 		}

	mov	rax, rcx
	ret	0
??0?$pair@Viterator@?$_Tree@V?$_Tmap_traits@KPEAVThreadInfo@@U?$less@K@std@@V?$allocator@U?$pair@$$CBKPEAVThreadInfo@@@std@@@3@$0A@@std@@@std@@V123@@std@@QEAA@AEBViterator@?$_Tree@V?$_Tmap_traits@KPEAVThreadInfo@@U?$less@K@std@@V?$allocator@U?$pair@$$CBKPEAVThreadInfo@@@std@@@3@$0A@@std@@@1@0@Z ENDP ; std::pair<std::_Tree<std::_Tmap_traits<unsigned long,ThreadInfo * __ptr64,std::less<unsigned long>,std::allocator<std::pair<unsigned long const ,ThreadInfo * __ptr64> >,0> >::iterator,std::_Tree<std::_Tmap_traits<unsigned long,ThreadInfo * __ptr64,std::less<unsigned long>,std::allocator<std::pair<unsigned long const ,ThreadInfo * __ptr64> >,0> >::iterator>::pair<std::_Tree<std::_Tmap_traits<unsigned long,ThreadInfo * __ptr64,std::less<unsigned long>,std::allocator<std::pair<unsigned long const ,ThreadInfo * __ptr64> >,0> >::iterator,std::_Tree<std::_Tmap_traits<unsigned long,ThreadInfo * __ptr64,std::less<unsigned long>,std::allocator<std::pair<unsigned long const ,ThreadInfo * __ptr64> >,0> >::iterator>
; Function compile flags: /Ogtpy
_TEXT	ENDS
;	COMDAT ??0?$pair@Viterator@?$_Tree@V?$_Tmap_traits@_KPEAVThreadInfo@@U?$less@_K@std@@V?$allocator@U?$pair@$$CB_KPEAVThreadInfo@@@std@@@3@$0A@@std@@@std@@V123@@std@@QEAA@AEBViterator@?$_Tree@V?$_Tmap_traits@_KPEAVThreadInfo@@U?$less@_K@std@@V?$allocator@U?$pair@$$CB_KPEAVThreadInfo@@@std@@@3@$0A@@std@@@1@0@Z
_TEXT	SEGMENT
this$ = 8
_Val1$ = 16
_Val2$ = 24
??0?$pair@Viterator@?$_Tree@V?$_Tmap_traits@_KPEAVThreadInfo@@U?$less@_K@std@@V?$allocator@U?$pair@$$CB_KPEAVThreadInfo@@@std@@@3@$0A@@std@@@std@@V123@@std@@QEAA@AEBViterator@?$_Tree@V?$_Tmap_traits@_KPEAVThreadInfo@@U?$less@_K@std@@V?$allocator@U?$pair@$$CB_KPEAVThreadInfo@@@std@@@3@$0A@@std@@@1@0@Z PROC ; std::pair<std::_Tree<std::_Tmap_traits<unsigned __int64,ThreadInfo * __ptr64,std::less<unsigned __int64>,std::allocator<std::pair<unsigned __int64 const ,ThreadInfo * __ptr64> >,0> >::iterator,std::_Tree<std::_Tmap_traits<unsigned __int64,ThreadInfo * __ptr64,std::less<unsigned __int64>,std::allocator<std::pair<unsigned __int64 const ,ThreadInfo * __ptr64> >,0> >::iterator>::pair<std::_Tree<std::_Tmap_traits<unsigned __int64,ThreadInfo * __ptr64,std::less<unsigned __int64>,std::allocator<std::pair<unsigned __int64 const ,ThreadInfo * __ptr64> >,0> >::iterator,std::_Tree<std::_Tmap_traits<unsigned __int64,ThreadInfo * __ptr64,std::less<unsigned __int64>,std::allocator<std::pair<unsigned __int64 const ,ThreadInfo * __ptr64> >,0> >::iterator>, COMDAT

; 50   : 		{	// construct from specified values

	mov	rax, QWORD PTR [rdx]
	mov	QWORD PTR [rcx], rax
	mov	rax, QWORD PTR [rdx+8]
	mov	QWORD PTR [rcx+8], rax
	mov	rax, QWORD PTR [r8]
	mov	QWORD PTR [rcx+16], rax
	mov	rax, QWORD PTR [r8+8]
	mov	QWORD PTR [rcx+24], rax

; 51   : 		}

	mov	rax, rcx
	ret	0
??0?$pair@Viterator@?$_Tree@V?$_Tmap_traits@_KPEAVThreadInfo@@U?$less@_K@std@@V?$allocator@U?$pair@$$CB_KPEAVThreadInfo@@@std@@@3@$0A@@std@@@std@@V123@@std@@QEAA@AEBViterator@?$_Tree@V?$_Tmap_traits@_KPEAVThreadInfo@@U?$less@_K@std@@V?$allocator@U?$pair@$$CB_KPEAVThreadInfo@@@std@@@3@$0A@@std@@@1@0@Z ENDP ; std::pair<std::_Tree<std::_Tmap_traits<unsigned __int64,ThreadInfo * __ptr64,std::less<unsigned __int64>,std::allocator<std::pair<unsigned __int64 const ,ThreadInfo * __ptr64> >,0> >::iterator,std::_Tree<std::_Tmap_traits<unsigned __int64,ThreadInfo * __ptr64,std::less<unsigned __int64>,std::allocator<std::pair<unsigned __int64 const ,ThreadInfo * __ptr64> >,0> >::iterator>::pair<std::_Tree<std::_Tmap_traits<unsigned __int64,ThreadInfo * __ptr64,std::less<unsigned __int64>,std::allocator<std::pair<unsigned __int64 const ,ThreadInfo * __ptr64> >,0> >::iterator,std::_Tree<std::_Tmap_traits<unsigned __int64,ThreadInfo * __ptr64,std::less<unsigned __int64>,std::allocator<std::pair<unsigned __int64 const ,ThreadInfo * __ptr64> >,0> >::iterator>
; Function compile flags: /Ogtpy
_TEXT	ENDS
;	COMDAT ??0?$pair@Viterator@?$_Tree@V?$_Tmap_traits@_KHU?$less@_K@std@@V?$allocator@U?$pair@$$CB_KH@std@@@2@$0A@@std@@@std@@V123@@std@@QEAA@AEBViterator@?$_Tree@V?$_Tmap_traits@_KHU?$less@_K@std@@V?$allocator@U?$pair@$$CB_KH@std@@@2@$0A@@std@@@1@0@Z
_TEXT	SEGMENT
this$ = 8
_Val1$ = 16
_Val2$ = 24
??0?$pair@Viterator@?$_Tree@V?$_Tmap_traits@_KHU?$less@_K@std@@V?$allocator@U?$pair@$$CB_KH@std@@@2@$0A@@std@@@std@@V123@@std@@QEAA@AEBViterator@?$_Tree@V?$_Tmap_traits@_KHU?$less@_K@std@@V?$allocator@U?$pair@$$CB_KH@std@@@2@$0A@@std@@@1@0@Z PROC ; std::pair<std::_Tree<std::_Tmap_traits<unsigned __int64,int,std::less<unsigned __int64>,std::allocator<std::pair<unsigned __int64 const ,int> >,0> >::iterator,std::_Tree<std::_Tmap_traits<unsigned __int64,int,std::less<unsigned __int64>,std::allocator<std::pair<unsigned __int64 const ,int> >,0> >::iterator>::pair<std::_Tree<std::_Tmap_traits<unsigned __int64,int,std::less<unsigned __int64>,std::allocator<std::pair<unsigned __int64 const ,int> >,0> >::iterator,std::_Tree<std::_Tmap_traits<unsigned __int64,int,std::less<unsigned __int64>,std::allocator<std::pair<unsigned __int64 const ,int> >,0> >::iterator>, COMDAT

; 50   : 		{	// construct from specified values

	mov	rax, QWORD PTR [rdx]
	mov	QWORD PTR [rcx], rax
	mov	rax, QWORD PTR [rdx+8]
	mov	QWORD PTR [rcx+8], rax
	mov	rax, QWORD PTR [r8]
	mov	QWORD PTR [rcx+16], rax
	mov	rax, QWORD PTR [r8+8]
	mov	QWORD PTR [rcx+24], rax

; 51   : 		}

	mov	rax, rcx
	ret	0
??0?$pair@Viterator@?$_Tree@V?$_Tmap_traits@_KHU?$less@_K@std@@V?$allocator@U?$pair@$$CB_KH@std@@@2@$0A@@std@@@std@@V123@@std@@QEAA@AEBViterator@?$_Tree@V?$_Tmap_traits@_KHU?$less@_K@std@@V?$allocator@U?$pair@$$CB_KH@std@@@2@$0A@@std@@@1@0@Z ENDP ; std::pair<std::_Tree<std::_Tmap_traits<unsigned __int64,int,std::less<unsigned __int64>,std::allocator<std::pair<unsigned __int64 const ,int> >,0> >::iterator,std::_Tree<std::_Tmap_traits<unsigned __int64,int,std::less<unsigned __int64>,std::allocator<std::pair<unsigned __int64 const ,int> >,0> >::iterator>::pair<std::_Tree<std::_Tmap_traits<unsigned __int64,int,std::less<unsigned __int64>,std::allocator<std::pair<unsigned __int64 const ,int> >,0> >::iterator,std::_Tree<std::_Tmap_traits<unsigned __int64,int,std::less<unsigned __int64>,std::allocator<std::pair<unsigned __int64 const ,int> >,0> >::iterator>
; Function compile flags: /Ogtpy
; File c:\program files\microsoft visual studio 9.0\vc\include\xmemory
_TEXT	ENDS
;	COMDAT ?max_size@?$allocator@U?$pair@$$CBKPEAVThreadInfo@@@std@@@std@@QEBA_KXZ
_TEXT	SEGMENT
this$ = 8
?max_size@?$allocator@U?$pair@$$CBKPEAVThreadInfo@@@std@@@std@@QEBA_KXZ PROC ; std::allocator<std::pair<unsigned long const ,ThreadInfo * __ptr64> >::max_size, COMDAT

; 165  : 		_SIZT _Count = (_SIZT)(-1) / sizeof (_Ty);
; 166  : 		return (0 < _Count ? _Count : 1);

	mov	rax, 1152921504606846975		; 0fffffffffffffffH

; 167  : 		}

	ret	0
?max_size@?$allocator@U?$pair@$$CBKPEAVThreadInfo@@@std@@@std@@QEBA_KXZ ENDP ; std::allocator<std::pair<unsigned long const ,ThreadInfo * __ptr64> >::max_size
; Function compile flags: /Ogtpy
_TEXT	ENDS
;	COMDAT ?max_size@?$allocator@U?$pair@$$CB_KPEAVThreadInfo@@@std@@@std@@QEBA_KXZ
_TEXT	SEGMENT
this$ = 8
?max_size@?$allocator@U?$pair@$$CB_KPEAVThreadInfo@@@std@@@std@@QEBA_KXZ PROC ; std::allocator<std::pair<unsigned __int64 const ,ThreadInfo * __ptr64> >::max_size, COMDAT

; 165  : 		_SIZT _Count = (_SIZT)(-1) / sizeof (_Ty);
; 166  : 		return (0 < _Count ? _Count : 1);

	mov	rax, 1152921504606846975		; 0fffffffffffffffH

; 167  : 		}

	ret	0
?max_size@?$allocator@U?$pair@$$CB_KPEAVThreadInfo@@@std@@@std@@QEBA_KXZ ENDP ; std::allocator<std::pair<unsigned __int64 const ,ThreadInfo * __ptr64> >::max_size
; Function compile flags: /Ogtpy
_TEXT	ENDS
;	COMDAT ?max_size@?$allocator@U?$pair@$$CB_KH@std@@@std@@QEBA_KXZ
_TEXT	SEGMENT
this$ = 8
?max_size@?$allocator@U?$pair@$$CB_KH@std@@@std@@QEBA_KXZ PROC ; std::allocator<std::pair<unsigned __int64 const ,int> >::max_size, COMDAT

; 165  : 		_SIZT _Count = (_SIZT)(-1) / sizeof (_Ty);
; 166  : 		return (0 < _Count ? _Count : 1);

	mov	rax, 1152921504606846975		; 0fffffffffffffffH

; 167  : 		}

	ret	0
?max_size@?$allocator@U?$pair@$$CB_KH@std@@@std@@QEBA_KXZ ENDP ; std::allocator<std::pair<unsigned __int64 const ,int> >::max_size
; Function compile flags: /Ogtpy
_TEXT	ENDS
;	COMDAT ??0?$allocator@U?$pair@$$CBKPEAVThreadInfo@@@std@@@std@@QEAA@AEBV01@@Z
_TEXT	SEGMENT
this$ = 8
__formal$ = 16
??0?$allocator@U?$pair@$$CBKPEAVThreadInfo@@@std@@@std@@QEAA@AEBV01@@Z PROC ; std::allocator<std::pair<unsigned long const ,ThreadInfo * __ptr64> >::allocator<std::pair<unsigned long const ,ThreadInfo * __ptr64> >, COMDAT

; 124  : 		{	// construct by copying (do nothing)
; 125  : 		}

	mov	rax, rcx
	ret	0
??0?$allocator@U?$pair@$$CBKPEAVThreadInfo@@@std@@@std@@QEAA@AEBV01@@Z ENDP ; std::allocator<std::pair<unsigned long const ,ThreadInfo * __ptr64> >::allocator<std::pair<unsigned long const ,ThreadInfo * __ptr64> >
; Function compile flags: /Ogtpy
; File c:\program files\microsoft visual studio 9.0\vc\include\xtree
_TEXT	ENDS
;	COMDAT ?max_size@?$_Tree@V?$_Tmap_traits@KPEAVThreadInfo@@U?$less@K@std@@V?$allocator@U?$pair@$$CBKPEAVThreadInfo@@@std@@@3@$0A@@std@@@std@@QEBA_KXZ
_TEXT	SEGMENT
this$ = 8
?max_size@?$_Tree@V?$_Tmap_traits@KPEAVThreadInfo@@U?$less@K@std@@V?$allocator@U?$pair@$$CBKPEAVThreadInfo@@@std@@@3@$0A@@std@@@std@@QEBA_KXZ PROC ; std::_Tree<std::_Tmap_traits<unsigned long,ThreadInfo * __ptr64,std::less<unsigned long>,std::allocator<std::pair<unsigned long const ,ThreadInfo * __ptr64> >,0> >::max_size, COMDAT

; 606  : 		return (this->_Alval.max_size());

	mov	rax, 1152921504606846975		; 0fffffffffffffffH

; 607  : 		}

	ret	0
?max_size@?$_Tree@V?$_Tmap_traits@KPEAVThreadInfo@@U?$less@K@std@@V?$allocator@U?$pair@$$CBKPEAVThreadInfo@@@std@@@3@$0A@@std@@@std@@QEBA_KXZ ENDP ; std::_Tree<std::_Tmap_traits<unsigned long,ThreadInfo * __ptr64,std::less<unsigned long>,std::allocator<std::pair<unsigned long const ,ThreadInfo * __ptr64> >,0> >::max_size
; Function compile flags: /Ogtpy
_TEXT	ENDS
;	COMDAT ?size@?$_Tree@V?$_Tmap_traits@KPEAVThreadInfo@@U?$less@K@std@@V?$allocator@U?$pair@$$CBKPEAVThreadInfo@@@std@@@3@$0A@@std@@@std@@QEBA_KXZ
_TEXT	SEGMENT
this$ = 8
?size@?$_Tree@V?$_Tmap_traits@KPEAVThreadInfo@@U?$less@K@std@@V?$allocator@U?$pair@$$CBKPEAVThreadInfo@@@std@@@3@$0A@@std@@@std@@QEBA_KXZ PROC ; std::_Tree<std::_Tmap_traits<unsigned long,ThreadInfo * __ptr64,std::less<unsigned long>,std::allocator<std::pair<unsigned long const ,ThreadInfo * __ptr64> >,0> >::size, COMDAT

; 601  : 		return (_Mysize);

	mov	rax, QWORD PTR [rcx+56]

; 602  : 		}

	ret	0
?size@?$_Tree@V?$_Tmap_traits@KPEAVThreadInfo@@U?$less@K@std@@V?$allocator@U?$pair@$$CBKPEAVThreadInfo@@@std@@@3@$0A@@std@@@std@@QEBA_KXZ ENDP ; std::_Tree<std::_Tmap_traits<unsigned long,ThreadInfo * __ptr64,std::less<unsigned long>,std::allocator<std::pair<unsigned long const ,ThreadInfo * __ptr64> >,0> >::size
; Function compile flags: /Ogtpy
_TEXT	ENDS
;	COMDAT ?_Myval@?$_Tree@V?$_Tmap_traits@KPEAVThreadInfo@@U?$less@K@std@@V?$allocator@U?$pair@$$CBKPEAVThreadInfo@@@std@@@3@$0A@@std@@@std@@KAAEAU?$pair@$$CBKPEAVThreadInfo@@@2@PEAU_Node@?$_Tree_nod@V?$_Tmap_traits@KPEAVThreadInfo@@U?$less@K@std@@V?$allocator@U?$pair@$$CBKPEAVThreadInfo@@@std@@@3@$0A@@std@@@2@@Z
_TEXT	SEGMENT
_Pnode$ = 8
?_Myval@?$_Tree@V?$_Tmap_traits@KPEAVThreadInfo@@U?$less@K@std@@V?$allocator@U?$pair@$$CBKPEAVThreadInfo@@@std@@@3@$0A@@std@@@std@@KAAEAU?$pair@$$CBKPEAVThreadInfo@@@2@PEAU_Node@?$_Tree_nod@V?$_Tmap_traits@KPEAVThreadInfo@@U?$less@K@std@@V?$allocator@U?$pair@$$CBKPEAVThreadInfo@@@std@@@3@$0A@@std@@@2@@Z PROC ; std::_Tree<std::_Tmap_traits<unsigned long,ThreadInfo * __ptr64,std::less<unsigned long>,std::allocator<std::pair<unsigned long const ,ThreadInfo * __ptr64> >,0> >::_Myval, COMDAT

; 182  : 		return ((_Vref)(*_Pnode)._Myval);

	lea	rax, QWORD PTR [rcx+24]

; 183  : 		}

	ret	0
?_Myval@?$_Tree@V?$_Tmap_traits@KPEAVThreadInfo@@U?$less@K@std@@V?$allocator@U?$pair@$$CBKPEAVThreadInfo@@@std@@@3@$0A@@std@@@std@@KAAEAU?$pair@$$CBKPEAVThreadInfo@@@2@PEAU_Node@?$_Tree_nod@V?$_Tmap_traits@KPEAVThreadInfo@@U?$less@K@std@@V?$allocator@U?$pair@$$CBKPEAVThreadInfo@@@std@@@3@$0A@@std@@@2@@Z ENDP ; std::_Tree<std::_Tmap_traits<unsigned long,ThreadInfo * __ptr64,std::less<unsigned long>,std::allocator<std::pair<unsigned long const ,ThreadInfo * __ptr64> >,0> >::_Myval
; Function compile flags: /Ogtpy
; File c:\program files\microsoft visual studio 9.0\vc\include\xmemory
_TEXT	ENDS
;	COMDAT ??0?$allocator@U?$pair@$$CB_KPEAVThreadInfo@@@std@@@std@@QEAA@AEBV01@@Z
_TEXT	SEGMENT
this$ = 8
__formal$ = 16
??0?$allocator@U?$pair@$$CB_KPEAVThreadInfo@@@std@@@std@@QEAA@AEBV01@@Z PROC ; std::allocator<std::pair<unsigned __int64 const ,ThreadInfo * __ptr64> >::allocator<std::pair<unsigned __int64 const ,ThreadInfo * __ptr64> >, COMDAT

; 124  : 		{	// construct by copying (do nothing)
; 125  : 		}

	mov	rax, rcx
	ret	0
??0?$allocator@U?$pair@$$CB_KPEAVThreadInfo@@@std@@@std@@QEAA@AEBV01@@Z ENDP ; std::allocator<std::pair<unsigned __int64 const ,ThreadInfo * __ptr64> >::allocator<std::pair<unsigned __int64 const ,ThreadInfo * __ptr64> >
; Function compile flags: /Ogtpy
; File c:\program files\microsoft visual studio 9.0\vc\include\xtree
_TEXT	ENDS
;	COMDAT ?max_size@?$_Tree@V?$_Tmap_traits@_KPEAVThreadInfo@@U?$less@_K@std@@V?$allocator@U?$pair@$$CB_KPEAVThreadInfo@@@std@@@3@$0A@@std@@@std@@QEBA_KXZ
_TEXT	SEGMENT
this$ = 8
?max_size@?$_Tree@V?$_Tmap_traits@_KPEAVThreadInfo@@U?$less@_K@std@@V?$allocator@U?$pair@$$CB_KPEAVThreadInfo@@@std@@@3@$0A@@std@@@std@@QEBA_KXZ PROC ; std::_Tree<std::_Tmap_traits<unsigned __int64,ThreadInfo * __ptr64,std::less<unsigned __int64>,std::allocator<std::pair<unsigned __int64 const ,ThreadInfo * __ptr64> >,0> >::max_size, COMDAT

; 606  : 		return (this->_Alval.max_size());

	mov	rax, 1152921504606846975		; 0fffffffffffffffH

; 607  : 		}

	ret	0
?max_size@?$_Tree@V?$_Tmap_traits@_KPEAVThreadInfo@@U?$less@_K@std@@V?$allocator@U?$pair@$$CB_KPEAVThreadInfo@@@std@@@3@$0A@@std@@@std@@QEBA_KXZ ENDP ; std::_Tree<std::_Tmap_traits<unsigned __int64,ThreadInfo * __ptr64,std::less<unsigned __int64>,std::allocator<std::pair<unsigned __int64 const ,ThreadInfo * __ptr64> >,0> >::max_size
; Function compile flags: /Ogtpy
_TEXT	ENDS
;	COMDAT ?_Myval@?$_Tree@V?$_Tmap_traits@_KPEAVThreadInfo@@U?$less@_K@std@@V?$allocator@U?$pair@$$CB_KPEAVThreadInfo@@@std@@@3@$0A@@std@@@std@@KAAEAU?$pair@$$CB_KPEAVThreadInfo@@@2@PEAU_Node@?$_Tree_nod@V?$_Tmap_traits@_KPEAVThreadInfo@@U?$less@_K@std@@V?$allocator@U?$pair@$$CB_KPEAVThreadInfo@@@std@@@3@$0A@@std@@@2@@Z
_TEXT	SEGMENT
_Pnode$ = 8
?_Myval@?$_Tree@V?$_Tmap_traits@_KPEAVThreadInfo@@U?$less@_K@std@@V?$allocator@U?$pair@$$CB_KPEAVThreadInfo@@@std@@@3@$0A@@std@@@std@@KAAEAU?$pair@$$CB_KPEAVThreadInfo@@@2@PEAU_Node@?$_Tree_nod@V?$_Tmap_traits@_KPEAVThreadInfo@@U?$less@_K@std@@V?$allocator@U?$pair@$$CB_KPEAVThreadInfo@@@std@@@3@$0A@@std@@@2@@Z PROC ; std::_Tree<std::_Tmap_traits<unsigned __int64,ThreadInfo * __ptr64,std::less<unsigned __int64>,std::allocator<std::pair<unsigned __int64 const ,ThreadInfo * __ptr64> >,0> >::_Myval, COMDAT

; 182  : 		return ((_Vref)(*_Pnode)._Myval);

	lea	rax, QWORD PTR [rcx+24]

; 183  : 		}

	ret	0
?_Myval@?$_Tree@V?$_Tmap_traits@_KPEAVThreadInfo@@U?$less@_K@std@@V?$allocator@U?$pair@$$CB_KPEAVThreadInfo@@@std@@@3@$0A@@std@@@std@@KAAEAU?$pair@$$CB_KPEAVThreadInfo@@@2@PEAU_Node@?$_Tree_nod@V?$_Tmap_traits@_KPEAVThreadInfo@@U?$less@_K@std@@V?$allocator@U?$pair@$$CB_KPEAVThreadInfo@@@std@@@3@$0A@@std@@@2@@Z ENDP ; std::_Tree<std::_Tmap_traits<unsigned __int64,ThreadInfo * __ptr64,std::less<unsigned __int64>,std::allocator<std::pair<unsigned __int64 const ,ThreadInfo * __ptr64> >,0> >::_Myval
; Function compile flags: /Ogtpy
; File c:\program files\microsoft visual studio 9.0\vc\include\xmemory
_TEXT	ENDS
;	COMDAT ??0?$allocator@U?$pair@$$CB_KH@std@@@std@@QEAA@AEBV01@@Z
_TEXT	SEGMENT
this$ = 8
__formal$ = 16
??0?$allocator@U?$pair@$$CB_KH@std@@@std@@QEAA@AEBV01@@Z PROC ; std::allocator<std::pair<unsigned __int64 const ,int> >::allocator<std::pair<unsigned __int64 const ,int> >, COMDAT

; 124  : 		{	// construct by copying (do nothing)
; 125  : 		}

	mov	rax, rcx
	ret	0
??0?$allocator@U?$pair@$$CB_KH@std@@@std@@QEAA@AEBV01@@Z ENDP ; std::allocator<std::pair<unsigned __int64 const ,int> >::allocator<std::pair<unsigned __int64 const ,int> >
; Function compile flags: /Ogtpy
; File c:\program files\microsoft visual studio 9.0\vc\include\xtree
_TEXT	ENDS
;	COMDAT ?max_size@?$_Tree@V?$_Tmap_traits@_KHU?$less@_K@std@@V?$allocator@U?$pair@$$CB_KH@std@@@2@$0A@@std@@@std@@QEBA_KXZ
_TEXT	SEGMENT
this$ = 8
?max_size@?$_Tree@V?$_Tmap_traits@_KHU?$less@_K@std@@V?$allocator@U?$pair@$$CB_KH@std@@@2@$0A@@std@@@std@@QEBA_KXZ PROC ; std::_Tree<std::_Tmap_traits<unsigned __int64,int,std::less<unsigned __int64>,std::allocator<std::pair<unsigned __int64 const ,int> >,0> >::max_size, COMDAT

; 606  : 		return (this->_Alval.max_size());

	mov	rax, 1152921504606846975		; 0fffffffffffffffH

; 607  : 		}

	ret	0
?max_size@?$_Tree@V?$_Tmap_traits@_KHU?$less@_K@std@@V?$allocator@U?$pair@$$CB_KH@std@@@2@$0A@@std@@@std@@QEBA_KXZ ENDP ; std::_Tree<std::_Tmap_traits<unsigned __int64,int,std::less<unsigned __int64>,std::allocator<std::pair<unsigned __int64 const ,int> >,0> >::max_size
; Function compile flags: /Ogtpy
_TEXT	ENDS
;	COMDAT ?_Myval@?$_Tree@V?$_Tmap_traits@_KHU?$less@_K@std@@V?$allocator@U?$pair@$$CB_KH@std@@@2@$0A@@std@@@std@@KAAEAU?$pair@$$CB_KH@2@PEAU_Node@?$_Tree_nod@V?$_Tmap_traits@_KHU?$less@_K@std@@V?$allocator@U?$pair@$$CB_KH@std@@@2@$0A@@std@@@2@@Z
_TEXT	SEGMENT
_Pnode$ = 8
?_Myval@?$_Tree@V?$_Tmap_traits@_KHU?$less@_K@std@@V?$allocator@U?$pair@$$CB_KH@std@@@2@$0A@@std@@@std@@KAAEAU?$pair@$$CB_KH@2@PEAU_Node@?$_Tree_nod@V?$_Tmap_traits@_KHU?$less@_K@std@@V?$allocator@U?$pair@$$CB_KH@std@@@2@$0A@@std@@@2@@Z PROC ; std::_Tree<std::_Tmap_traits<unsigned __int64,int,std::less<unsigned __int64>,std::allocator<std::pair<unsigned __int64 const ,int> >,0> >::_Myval, COMDAT

; 182  : 		return ((_Vref)(*_Pnode)._Myval);

	lea	rax, QWORD PTR [rcx+24]

; 183  : 		}

	ret	0
?_Myval@?$_Tree@V?$_Tmap_traits@_KHU?$less@_K@std@@V?$allocator@U?$pair@$$CB_KH@std@@@2@$0A@@std@@@std@@KAAEAU?$pair@$$CB_KH@2@PEAU_Node@?$_Tree_nod@V?$_Tmap_traits@_KHU?$less@_K@std@@V?$allocator@U?$pair@$$CB_KH@std@@@2@$0A@@std@@@2@@Z ENDP ; std::_Tree<std::_Tmap_traits<unsigned __int64,int,std::less<unsigned __int64>,std::allocator<std::pair<unsigned __int64 const ,int> >,0> >::_Myval
; Function compile flags: /Ogtpy
; File c:\program files\microsoft visual studio 9.0\vc\include\utility
_TEXT	ENDS
;	COMDAT ??0?$pair@Viterator@?$_Tree@V?$_Tmap_traits@_KPEAVThreadInfo@@U?$less@_K@std@@V?$allocator@U?$pair@$$CB_KPEAVThreadInfo@@@std@@@3@$0A@@std@@@std@@_N@std@@QEAA@AEBViterator@?$_Tree@V?$_Tmap_traits@_KPEAVThreadInfo@@U?$less@_K@std@@V?$allocator@U?$pair@$$CB_KPEAVThreadInfo@@@std@@@3@$0A@@std@@@1@AEB_N@Z
_TEXT	SEGMENT
this$ = 8
_Val1$ = 16
_Val2$ = 24
??0?$pair@Viterator@?$_Tree@V?$_Tmap_traits@_KPEAVThreadInfo@@U?$less@_K@std@@V?$allocator@U?$pair@$$CB_KPEAVThreadInfo@@@std@@@3@$0A@@std@@@std@@_N@std@@QEAA@AEBViterator@?$_Tree@V?$_Tmap_traits@_KPEAVThreadInfo@@U?$less@_K@std@@V?$allocator@U?$pair@$$CB_KPEAVThreadInfo@@@std@@@3@$0A@@std@@@1@AEB_N@Z PROC ; std::pair<std::_Tree<std::_Tmap_traits<unsigned __int64,ThreadInfo * __ptr64,std::less<unsigned __int64>,std::allocator<std::pair<unsigned __int64 const ,ThreadInfo * __ptr64> >,0> >::iterator,bool>::pair<std::_Tree<std::_Tmap_traits<unsigned __int64,ThreadInfo * __ptr64,std::less<unsigned __int64>,std::allocator<std::pair<unsigned __int64 const ,ThreadInfo * __ptr64> >,0> >::iterator,bool>, COMDAT

; 50   : 		{	// construct from specified values

	mov	rax, QWORD PTR [rdx]
	mov	QWORD PTR [rcx], rax
	mov	rax, QWORD PTR [rdx+8]
	mov	QWORD PTR [rcx+8], rax
	movzx	eax, BYTE PTR [r8]
	mov	BYTE PTR [rcx+16], al

; 51   : 		}

	mov	rax, rcx
	ret	0
??0?$pair@Viterator@?$_Tree@V?$_Tmap_traits@_KPEAVThreadInfo@@U?$less@_K@std@@V?$allocator@U?$pair@$$CB_KPEAVThreadInfo@@@std@@@3@$0A@@std@@@std@@_N@std@@QEAA@AEBViterator@?$_Tree@V?$_Tmap_traits@_KPEAVThreadInfo@@U?$less@_K@std@@V?$allocator@U?$pair@$$CB_KPEAVThreadInfo@@@std@@@3@$0A@@std@@@1@AEB_N@Z ENDP ; std::pair<std::_Tree<std::_Tmap_traits<unsigned __int64,ThreadInfo * __ptr64,std::less<unsigned __int64>,std::allocator<std::pair<unsigned __int64 const ,ThreadInfo * __ptr64> >,0> >::iterator,bool>::pair<std::_Tree<std::_Tmap_traits<unsigned __int64,ThreadInfo * __ptr64,std::less<unsigned __int64>,std::allocator<std::pair<unsigned __int64 const ,ThreadInfo * __ptr64> >,0> >::iterator,bool>
; Function compile flags: /Ogtpy
_TEXT	ENDS
;	COMDAT ??0?$pair@Viterator@?$_Tree@V?$_Tmap_traits@KPEAVThreadInfo@@U?$less@K@std@@V?$allocator@U?$pair@$$CBKPEAVThreadInfo@@@std@@@3@$0A@@std@@@std@@_N@std@@QEAA@AEBViterator@?$_Tree@V?$_Tmap_traits@KPEAVThreadInfo@@U?$less@K@std@@V?$allocator@U?$pair@$$CBKPEAVThreadInfo@@@std@@@3@$0A@@std@@@1@AEB_N@Z
_TEXT	SEGMENT
this$ = 8
_Val1$ = 16
_Val2$ = 24
??0?$pair@Viterator@?$_Tree@V?$_Tmap_traits@KPEAVThreadInfo@@U?$less@K@std@@V?$allocator@U?$pair@$$CBKPEAVThreadInfo@@@std@@@3@$0A@@std@@@std@@_N@std@@QEAA@AEBViterator@?$_Tree@V?$_Tmap_traits@KPEAVThreadInfo@@U?$less@K@std@@V?$allocator@U?$pair@$$CBKPEAVThreadInfo@@@std@@@3@$0A@@std@@@1@AEB_N@Z PROC ; std::pair<std::_Tree<std::_Tmap_traits<unsigned long,ThreadInfo * __ptr64,std::less<unsigned long>,std::allocator<std::pair<unsigned long const ,ThreadInfo * __ptr64> >,0> >::iterator,bool>::pair<std::_Tree<std::_Tmap_traits<unsigned long,ThreadInfo * __ptr64,std::less<unsigned long>,std::allocator<std::pair<unsigned long const ,ThreadInfo * __ptr64> >,0> >::iterator,bool>, COMDAT

; 50   : 		{	// construct from specified values

	mov	rax, QWORD PTR [rdx]
	mov	QWORD PTR [rcx], rax
	mov	rax, QWORD PTR [rdx+8]
	mov	QWORD PTR [rcx+8], rax
	movzx	eax, BYTE PTR [r8]
	mov	BYTE PTR [rcx+16], al

; 51   : 		}

	mov	rax, rcx
	ret	0
??0?$pair@Viterator@?$_Tree@V?$_Tmap_traits@KPEAVThreadInfo@@U?$less@K@std@@V?$allocator@U?$pair@$$CBKPEAVThreadInfo@@@std@@@3@$0A@@std@@@std@@_N@std@@QEAA@AEBViterator@?$_Tree@V?$_Tmap_traits@KPEAVThreadInfo@@U?$less@K@std@@V?$allocator@U?$pair@$$CBKPEAVThreadInfo@@@std@@@3@$0A@@std@@@1@AEB_N@Z ENDP ; std::pair<std::_Tree<std::_Tmap_traits<unsigned long,ThreadInfo * __ptr64,std::less<unsigned long>,std::allocator<std::pair<unsigned long const ,ThreadInfo * __ptr64> >,0> >::iterator,bool>::pair<std::_Tree<std::_Tmap_traits<unsigned long,ThreadInfo * __ptr64,std::less<unsigned long>,std::allocator<std::pair<unsigned long const ,ThreadInfo * __ptr64> >,0> >::iterator,bool>
; Function compile flags: /Ogtpy
_TEXT	ENDS
;	COMDAT ??0?$pair@$$CBKPEAVThreadInfo@@@std@@QEAA@AEBKAEBQEAVThreadInfo@@@Z
_TEXT	SEGMENT
this$ = 8
_Val1$ = 16
_Val2$ = 24
??0?$pair@$$CBKPEAVThreadInfo@@@std@@QEAA@AEBKAEBQEAVThreadInfo@@@Z PROC ; std::pair<unsigned long const ,ThreadInfo * __ptr64>::pair<unsigned long const ,ThreadInfo * __ptr64>, COMDAT

; 50   : 		{	// construct from specified values

	mov	eax, DWORD PTR [rdx]
	mov	DWORD PTR [rcx], eax
	mov	rax, QWORD PTR [r8]
	mov	QWORD PTR [rcx+8], rax

; 51   : 		}

	mov	rax, rcx
	ret	0
??0?$pair@$$CBKPEAVThreadInfo@@@std@@QEAA@AEBKAEBQEAVThreadInfo@@@Z ENDP ; std::pair<unsigned long const ,ThreadInfo * __ptr64>::pair<unsigned long const ,ThreadInfo * __ptr64>
; Function compile flags: /Ogtpy
_TEXT	ENDS
;	COMDAT ??0?$pair@Viterator@?$_Tree@V?$_Tmap_traits@_KHU?$less@_K@std@@V?$allocator@U?$pair@$$CB_KH@std@@@2@$0A@@std@@@std@@_N@std@@QEAA@AEBViterator@?$_Tree@V?$_Tmap_traits@_KHU?$less@_K@std@@V?$allocator@U?$pair@$$CB_KH@std@@@2@$0A@@std@@@1@AEB_N@Z
_TEXT	SEGMENT
this$ = 8
_Val1$ = 16
_Val2$ = 24
??0?$pair@Viterator@?$_Tree@V?$_Tmap_traits@_KHU?$less@_K@std@@V?$allocator@U?$pair@$$CB_KH@std@@@2@$0A@@std@@@std@@_N@std@@QEAA@AEBViterator@?$_Tree@V?$_Tmap_traits@_KHU?$less@_K@std@@V?$allocator@U?$pair@$$CB_KH@std@@@2@$0A@@std@@@1@AEB_N@Z PROC ; std::pair<std::_Tree<std::_Tmap_traits<unsigned __int64,int,std::less<unsigned __int64>,std::allocator<std::pair<unsigned __int64 const ,int> >,0> >::iterator,bool>::pair<std::_Tree<std::_Tmap_traits<unsigned __int64,int,std::less<unsigned __int64>,std::allocator<std::pair<unsigned __int64 const ,int> >,0> >::iterator,bool>, COMDAT

; 50   : 		{	// construct from specified values

	mov	rax, QWORD PTR [rdx]
	mov	QWORD PTR [rcx], rax
	mov	rax, QWORD PTR [rdx+8]
	mov	QWORD PTR [rcx+8], rax
	movzx	eax, BYTE PTR [r8]
	mov	BYTE PTR [rcx+16], al

; 51   : 		}

	mov	rax, rcx
	ret	0
??0?$pair@Viterator@?$_Tree@V?$_Tmap_traits@_KHU?$less@_K@std@@V?$allocator@U?$pair@$$CB_KH@std@@@2@$0A@@std@@@std@@_N@std@@QEAA@AEBViterator@?$_Tree@V?$_Tmap_traits@_KHU?$less@_K@std@@V?$allocator@U?$pair@$$CB_KH@std@@@2@$0A@@std@@@1@AEB_N@Z ENDP ; std::pair<std::_Tree<std::_Tmap_traits<unsigned __int64,int,std::less<unsigned __int64>,std::allocator<std::pair<unsigned __int64 const ,int> >,0> >::iterator,bool>::pair<std::_Tree<std::_Tmap_traits<unsigned __int64,int,std::less<unsigned __int64>,std::allocator<std::pair<unsigned __int64 const ,int> >,0> >::iterator,bool>
; Function compile flags: /Ogtpy
; File c:\program files\microsoft visual studio 9.0\vc\include\functional
_TEXT	ENDS
;	COMDAT ??R?$less@K@std@@QEBA_NAEBK0@Z
_TEXT	SEGMENT
this$ = 8
_Left$ = 16
_Right$ = 24
??R?$less@K@std@@QEBA_NAEBK0@Z PROC			; std::less<unsigned long>::operator(), COMDAT

; 143  : 		return (_Left < _Right);

	mov	ecx, DWORD PTR [r8]
	cmp	DWORD PTR [rdx], ecx
	setb	al

; 144  : 		}

	ret	0
??R?$less@K@std@@QEBA_NAEBK0@Z ENDP			; std::less<unsigned long>::operator()
; Function compile flags: /Ogtpy
; File c:\program files\microsoft visual studio 9.0\vc\include\xmemory
_TEXT	ENDS
;	COMDAT ??0?$allocator@U?$pair@$$CBKPEAVThreadInfo@@@std@@@std@@QEAA@XZ
_TEXT	SEGMENT
this$ = 8
??0?$allocator@U?$pair@$$CBKPEAVThreadInfo@@@std@@@std@@QEAA@XZ PROC ; std::allocator<std::pair<unsigned long const ,ThreadInfo * __ptr64> >::allocator<std::pair<unsigned long const ,ThreadInfo * __ptr64> >, COMDAT

; 120  : 		{	// construct default allocator (do nothing)
; 121  : 		}

	mov	rax, rcx
	ret	0
??0?$allocator@U?$pair@$$CBKPEAVThreadInfo@@@std@@@std@@QEAA@XZ ENDP ; std::allocator<std::pair<unsigned long const ,ThreadInfo * __ptr64> >::allocator<std::pair<unsigned long const ,ThreadInfo * __ptr64> >
; Function compile flags: /Ogtpy
; File c:\program files\microsoft visual studio 9.0\vc\include\map
_TEXT	ENDS
;	COMDAT ?_Kfn@?$_Tmap_traits@KPEAVThreadInfo@@U?$less@K@std@@V?$allocator@U?$pair@$$CBKPEAVThreadInfo@@@std@@@3@$0A@@std@@SAAEBKAEBU?$pair@$$CBKPEAVThreadInfo@@@2@@Z
_TEXT	SEGMENT
_Val$ = 8
?_Kfn@?$_Tmap_traits@KPEAVThreadInfo@@U?$less@K@std@@V?$allocator@U?$pair@$$CBKPEAVThreadInfo@@@std@@@3@$0A@@std@@SAAEBKAEBU?$pair@$$CBKPEAVThreadInfo@@@2@@Z PROC ; std::_Tmap_traits<unsigned long,ThreadInfo * __ptr64,std::less<unsigned long>,std::allocator<std::pair<unsigned long const ,ThreadInfo * __ptr64> >,0>::_Kfn, COMDAT

; 65   : 		return (_Val.first);

	mov	rax, rcx

; 66   : 		}

	ret	0
?_Kfn@?$_Tmap_traits@KPEAVThreadInfo@@U?$less@K@std@@V?$allocator@U?$pair@$$CBKPEAVThreadInfo@@@std@@@3@$0A@@std@@SAAEBKAEBU?$pair@$$CBKPEAVThreadInfo@@@2@@Z ENDP ; std::_Tmap_traits<unsigned long,ThreadInfo * __ptr64,std::less<unsigned long>,std::allocator<std::pair<unsigned long const ,ThreadInfo * __ptr64> >,0>::_Kfn
; Function compile flags: /Ogtpy
; File c:\program files\microsoft visual studio 9.0\vc\include\xtree
_TEXT	ENDS
;	COMDAT ?_Key@?$_Tree@V?$_Tmap_traits@KPEAVThreadInfo@@U?$less@K@std@@V?$allocator@U?$pair@$$CBKPEAVThreadInfo@@@std@@@3@$0A@@std@@@std@@KAAEBKPEAU_Node@?$_Tree_nod@V?$_Tmap_traits@KPEAVThreadInfo@@U?$less@K@std@@V?$allocator@U?$pair@$$CBKPEAVThreadInfo@@@std@@@3@$0A@@std@@@2@@Z
_TEXT	SEGMENT
_Pnode$ = 8
?_Key@?$_Tree@V?$_Tmap_traits@KPEAVThreadInfo@@U?$less@K@std@@V?$allocator@U?$pair@$$CBKPEAVThreadInfo@@@std@@@3@$0A@@std@@@std@@KAAEBKPEAU_Node@?$_Tree_nod@V?$_Tmap_traits@KPEAVThreadInfo@@U?$less@K@std@@V?$allocator@U?$pair@$$CBKPEAVThreadInfo@@@std@@@3@$0A@@std@@@2@@Z PROC ; std::_Tree<std::_Tmap_traits<unsigned long,ThreadInfo * __ptr64,std::less<unsigned long>,std::allocator<std::pair<unsigned long const ,ThreadInfo * __ptr64> >,0> >::_Key, COMDAT

; 162  : 		return (_Mybase::_Kfn(_Myval(_Pnode)));

	lea	rax, QWORD PTR [rcx+24]

; 163  : 		}

	ret	0
?_Key@?$_Tree@V?$_Tmap_traits@KPEAVThreadInfo@@U?$less@K@std@@V?$allocator@U?$pair@$$CBKPEAVThreadInfo@@@std@@@3@$0A@@std@@@std@@KAAEBKPEAU_Node@?$_Tree_nod@V?$_Tmap_traits@KPEAVThreadInfo@@U?$less@K@std@@V?$allocator@U?$pair@$$CBKPEAVThreadInfo@@@std@@@3@$0A@@std@@@2@@Z ENDP ; std::_Tree<std::_Tmap_traits<unsigned long,ThreadInfo * __ptr64,std::less<unsigned long>,std::allocator<std::pair<unsigned long const ,ThreadInfo * __ptr64> >,0> >::_Key
; Function compile flags: /Ogtpy
; File c:\program files\microsoft visual studio 9.0\vc\include\xmemory
_TEXT	ENDS
;	COMDAT ??0?$allocator@U?$pair@$$CB_KPEAVThreadInfo@@@std@@@std@@QEAA@XZ
_TEXT	SEGMENT
this$ = 8
??0?$allocator@U?$pair@$$CB_KPEAVThreadInfo@@@std@@@std@@QEAA@XZ PROC ; std::allocator<std::pair<unsigned __int64 const ,ThreadInfo * __ptr64> >::allocator<std::pair<unsigned __int64 const ,ThreadInfo * __ptr64> >, COMDAT

; 120  : 		{	// construct default allocator (do nothing)
; 121  : 		}

	mov	rax, rcx
	ret	0
??0?$allocator@U?$pair@$$CB_KPEAVThreadInfo@@@std@@@std@@QEAA@XZ ENDP ; std::allocator<std::pair<unsigned __int64 const ,ThreadInfo * __ptr64> >::allocator<std::pair<unsigned __int64 const ,ThreadInfo * __ptr64> >
; Function compile flags: /Ogtpy
; File c:\program files\microsoft visual studio 9.0\vc\include\map
_TEXT	ENDS
;	COMDAT ?_Kfn@?$_Tmap_traits@_KPEAVThreadInfo@@U?$less@_K@std@@V?$allocator@U?$pair@$$CB_KPEAVThreadInfo@@@std@@@3@$0A@@std@@SAAEB_KAEBU?$pair@$$CB_KPEAVThreadInfo@@@2@@Z
_TEXT	SEGMENT
_Val$ = 8
?_Kfn@?$_Tmap_traits@_KPEAVThreadInfo@@U?$less@_K@std@@V?$allocator@U?$pair@$$CB_KPEAVThreadInfo@@@std@@@3@$0A@@std@@SAAEB_KAEBU?$pair@$$CB_KPEAVThreadInfo@@@2@@Z PROC ; std::_Tmap_traits<unsigned __int64,ThreadInfo * __ptr64,std::less<unsigned __int64>,std::allocator<std::pair<unsigned __int64 const ,ThreadInfo * __ptr64> >,0>::_Kfn, COMDAT

; 65   : 		return (_Val.first);

	mov	rax, rcx

; 66   : 		}

	ret	0
?_Kfn@?$_Tmap_traits@_KPEAVThreadInfo@@U?$less@_K@std@@V?$allocator@U?$pair@$$CB_KPEAVThreadInfo@@@std@@@3@$0A@@std@@SAAEB_KAEBU?$pair@$$CB_KPEAVThreadInfo@@@2@@Z ENDP ; std::_Tmap_traits<unsigned __int64,ThreadInfo * __ptr64,std::less<unsigned __int64>,std::allocator<std::pair<unsigned __int64 const ,ThreadInfo * __ptr64> >,0>::_Kfn
; Function compile flags: /Ogtpy
; File c:\program files\microsoft visual studio 9.0\vc\include\xtree
_TEXT	ENDS
;	COMDAT ?_Key@?$_Tree@V?$_Tmap_traits@_KPEAVThreadInfo@@U?$less@_K@std@@V?$allocator@U?$pair@$$CB_KPEAVThreadInfo@@@std@@@3@$0A@@std@@@std@@KAAEB_KPEAU_Node@?$_Tree_nod@V?$_Tmap_traits@_KPEAVThreadInfo@@U?$less@_K@std@@V?$allocator@U?$pair@$$CB_KPEAVThreadInfo@@@std@@@3@$0A@@std@@@2@@Z
_TEXT	SEGMENT
_Pnode$ = 8
?_Key@?$_Tree@V?$_Tmap_traits@_KPEAVThreadInfo@@U?$less@_K@std@@V?$allocator@U?$pair@$$CB_KPEAVThreadInfo@@@std@@@3@$0A@@std@@@std@@KAAEB_KPEAU_Node@?$_Tree_nod@V?$_Tmap_traits@_KPEAVThreadInfo@@U?$less@_K@std@@V?$allocator@U?$pair@$$CB_KPEAVThreadInfo@@@std@@@3@$0A@@std@@@2@@Z PROC ; std::_Tree<std::_Tmap_traits<unsigned __int64,ThreadInfo * __ptr64,std::less<unsigned __int64>,std::allocator<std::pair<unsigned __int64 const ,ThreadInfo * __ptr64> >,0> >::_Key, COMDAT

; 162  : 		return (_Mybase::_Kfn(_Myval(_Pnode)));

	lea	rax, QWORD PTR [rcx+24]

; 163  : 		}

	ret	0
?_Key@?$_Tree@V?$_Tmap_traits@_KPEAVThreadInfo@@U?$less@_K@std@@V?$allocator@U?$pair@$$CB_KPEAVThreadInfo@@@std@@@3@$0A@@std@@@std@@KAAEB_KPEAU_Node@?$_Tree_nod@V?$_Tmap_traits@_KPEAVThreadInfo@@U?$less@_K@std@@V?$allocator@U?$pair@$$CB_KPEAVThreadInfo@@@std@@@3@$0A@@std@@@2@@Z ENDP ; std::_Tree<std::_Tmap_traits<unsigned __int64,ThreadInfo * __ptr64,std::less<unsigned __int64>,std::allocator<std::pair<unsigned __int64 const ,ThreadInfo * __ptr64> >,0> >::_Key
; Function compile flags: /Ogtpy
; File c:\program files\microsoft visual studio 9.0\vc\include\functional
_TEXT	ENDS
;	COMDAT ??R?$less@_K@std@@QEBA_NAEB_K0@Z
_TEXT	SEGMENT
this$ = 8
_Left$ = 16
_Right$ = 24
??R?$less@_K@std@@QEBA_NAEB_K0@Z PROC			; std::less<unsigned __int64>::operator(), COMDAT

; 143  : 		return (_Left < _Right);

	mov	rcx, QWORD PTR [r8]
	cmp	QWORD PTR [rdx], rcx
	setb	al

; 144  : 		}

	ret	0
??R?$less@_K@std@@QEBA_NAEB_K0@Z ENDP			; std::less<unsigned __int64>::operator()
; Function compile flags: /Ogtpy
; File c:\program files\microsoft visual studio 9.0\vc\include\xmemory
_TEXT	ENDS
;	COMDAT ??0?$allocator@U?$pair@$$CB_KH@std@@@std@@QEAA@XZ
_TEXT	SEGMENT
this$ = 8
??0?$allocator@U?$pair@$$CB_KH@std@@@std@@QEAA@XZ PROC	; std::allocator<std::pair<unsigned __int64 const ,int> >::allocator<std::pair<unsigned __int64 const ,int> >, COMDAT

; 120  : 		{	// construct default allocator (do nothing)
; 121  : 		}

	mov	rax, rcx
	ret	0
??0?$allocator@U?$pair@$$CB_KH@std@@@std@@QEAA@XZ ENDP	; std::allocator<std::pair<unsigned __int64 const ,int> >::allocator<std::pair<unsigned __int64 const ,int> >
; Function compile flags: /Ogtpy
; File c:\program files\microsoft visual studio 9.0\vc\include\map
_TEXT	ENDS
;	COMDAT ?_Kfn@?$_Tmap_traits@_KHU?$less@_K@std@@V?$allocator@U?$pair@$$CB_KH@std@@@2@$0A@@std@@SAAEB_KAEBU?$pair@$$CB_KH@2@@Z
_TEXT	SEGMENT
_Val$ = 8
?_Kfn@?$_Tmap_traits@_KHU?$less@_K@std@@V?$allocator@U?$pair@$$CB_KH@std@@@2@$0A@@std@@SAAEB_KAEBU?$pair@$$CB_KH@2@@Z PROC ; std::_Tmap_traits<unsigned __int64,int,std::less<unsigned __int64>,std::allocator<std::pair<unsigned __int64 const ,int> >,0>::_Kfn, COMDAT

; 65   : 		return (_Val.first);

	mov	rax, rcx

; 66   : 		}

	ret	0
?_Kfn@?$_Tmap_traits@_KHU?$less@_K@std@@V?$allocator@U?$pair@$$CB_KH@std@@@2@$0A@@std@@SAAEB_KAEBU?$pair@$$CB_KH@2@@Z ENDP ; std::_Tmap_traits<unsigned __int64,int,std::less<unsigned __int64>,std::allocator<std::pair<unsigned __int64 const ,int> >,0>::_Kfn
; Function compile flags: /Ogtpy
; File c:\program files\microsoft visual studio 9.0\vc\include\xtree
_TEXT	ENDS
;	COMDAT ?_Key@?$_Tree@V?$_Tmap_traits@_KHU?$less@_K@std@@V?$allocator@U?$pair@$$CB_KH@std@@@2@$0A@@std@@@std@@KAAEB_KPEAU_Node@?$_Tree_nod@V?$_Tmap_traits@_KHU?$less@_K@std@@V?$allocator@U?$pair@$$CB_KH@std@@@2@$0A@@std@@@2@@Z
_TEXT	SEGMENT
_Pnode$ = 8
?_Key@?$_Tree@V?$_Tmap_traits@_KHU?$less@_K@std@@V?$allocator@U?$pair@$$CB_KH@std@@@2@$0A@@std@@@std@@KAAEB_KPEAU_Node@?$_Tree_nod@V?$_Tmap_traits@_KHU?$less@_K@std@@V?$allocator@U?$pair@$$CB_KH@std@@@2@$0A@@std@@@2@@Z PROC ; std::_Tree<std::_Tmap_traits<unsigned __int64,int,std::less<unsigned __int64>,std::allocator<std::pair<unsigned __int64 const ,int> >,0> >::_Key, COMDAT

; 162  : 		return (_Mybase::_Kfn(_Myval(_Pnode)));

	lea	rax, QWORD PTR [rcx+24]

; 163  : 		}

	ret	0
?_Key@?$_Tree@V?$_Tmap_traits@_KHU?$less@_K@std@@V?$allocator@U?$pair@$$CB_KH@std@@@2@$0A@@std@@@std@@KAAEB_KPEAU_Node@?$_Tree_nod@V?$_Tmap_traits@_KHU?$less@_K@std@@V?$allocator@U?$pair@$$CB_KH@std@@@2@$0A@@std@@@2@@Z ENDP ; std::_Tree<std::_Tmap_traits<unsigned __int64,int,std::less<unsigned __int64>,std::allocator<std::pair<unsigned __int64 const ,int> >,0> >::_Key
; Function compile flags: /Ogtpy
; File c:\program files\microsoft visual studio 9.0\vc\include\utility
_TEXT	ENDS
;	COMDAT ??0?$pair@_KPEAVThreadInfo@@@std@@QEAA@AEB_KAEBQEAVThreadInfo@@@Z
_TEXT	SEGMENT
this$ = 8
_Val1$ = 16
_Val2$ = 24
??0?$pair@_KPEAVThreadInfo@@@std@@QEAA@AEB_KAEBQEAVThreadInfo@@@Z PROC ; std::pair<unsigned __int64,ThreadInfo * __ptr64>::pair<unsigned __int64,ThreadInfo * __ptr64>, COMDAT

; 50   : 		{	// construct from specified values

	mov	rax, QWORD PTR [rdx]
	mov	QWORD PTR [rcx], rax
	mov	rax, QWORD PTR [r8]
	mov	QWORD PTR [rcx+8], rax

; 51   : 		}

	mov	rax, rcx
	ret	0
??0?$pair@_KPEAVThreadInfo@@@std@@QEAA@AEB_KAEBQEAVThreadInfo@@@Z ENDP ; std::pair<unsigned __int64,ThreadInfo * __ptr64>::pair<unsigned __int64,ThreadInfo * __ptr64>
; Function compile flags: /Ogtpy
_TEXT	ENDS
;	COMDAT ??0?$pair@KPEAVThreadInfo@@@std@@QEAA@AEBKAEBQEAVThreadInfo@@@Z
_TEXT	SEGMENT
this$ = 8
_Val1$ = 16
_Val2$ = 24
??0?$pair@KPEAVThreadInfo@@@std@@QEAA@AEBKAEBQEAVThreadInfo@@@Z PROC ; std::pair<unsigned long,ThreadInfo * __ptr64>::pair<unsigned long,ThreadInfo * __ptr64>, COMDAT

; 50   : 		{	// construct from specified values

	mov	eax, DWORD PTR [rdx]
	mov	DWORD PTR [rcx], eax
	mov	rax, QWORD PTR [r8]
	mov	QWORD PTR [rcx+8], rax

; 51   : 		}

	mov	rax, rcx
	ret	0
??0?$pair@KPEAVThreadInfo@@@std@@QEAA@AEBKAEBQEAVThreadInfo@@@Z ENDP ; std::pair<unsigned long,ThreadInfo * __ptr64>::pair<unsigned long,ThreadInfo * __ptr64>
; Function compile flags: /Ogtpy
_TEXT	ENDS
;	COMDAT ??0?$pair@_KH@std@@QEAA@AEB_KAEBH@Z
_TEXT	SEGMENT
this$ = 8
_Val1$ = 16
_Val2$ = 24
??0?$pair@_KH@std@@QEAA@AEB_KAEBH@Z PROC		; std::pair<unsigned __int64,int>::pair<unsigned __int64,int>, COMDAT

; 50   : 		{	// construct from specified values

	mov	rax, QWORD PTR [rdx]
	mov	QWORD PTR [rcx], rax
	mov	eax, DWORD PTR [r8]
	mov	DWORD PTR [rcx+8], eax

; 51   : 		}

	mov	rax, rcx
	ret	0
??0?$pair@_KH@std@@QEAA@AEB_KAEBH@Z ENDP		; std::pair<unsigned __int64,int>::pair<unsigned __int64,int>
; Function compile flags: /Ogtpy
; File c:\local\sharpdevelop_3.2.0.5777_source\src\addins\misc\profiler\hook\lightweightstack.h
_TEXT	ENDS
;	COMDAT ?pop@?$LightweightStack@UStackEntry@@@@QEAAXXZ
_TEXT	SEGMENT
this$ = 8
?pop@?$LightweightStack@UStackEntry@@@@QEAAXXZ PROC	; LightweightStack<StackEntry>::pop, COMDAT

; 77   : 		assert(!empty());
; 78   : 		topPointer--;

	add	QWORD PTR [rcx+8], -24

; 79   : 	}

	ret	0
?pop@?$LightweightStack@UStackEntry@@@@QEAAXXZ ENDP	; LightweightStack<StackEntry>::pop
; Function compile flags: /Ogtpy
_TEXT	ENDS
;	COMDAT ?belowTop@?$LightweightStack@UStackEntry@@@@QEAAAEAUStackEntry@@XZ
_TEXT	SEGMENT
this$ = 8
?belowTop@?$LightweightStack@UStackEntry@@@@QEAAAEAUStackEntry@@XZ PROC ; LightweightStack<StackEntry>::belowTop, COMDAT

; 64   : 		assert(size() >= 2);
; 65   : 		return *(topPointer - 1);

	mov	rax, QWORD PTR [rcx+8]
	sub	rax, 24

; 66   : 	}

	ret	0
?belowTop@?$LightweightStack@UStackEntry@@@@QEAAAEAUStackEntry@@XZ ENDP ; LightweightStack<StackEntry>::belowTop
; Function compile flags: /Ogtpy
_TEXT	ENDS
;	COMDAT ?top@?$LightweightStack@UStackEntry@@@@QEAAAEAUStackEntry@@XZ
_TEXT	SEGMENT
this$ = 8
?top@?$LightweightStack@UStackEntry@@@@QEAAAEAUStackEntry@@XZ PROC ; LightweightStack<StackEntry>::top, COMDAT

; 59   : 		assert(!empty());
; 60   : 		return *topPointer;

	mov	rax, QWORD PTR [rcx+8]

; 61   : 	}

	ret	0
?top@?$LightweightStack@UStackEntry@@@@QEAAAEAUStackEntry@@XZ ENDP ; LightweightStack<StackEntry>::top
; Function compile flags: /Ogtpy
_TEXT	ENDS
;	COMDAT ?hasAtLeastTwoElements@?$LightweightStack@UStackEntry@@@@QEAA_NXZ
_TEXT	SEGMENT
this$ = 8
?hasAtLeastTwoElements@?$LightweightStack@UStackEntry@@@@QEAA_NXZ PROC ; LightweightStack<StackEntry>::hasAtLeastTwoElements, COMDAT

; 51   : 		return topPointer > array;

	mov	rdx, QWORD PTR [rcx]
	cmp	QWORD PTR [rcx+8], rdx
	seta	al

; 52   : 	}

	ret	0
?hasAtLeastTwoElements@?$LightweightStack@UStackEntry@@@@QEAA_NXZ ENDP ; LightweightStack<StackEntry>::hasAtLeastTwoElements
; Function compile flags: /Ogtpy
_TEXT	ENDS
;	COMDAT ?empty@?$LightweightStack@UStackEntry@@@@QEAA_NXZ
_TEXT	SEGMENT
this$ = 8
?empty@?$LightweightStack@UStackEntry@@@@QEAA_NXZ PROC	; LightweightStack<StackEntry>::empty, COMDAT

; 47   : 		return topPointer < array;

	mov	rdx, QWORD PTR [rcx]
	cmp	QWORD PTR [rcx+8], rdx
	setb	al

; 48   : 	}

	ret	0
?empty@?$LightweightStack@UStackEntry@@@@QEAA_NXZ ENDP	; LightweightStack<StackEntry>::empty
; Function compile flags: /Ogtpy
; File c:\local\sharpdevelop_3.2.0.5777_source\src\addins\misc\profiler\hook\profiler.cpp
_TEXT	ENDS
;	COMDAT ?ExceptionCatcherLeave@CProfiler@@UEAAJXZ
_TEXT	SEGMENT
this$ = 8
?ExceptionCatcherLeave@CProfiler@@UEAAJXZ PROC		; CProfiler::ExceptionCatcherLeave, COMDAT

; 594  : 	DebugWriteLine(L"ExceptionCatcherLeave");
; 595  :     return S_OK;

	xor	eax, eax

; 596  : }

	ret	0
?ExceptionCatcherLeave@CProfiler@@UEAAJXZ ENDP		; CProfiler::ExceptionCatcherLeave
; Function compile flags: /Ogtpy
_TEXT	ENDS
;	COMDAT ?ExceptionCatcherEnter@CProfiler@@UEAAJ_K0@Z
_TEXT	SEGMENT
this$ = 8
__formal$ = 16
__formal$ = 24
?ExceptionCatcherEnter@CProfiler@@UEAAJ_K0@Z PROC	; CProfiler::ExceptionCatcherEnter, COMDAT

; 588  : 	DebugWriteLine(L"ExceptionCatcherEnter");
; 589  :     return S_OK;

	xor	eax, eax

; 590  : }

	ret	0
?ExceptionCatcherEnter@CProfiler@@UEAAJ_K0@Z ENDP	; CProfiler::ExceptionCatcherEnter
; Function compile flags: /Ogtpy
_TEXT	ENDS
;	COMDAT ?ExceptionUnwindFinallyLeave@CProfiler@@UEAAJXZ
_TEXT	SEGMENT
this$ = 8
?ExceptionUnwindFinallyLeave@CProfiler@@UEAAJXZ PROC	; CProfiler::ExceptionUnwindFinallyLeave, COMDAT

; 582  : 	DebugWriteLine(L"ExceptionUnwindFinallyLeave");
; 583  :     return S_OK;

	xor	eax, eax

; 584  : }

	ret	0
?ExceptionUnwindFinallyLeave@CProfiler@@UEAAJXZ ENDP	; CProfiler::ExceptionUnwindFinallyLeave
; Function compile flags: /Ogtpy
_TEXT	ENDS
;	COMDAT ?ExceptionUnwindFinallyEnter@CProfiler@@UEAAJ_K@Z
_TEXT	SEGMENT
this$ = 8
__formal$ = 16
?ExceptionUnwindFinallyEnter@CProfiler@@UEAAJ_K@Z PROC	; CProfiler::ExceptionUnwindFinallyEnter, COMDAT

; 576  : 	DebugWriteLine(L"ExceptionUnwindFinallyEnter");
; 577  :     return S_OK;

	xor	eax, eax

; 578  : }

	ret	0
?ExceptionUnwindFinallyEnter@CProfiler@@UEAAJ_K@Z ENDP	; CProfiler::ExceptionUnwindFinallyEnter
; Function compile flags: /Ogtpy
_TEXT	ENDS
;	COMDAT ?ExceptionOSHandlerLeave@CProfiler@@UEAAJ_K@Z
_TEXT	SEGMENT
this$ = 8
__formal$ = 16
?ExceptionOSHandlerLeave@CProfiler@@UEAAJ_K@Z PROC	; CProfiler::ExceptionOSHandlerLeave, COMDAT

; 570  : 	DebugWriteLine(L"ExceptionOSHandlerLeave");
; 571  :     return S_OK;

	xor	eax, eax

; 572  : }

	ret	0
?ExceptionOSHandlerLeave@CProfiler@@UEAAJ_K@Z ENDP	; CProfiler::ExceptionOSHandlerLeave
; Function compile flags: /Ogtpy
_TEXT	ENDS
;	COMDAT ?ExceptionOSHandlerEnter@CProfiler@@UEAAJ_K@Z
_TEXT	SEGMENT
this$ = 8
__formal$ = 16
?ExceptionOSHandlerEnter@CProfiler@@UEAAJ_K@Z PROC	; CProfiler::ExceptionOSHandlerEnter, COMDAT

; 564  : 	DebugWriteLine(L"ExceptionOSHandlerEnter");
; 565  :     return S_OK;

	xor	eax, eax

; 566  : }

	ret	0
?ExceptionOSHandlerEnter@CProfiler@@UEAAJ_K@Z ENDP	; CProfiler::ExceptionOSHandlerEnter
; Function compile flags: /Ogtpy
_TEXT	ENDS
;	COMDAT ?ExceptionCLRCatcherExecute@CProfiler@@UEAAJXZ
_TEXT	SEGMENT
this$ = 8
?ExceptionCLRCatcherExecute@CProfiler@@UEAAJXZ PROC	; CProfiler::ExceptionCLRCatcherExecute, COMDAT

; 558  : 	DebugWriteLine(L"ExceptionCLRCatcherExecute");
; 559  :     return S_OK;

	xor	eax, eax

; 560  : }

	ret	0
?ExceptionCLRCatcherExecute@CProfiler@@UEAAJXZ ENDP	; CProfiler::ExceptionCLRCatcherExecute
; Function compile flags: /Ogtpy
_TEXT	ENDS
;	COMDAT ?ExceptionCLRCatcherFound@CProfiler@@UEAAJXZ
_TEXT	SEGMENT
this$ = 8
?ExceptionCLRCatcherFound@CProfiler@@UEAAJXZ PROC	; CProfiler::ExceptionCLRCatcherFound, COMDAT

; 552  : 	DebugWriteLine(L"ExceptionCLRCatcherFound");
; 553  :     return S_OK;

	xor	eax, eax

; 554  : }

	ret	0
?ExceptionCLRCatcherFound@CProfiler@@UEAAJXZ ENDP	; CProfiler::ExceptionCLRCatcherFound
; Function compile flags: /Ogtpy
_TEXT	ENDS
;	COMDAT ?ExceptionSearchCatcherFound@CProfiler@@UEAAJ_K@Z
_TEXT	SEGMENT
this$ = 8
__formal$ = 16
?ExceptionSearchCatcherFound@CProfiler@@UEAAJ_K@Z PROC	; CProfiler::ExceptionSearchCatcherFound, COMDAT

; 546  : 	DebugWriteLine(L"ExceptionSearchCatcherFound");
; 547  :     return S_OK;

	xor	eax, eax

; 548  : }

	ret	0
?ExceptionSearchCatcherFound@CProfiler@@UEAAJ_K@Z ENDP	; CProfiler::ExceptionSearchCatcherFound
; Function compile flags: /Ogtpy
_TEXT	ENDS
;	COMDAT ?ExceptionSearchFilterLeave@CProfiler@@UEAAJXZ
_TEXT	SEGMENT
this$ = 8
?ExceptionSearchFilterLeave@CProfiler@@UEAAJXZ PROC	; CProfiler::ExceptionSearchFilterLeave, COMDAT

; 540  : 	DebugWriteLine(L"ExceptionSearchFilterLeave");
; 541  :     return S_OK;

	xor	eax, eax

; 542  : }

	ret	0
?ExceptionSearchFilterLeave@CProfiler@@UEAAJXZ ENDP	; CProfiler::ExceptionSearchFilterLeave
; Function compile flags: /Ogtpy
_TEXT	ENDS
;	COMDAT ?ExceptionSearchFilterEnter@CProfiler@@UEAAJ_K@Z
_TEXT	SEGMENT
this$ = 8
__formal$ = 16
?ExceptionSearchFilterEnter@CProfiler@@UEAAJ_K@Z PROC	; CProfiler::ExceptionSearchFilterEnter, COMDAT

; 534  : 	DebugWriteLine(L"ExceptionSearchFilterEnter");
; 535  :     return S_OK;

	xor	eax, eax

; 536  : }

	ret	0
?ExceptionSearchFilterEnter@CProfiler@@UEAAJ_K@Z ENDP	; CProfiler::ExceptionSearchFilterEnter
; Function compile flags: /Ogtpy
_TEXT	ENDS
;	COMDAT ?ExceptionSearchFunctionLeave@CProfiler@@UEAAJXZ
_TEXT	SEGMENT
this$ = 8
?ExceptionSearchFunctionLeave@CProfiler@@UEAAJXZ PROC	; CProfiler::ExceptionSearchFunctionLeave, COMDAT

; 528  : 	DebugWriteLine(L"ExceptionSearchFunctionLeave");
; 529  :     return S_OK;

	xor	eax, eax

; 530  : }

	ret	0
?ExceptionSearchFunctionLeave@CProfiler@@UEAAJXZ ENDP	; CProfiler::ExceptionSearchFunctionLeave
; Function compile flags: /Ogtpy
_TEXT	ENDS
;	COMDAT ?ExceptionSearchFunctionEnter@CProfiler@@UEAAJ_K@Z
_TEXT	SEGMENT
this$ = 8
__formal$ = 16
?ExceptionSearchFunctionEnter@CProfiler@@UEAAJ_K@Z PROC	; CProfiler::ExceptionSearchFunctionEnter, COMDAT

; 522  : 	DebugWriteLine(L"ExceptionSearchFunctionEnter");
; 523  :     return S_OK;

	xor	eax, eax

; 524  : }

	ret	0
?ExceptionSearchFunctionEnter@CProfiler@@UEAAJ_K@Z ENDP	; CProfiler::ExceptionSearchFunctionEnter
; Function compile flags: /Ogtpy
_TEXT	ENDS
;	COMDAT ?ExceptionUnwindFunctionEnter@CProfiler@@UEAAJ_K@Z
_TEXT	SEGMENT
this$ = 8
__formal$ = 16
?ExceptionUnwindFunctionEnter@CProfiler@@UEAAJ_K@Z PROC	; CProfiler::ExceptionUnwindFunctionEnter, COMDAT

; 509  : 	DebugWriteLine(L"ExceptionUnwindFunctionEnter");
; 510  :     return S_OK;

	xor	eax, eax

; 511  : }

	ret	0
?ExceptionUnwindFunctionEnter@CProfiler@@UEAAJ_K@Z ENDP	; CProfiler::ExceptionUnwindFunctionEnter
; Function compile flags: /Ogtpy
_TEXT	ENDS
;	COMDAT ?ExceptionThrown@CProfiler@@UEAAJ_K@Z
_TEXT	SEGMENT
this$ = 8
__formal$ = 16
?ExceptionThrown@CProfiler@@UEAAJ_K@Z PROC		; CProfiler::ExceptionThrown, COMDAT

; 503  : 	DebugWriteLine(L"ExceptionThrown");
; 504  :     return S_OK;

	xor	eax, eax

; 505  : }

	ret	0
?ExceptionThrown@CProfiler@@UEAAJ_K@Z ENDP		; CProfiler::ExceptionThrown
; Function compile flags: /Ogtpy
_TEXT	ENDS
;	COMDAT ??1ThreadInfo@@QEAA@XZ
_TEXT	SEGMENT
this$ = 8
??1ThreadInfo@@QEAA@XZ PROC				; ThreadInfo::~ThreadInfo, COMDAT
	add	rcx, 16
	rex_jmp	QWORD PTR __imp_??1?$basic_string@_WU?$char_traits@_W@std@@V?$allocator@_W@2@@std@@QEAA@XZ
??1ThreadInfo@@QEAA@XZ ENDP				; ThreadInfo::~ThreadInfo
_TEXT	ENDS
;	COMDAT pdata
pdata	SEGMENT
$pdata$??_GThreadInfo@@QEAAPEAXI@Z DD imagerel $LN7
	DD	imagerel $LN7+36
	DD	imagerel $unwind$??_GThreadInfo@@QEAAPEAXI@Z
pdata	ENDS
;	COMDAT xdata
xdata	SEGMENT
$unwind$??_GThreadInfo@@QEAAPEAXI@Z DD 020601H
	DD	030023206H
; Function compile flags: /Ogtpy
xdata	ENDS
;	COMDAT ??_GThreadInfo@@QEAAPEAXI@Z
_TEXT	SEGMENT
this$ = 48
__flags$ = 56
??_GThreadInfo@@QEAAPEAXI@Z PROC			; ThreadInfo::`scalar deleting destructor', COMDAT
$LN7:
	push	rbx
	sub	rsp, 32					; 00000020H
	mov	rbx, rcx
	add	rcx, 16
	call	QWORD PTR __imp_??1?$basic_string@_WU?$char_traits@_W@std@@V?$allocator@_W@2@@std@@QEAA@XZ
	mov	rcx, rbx
	call	??3@YAXPEAX@Z				; operator delete
	mov	rax, rbx
	add	rsp, 32					; 00000020H
	pop	rbx
	ret	0
??_GThreadInfo@@QEAAPEAXI@Z ENDP			; ThreadInfo::`scalar deleting destructor'
_TEXT	ENDS
PUBLIC	?SetEventMask@CProfiler@@AEAAJXZ		; CProfiler::SetEventMask
; Function compile flags: /Ogtpy
;	COMDAT ?SetEventMask@CProfiler@@AEAAJXZ
_TEXT	SEGMENT
this$ = 8
?SetEventMask@CProfiler@@AEAAJXZ PROC			; CProfiler::SetEventMask, COMDAT

; 390  : 	DWORD eventMask = COR_PRF_MONITOR_ENTERLEAVE | COR_PRF_MONITOR_THREADS | COR_PRF_MONITOR_FUNCTION_UNLOADS | COR_PRF_MONITOR_CLR_EXCEPTIONS | COR_PRF_MONITOR_EXCEPTIONS;
; 391  : 	return pICorProfilerInfo->SetEventMask(eventMask);

	mov	rcx, QWORD PTR [rcx+8]
	mov	edx, 16781889				; 01001241H
	mov	rax, QWORD PTR [rcx]

; 392  : }

	rex_jmp	QWORD PTR [rax+128]
?SetEventMask@CProfiler@@AEAAJXZ ENDP			; CProfiler::SetEventMask
_TEXT	ENDS
PUBLIC	?getNewPosFunctionID@@YAHXZ			; getNewPosFunctionID
; Function compile flags: /Ogtpy
;	COMDAT ?getNewPosFunctionID@@YAHXZ
_TEXT	SEGMENT
?getNewPosFunctionID@@YAHXZ PROC			; getNewPosFunctionID, COMDAT

; 173  : }

	npad	2
$LL3@getNewPosF:

; 162  : 	const int step = 5;
; 163  : 	// Simple continuous assignment of IDs leads to problems with the
; 164  : 	// linear probing in FunctionInfo, so we use multiples of 'step' as IDs.
; 165  : 	// The step should not be a multiple of 2 (otherwise parts of the hash table could not be used)!
; 166  : 	LONG oldID;
; 167  : 	LONG newID;
; 168  : 	do {
; 169  : 		oldID = nextPosFunctionID;

	mov	eax, DWORD PTR ?nextPosFunctionID@@3JC	; nextPosFunctionID

; 170  : 		newID = ((oldID + step) & 0x7FFFFFFF); // x % 2^31

	lea	ecx, DWORD PTR [rax+5]
	btr	ecx, 31

; 171  : 	} while (InterlockedCompareExchange(&nextPosFunctionID, newID, oldID) != oldID);

	lock cmpxchg DWORD PTR ?nextPosFunctionID@@3JC, ecx ; nextPosFunctionID
	jne	SHORT $LL3@getNewPosF

; 172  : 	return newID;

	mov	eax, ecx

; 173  : }

	ret	0
?getNewPosFunctionID@@YAHXZ ENDP			; getNewPosFunctionID
_TEXT	ENDS
PUBLIC	?DetachFromThread@@YAXPEAUThreadLocalData@@@Z	; DetachFromThread
; Function compile flags: /Ogtpy
;	COMDAT ?DetachFromThread@@YAXPEAUThreadLocalData@@@Z
_TEXT	SEGMENT
data$ = 8
?DetachFromThread@@YAXPEAUThreadLocalData@@@Z PROC	; DetachFromThread, COMDAT

; 117  : {

	mov	r8, rcx

; 118  : 	if (data != nullptr) {

	test	rcx, rcx
	je	SHORT $LN1@DetachFrom

; 119  : 		DebugWriteLine(L"DetachFromThread %d", data->threadID);
; 120  : 		ULONGLONG tsc = __rdtsc();

	rdtsc
	shl	rdx, 32					; 00000020H
	or	rax, rdx

; 121  : 		while (!data->stack.empty()) {

	mov	rdx, QWORD PTR [rcx+24]
	mov	r9, rax
	cmp	QWORD PTR [rcx+32], rdx
	jb	SHORT $LN1@DetachFrom
	npad	2
$LL2@DetachFrom:

; 122  : 			StackEntry &stackTop = data->stack.top();

	mov	rcx, QWORD PTR [r8+32]

; 123  : 			stackTop.function->TimeSpent += (tsc - stackTop.startTime);

	mov	rax, r9
	sub	rax, QWORD PTR [rcx+8]
	mov	rdx, QWORD PTR [rcx]
	add	QWORD PTR [rdx+8], rax

; 124  : 			data->stack.pop();

	add	QWORD PTR [r8+32], -24
	mov	rax, QWORD PTR [r8+24]
	cmp	QWORD PTR [r8+32], rax
	jae	SHORT $LL2@DetachFrom
$LN1@DetachFrom:

; 125  : 		}
; 126  : 	}
; 127  : }

	fatret	0
?DetachFromThread@@YAXPEAUThreadLocalData@@@Z ENDP	; DetachFromThread
; Function compile flags: /Ogtpy
_TEXT	ENDS
;	COMDAT ?Release@CProfiler@@UEAAKXZ
_TEXT	SEGMENT
this$ = 8
?Release@CProfiler@@UEAAKXZ PROC			; CProfiler::Release, COMDAT

; 28   : 	return 1;

	mov	eax, 1

; 29   : }

	ret	0
?Release@CProfiler@@UEAAKXZ ENDP			; CProfiler::Release
; Function compile flags: /Ogtpy
_TEXT	ENDS
;	COMDAT ?AddRef@CProfiler@@UEAAKXZ
_TEXT	SEGMENT
this$ = 8
?AddRef@CProfiler@@UEAAKXZ PROC				; CProfiler::AddRef, COMDAT

; 23   : 	return 1;

	mov	eax, 1

; 24   : }

	ret	0
?AddRef@CProfiler@@UEAAKXZ ENDP				; CProfiler::AddRef
_TEXT	ENDS
;	COMDAT pdata
; File c:\local\sharpdevelop_3.2.0.5777_source\src\addins\misc\profiler\hook\global.h
pdata	SEGMENT
$pdata$??0ThreadInfo@@QEAA@XZ DD imagerel $LN4
	DD	imagerel $LN4+38
	DD	imagerel $unwind$??0ThreadInfo@@QEAA@XZ
pdata	ENDS
;	COMDAT xdata
xdata	SEGMENT
$unwind$??0ThreadInfo@@QEAA@XZ DD 020601H
	DD	030023206H
; Function compile flags: /Ogtpy
xdata	ENDS
;	COMDAT ??0ThreadInfo@@QEAA@XZ
_TEXT	SEGMENT
this$ = 48
??0ThreadInfo@@QEAA@XZ PROC				; ThreadInfo::ThreadInfo, COMDAT

; 56   : 		ThreadInfo()

$LN4:
	push	rbx
	sub	rsp, 32					; 00000020H
	mov	rbx, rcx
	add	rcx, 16
	call	QWORD PTR __imp_??0?$basic_string@_WU?$char_traits@_W@std@@V?$allocator@_W@2@@std@@QEAA@XZ

; 57   : 		{
; 58   : 			this->unmanagedThreadId = 0;

	xor	r11d, r11d

; 59   : 			this->managedThreadId = nullptr;
; 60   : 		}

	mov	rax, rbx
	mov	DWORD PTR [rbx], r11d
	mov	QWORD PTR [rbx+8], r11
	add	rsp, 32					; 00000020H
	pop	rbx
	ret	0
??0ThreadInfo@@QEAA@XZ ENDP				; ThreadInfo::ThreadInfo
; Function compile flags: /Ogtpy
_TEXT	ENDS
;	COMDAT ??0StackEntry@@QEAA@PEAUFunctionInfo@@_K@Z
_TEXT	SEGMENT
this$ = 8
function$ = 16
startTime$ = 24
??0StackEntry@@QEAA@PEAUFunctionInfo@@_K@Z PROC		; StackEntry::StackEntry, COMDAT

; 29   : 	StackEntry(FunctionInfo * function, ULONGLONG startTime) : function(function), startTime(startTime), frameCount(1) {}

	mov	QWORD PTR [rcx], rdx
	mov	QWORD PTR [rcx+8], r8
	mov	DWORD PTR [rcx+16], 1
	mov	rax, rcx
	ret	0
??0StackEntry@@QEAA@PEAUFunctionInfo@@_K@Z ENDP		; StackEntry::StackEntry
; Function compile flags: /Ogtpy
; File c:\local\sharpdevelop_3.2.0.5777_source\src\addins\misc\profiler\hook\criticalsection.h
_TEXT	ENDS
;	COMDAT ?Leave@CriticalSection@@QEAAXXZ
_TEXT	SEGMENT
this$ = 8
?Leave@CriticalSection@@QEAAXXZ PROC			; CriticalSection::Leave, COMDAT

; 30   : 		LeaveCriticalSection(&criticalSection);
; 31   : 	}

	rex_jmp	QWORD PTR __imp_LeaveCriticalSection
?Leave@CriticalSection@@QEAAXXZ ENDP			; CriticalSection::Leave
; Function compile flags: /Ogtpy
_TEXT	ENDS
;	COMDAT ?Enter@CriticalSection@@QEAAXXZ
_TEXT	SEGMENT
this$ = 8
?Enter@CriticalSection@@QEAAXXZ PROC			; CriticalSection::Enter, COMDAT

; 27   : 		EnterCriticalSection(&criticalSection);
; 28   : 	}

	rex_jmp	QWORD PTR __imp_EnterCriticalSection
?Enter@CriticalSection@@QEAAXXZ ENDP			; CriticalSection::Enter
_TEXT	ENDS
EXTRN	_CxxThrowException:PROC
;	COMDAT pdata
pdata	SEGMENT
$pdata$??0CriticalSection@@QEAA@XZ DD imagerel $LN5
	DD	imagerel $LN5+63
	DD	imagerel $unwind$??0CriticalSection@@QEAA@XZ
pdata	ENDS
;	COMDAT xdata
xdata	SEGMENT
$unwind$??0CriticalSection@@QEAA@XZ DD 020601H
	DD	030023206H
; Function compile flags: /Ogtpy
xdata	ENDS
;	COMDAT ??0CriticalSection@@QEAA@XZ
_TEXT	SEGMENT
this$ = 48
$T145039 = 56
??0CriticalSection@@QEAA@XZ PROC			; CriticalSection::CriticalSection, COMDAT

; 19   : 	CriticalSection() {

$LN5:
	push	rbx
	sub	rsp, 32					; 00000020H

; 20   : 		if (!InitializeCriticalSectionAndSpinCount(&criticalSection, 0x80000400))

	mov	edx, -2147482624			; 80000400H
	mov	rbx, rcx
	call	QWORD PTR __imp_InitializeCriticalSectionAndSpinCount
	test	eax, eax
	jne	SHORT $LN1@CriticalSe

; 21   : 			throw "Couldn't initialize critical section";

	lea	rax, OFFSET FLAT:??_C@_0CF@LIBDMEPI@Couldn?8t?5initialize?5critical?5sec@
	lea	rdx, OFFSET FLAT:_TI2PEAD
	lea	rcx, QWORD PTR $T145039[rsp]
	mov	QWORD PTR $T145039[rsp], rax
	call	_CxxThrowException
	int	3
$LN1@CriticalSe:

; 22   : 	}

	mov	rax, rbx
	add	rsp, 32					; 00000020H
	pop	rbx
	ret	0
$LN4@CriticalSe:
??0CriticalSection@@QEAA@XZ ENDP			; CriticalSection::CriticalSection
; Function compile flags: /Ogtpy
; File c:\program files\microsoft visual studio 9.0\vc\include\xutility
_TEXT	ENDS
;	COMDAT ??0_Container_base_aux@std@@QEAA@XZ
_TEXT	SEGMENT
this$ = 8
??0_Container_base_aux@std@@QEAA@XZ PROC		; std::_Container_base_aux::_Container_base_aux, COMDAT

; 380  : 		{
; 381  : 		// Do nothing: _Container_base_aux_alloc_real() will construct the aux object.
; 382  : 		}

	mov	rax, rcx
	ret	0
??0_Container_base_aux@std@@QEAA@XZ ENDP		; std::_Container_base_aux::_Container_base_aux
; Function compile flags: /Ogtpy
_TEXT	ENDS
;	COMDAT ?_Getcont@_Aux_cont@std@@QEBAPEBV_Container_base_aux@2@XZ
_TEXT	SEGMENT
this$ = 8
?_Getcont@_Aux_cont@std@@QEBAPEBV_Container_base_aux@2@XZ PROC ; std::_Aux_cont::_Getcont, COMDAT

; 369  : 		return _Mycontainer;

	mov	rax, QWORD PTR [rcx]

; 370  : 		}

	ret	0
?_Getcont@_Aux_cont@std@@QEBAPEBV_Container_base_aux@2@XZ ENDP ; std::_Aux_cont::_Getcont
; Function compile flags: /Ogtpy
_TEXT	ENDS
;	COMDAT ??0_Aux_cont@std@@QEAA@QEBV_Container_base_aux@1@@Z
_TEXT	SEGMENT
this$ = 8
_Pcont$ = 16
??0_Aux_cont@std@@QEAA@QEBV_Container_base_aux@1@@Z PROC ; std::_Aux_cont::_Aux_cont, COMDAT

; 364  : 	explicit _Aux_cont(const _Container_base_aux * const _Pcont)

	mov	QWORD PTR [rcx], rdx
	mov	rax, rcx
	ret	0
??0_Aux_cont@std@@QEAA@QEBV_Container_base_aux@1@@Z ENDP ; std::_Aux_cont::_Aux_cont
; Function compile flags: /Ogtpy
; File c:\program files\microsoft visual studio 9.0\vc\include\exception
_TEXT	ENDS
;	COMDAT ??1bad_alloc@std@@UEAA@XZ
_TEXT	SEGMENT
this$ = 8
??1bad_alloc@std@@UEAA@XZ PROC				; std::bad_alloc::~bad_alloc, COMDAT

; 380  : 		{	// destroy the object

	lea	rax, OFFSET FLAT:??_7bad_alloc@std@@6B@
	mov	QWORD PTR [rcx], rax

; 381  : 		}

	rex_jmp	QWORD PTR __imp_??1exception@std@@UEAA@XZ
??1bad_alloc@std@@UEAA@XZ ENDP				; std::bad_alloc::~bad_alloc
_TEXT	ENDS
;	COMDAT pdata
pdata	SEGMENT
$pdata$??0bad_alloc@std@@QEAA@PEBD@Z DD imagerel $LN3
	DD	imagerel $LN3+52
	DD	imagerel $unwind$??0bad_alloc@std@@QEAA@PEBD@Z
pdata	ENDS
;	COMDAT xdata
xdata	SEGMENT
$unwind$??0bad_alloc@std@@QEAA@PEBD@Z DD 020a01H
	DD	03006320aH
; Function compile flags: /Ogtpy
xdata	ENDS
;	COMDAT ??0bad_alloc@std@@QEAA@PEBD@Z
_TEXT	SEGMENT
this$ = 48
_Message$ = 56
??0bad_alloc@std@@QEAA@PEBD@Z PROC			; std::bad_alloc::bad_alloc, COMDAT

; 371  : 		{	// construct from message string

$LN3:
	mov	QWORD PTR [rsp+16], rdx
	push	rbx
	sub	rsp, 32					; 00000020H
	lea	rdx, QWORD PTR _Message$[rsp]
	mov	rbx, rcx
	mov	QWORD PTR _Message$[rsp], 0
	call	QWORD PTR __imp_??0exception@std@@QEAA@AEBQEBD@Z
	lea	r11, OFFSET FLAT:??_7bad_alloc@std@@6B@

; 372  : 		}

	mov	rax, rbx
	mov	QWORD PTR [rbx], r11
	add	rsp, 32					; 00000020H
	pop	rbx
	ret	0
??0bad_alloc@std@@QEAA@PEBD@Z ENDP			; std::bad_alloc::bad_alloc
;	COMDAT pdata
pdata	SEGMENT
$pdata$??$_Allocate@V_Aux_cont@std@@@std@@YAPEAV_Aux_cont@0@_KPEAV10@@Z DD imagerel $LN13
	DD	imagerel $LN13+87
	DD	imagerel $unwind$??$_Allocate@V_Aux_cont@std@@@std@@YAPEAV_Aux_cont@0@_KPEAV10@@Z
pdata	ENDS
;	COMDAT xdata
xdata	SEGMENT
$unwind$??$_Allocate@V_Aux_cont@std@@@std@@YAPEAV_Aux_cont@0@_KPEAV10@@Z DD 010401H
	DD	08204H
; Function compile flags: /Ogtpy
; File c:\program files\microsoft visual studio 9.0\vc\include\xmemory
xdata	ENDS
;	COMDAT ??$_Allocate@V_Aux_cont@std@@@std@@YAPEAV_Aux_cont@0@_KPEAV10@@Z
_TEXT	SEGMENT
$T147801 = 32
$T147809 = 80
_Count$ = 80
??$_Allocate@V_Aux_cont@std@@@std@@YAPEAV_Aux_cont@0@_KPEAV10@@Z PROC ; std::_Allocate<std::_Aux_cont>, COMDAT

; 36   : 	{	// check for integer overflow

$LN13:
	sub	rsp, 72					; 00000048H

; 37   : 	if (_Count <= 0)
; 38   : 		_Count = 0;
; 39   : 	else if (((_SIZT)(-1) / _Count) < sizeof (_Ty))

	xor	edx, edx
	or	rax, -1
	div	rcx
	cmp	rax, 8
	jae	SHORT $LN1@Allocate@4

; 40   : 		_THROW_NCEE(std::bad_alloc, NULL);

	lea	rdx, QWORD PTR $T147809[rsp]
	lea	rcx, QWORD PTR $T147801[rsp]
	mov	QWORD PTR $T147809[rsp], 0
	call	QWORD PTR __imp_??0exception@std@@QEAA@AEBQEBD@Z
	lea	r11, OFFSET FLAT:??_7bad_alloc@std@@6B@
	lea	rdx, OFFSET FLAT:_TI2?AVbad_alloc@std@@
	lea	rcx, QWORD PTR $T147801[rsp]
	mov	QWORD PTR $T147801[rsp], r11
	call	_CxxThrowException
	int	3
$LN1@Allocate@4:

; 41   : 
; 42   : 		// allocate storage for _Count elements of type _Ty
; 43   : 	return ((_Ty _FARQ *)::operator new(_Count * sizeof (_Ty)));

	shl	rcx, 3

; 44   : 	}

	add	rsp, 72					; 00000048H
	jmp	??2@YAPEAX_K@Z				; operator new
$LN12@Allocate@4:
??$_Allocate@V_Aux_cont@std@@@std@@YAPEAV_Aux_cont@0@_KPEAV10@@Z ENDP ; std::_Allocate<std::_Aux_cont>
; Function compile flags: /Ogtpy
_TEXT	ENDS
;	COMDAT ??$_Construct@PEAU_Node@?$_Tree_nod@V?$_Tmap_traits@KPEAVThreadInfo@@U?$less@K@std@@V?$allocator@U?$pair@$$CBKPEAVThreadInfo@@@std@@@3@$0A@@std@@@std@@PEAU123@@std@@YAXPEAPEAU_Node@?$_Tree_nod@V?$_Tmap_traits@KPEAVThreadInfo@@U?$less@K@std@@V?$allocator@U?$pair@$$CBKPEAVThreadInfo@@@std@@@3@$0A@@std@@@0@AEBQEAU120@@Z
_TEXT	SEGMENT
_Ptr$ = 8
_Val$ = 16
??$_Construct@PEAU_Node@?$_Tree_nod@V?$_Tmap_traits@KPEAVThreadInfo@@U?$less@K@std@@V?$allocator@U?$pair@$$CBKPEAVThreadInfo@@@std@@@3@$0A@@std@@@std@@PEAU123@@std@@YAXPEAPEAU_Node@?$_Tree_nod@V?$_Tmap_traits@KPEAVThreadInfo@@U?$less@K@std@@V?$allocator@U?$pair@$$CBKPEAVThreadInfo@@@std@@@3@$0A@@std@@@0@AEBQEAU120@@Z PROC ; std::_Construct<std::_Tree_nod<std::_Tmap_traits<unsigned long,ThreadInfo * __ptr64,std::less<unsigned long>,std::allocator<std::pair<unsigned long const ,ThreadInfo * __ptr64> >,0> >::_Node * __ptr64,std::_Tree_nod<std::_Tmap_traits<unsigned long,ThreadInfo * __ptr64,std::less<unsigned long>,std::allocator<std::pair<unsigned long const ,ThreadInfo * __ptr64> >,0> >::_Node * __ptr64>, COMDAT

; 51   : 	void _FARQ *_Vptr = _Ptr;
; 52   : 	::new (_Vptr) _T1(_Val);

	test	rcx, rcx
	je	SHORT $LN3@Construct@2
	mov	rax, QWORD PTR [rdx]
	mov	QWORD PTR [rcx], rax
$LN3@Construct@2:

; 53   : 	}

	fatret	0
??$_Construct@PEAU_Node@?$_Tree_nod@V?$_Tmap_traits@KPEAVThreadInfo@@U?$less@K@std@@V?$allocator@U?$pair@$$CBKPEAVThreadInfo@@@std@@@3@$0A@@std@@@std@@PEAU123@@std@@YAXPEAPEAU_Node@?$_Tree_nod@V?$_Tmap_traits@KPEAVThreadInfo@@U?$less@K@std@@V?$allocator@U?$pair@$$CBKPEAVThreadInfo@@@std@@@3@$0A@@std@@@0@AEBQEAU120@@Z ENDP ; std::_Construct<std::_Tree_nod<std::_Tmap_traits<unsigned long,ThreadInfo * __ptr64,std::less<unsigned long>,std::allocator<std::pair<unsigned long const ,ThreadInfo * __ptr64> >,0> >::_Node * __ptr64,std::_Tree_nod<std::_Tmap_traits<unsigned long,ThreadInfo * __ptr64,std::less<unsigned long>,std::allocator<std::pair<unsigned long const ,ThreadInfo * __ptr64> >,0> >::_Node * __ptr64>
; Function compile flags: /Ogtpy
_TEXT	ENDS
;	COMDAT ??$_Construct@PEAU_Node@?$_Tree_nod@V?$_Tmap_traits@_KPEAVThreadInfo@@U?$less@_K@std@@V?$allocator@U?$pair@$$CB_KPEAVThreadInfo@@@std@@@3@$0A@@std@@@std@@PEAU123@@std@@YAXPEAPEAU_Node@?$_Tree_nod@V?$_Tmap_traits@_KPEAVThreadInfo@@U?$less@_K@std@@V?$allocator@U?$pair@$$CB_KPEAVThreadInfo@@@std@@@3@$0A@@std@@@0@AEBQEAU120@@Z
_TEXT	SEGMENT
_Ptr$ = 8
_Val$ = 16
??$_Construct@PEAU_Node@?$_Tree_nod@V?$_Tmap_traits@_KPEAVThreadInfo@@U?$less@_K@std@@V?$allocator@U?$pair@$$CB_KPEAVThreadInfo@@@std@@@3@$0A@@std@@@std@@PEAU123@@std@@YAXPEAPEAU_Node@?$_Tree_nod@V?$_Tmap_traits@_KPEAVThreadInfo@@U?$less@_K@std@@V?$allocator@U?$pair@$$CB_KPEAVThreadInfo@@@std@@@3@$0A@@std@@@0@AEBQEAU120@@Z PROC ; std::_Construct<std::_Tree_nod<std::_Tmap_traits<unsigned __int64,ThreadInfo * __ptr64,std::less<unsigned __int64>,std::allocator<std::pair<unsigned __int64 const ,ThreadInfo * __ptr64> >,0> >::_Node * __ptr64,std::_Tree_nod<std::_Tmap_traits<unsigned __int64,ThreadInfo * __ptr64,std::less<unsigned __int64>,std::allocator<std::pair<unsigned __int64 const ,ThreadInfo * __ptr64> >,0> >::_Node * __ptr64>, COMDAT

; 51   : 	void _FARQ *_Vptr = _Ptr;
; 52   : 	::new (_Vptr) _T1(_Val);

	test	rcx, rcx
	je	SHORT $LN3@Construct@3
	mov	rax, QWORD PTR [rdx]
	mov	QWORD PTR [rcx], rax
$LN3@Construct@3:

; 53   : 	}

	fatret	0
??$_Construct@PEAU_Node@?$_Tree_nod@V?$_Tmap_traits@_KPEAVThreadInfo@@U?$less@_K@std@@V?$allocator@U?$pair@$$CB_KPEAVThreadInfo@@@std@@@3@$0A@@std@@@std@@PEAU123@@std@@YAXPEAPEAU_Node@?$_Tree_nod@V?$_Tmap_traits@_KPEAVThreadInfo@@U?$less@_K@std@@V?$allocator@U?$pair@$$CB_KPEAVThreadInfo@@@std@@@3@$0A@@std@@@0@AEBQEAU120@@Z ENDP ; std::_Construct<std::_Tree_nod<std::_Tmap_traits<unsigned __int64,ThreadInfo * __ptr64,std::less<unsigned __int64>,std::allocator<std::pair<unsigned __int64 const ,ThreadInfo * __ptr64> >,0> >::_Node * __ptr64,std::_Tree_nod<std::_Tmap_traits<unsigned __int64,ThreadInfo * __ptr64,std::less<unsigned __int64>,std::allocator<std::pair<unsigned __int64 const ,ThreadInfo * __ptr64> >,0> >::_Node * __ptr64>
; Function compile flags: /Ogtpy
_TEXT	ENDS
;	COMDAT ??$_Construct@PEAU_Node@?$_Tree_nod@V?$_Tmap_traits@_KHU?$less@_K@std@@V?$allocator@U?$pair@$$CB_KH@std@@@2@$0A@@std@@@std@@PEAU123@@std@@YAXPEAPEAU_Node@?$_Tree_nod@V?$_Tmap_traits@_KHU?$less@_K@std@@V?$allocator@U?$pair@$$CB_KH@std@@@2@$0A@@std@@@0@AEBQEAU120@@Z
_TEXT	SEGMENT
_Ptr$ = 8
_Val$ = 16
??$_Construct@PEAU_Node@?$_Tree_nod@V?$_Tmap_traits@_KHU?$less@_K@std@@V?$allocator@U?$pair@$$CB_KH@std@@@2@$0A@@std@@@std@@PEAU123@@std@@YAXPEAPEAU_Node@?$_Tree_nod@V?$_Tmap_traits@_KHU?$less@_K@std@@V?$allocator@U?$pair@$$CB_KH@std@@@2@$0A@@std@@@0@AEBQEAU120@@Z PROC ; std::_Construct<std::_Tree_nod<std::_Tmap_traits<unsigned __int64,int,std::less<unsigned __int64>,std::allocator<std::pair<unsigned __int64 const ,int> >,0> >::_Node * __ptr64,std::_Tree_nod<std::_Tmap_traits<unsigned __int64,int,std::less<unsigned __int64>,std::allocator<std::pair<unsigned __int64 const ,int> >,0> >::_Node * __ptr64>, COMDAT

; 51   : 	void _FARQ *_Vptr = _Ptr;
; 52   : 	::new (_Vptr) _T1(_Val);

	test	rcx, rcx
	je	SHORT $LN3@Construct@4
	mov	rax, QWORD PTR [rdx]
	mov	QWORD PTR [rcx], rax
$LN3@Construct@4:

; 53   : 	}

	fatret	0
??$_Construct@PEAU_Node@?$_Tree_nod@V?$_Tmap_traits@_KHU?$less@_K@std@@V?$allocator@U?$pair@$$CB_KH@std@@@2@$0A@@std@@@std@@PEAU123@@std@@YAXPEAPEAU_Node@?$_Tree_nod@V?$_Tmap_traits@_KHU?$less@_K@std@@V?$allocator@U?$pair@$$CB_KH@std@@@2@$0A@@std@@@0@AEBQEAU120@@Z ENDP ; std::_Construct<std::_Tree_nod<std::_Tmap_traits<unsigned __int64,int,std::less<unsigned __int64>,std::allocator<std::pair<unsigned __int64 const ,int> >,0> >::_Node * __ptr64,std::_Tree_nod<std::_Tmap_traits<unsigned __int64,int,std::less<unsigned __int64>,std::allocator<std::pair<unsigned __int64 const ,int> >,0> >::_Node * __ptr64>
_TEXT	ENDS
;	COMDAT pdata
; File c:\program files\microsoft visual studio 9.0\vc\include\exception
pdata	SEGMENT
$pdata$??$_Allocate@U_Node@?$_Tree_nod@V?$_Tmap_traits@KPEAVThreadInfo@@U?$less@K@std@@V?$allocator@U?$pair@$$CBKPEAVThreadInfo@@@std@@@3@$0A@@std@@@std@@@std@@YAPEAU_Node@?$_Tree_nod@V?$_Tmap_traits@KPEAVThreadInfo@@U?$less@K@std@@V?$allocator@U?$pair@$$CBKPEAVThreadInfo@@@std@@@3@$0A@@std@@@0@_KPEAU120@@Z DD imagerel $LN13
	DD	imagerel $LN13+91
	DD	imagerel $unwind$??$_Allocate@U_Node@?$_Tree_nod@V?$_Tmap_traits@KPEAVThreadInfo@@U?$less@K@std@@V?$allocator@U?$pair@$$CBKPEAVThreadInfo@@@std@@@3@$0A@@std@@@std@@@std@@YAPEAU_Node@?$_Tree_nod@V?$_Tmap_traits@KPEAVThreadInfo@@U?$less@K@std@@V?$allocator@U?$pair@$$CBKPEAVThreadInfo@@@std@@@3@$0A@@std@@@0@_KPEAU120@@Z
pdata	ENDS
;	COMDAT xdata
xdata	SEGMENT
$unwind$??$_Allocate@U_Node@?$_Tree_nod@V?$_Tmap_traits@KPEAVThreadInfo@@U?$less@K@std@@V?$allocator@U?$pair@$$CBKPEAVThreadInfo@@@std@@@3@$0A@@std@@@std@@@std@@YAPEAU_Node@?$_Tree_nod@V?$_Tmap_traits@KPEAVThreadInfo@@U?$less@K@std@@V?$allocator@U?$pair@$$CBKPEAVThreadInfo@@@std@@@3@$0A@@std@@@0@_KPEAU120@@Z DD 010401H
	DD	08204H
; Function compile flags: /Ogtpy
; File c:\program files\microsoft visual studio 9.0\vc\include\xmemory
xdata	ENDS
;	COMDAT ??$_Allocate@U_Node@?$_Tree_nod@V?$_Tmap_traits@KPEAVThreadInfo@@U?$less@K@std@@V?$allocator@U?$pair@$$CBKPEAVThreadInfo@@@std@@@3@$0A@@std@@@std@@@std@@YAPEAU_Node@?$_Tree_nod@V?$_Tmap_traits@KPEAVThreadInfo@@U?$less@K@std@@V?$allocator@U?$pair@$$CBKPEAVThreadInfo@@@std@@@3@$0A@@std@@@0@_KPEAU120@@Z
_TEXT	SEGMENT
$T147858 = 32
$T147866 = 80
_Count$ = 80
??$_Allocate@U_Node@?$_Tree_nod@V?$_Tmap_traits@KPEAVThreadInfo@@U?$less@K@std@@V?$allocator@U?$pair@$$CBKPEAVThreadInfo@@@std@@@3@$0A@@std@@@std@@@std@@YAPEAU_Node@?$_Tree_nod@V?$_Tmap_traits@KPEAVThreadInfo@@U?$less@K@std@@V?$allocator@U?$pair@$$CBKPEAVThreadInfo@@@std@@@3@$0A@@std@@@0@_KPEAU120@@Z PROC ; std::_Allocate<std::_Tree_nod<std::_Tmap_traits<unsigned long,ThreadInfo * __ptr64,std::less<unsigned long>,std::allocator<std::pair<unsigned long const ,ThreadInfo * __ptr64> >,0> >::_Node>, COMDAT

; 36   : 	{	// check for integer overflow

$LN13:
	sub	rsp, 72					; 00000048H

; 37   : 	if (_Count <= 0)
; 38   : 		_Count = 0;
; 39   : 	else if (((_SIZT)(-1) / _Count) < sizeof (_Ty))

	xor	edx, edx
	or	rax, -1
	div	rcx
	cmp	rax, 48					; 00000030H
	jae	SHORT $LN1@Allocate@5

; 40   : 		_THROW_NCEE(std::bad_alloc, NULL);

	lea	rdx, QWORD PTR $T147866[rsp]
	lea	rcx, QWORD PTR $T147858[rsp]
	mov	QWORD PTR $T147866[rsp], 0
	call	QWORD PTR __imp_??0exception@std@@QEAA@AEBQEBD@Z
	lea	r11, OFFSET FLAT:??_7bad_alloc@std@@6B@
	lea	rdx, OFFSET FLAT:_TI2?AVbad_alloc@std@@
	lea	rcx, QWORD PTR $T147858[rsp]
	mov	QWORD PTR $T147858[rsp], r11
	call	_CxxThrowException
	int	3
$LN1@Allocate@5:

; 41   : 
; 42   : 		// allocate storage for _Count elements of type _Ty
; 43   : 	return ((_Ty _FARQ *)::operator new(_Count * sizeof (_Ty)));

	lea	rcx, QWORD PTR [rcx+rcx*2]
	shl	rcx, 4

; 44   : 	}

	add	rsp, 72					; 00000048H
	jmp	??2@YAPEAX_K@Z				; operator new
$LN12@Allocate@5:
??$_Allocate@U_Node@?$_Tree_nod@V?$_Tmap_traits@KPEAVThreadInfo@@U?$less@K@std@@V?$allocator@U?$pair@$$CBKPEAVThreadInfo@@@std@@@3@$0A@@std@@@std@@@std@@YAPEAU_Node@?$_Tree_nod@V?$_Tmap_traits@KPEAVThreadInfo@@U?$less@K@std@@V?$allocator@U?$pair@$$CBKPEAVThreadInfo@@@std@@@3@$0A@@std@@@0@_KPEAU120@@Z ENDP ; std::_Allocate<std::_Tree_nod<std::_Tmap_traits<unsigned long,ThreadInfo * __ptr64,std::less<unsigned long>,std::allocator<std::pair<unsigned long const ,ThreadInfo * __ptr64> >,0> >::_Node>
_TEXT	ENDS
;	COMDAT pdata
; File c:\program files\microsoft visual studio 9.0\vc\include\exception
pdata	SEGMENT
$pdata$??$_Allocate@U_Node@?$_Tree_nod@V?$_Tmap_traits@_KPEAVThreadInfo@@U?$less@_K@std@@V?$allocator@U?$pair@$$CB_KPEAVThreadInfo@@@std@@@3@$0A@@std@@@std@@@std@@YAPEAU_Node@?$_Tree_nod@V?$_Tmap_traits@_KPEAVThreadInfo@@U?$less@_K@std@@V?$allocator@U?$pair@$$CB_KPEAVThreadInfo@@@std@@@3@$0A@@std@@@0@_KPEAU120@@Z DD imagerel $LN13
	DD	imagerel $LN13+91
	DD	imagerel $unwind$??$_Allocate@U_Node@?$_Tree_nod@V?$_Tmap_traits@_KPEAVThreadInfo@@U?$less@_K@std@@V?$allocator@U?$pair@$$CB_KPEAVThreadInfo@@@std@@@3@$0A@@std@@@std@@@std@@YAPEAU_Node@?$_Tree_nod@V?$_Tmap_traits@_KPEAVThreadInfo@@U?$less@_K@std@@V?$allocator@U?$pair@$$CB_KPEAVThreadInfo@@@std@@@3@$0A@@std@@@0@_KPEAU120@@Z
pdata	ENDS
;	COMDAT xdata
xdata	SEGMENT
$unwind$??$_Allocate@U_Node@?$_Tree_nod@V?$_Tmap_traits@_KPEAVThreadInfo@@U?$less@_K@std@@V?$allocator@U?$pair@$$CB_KPEAVThreadInfo@@@std@@@3@$0A@@std@@@std@@@std@@YAPEAU_Node@?$_Tree_nod@V?$_Tmap_traits@_KPEAVThreadInfo@@U?$less@_K@std@@V?$allocator@U?$pair@$$CB_KPEAVThreadInfo@@@std@@@3@$0A@@std@@@0@_KPEAU120@@Z DD 010401H
	DD	08204H
; Function compile flags: /Ogtpy
; File c:\program files\microsoft visual studio 9.0\vc\include\xmemory
xdata	ENDS
;	COMDAT ??$_Allocate@U_Node@?$_Tree_nod@V?$_Tmap_traits@_KPEAVThreadInfo@@U?$less@_K@std@@V?$allocator@U?$pair@$$CB_KPEAVThreadInfo@@@std@@@3@$0A@@std@@@std@@@std@@YAPEAU_Node@?$_Tree_nod@V?$_Tmap_traits@_KPEAVThreadInfo@@U?$less@_K@std@@V?$allocator@U?$pair@$$CB_KPEAVThreadInfo@@@std@@@3@$0A@@std@@@0@_KPEAU120@@Z
_TEXT	SEGMENT
$T147879 = 32
$T147887 = 80
_Count$ = 80
??$_Allocate@U_Node@?$_Tree_nod@V?$_Tmap_traits@_KPEAVThreadInfo@@U?$less@_K@std@@V?$allocator@U?$pair@$$CB_KPEAVThreadInfo@@@std@@@3@$0A@@std@@@std@@@std@@YAPEAU_Node@?$_Tree_nod@V?$_Tmap_traits@_KPEAVThreadInfo@@U?$less@_K@std@@V?$allocator@U?$pair@$$CB_KPEAVThreadInfo@@@std@@@3@$0A@@std@@@0@_KPEAU120@@Z PROC ; std::_Allocate<std::_Tree_nod<std::_Tmap_traits<unsigned __int64,ThreadInfo * __ptr64,std::less<unsigned __int64>,std::allocator<std::pair<unsigned __int64 const ,ThreadInfo * __ptr64> >,0> >::_Node>, COMDAT

; 36   : 	{	// check for integer overflow

$LN13:
	sub	rsp, 72					; 00000048H

; 37   : 	if (_Count <= 0)
; 38   : 		_Count = 0;
; 39   : 	else if (((_SIZT)(-1) / _Count) < sizeof (_Ty))

	xor	edx, edx
	or	rax, -1
	div	rcx
	cmp	rax, 48					; 00000030H
	jae	SHORT $LN1@Allocate@6

; 40   : 		_THROW_NCEE(std::bad_alloc, NULL);

	lea	rdx, QWORD PTR $T147887[rsp]
	lea	rcx, QWORD PTR $T147879[rsp]
	mov	QWORD PTR $T147887[rsp], 0
	call	QWORD PTR __imp_??0exception@std@@QEAA@AEBQEBD@Z
	lea	r11, OFFSET FLAT:??_7bad_alloc@std@@6B@
	lea	rdx, OFFSET FLAT:_TI2?AVbad_alloc@std@@
	lea	rcx, QWORD PTR $T147879[rsp]
	mov	QWORD PTR $T147879[rsp], r11
	call	_CxxThrowException
	int	3
$LN1@Allocate@6:

; 41   : 
; 42   : 		// allocate storage for _Count elements of type _Ty
; 43   : 	return ((_Ty _FARQ *)::operator new(_Count * sizeof (_Ty)));

	lea	rcx, QWORD PTR [rcx+rcx*2]
	shl	rcx, 4

; 44   : 	}

	add	rsp, 72					; 00000048H
	jmp	??2@YAPEAX_K@Z				; operator new
$LN12@Allocate@6:
??$_Allocate@U_Node@?$_Tree_nod@V?$_Tmap_traits@_KPEAVThreadInfo@@U?$less@_K@std@@V?$allocator@U?$pair@$$CB_KPEAVThreadInfo@@@std@@@3@$0A@@std@@@std@@@std@@YAPEAU_Node@?$_Tree_nod@V?$_Tmap_traits@_KPEAVThreadInfo@@U?$less@_K@std@@V?$allocator@U?$pair@$$CB_KPEAVThreadInfo@@@std@@@3@$0A@@std@@@0@_KPEAU120@@Z ENDP ; std::_Allocate<std::_Tree_nod<std::_Tmap_traits<unsigned __int64,ThreadInfo * __ptr64,std::less<unsigned __int64>,std::allocator<std::pair<unsigned __int64 const ,ThreadInfo * __ptr64> >,0> >::_Node>
_TEXT	ENDS
;	COMDAT pdata
; File c:\program files\microsoft visual studio 9.0\vc\include\exception
pdata	SEGMENT
$pdata$??$_Allocate@U_Node@?$_Tree_nod@V?$_Tmap_traits@_KHU?$less@_K@std@@V?$allocator@U?$pair@$$CB_KH@std@@@2@$0A@@std@@@std@@@std@@YAPEAU_Node@?$_Tree_nod@V?$_Tmap_traits@_KHU?$less@_K@std@@V?$allocator@U?$pair@$$CB_KH@std@@@2@$0A@@std@@@0@_KPEAU120@@Z DD imagerel $LN13
	DD	imagerel $LN13+91
	DD	imagerel $unwind$??$_Allocate@U_Node@?$_Tree_nod@V?$_Tmap_traits@_KHU?$less@_K@std@@V?$allocator@U?$pair@$$CB_KH@std@@@2@$0A@@std@@@std@@@std@@YAPEAU_Node@?$_Tree_nod@V?$_Tmap_traits@_KHU?$less@_K@std@@V?$allocator@U?$pair@$$CB_KH@std@@@2@$0A@@std@@@0@_KPEAU120@@Z
pdata	ENDS
;	COMDAT xdata
xdata	SEGMENT
$unwind$??$_Allocate@U_Node@?$_Tree_nod@V?$_Tmap_traits@_KHU?$less@_K@std@@V?$allocator@U?$pair@$$CB_KH@std@@@2@$0A@@std@@@std@@@std@@YAPEAU_Node@?$_Tree_nod@V?$_Tmap_traits@_KHU?$less@_K@std@@V?$allocator@U?$pair@$$CB_KH@std@@@2@$0A@@std@@@0@_KPEAU120@@Z DD 010401H
	DD	08204H
; Function compile flags: /Ogtpy
; File c:\program files\microsoft visual studio 9.0\vc\include\xmemory
xdata	ENDS
;	COMDAT ??$_Allocate@U_Node@?$_Tree_nod@V?$_Tmap_traits@_KHU?$less@_K@std@@V?$allocator@U?$pair@$$CB_KH@std@@@2@$0A@@std@@@std@@@std@@YAPEAU_Node@?$_Tree_nod@V?$_Tmap_traits@_KHU?$less@_K@std@@V?$allocator@U?$pair@$$CB_KH@std@@@2@$0A@@std@@@0@_KPEAU120@@Z
_TEXT	SEGMENT
$T147900 = 32
$T147908 = 80
_Count$ = 80
??$_Allocate@U_Node@?$_Tree_nod@V?$_Tmap_traits@_KHU?$less@_K@std@@V?$allocator@U?$pair@$$CB_KH@std@@@2@$0A@@std@@@std@@@std@@YAPEAU_Node@?$_Tree_nod@V?$_Tmap_traits@_KHU?$less@_K@std@@V?$allocator@U?$pair@$$CB_KH@std@@@2@$0A@@std@@@0@_KPEAU120@@Z PROC ; std::_Allocate<std::_Tree_nod<std::_Tmap_traits<unsigned __int64,int,std::less<unsigned __int64>,std::allocator<std::pair<unsigned __int64 const ,int> >,0> >::_Node>, COMDAT

; 36   : 	{	// check for integer overflow

$LN13:
	sub	rsp, 72					; 00000048H

; 37   : 	if (_Count <= 0)
; 38   : 		_Count = 0;
; 39   : 	else if (((_SIZT)(-1) / _Count) < sizeof (_Ty))

	xor	edx, edx
	or	rax, -1
	div	rcx
	cmp	rax, 48					; 00000030H
	jae	SHORT $LN1@Allocate@7

; 40   : 		_THROW_NCEE(std::bad_alloc, NULL);

	lea	rdx, QWORD PTR $T147908[rsp]
	lea	rcx, QWORD PTR $T147900[rsp]
	mov	QWORD PTR $T147908[rsp], 0
	call	QWORD PTR __imp_??0exception@std@@QEAA@AEBQEBD@Z
	lea	r11, OFFSET FLAT:??_7bad_alloc@std@@6B@
	lea	rdx, OFFSET FLAT:_TI2?AVbad_alloc@std@@
	lea	rcx, QWORD PTR $T147900[rsp]
	mov	QWORD PTR $T147900[rsp], r11
	call	_CxxThrowException
	int	3
$LN1@Allocate@7:

; 41   : 
; 42   : 		// allocate storage for _Count elements of type _Ty
; 43   : 	return ((_Ty _FARQ *)::operator new(_Count * sizeof (_Ty)));

	lea	rcx, QWORD PTR [rcx+rcx*2]
	shl	rcx, 4

; 44   : 	}

	add	rsp, 72					; 00000048H
	jmp	??2@YAPEAX_K@Z				; operator new
$LN12@Allocate@7:
??$_Allocate@U_Node@?$_Tree_nod@V?$_Tmap_traits@_KHU?$less@_K@std@@V?$allocator@U?$pair@$$CB_KH@std@@@2@$0A@@std@@@std@@@std@@YAPEAU_Node@?$_Tree_nod@V?$_Tmap_traits@_KHU?$less@_K@std@@V?$allocator@U?$pair@$$CB_KH@std@@@2@$0A@@std@@@0@_KPEAU120@@Z ENDP ; std::_Allocate<std::_Tree_nod<std::_Tmap_traits<unsigned __int64,int,std::less<unsigned __int64>,std::allocator<std::pair<unsigned __int64 const ,int> >,0> >::_Node>
_TEXT	ENDS
;	COMDAT pdata
; File c:\program files\microsoft visual studio 9.0\vc\include\exception
pdata	SEGMENT
$pdata$?allocate@?$allocator@V_Aux_cont@std@@@std@@QEAAPEAV_Aux_cont@2@_K@Z DD imagerel $LN11
	DD	imagerel $LN11+19
	DD	imagerel $unwind$?allocate@?$allocator@V_Aux_cont@std@@@std@@QEAAPEAV_Aux_cont@2@_K@Z
pdata	ENDS
;	COMDAT xdata
xdata	SEGMENT
$unwind$?allocate@?$allocator@V_Aux_cont@std@@@std@@QEAAPEAV_Aux_cont@2@_K@Z DD 010401H
	DD	04204H
; Function compile flags: /Ogtpy
; File c:\program files\microsoft visual studio 9.0\vc\include\xmemory
xdata	ENDS
;	COMDAT ?allocate@?$allocator@V_Aux_cont@std@@@std@@QEAAPEAV_Aux_cont@2@_K@Z
_TEXT	SEGMENT
this$ = 48
_Count$ = 56
?allocate@?$allocator@V_Aux_cont@std@@@std@@QEAAPEAV_Aux_cont@2@_K@Z PROC ; std::allocator<std::_Aux_cont>::allocate, COMDAT

; 144  : 		{	// allocate array of _Count elements

$LN11:
	sub	rsp, 40					; 00000028H

; 145  : 		return (_Allocate(_Count, (pointer)0));

	mov	ecx, 8
	call	??2@YAPEAX_K@Z				; operator new

; 146  : 		}

	add	rsp, 40					; 00000028H
	ret	0
?allocate@?$allocator@V_Aux_cont@std@@@std@@QEAAPEAV_Aux_cont@2@_K@Z ENDP ; std::allocator<std::_Aux_cont>::allocate
_TEXT	ENDS
;	COMDAT pdata
; File c:\program files\microsoft visual studio 9.0\vc\include\xutility
pdata	SEGMENT
$pdata$??0?$_Container_base_aux_alloc_real@V?$allocator@U?$pair@$$CBKPEAVThreadInfo@@@std@@@std@@@std@@IEAA@V?$allocator@U?$pair@$$CBKPEAVThreadInfo@@@std@@@1@@Z DD imagerel $LN24
	DD	imagerel $LN24+55
	DD	imagerel $unwind$??0?$_Container_base_aux_alloc_real@V?$allocator@U?$pair@$$CBKPEAVThreadInfo@@@std@@@std@@@std@@IEAA@V?$allocator@U?$pair@$$CBKPEAVThreadInfo@@@std@@@1@@Z
pdata	ENDS
;	COMDAT xdata
xdata	SEGMENT
$unwind$??0?$_Container_base_aux_alloc_real@V?$allocator@U?$pair@$$CBKPEAVThreadInfo@@@std@@@std@@@std@@IEAA@V?$allocator@U?$pair@$$CBKPEAVThreadInfo@@@std@@@1@@Z DD 020601H
	DD	030023206H
; Function compile flags: /Ogtpy
xdata	ENDS
;	COMDAT ??0?$_Container_base_aux_alloc_real@V?$allocator@U?$pair@$$CBKPEAVThreadInfo@@@std@@@std@@@std@@IEAA@V?$allocator@U?$pair@$$CBKPEAVThreadInfo@@@std@@@1@@Z
_TEXT	SEGMENT
this$ = 48
_Al$ = 56
??0?$_Container_base_aux_alloc_real@V?$allocator@U?$pair@$$CBKPEAVThreadInfo@@@std@@@std@@@std@@IEAA@V?$allocator@U?$pair@$$CBKPEAVThreadInfo@@@std@@@1@@Z PROC ; std::_Container_base_aux_alloc_real<std::allocator<std::pair<unsigned long const ,ThreadInfo * __ptr64> > >::_Container_base_aux_alloc_real<std::allocator<std::pair<unsigned long const ,ThreadInfo * __ptr64> > >, COMDAT

; 419  : 		{

$LN24:
	push	rbx
	sub	rsp, 32					; 00000020H
	mov	rbx, rcx

; 420  : 		_Myownedaux = new (_Alaux.allocate(1)) _Aux_cont(this);

	mov	ecx, 8
	call	??2@YAPEAX_K@Z				; operator new
	test	rax, rax
	je	SHORT $LN3@Container_
	mov	QWORD PTR [rax], rbx
	mov	QWORD PTR [rbx], rax

; 421  : 		}

	mov	rax, rbx
	add	rsp, 32					; 00000020H
	pop	rbx
	ret	0
$LN3@Container_:

; 420  : 		_Myownedaux = new (_Alaux.allocate(1)) _Aux_cont(this);

	mov	QWORD PTR [rbx], 0

; 421  : 		}

	mov	rax, rbx
	add	rsp, 32					; 00000020H
	pop	rbx
	ret	0
??0?$_Container_base_aux_alloc_real@V?$allocator@U?$pair@$$CBKPEAVThreadInfo@@@std@@@std@@@std@@IEAA@V?$allocator@U?$pair@$$CBKPEAVThreadInfo@@@std@@@1@@Z ENDP ; std::_Container_base_aux_alloc_real<std::allocator<std::pair<unsigned long const ,ThreadInfo * __ptr64> > >::_Container_base_aux_alloc_real<std::allocator<std::pair<unsigned long const ,ThreadInfo * __ptr64> > >
_TEXT	ENDS
;	COMDAT pdata
pdata	SEGMENT
$pdata$??0?$_Container_base_aux_alloc_real@V?$allocator@U?$pair@$$CB_KPEAVThreadInfo@@@std@@@std@@@std@@IEAA@V?$allocator@U?$pair@$$CB_KPEAVThreadInfo@@@std@@@1@@Z DD imagerel $LN24
	DD	imagerel $LN24+55
	DD	imagerel $unwind$??0?$_Container_base_aux_alloc_real@V?$allocator@U?$pair@$$CB_KPEAVThreadInfo@@@std@@@std@@@std@@IEAA@V?$allocator@U?$pair@$$CB_KPEAVThreadInfo@@@std@@@1@@Z
pdata	ENDS
;	COMDAT xdata
xdata	SEGMENT
$unwind$??0?$_Container_base_aux_alloc_real@V?$allocator@U?$pair@$$CB_KPEAVThreadInfo@@@std@@@std@@@std@@IEAA@V?$allocator@U?$pair@$$CB_KPEAVThreadInfo@@@std@@@1@@Z DD 020601H
	DD	030023206H
; Function compile flags: /Ogtpy
xdata	ENDS
;	COMDAT ??0?$_Container_base_aux_alloc_real@V?$allocator@U?$pair@$$CB_KPEAVThreadInfo@@@std@@@std@@@std@@IEAA@V?$allocator@U?$pair@$$CB_KPEAVThreadInfo@@@std@@@1@@Z
_TEXT	SEGMENT
this$ = 48
_Al$ = 56
??0?$_Container_base_aux_alloc_real@V?$allocator@U?$pair@$$CB_KPEAVThreadInfo@@@std@@@std@@@std@@IEAA@V?$allocator@U?$pair@$$CB_KPEAVThreadInfo@@@std@@@1@@Z PROC ; std::_Container_base_aux_alloc_real<std::allocator<std::pair<unsigned __int64 const ,ThreadInfo * __ptr64> > >::_Container_base_aux_alloc_real<std::allocator<std::pair<unsigned __int64 const ,ThreadInfo * __ptr64> > >, COMDAT

; 419  : 		{

$LN24:
	push	rbx
	sub	rsp, 32					; 00000020H
	mov	rbx, rcx

; 420  : 		_Myownedaux = new (_Alaux.allocate(1)) _Aux_cont(this);

	mov	ecx, 8
	call	??2@YAPEAX_K@Z				; operator new
	test	rax, rax
	je	SHORT $LN3@Container_@2
	mov	QWORD PTR [rax], rbx
	mov	QWORD PTR [rbx], rax

; 421  : 		}

	mov	rax, rbx
	add	rsp, 32					; 00000020H
	pop	rbx
	ret	0
$LN3@Container_@2:

; 420  : 		_Myownedaux = new (_Alaux.allocate(1)) _Aux_cont(this);

	mov	QWORD PTR [rbx], 0

; 421  : 		}

	mov	rax, rbx
	add	rsp, 32					; 00000020H
	pop	rbx
	ret	0
??0?$_Container_base_aux_alloc_real@V?$allocator@U?$pair@$$CB_KPEAVThreadInfo@@@std@@@std@@@std@@IEAA@V?$allocator@U?$pair@$$CB_KPEAVThreadInfo@@@std@@@1@@Z ENDP ; std::_Container_base_aux_alloc_real<std::allocator<std::pair<unsigned __int64 const ,ThreadInfo * __ptr64> > >::_Container_base_aux_alloc_real<std::allocator<std::pair<unsigned __int64 const ,ThreadInfo * __ptr64> > >
_TEXT	ENDS
;	COMDAT pdata
pdata	SEGMENT
$pdata$??0?$_Container_base_aux_alloc_real@V?$allocator@U?$pair@$$CB_KH@std@@@std@@@std@@IEAA@V?$allocator@U?$pair@$$CB_KH@std@@@1@@Z DD imagerel $LN24
	DD	imagerel $LN24+55
	DD	imagerel $unwind$??0?$_Container_base_aux_alloc_real@V?$allocator@U?$pair@$$CB_KH@std@@@std@@@std@@IEAA@V?$allocator@U?$pair@$$CB_KH@std@@@1@@Z
pdata	ENDS
;	COMDAT xdata
xdata	SEGMENT
$unwind$??0?$_Container_base_aux_alloc_real@V?$allocator@U?$pair@$$CB_KH@std@@@std@@@std@@IEAA@V?$allocator@U?$pair@$$CB_KH@std@@@1@@Z DD 020601H
	DD	030023206H
; Function compile flags: /Ogtpy
xdata	ENDS
;	COMDAT ??0?$_Container_base_aux_alloc_real@V?$allocator@U?$pair@$$CB_KH@std@@@std@@@std@@IEAA@V?$allocator@U?$pair@$$CB_KH@std@@@1@@Z
_TEXT	SEGMENT
this$ = 48
_Al$ = 56
??0?$_Container_base_aux_alloc_real@V?$allocator@U?$pair@$$CB_KH@std@@@std@@@std@@IEAA@V?$allocator@U?$pair@$$CB_KH@std@@@1@@Z PROC ; std::_Container_base_aux_alloc_real<std::allocator<std::pair<unsigned __int64 const ,int> > >::_Container_base_aux_alloc_real<std::allocator<std::pair<unsigned __int64 const ,int> > >, COMDAT

; 419  : 		{

$LN24:
	push	rbx
	sub	rsp, 32					; 00000020H
	mov	rbx, rcx

; 420  : 		_Myownedaux = new (_Alaux.allocate(1)) _Aux_cont(this);

	mov	ecx, 8
	call	??2@YAPEAX_K@Z				; operator new
	test	rax, rax
	je	SHORT $LN3@Container_@3
	mov	QWORD PTR [rax], rbx
	mov	QWORD PTR [rbx], rax

; 421  : 		}

	mov	rax, rbx
	add	rsp, 32					; 00000020H
	pop	rbx
	ret	0
$LN3@Container_@3:

; 420  : 		_Myownedaux = new (_Alaux.allocate(1)) _Aux_cont(this);

	mov	QWORD PTR [rbx], 0

; 421  : 		}

	mov	rax, rbx
	add	rsp, 32					; 00000020H
	pop	rbx
	ret	0
??0?$_Container_base_aux_alloc_real@V?$allocator@U?$pair@$$CB_KH@std@@@std@@@std@@IEAA@V?$allocator@U?$pair@$$CB_KH@std@@@1@@Z ENDP ; std::_Container_base_aux_alloc_real<std::allocator<std::pair<unsigned __int64 const ,int> > >::_Container_base_aux_alloc_real<std::allocator<std::pair<unsigned __int64 const ,int> > >
; Function compile flags: /Ogtpy
; File c:\program files\microsoft visual studio 9.0\vc\include\xmemory
_TEXT	ENDS
;	COMDAT ?construct@?$allocator@PEAU_Node@?$_Tree_nod@V?$_Tmap_traits@KPEAVThreadInfo@@U?$less@K@std@@V?$allocator@U?$pair@$$CBKPEAVThreadInfo@@@std@@@3@$0A@@std@@@std@@@std@@QEAAXPEAPEAU_Node@?$_Tree_nod@V?$_Tmap_traits@KPEAVThreadInfo@@U?$less@K@std@@V?$allocator@U?$pair@$$CBKPEAVThreadInfo@@@std@@@3@$0A@@std@@@2@AEBQEAU342@@Z
_TEXT	SEGMENT
this$ = 8
_Ptr$ = 16
_Val$ = 24
?construct@?$allocator@PEAU_Node@?$_Tree_nod@V?$_Tmap_traits@KPEAVThreadInfo@@U?$less@K@std@@V?$allocator@U?$pair@$$CBKPEAVThreadInfo@@@std@@@3@$0A@@std@@@std@@@std@@QEAAXPEAPEAU_Node@?$_Tree_nod@V?$_Tmap_traits@KPEAVThreadInfo@@U?$less@K@std@@V?$allocator@U?$pair@$$CBKPEAVThreadInfo@@@std@@@3@$0A@@std@@@2@AEBQEAU342@@Z PROC ; std::allocator<std::_Tree_nod<std::_Tmap_traits<unsigned long,ThreadInfo * __ptr64,std::less<unsigned long>,std::allocator<std::pair<unsigned long const ,ThreadInfo * __ptr64> >,0> >::_Node * __ptr64>::construct, COMDAT

; 155  : 		_Construct(_Ptr, _Val);

	test	rdx, rdx
	je	SHORT $LN5@construct@2
	mov	rax, QWORD PTR [r8]
	mov	QWORD PTR [rdx], rax
$LN5@construct@2:

; 156  : 		}

	fatret	0
?construct@?$allocator@PEAU_Node@?$_Tree_nod@V?$_Tmap_traits@KPEAVThreadInfo@@U?$less@K@std@@V?$allocator@U?$pair@$$CBKPEAVThreadInfo@@@std@@@3@$0A@@std@@@std@@@std@@QEAAXPEAPEAU_Node@?$_Tree_nod@V?$_Tmap_traits@KPEAVThreadInfo@@U?$less@K@std@@V?$allocator@U?$pair@$$CBKPEAVThreadInfo@@@std@@@3@$0A@@std@@@2@AEBQEAU342@@Z ENDP ; std::allocator<std::_Tree_nod<std::_Tmap_traits<unsigned long,ThreadInfo * __ptr64,std::less<unsigned long>,std::allocator<std::pair<unsigned long const ,ThreadInfo * __ptr64> >,0> >::_Node * __ptr64>::construct
; Function compile flags: /Ogtpy
_TEXT	ENDS
;	COMDAT ?construct@?$allocator@PEAU_Node@?$_Tree_nod@V?$_Tmap_traits@_KPEAVThreadInfo@@U?$less@_K@std@@V?$allocator@U?$pair@$$CB_KPEAVThreadInfo@@@std@@@3@$0A@@std@@@std@@@std@@QEAAXPEAPEAU_Node@?$_Tree_nod@V?$_Tmap_traits@_KPEAVThreadInfo@@U?$less@_K@std@@V?$allocator@U?$pair@$$CB_KPEAVThreadInfo@@@std@@@3@$0A@@std@@@2@AEBQEAU342@@Z
_TEXT	SEGMENT
this$ = 8
_Ptr$ = 16
_Val$ = 24
?construct@?$allocator@PEAU_Node@?$_Tree_nod@V?$_Tmap_traits@_KPEAVThreadInfo@@U?$less@_K@std@@V?$allocator@U?$pair@$$CB_KPEAVThreadInfo@@@std@@@3@$0A@@std@@@std@@@std@@QEAAXPEAPEAU_Node@?$_Tree_nod@V?$_Tmap_traits@_KPEAVThreadInfo@@U?$less@_K@std@@V?$allocator@U?$pair@$$CB_KPEAVThreadInfo@@@std@@@3@$0A@@std@@@2@AEBQEAU342@@Z PROC ; std::allocator<std::_Tree_nod<std::_Tmap_traits<unsigned __int64,ThreadInfo * __ptr64,std::less<unsigned __int64>,std::allocator<std::pair<unsigned __int64 const ,ThreadInfo * __ptr64> >,0> >::_Node * __ptr64>::construct, COMDAT

; 155  : 		_Construct(_Ptr, _Val);

	test	rdx, rdx
	je	SHORT $LN5@construct@3
	mov	rax, QWORD PTR [r8]
	mov	QWORD PTR [rdx], rax
$LN5@construct@3:

; 156  : 		}

	fatret	0
?construct@?$allocator@PEAU_Node@?$_Tree_nod@V?$_Tmap_traits@_KPEAVThreadInfo@@U?$less@_K@std@@V?$allocator@U?$pair@$$CB_KPEAVThreadInfo@@@std@@@3@$0A@@std@@@std@@@std@@QEAAXPEAPEAU_Node@?$_Tree_nod@V?$_Tmap_traits@_KPEAVThreadInfo@@U?$less@_K@std@@V?$allocator@U?$pair@$$CB_KPEAVThreadInfo@@@std@@@3@$0A@@std@@@2@AEBQEAU342@@Z ENDP ; std::allocator<std::_Tree_nod<std::_Tmap_traits<unsigned __int64,ThreadInfo * __ptr64,std::less<unsigned __int64>,std::allocator<std::pair<unsigned __int64 const ,ThreadInfo * __ptr64> >,0> >::_Node * __ptr64>::construct
; Function compile flags: /Ogtpy
_TEXT	ENDS
;	COMDAT ?construct@?$allocator@PEAU_Node@?$_Tree_nod@V?$_Tmap_traits@_KHU?$less@_K@std@@V?$allocator@U?$pair@$$CB_KH@std@@@2@$0A@@std@@@std@@@std@@QEAAXPEAPEAU_Node@?$_Tree_nod@V?$_Tmap_traits@_KHU?$less@_K@std@@V?$allocator@U?$pair@$$CB_KH@std@@@2@$0A@@std@@@2@AEBQEAU342@@Z
_TEXT	SEGMENT
this$ = 8
_Ptr$ = 16
_Val$ = 24
?construct@?$allocator@PEAU_Node@?$_Tree_nod@V?$_Tmap_traits@_KHU?$less@_K@std@@V?$allocator@U?$pair@$$CB_KH@std@@@2@$0A@@std@@@std@@@std@@QEAAXPEAPEAU_Node@?$_Tree_nod@V?$_Tmap_traits@_KHU?$less@_K@std@@V?$allocator@U?$pair@$$CB_KH@std@@@2@$0A@@std@@@2@AEBQEAU342@@Z PROC ; std::allocator<std::_Tree_nod<std::_Tmap_traits<unsigned __int64,int,std::less<unsigned __int64>,std::allocator<std::pair<unsigned __int64 const ,int> >,0> >::_Node * __ptr64>::construct, COMDAT

; 155  : 		_Construct(_Ptr, _Val);

	test	rdx, rdx
	je	SHORT $LN5@construct@4
	mov	rax, QWORD PTR [r8]
	mov	QWORD PTR [rdx], rax
$LN5@construct@4:

; 156  : 		}

	fatret	0
?construct@?$allocator@PEAU_Node@?$_Tree_nod@V?$_Tmap_traits@_KHU?$less@_K@std@@V?$allocator@U?$pair@$$CB_KH@std@@@2@$0A@@std@@@std@@@std@@QEAAXPEAPEAU_Node@?$_Tree_nod@V?$_Tmap_traits@_KHU?$less@_K@std@@V?$allocator@U?$pair@$$CB_KH@std@@@2@$0A@@std@@@2@AEBQEAU342@@Z ENDP ; std::allocator<std::_Tree_nod<std::_Tmap_traits<unsigned __int64,int,std::less<unsigned __int64>,std::allocator<std::pair<unsigned __int64 const ,int> >,0> >::_Node * __ptr64>::construct
_TEXT	ENDS
;	COMDAT pdata
; File c:\program files\microsoft visual studio 9.0\vc\include\exception
pdata	SEGMENT
$pdata$?allocate@?$allocator@U_Node@?$_Tree_nod@V?$_Tmap_traits@KPEAVThreadInfo@@U?$less@K@std@@V?$allocator@U?$pair@$$CBKPEAVThreadInfo@@@std@@@3@$0A@@std@@@std@@@std@@QEAAPEAU_Node@?$_Tree_nod@V?$_Tmap_traits@KPEAVThreadInfo@@U?$less@K@std@@V?$allocator@U?$pair@$$CBKPEAVThreadInfo@@@std@@@3@$0A@@std@@@2@_K@Z DD imagerel $LN11
	DD	imagerel $LN11+19
	DD	imagerel $unwind$?allocate@?$allocator@U_Node@?$_Tree_nod@V?$_Tmap_traits@KPEAVThreadInfo@@U?$less@K@std@@V?$allocator@U?$pair@$$CBKPEAVThreadInfo@@@std@@@3@$0A@@std@@@std@@@std@@QEAAPEAU_Node@?$_Tree_nod@V?$_Tmap_traits@KPEAVThreadInfo@@U?$less@K@std@@V?$allocator@U?$pair@$$CBKPEAVThreadInfo@@@std@@@3@$0A@@std@@@2@_K@Z
pdata	ENDS
;	COMDAT xdata
xdata	SEGMENT
$unwind$?allocate@?$allocator@U_Node@?$_Tree_nod@V?$_Tmap_traits@KPEAVThreadInfo@@U?$less@K@std@@V?$allocator@U?$pair@$$CBKPEAVThreadInfo@@@std@@@3@$0A@@std@@@std@@@std@@QEAAPEAU_Node@?$_Tree_nod@V?$_Tmap_traits@KPEAVThreadInfo@@U?$less@K@std@@V?$allocator@U?$pair@$$CBKPEAVThreadInfo@@@std@@@3@$0A@@std@@@2@_K@Z DD 010401H
	DD	04204H
; Function compile flags: /Ogtpy
; File c:\program files\microsoft visual studio 9.0\vc\include\xmemory
xdata	ENDS
;	COMDAT ?allocate@?$allocator@U_Node@?$_Tree_nod@V?$_Tmap_traits@KPEAVThreadInfo@@U?$less@K@std@@V?$allocator@U?$pair@$$CBKPEAVThreadInfo@@@std@@@3@$0A@@std@@@std@@@std@@QEAAPEAU_Node@?$_Tree_nod@V?$_Tmap_traits@KPEAVThreadInfo@@U?$less@K@std@@V?$allocator@U?$pair@$$CBKPEAVThreadInfo@@@std@@@3@$0A@@std@@@2@_K@Z
_TEXT	SEGMENT
this$ = 48
_Count$ = 56
?allocate@?$allocator@U_Node@?$_Tree_nod@V?$_Tmap_traits@KPEAVThreadInfo@@U?$less@K@std@@V?$allocator@U?$pair@$$CBKPEAVThreadInfo@@@std@@@3@$0A@@std@@@std@@@std@@QEAAPEAU_Node@?$_Tree_nod@V?$_Tmap_traits@KPEAVThreadInfo@@U?$less@K@std@@V?$allocator@U?$pair@$$CBKPEAVThreadInfo@@@std@@@3@$0A@@std@@@2@_K@Z PROC ; std::allocator<std::_Tree_nod<std::_Tmap_traits<unsigned long,ThreadInfo * __ptr64,std::less<unsigned long>,std::allocator<std::pair<unsigned long const ,ThreadInfo * __ptr64> >,0> >::_Node>::allocate, COMDAT

; 144  : 		{	// allocate array of _Count elements

$LN11:
	sub	rsp, 40					; 00000028H

; 145  : 		return (_Allocate(_Count, (pointer)0));

	mov	ecx, 48					; 00000030H
	call	??2@YAPEAX_K@Z				; operator new

; 146  : 		}

	add	rsp, 40					; 00000028H
	ret	0
?allocate@?$allocator@U_Node@?$_Tree_nod@V?$_Tmap_traits@KPEAVThreadInfo@@U?$less@K@std@@V?$allocator@U?$pair@$$CBKPEAVThreadInfo@@@std@@@3@$0A@@std@@@std@@@std@@QEAAPEAU_Node@?$_Tree_nod@V?$_Tmap_traits@KPEAVThreadInfo@@U?$less@K@std@@V?$allocator@U?$pair@$$CBKPEAVThreadInfo@@@std@@@3@$0A@@std@@@2@_K@Z ENDP ; std::allocator<std::_Tree_nod<std::_Tmap_traits<unsigned long,ThreadInfo * __ptr64,std::less<unsigned long>,std::allocator<std::pair<unsigned long const ,ThreadInfo * __ptr64> >,0> >::_Node>::allocate
_TEXT	ENDS
;	COMDAT pdata
; File c:\program files\microsoft visual studio 9.0\vc\include\xtree
pdata	SEGMENT
$pdata$?_Buynode@?$_Tree@V?$_Tmap_traits@KPEAVThreadInfo@@U?$less@K@std@@V?$allocator@U?$pair@$$CBKPEAVThreadInfo@@@std@@@3@$0A@@std@@@std@@IEAAPEAU_Node@?$_Tree_nod@V?$_Tmap_traits@KPEAVThreadInfo@@U?$less@K@std@@V?$allocator@U?$pair@$$CBKPEAVThreadInfo@@@std@@@3@$0A@@std@@@2@XZ DD imagerel $LN63
	DD	imagerel $LN63+79
	DD	imagerel $unwind$?_Buynode@?$_Tree@V?$_Tmap_traits@KPEAVThreadInfo@@U?$less@K@std@@V?$allocator@U?$pair@$$CBKPEAVThreadInfo@@@std@@@3@$0A@@std@@@std@@IEAAPEAU_Node@?$_Tree_nod@V?$_Tmap_traits@KPEAVThreadInfo@@U?$less@K@std@@V?$allocator@U?$pair@$$CBKPEAVThreadInfo@@@std@@@3@$0A@@std@@@2@XZ
pdata	ENDS
;	COMDAT pdata
pdata	SEGMENT
$pdata$?catch$0@?0??_Buynode@?$_Tree@V?$_Tmap_traits@KPEAVThreadInfo@@U?$less@K@std@@V?$allocator@U?$pair@$$CBKPEAVThreadInfo@@@std@@@3@$0A@@std@@@std@@IEAAPEAU_Node@?$_Tree_nod@V?$_Tmap_traits@KPEAVThreadInfo@@U?$less@K@std@@V?$allocator@U?$pair@$$CBKPEAVThreadInfo@@@std@@@3@$0A@@std@@@2@XZ@4HA DD imagerel ?catch$0@?0??_Buynode@?$_Tree@V?$_Tmap_traits@KPEAVThreadInfo@@U?$less@K@std@@V?$allocator@U?$pair@$$CBKPEAVThreadInfo@@@std@@@3@$0A@@std@@@std@@IEAAPEAU_Node@?$_Tree_nod@V?$_Tmap_traits@KPEAVThreadInfo@@U?$less@K@std@@V?$allocator@U?$pair@$$CBKPEAVThreadInfo@@@std@@@3@$0A@@std@@@2@XZ@4HA
	DD	imagerel ?catch$0@?0??_Buynode@?$_Tree@V?$_Tmap_traits@KPEAVThreadInfo@@U?$less@K@std@@V?$allocator@U?$pair@$$CBKPEAVThreadInfo@@@std@@@3@$0A@@std@@@std@@IEAAPEAU_Node@?$_Tree_nod@V?$_Tmap_traits@KPEAVThreadInfo@@U?$less@K@std@@V?$allocator@U?$pair@$$CBKPEAVThreadInfo@@@std@@@3@$0A@@std@@@2@XZ@4HA+39
	DD	imagerel $unwind$?catch$0@?0??_Buynode@?$_Tree@V?$_Tmap_traits@KPEAVThreadInfo@@U?$less@K@std@@V?$allocator@U?$pair@$$CBKPEAVThreadInfo@@@std@@@3@$0A@@std@@@std@@IEAAPEAU_Node@?$_Tree_nod@V?$_Tmap_traits@KPEAVThreadInfo@@U?$less@K@std@@V?$allocator@U?$pair@$$CBKPEAVThreadInfo@@@std@@@3@$0A@@std@@@2@XZ@4HA
pdata	ENDS
;	COMDAT xdata
xdata	SEGMENT
$ip2state$?_Buynode@?$_Tree@V?$_Tmap_traits@KPEAVThreadInfo@@U?$less@K@std@@V?$allocator@U?$pair@$$CBKPEAVThreadInfo@@@std@@@3@$0A@@std@@@std@@IEAAPEAU_Node@?$_Tree_nod@V?$_Tmap_traits@KPEAVThreadInfo@@U?$less@K@std@@V?$allocator@U?$pair@$$CBKPEAVThreadInfo@@@std@@@3@$0A@@std@@@2@XZ DD imagerel ?_Buynode@?$_Tree@V?$_Tmap_traits@KPEAVThreadInfo@@U?$less@K@std@@V?$allocator@U?$pair@$$CBKPEAVThreadInfo@@@std@@@3@$0A@@std@@@std@@IEAAPEAU_Node@?$_Tree_nod@V?$_Tmap_traits@KPEAVThreadInfo@@U?$less@K@std@@V?$allocator@U?$pair@$$CBKPEAVThreadInfo@@@std@@@3@$0A@@std@@@2@XZ
	DD	0ffffffffH
	DD	imagerel ?_Buynode@?$_Tree@V?$_Tmap_traits@KPEAVThreadInfo@@U?$less@K@std@@V?$allocator@U?$pair@$$CBKPEAVThreadInfo@@@std@@@3@$0A@@std@@@std@@IEAAPEAU_Node@?$_Tree_nod@V?$_Tmap_traits@KPEAVThreadInfo@@U?$less@K@std@@V?$allocator@U?$pair@$$CBKPEAVThreadInfo@@@std@@@3@$0A@@std@@@2@XZ+28
	DD	00H
	DD	imagerel ?_Buynode@?$_Tree@V?$_Tmap_traits@KPEAVThreadInfo@@U?$less@K@std@@V?$allocator@U?$pair@$$CBKPEAVThreadInfo@@@std@@@3@$0A@@std@@@std@@IEAAPEAU_Node@?$_Tree_nod@V?$_Tmap_traits@KPEAVThreadInfo@@U?$less@K@std@@V?$allocator@U?$pair@$$CBKPEAVThreadInfo@@@std@@@3@$0A@@std@@@2@XZ+66
	DD	0ffffffffH
	DD	imagerel ?catch$0@?0??_Buynode@?$_Tree@V?$_Tmap_traits@KPEAVThreadInfo@@U?$less@K@std@@V?$allocator@U?$pair@$$CBKPEAVThreadInfo@@@std@@@3@$0A@@std@@@std@@IEAAPEAU_Node@?$_Tree_nod@V?$_Tmap_traits@KPEAVThreadInfo@@U?$less@K@std@@V?$allocator@U?$pair@$$CBKPEAVThreadInfo@@@std@@@3@$0A@@std@@@2@XZ@4HA
	DD	00H
	DD	imagerel ?catch$0@?0??_Buynode@?$_Tree@V?$_Tmap_traits@KPEAVThreadInfo@@U?$less@K@std@@V?$allocator@U?$pair@$$CBKPEAVThreadInfo@@@std@@@3@$0A@@std@@@std@@IEAAPEAU_Node@?$_Tree_nod@V?$_Tmap_traits@KPEAVThreadInfo@@U?$less@K@std@@V?$allocator@U?$pair@$$CBKPEAVThreadInfo@@@std@@@3@$0A@@std@@@2@XZ@4HA+13
	DD	01H
	DD	imagerel ?catch$0@?0??_Buynode@?$_Tree@V?$_Tmap_traits@KPEAVThreadInfo@@U?$less@K@std@@V?$allocator@U?$pair@$$CBKPEAVThreadInfo@@@std@@@3@$0A@@std@@@std@@IEAAPEAU_Node@?$_Tree_nod@V?$_Tmap_traits@KPEAVThreadInfo@@U?$less@K@std@@V?$allocator@U?$pair@$$CBKPEAVThreadInfo@@@std@@@3@$0A@@std@@@2@XZ@4HA+32
	DD	00H
xdata	ENDS
;	COMDAT xdata
xdata	SEGMENT
$unwind$?catch$0@?0??_Buynode@?$_Tree@V?$_Tmap_traits@KPEAVThreadInfo@@U?$less@K@std@@V?$allocator@U?$pair@$$CBKPEAVThreadInfo@@@std@@@3@$0A@@std@@@std@@IEAAPEAU_Node@?$_Tree_nod@V?$_Tmap_traits@KPEAVThreadInfo@@U?$less@K@std@@V?$allocator@U?$pair@$$CBKPEAVThreadInfo@@@std@@@3@$0A@@std@@@2@XZ@4HA DD 020a19H
	DD	05006320aH
	DD	imagerel __CxxFrameHandler3
	DD	imagerel $cppxdata$?_Buynode@?$_Tree@V?$_Tmap_traits@KPEAVThreadInfo@@U?$less@K@std@@V?$allocator@U?$pair@$$CBKPEAVThreadInfo@@@std@@@3@$0A@@std@@@std@@IEAAPEAU_Node@?$_Tree_nod@V?$_Tmap_traits@KPEAVThreadInfo@@U?$less@K@std@@V?$allocator@U?$pair@$$CBKPEAVThreadInfo@@@std@@@3@$0A@@std@@@2@XZ
xdata	ENDS
;	COMDAT xdata
xdata	SEGMENT
$unwind$?_Buynode@?$_Tree@V?$_Tmap_traits@KPEAVThreadInfo@@U?$less@K@std@@V?$allocator@U?$pair@$$CBKPEAVThreadInfo@@@std@@@3@$0A@@std@@@std@@IEAAPEAU_Node@?$_Tree_nod@V?$_Tmap_traits@KPEAVThreadInfo@@U?$less@K@std@@V?$allocator@U?$pair@$$CBKPEAVThreadInfo@@@std@@@3@$0A@@std@@@2@XZ DD 010d19H
	DD	06204H
	DD	imagerel __CxxFrameHandler3
	DD	imagerel $cppxdata$?_Buynode@?$_Tree@V?$_Tmap_traits@KPEAVThreadInfo@@U?$less@K@std@@V?$allocator@U?$pair@$$CBKPEAVThreadInfo@@@std@@@3@$0A@@std@@@std@@IEAAPEAU_Node@?$_Tree_nod@V?$_Tmap_traits@KPEAVThreadInfo@@U?$less@K@std@@V?$allocator@U?$pair@$$CBKPEAVThreadInfo@@@std@@@3@$0A@@std@@@2@XZ
xdata	ENDS
;	COMDAT CONST
CONST	SEGMENT
$cppxdata$?_Buynode@?$_Tree@V?$_Tmap_traits@KPEAVThreadInfo@@U?$less@K@std@@V?$allocator@U?$pair@$$CBKPEAVThreadInfo@@@std@@@3@$0A@@std@@@std@@IEAAPEAU_Node@?$_Tree_nod@V?$_Tmap_traits@KPEAVThreadInfo@@U?$less@K@std@@V?$allocator@U?$pair@$$CBKPEAVThreadInfo@@@std@@@3@$0A@@std@@@2@XZ DD 019930522H
	DD	02H
	DD	imagerel $stateUnwindMap$?_Buynode@?$_Tree@V?$_Tmap_traits@KPEAVThreadInfo@@U?$less@K@std@@V?$allocator@U?$pair@$$CBKPEAVThreadInfo@@@std@@@3@$0A@@std@@@std@@IEAAPEAU_Node@?$_Tree_nod@V?$_Tmap_traits@KPEAVThreadInfo@@U?$less@K@std@@V?$allocator@U?$pair@$$CBKPEAVThreadInfo@@@std@@@3@$0A@@std@@@2@XZ
	DD	01H
	DD	imagerel $tryMap$?_Buynode@?$_Tree@V?$_Tmap_traits@KPEAVThreadInfo@@U?$less@K@std@@V?$allocator@U?$pair@$$CBKPEAVThreadInfo@@@std@@@3@$0A@@std@@@std@@IEAAPEAU_Node@?$_Tree_nod@V?$_Tmap_traits@KPEAVThreadInfo@@U?$less@K@std@@V?$allocator@U?$pair@$$CBKPEAVThreadInfo@@@std@@@3@$0A@@std@@@2@XZ
	DD	06H
	DD	imagerel $ip2state$?_Buynode@?$_Tree@V?$_Tmap_traits@KPEAVThreadInfo@@U?$less@K@std@@V?$allocator@U?$pair@$$CBKPEAVThreadInfo@@@std@@@3@$0A@@std@@@std@@IEAAPEAU_Node@?$_Tree_nod@V?$_Tmap_traits@KPEAVThreadInfo@@U?$less@K@std@@V?$allocator@U?$pair@$$CBKPEAVThreadInfo@@@std@@@3@$0A@@std@@@2@XZ
	DD	020H
	DD	00H
	DD	01H
CONST	ENDS
;	COMDAT xdata
xdata	SEGMENT
$tryMap$?_Buynode@?$_Tree@V?$_Tmap_traits@KPEAVThreadInfo@@U?$less@K@std@@V?$allocator@U?$pair@$$CBKPEAVThreadInfo@@@std@@@3@$0A@@std@@@std@@IEAAPEAU_Node@?$_Tree_nod@V?$_Tmap_traits@KPEAVThreadInfo@@U?$less@K@std@@V?$allocator@U?$pair@$$CBKPEAVThreadInfo@@@std@@@3@$0A@@std@@@2@XZ DD 00H
	DD	00H
	DD	01H
	DD	01H
	DD	imagerel $handlerMap$0$?_Buynode@?$_Tree@V?$_Tmap_traits@KPEAVThreadInfo@@U?$less@K@std@@V?$allocator@U?$pair@$$CBKPEAVThreadInfo@@@std@@@3@$0A@@std@@@std@@IEAAPEAU_Node@?$_Tree_nod@V?$_Tmap_traits@KPEAVThreadInfo@@U?$less@K@std@@V?$allocator@U?$pair@$$CBKPEAVThreadInfo@@@std@@@3@$0A@@std@@@2@XZ
xdata	ENDS
;	COMDAT xdata
xdata	SEGMENT
$handlerMap$0$?_Buynode@?$_Tree@V?$_Tmap_traits@KPEAVThreadInfo@@U?$less@K@std@@V?$allocator@U?$pair@$$CBKPEAVThreadInfo@@@std@@@3@$0A@@std@@@std@@IEAAPEAU_Node@?$_Tree_nod@V?$_Tmap_traits@KPEAVThreadInfo@@U?$less@K@std@@V?$allocator@U?$pair@$$CBKPEAVThreadInfo@@@std@@@3@$0A@@std@@@2@XZ DD 040H
	DD	00H
	DD	00H
	DD	imagerel ?catch$0@?0??_Buynode@?$_Tree@V?$_Tmap_traits@KPEAVThreadInfo@@U?$less@K@std@@V?$allocator@U?$pair@$$CBKPEAVThreadInfo@@@std@@@3@$0A@@std@@@std@@IEAAPEAU_Node@?$_Tree_nod@V?$_Tmap_traits@KPEAVThreadInfo@@U?$less@K@std@@V?$allocator@U?$pair@$$CBKPEAVThreadInfo@@@std@@@3@$0A@@std@@@2@XZ@4HA
	DD	038H
xdata	ENDS
;	COMDAT xdata
xdata	SEGMENT
$stateUnwindMap$?_Buynode@?$_Tree@V?$_Tmap_traits@KPEAVThreadInfo@@U?$less@K@std@@V?$allocator@U?$pair@$$CBKPEAVThreadInfo@@@std@@@3@$0A@@std@@@std@@IEAAPEAU_Node@?$_Tree_nod@V?$_Tmap_traits@KPEAVThreadInfo@@U?$less@K@std@@V?$allocator@U?$pair@$$CBKPEAVThreadInfo@@@std@@@3@$0A@@std@@@2@XZ DD 0ffffffffH
	DD	00H
	DD	0ffffffffH
	DD	00H
; Function compile flags: /Ogtpy
xdata	ENDS
;	COMDAT ?_Buynode@?$_Tree@V?$_Tmap_traits@KPEAVThreadInfo@@U?$less@K@std@@V?$allocator@U?$pair@$$CBKPEAVThreadInfo@@@std@@@3@$0A@@std@@@std@@IEAAPEAU_Node@?$_Tree_nod@V?$_Tmap_traits@KPEAVThreadInfo@@U?$less@K@std@@V?$allocator@U?$pair@$$CBKPEAVThreadInfo@@@std@@@3@$0A@@std@@@2@XZ
_TEXT	SEGMENT
$T148359 = 32
this$ = 64
_Wherenode$ = 72
?_Buynode@?$_Tree@V?$_Tmap_traits@KPEAVThreadInfo@@U?$less@K@std@@V?$allocator@U?$pair@$$CBKPEAVThreadInfo@@@std@@@3@$0A@@std@@@std@@IEAAPEAU_Node@?$_Tree_nod@V?$_Tmap_traits@KPEAVThreadInfo@@U?$less@K@std@@V?$allocator@U?$pair@$$CBKPEAVThreadInfo@@@std@@@3@$0A@@std@@@2@XZ PROC ; std::_Tree<std::_Tmap_traits<unsigned long,ThreadInfo * __ptr64,std::less<unsigned long>,std::allocator<std::pair<unsigned long const ,ThreadInfo * __ptr64> >,0> >::_Buynode, COMDAT

; 1383 : 		{	// allocate a head/nil node

$LN63:
	sub	rsp, 56					; 00000038H
	mov	QWORD PTR $T148359[rsp], -2

; 1384 : 		_Nodeptr _Wherenode = this->_Alnod.allocate(1);

	mov	ecx, 48					; 00000030H
	call	??2@YAPEAX_K@Z				; operator new
	mov	QWORD PTR _Wherenode$[rsp], rax

; 1385 : 		int _Linkcnt = 0;
; 1386 : 
; 1387 : 		_TRY_BEGIN
; 1388 : 		this->_Alptr.construct(&_Left(_Wherenode), 0);

	test	rax, rax
	je	SHORT $LN61@Buynode
	xor	ecx, ecx
	mov	QWORD PTR [rax], rcx
	jmp	SHORT $LN27@Buynode
$LN61@Buynode:
	xor	ecx, ecx
$LN27@Buynode:

; 1389 : 		++_Linkcnt;
; 1390 : 		this->_Alptr.construct(&_Parent(_Wherenode), 0);

	lea	rdx, QWORD PTR [rax+8]
	test	rdx, rdx
	je	SHORT $LN37@Buynode
	mov	QWORD PTR [rdx], rcx
$LN37@Buynode:

; 1391 : 		++_Linkcnt;
; 1392 : 		this->_Alptr.construct(&_Right(_Wherenode), 0);

	lea	rdx, QWORD PTR [rax+16]
	test	rdx, rdx
	je	SHORT $LN47@Buynode
	mov	QWORD PTR [rdx], rcx
$LN47@Buynode:

; 1393 : 		_CATCH_ALL
; 1394 : 		if (1 < _Linkcnt)
; 1395 : 			this->_Alptr.destroy(&_Parent(_Wherenode));
; 1396 : 		if (0 < _Linkcnt)
; 1397 : 			this->_Alptr.destroy(&_Left(_Wherenode));
; 1398 : 		this->_Alnod.deallocate(_Wherenode, 1);
; 1399 : 		_RERAISE;
; 1400 : 		_CATCH_END
; 1401 : 		_Color(_Wherenode) = _Black;

	mov	BYTE PTR [rax+40], 1

; 1402 : 		_Isnil(_Wherenode) = false;

	mov	BYTE PTR [rax+41], 0

; 1403 : 		return (_Wherenode);
; 1404 : 		}

	add	rsp, 56					; 00000038H
	ret	0
$LN62@Buynode:
?_Buynode@?$_Tree@V?$_Tmap_traits@KPEAVThreadInfo@@U?$less@K@std@@V?$allocator@U?$pair@$$CBKPEAVThreadInfo@@@std@@@3@$0A@@std@@@std@@IEAAPEAU_Node@?$_Tree_nod@V?$_Tmap_traits@KPEAVThreadInfo@@U?$less@K@std@@V?$allocator@U?$pair@$$CBKPEAVThreadInfo@@@std@@@3@$0A@@std@@@2@XZ ENDP ; std::_Tree<std::_Tmap_traits<unsigned long,ThreadInfo * __ptr64,std::less<unsigned long>,std::allocator<std::pair<unsigned long const ,ThreadInfo * __ptr64> >,0> >::_Buynode
; Function compile flags: /Ogtpy
_TEXT	ENDS
;	COMDAT text$x
text$x	SEGMENT
$T148359 = 32
this$ = 64
_Wherenode$ = 72
?catch$0@?0??_Buynode@?$_Tree@V?$_Tmap_traits@KPEAVThreadInfo@@U?$less@K@std@@V?$allocator@U?$pair@$$CBKPEAVThreadInfo@@@std@@@3@$0A@@std@@@std@@IEAAPEAU_Node@?$_Tree_nod@V?$_Tmap_traits@KPEAVThreadInfo@@U?$less@K@std@@V?$allocator@U?$pair@$$CBKPEAVThreadInfo@@@std@@@3@$0A@@std@@@2@XZ@4HA PROC ; `std::_Tree<std::_Tmap_traits<unsigned long,ThreadInfo * __ptr64,std::less<unsigned long>,std::allocator<std::pair<unsigned long const ,ThreadInfo * __ptr64> >,0> >::_Buynode'::`1'::catch$0

; 1393 : 		_CATCH_ALL

	mov	QWORD PTR [rsp+16], rdx
	push	rbp
	sub	rsp, 32					; 00000020H
	mov	rbp, rdx
__catch$?_Buynode@?$_Tree@V?$_Tmap_traits@KPEAVThreadInfo@@U?$less@K@std@@V?$allocator@U?$pair@$$CBKPEAVThreadInfo@@@std@@@3@$0A@@std@@@std@@IEAAPEAU_Node@?$_Tree_nod@V?$_Tmap_traits@KPEAVThreadInfo@@U?$less@K@std@@V?$allocator@U?$pair@$$CBKPEAVThreadInfo@@@std@@@3@$0A@@std@@@2@XZ$0:

; 1394 : 		if (1 < _Linkcnt)
; 1395 : 			this->_Alptr.destroy(&_Parent(_Wherenode));
; 1396 : 		if (0 < _Linkcnt)
; 1397 : 			this->_Alptr.destroy(&_Left(_Wherenode));
; 1398 : 		this->_Alnod.deallocate(_Wherenode, 1);

	mov	rcx, QWORD PTR _Wherenode$[rbp]
	call	??3@YAXPEAX@Z				; operator delete

; 1399 : 		_RERAISE;

	xor	edx, edx
	xor	ecx, ecx
	call	_CxxThrowException
	npad	1
	add	rsp, 32					; 00000020H
	pop	rbp
	ret	0
	int	3
?catch$0@?0??_Buynode@?$_Tree@V?$_Tmap_traits@KPEAVThreadInfo@@U?$less@K@std@@V?$allocator@U?$pair@$$CBKPEAVThreadInfo@@@std@@@3@$0A@@std@@@std@@IEAAPEAU_Node@?$_Tree_nod@V?$_Tmap_traits@KPEAVThreadInfo@@U?$less@K@std@@V?$allocator@U?$pair@$$CBKPEAVThreadInfo@@@std@@@3@$0A@@std@@@2@XZ@4HA ENDP ; `std::_Tree<std::_Tmap_traits<unsigned long,ThreadInfo * __ptr64,std::less<unsigned long>,std::allocator<std::pair<unsigned long const ,ThreadInfo * __ptr64> >,0> >::_Buynode'::`1'::catch$0
text$x	ENDS
;	COMDAT pdata
; File c:\program files\microsoft visual studio 9.0\vc\include\exception
pdata	SEGMENT
$pdata$?allocate@?$allocator@U_Node@?$_Tree_nod@V?$_Tmap_traits@_KPEAVThreadInfo@@U?$less@_K@std@@V?$allocator@U?$pair@$$CB_KPEAVThreadInfo@@@std@@@3@$0A@@std@@@std@@@std@@QEAAPEAU_Node@?$_Tree_nod@V?$_Tmap_traits@_KPEAVThreadInfo@@U?$less@_K@std@@V?$allocator@U?$pair@$$CB_KPEAVThreadInfo@@@std@@@3@$0A@@std@@@2@_K@Z DD imagerel $LN11
	DD	imagerel $LN11+19
	DD	imagerel $unwind$?allocate@?$allocator@U_Node@?$_Tree_nod@V?$_Tmap_traits@_KPEAVThreadInfo@@U?$less@_K@std@@V?$allocator@U?$pair@$$CB_KPEAVThreadInfo@@@std@@@3@$0A@@std@@@std@@@std@@QEAAPEAU_Node@?$_Tree_nod@V?$_Tmap_traits@_KPEAVThreadInfo@@U?$less@_K@std@@V?$allocator@U?$pair@$$CB_KPEAVThreadInfo@@@std@@@3@$0A@@std@@@2@_K@Z
pdata	ENDS
;	COMDAT xdata
xdata	SEGMENT
$unwind$?allocate@?$allocator@U_Node@?$_Tree_nod@V?$_Tmap_traits@_KPEAVThreadInfo@@U?$less@_K@std@@V?$allocator@U?$pair@$$CB_KPEAVThreadInfo@@@std@@@3@$0A@@std@@@std@@@std@@QEAAPEAU_Node@?$_Tree_nod@V?$_Tmap_traits@_KPEAVThreadInfo@@U?$less@_K@std@@V?$allocator@U?$pair@$$CB_KPEAVThreadInfo@@@std@@@3@$0A@@std@@@2@_K@Z DD 010401H
	DD	04204H
; Function compile flags: /Ogtpy
; File c:\program files\microsoft visual studio 9.0\vc\include\xmemory
xdata	ENDS
;	COMDAT ?allocate@?$allocator@U_Node@?$_Tree_nod@V?$_Tmap_traits@_KPEAVThreadInfo@@U?$less@_K@std@@V?$allocator@U?$pair@$$CB_KPEAVThreadInfo@@@std@@@3@$0A@@std@@@std@@@std@@QEAAPEAU_Node@?$_Tree_nod@V?$_Tmap_traits@_KPEAVThreadInfo@@U?$less@_K@std@@V?$allocator@U?$pair@$$CB_KPEAVThreadInfo@@@std@@@3@$0A@@std@@@2@_K@Z
_TEXT	SEGMENT
this$ = 48
_Count$ = 56
?allocate@?$allocator@U_Node@?$_Tree_nod@V?$_Tmap_traits@_KPEAVThreadInfo@@U?$less@_K@std@@V?$allocator@U?$pair@$$CB_KPEAVThreadInfo@@@std@@@3@$0A@@std@@@std@@@std@@QEAAPEAU_Node@?$_Tree_nod@V?$_Tmap_traits@_KPEAVThreadInfo@@U?$less@_K@std@@V?$allocator@U?$pair@$$CB_KPEAVThreadInfo@@@std@@@3@$0A@@std@@@2@_K@Z PROC ; std::allocator<std::_Tree_nod<std::_Tmap_traits<unsigned __int64,ThreadInfo * __ptr64,std::less<unsigned __int64>,std::allocator<std::pair<unsigned __int64 const ,ThreadInfo * __ptr64> >,0> >::_Node>::allocate, COMDAT

; 144  : 		{	// allocate array of _Count elements

$LN11:
	sub	rsp, 40					; 00000028H

; 145  : 		return (_Allocate(_Count, (pointer)0));

	mov	ecx, 48					; 00000030H
	call	??2@YAPEAX_K@Z				; operator new

; 146  : 		}

	add	rsp, 40					; 00000028H
	ret	0
?allocate@?$allocator@U_Node@?$_Tree_nod@V?$_Tmap_traits@_KPEAVThreadInfo@@U?$less@_K@std@@V?$allocator@U?$pair@$$CB_KPEAVThreadInfo@@@std@@@3@$0A@@std@@@std@@@std@@QEAAPEAU_Node@?$_Tree_nod@V?$_Tmap_traits@_KPEAVThreadInfo@@U?$less@_K@std@@V?$allocator@U?$pair@$$CB_KPEAVThreadInfo@@@std@@@3@$0A@@std@@@2@_K@Z ENDP ; std::allocator<std::_Tree_nod<std::_Tmap_traits<unsigned __int64,ThreadInfo * __ptr64,std::less<unsigned __int64>,std::allocator<std::pair<unsigned __int64 const ,ThreadInfo * __ptr64> >,0> >::_Node>::allocate
_TEXT	ENDS
;	COMDAT pdata
; File c:\program files\microsoft visual studio 9.0\vc\include\xtree
pdata	SEGMENT
$pdata$?_Buynode@?$_Tree@V?$_Tmap_traits@_KPEAVThreadInfo@@U?$less@_K@std@@V?$allocator@U?$pair@$$CB_KPEAVThreadInfo@@@std@@@3@$0A@@std@@@std@@IEAAPEAU_Node@?$_Tree_nod@V?$_Tmap_traits@_KPEAVThreadInfo@@U?$less@_K@std@@V?$allocator@U?$pair@$$CB_KPEAVThreadInfo@@@std@@@3@$0A@@std@@@2@XZ DD imagerel $LN63
	DD	imagerel $LN63+79
	DD	imagerel $unwind$?_Buynode@?$_Tree@V?$_Tmap_traits@_KPEAVThreadInfo@@U?$less@_K@std@@V?$allocator@U?$pair@$$CB_KPEAVThreadInfo@@@std@@@3@$0A@@std@@@std@@IEAAPEAU_Node@?$_Tree_nod@V?$_Tmap_traits@_KPEAVThreadInfo@@U?$less@_K@std@@V?$allocator@U?$pair@$$CB_KPEAVThreadInfo@@@std@@@3@$0A@@std@@@2@XZ
pdata	ENDS
;	COMDAT pdata
pdata	SEGMENT
$pdata$?catch$0@?0??_Buynode@?$_Tree@V?$_Tmap_traits@_KPEAVThreadInfo@@U?$less@_K@std@@V?$allocator@U?$pair@$$CB_KPEAVThreadInfo@@@std@@@3@$0A@@std@@@std@@IEAAPEAU_Node@?$_Tree_nod@V?$_Tmap_traits@_KPEAVThreadInfo@@U?$less@_K@std@@V?$allocator@U?$pair@$$CB_KPEAVThreadInfo@@@std@@@3@$0A@@std@@@2@XZ@4HA DD imagerel ?catch$0@?0??_Buynode@?$_Tree@V?$_Tmap_traits@_KPEAVThreadInfo@@U?$less@_K@std@@V?$allocator@U?$pair@$$CB_KPEAVThreadInfo@@@std@@@3@$0A@@std@@@std@@IEAAPEAU_Node@?$_Tree_nod@V?$_Tmap_traits@_KPEAVThreadInfo@@U?$less@_K@std@@V?$allocator@U?$pair@$$CB_KPEAVThreadInfo@@@std@@@3@$0A@@std@@@2@XZ@4HA
	DD	imagerel ?catch$0@?0??_Buynode@?$_Tree@V?$_Tmap_traits@_KPEAVThreadInfo@@U?$less@_K@std@@V?$allocator@U?$pair@$$CB_KPEAVThreadInfo@@@std@@@3@$0A@@std@@@std@@IEAAPEAU_Node@?$_Tree_nod@V?$_Tmap_traits@_KPEAVThreadInfo@@U?$less@_K@std@@V?$allocator@U?$pair@$$CB_KPEAVThreadInfo@@@std@@@3@$0A@@std@@@2@XZ@4HA+39
	DD	imagerel $unwind$?catch$0@?0??_Buynode@?$_Tree@V?$_Tmap_traits@_KPEAVThreadInfo@@U?$less@_K@std@@V?$allocator@U?$pair@$$CB_KPEAVThreadInfo@@@std@@@3@$0A@@std@@@std@@IEAAPEAU_Node@?$_Tree_nod@V?$_Tmap_traits@_KPEAVThreadInfo@@U?$less@_K@std@@V?$allocator@U?$pair@$$CB_KPEAVThreadInfo@@@std@@@3@$0A@@std@@@2@XZ@4HA
pdata	ENDS
;	COMDAT xdata
xdata	SEGMENT
$ip2state$?_Buynode@?$_Tree@V?$_Tmap_traits@_KPEAVThreadInfo@@U?$less@_K@std@@V?$allocator@U?$pair@$$CB_KPEAVThreadInfo@@@std@@@3@$0A@@std@@@std@@IEAAPEAU_Node@?$_Tree_nod@V?$_Tmap_traits@_KPEAVThreadInfo@@U?$less@_K@std@@V?$allocator@U?$pair@$$CB_KPEAVThreadInfo@@@std@@@3@$0A@@std@@@2@XZ DD imagerel ?_Buynode@?$_Tree@V?$_Tmap_traits@_KPEAVThreadInfo@@U?$less@_K@std@@V?$allocator@U?$pair@$$CB_KPEAVThreadInfo@@@std@@@3@$0A@@std@@@std@@IEAAPEAU_Node@?$_Tree_nod@V?$_Tmap_traits@_KPEAVThreadInfo@@U?$less@_K@std@@V?$allocator@U?$pair@$$CB_KPEAVThreadInfo@@@std@@@3@$0A@@std@@@2@XZ
	DD	0ffffffffH
	DD	imagerel ?_Buynode@?$_Tree@V?$_Tmap_traits@_KPEAVThreadInfo@@U?$less@_K@std@@V?$allocator@U?$pair@$$CB_KPEAVThreadInfo@@@std@@@3@$0A@@std@@@std@@IEAAPEAU_Node@?$_Tree_nod@V?$_Tmap_traits@_KPEAVThreadInfo@@U?$less@_K@std@@V?$allocator@U?$pair@$$CB_KPEAVThreadInfo@@@std@@@3@$0A@@std@@@2@XZ+28
	DD	00H
	DD	imagerel ?_Buynode@?$_Tree@V?$_Tmap_traits@_KPEAVThreadInfo@@U?$less@_K@std@@V?$allocator@U?$pair@$$CB_KPEAVThreadInfo@@@std@@@3@$0A@@std@@@std@@IEAAPEAU_Node@?$_Tree_nod@V?$_Tmap_traits@_KPEAVThreadInfo@@U?$less@_K@std@@V?$allocator@U?$pair@$$CB_KPEAVThreadInfo@@@std@@@3@$0A@@std@@@2@XZ+66
	DD	0ffffffffH
	DD	imagerel ?catch$0@?0??_Buynode@?$_Tree@V?$_Tmap_traits@_KPEAVThreadInfo@@U?$less@_K@std@@V?$allocator@U?$pair@$$CB_KPEAVThreadInfo@@@std@@@3@$0A@@std@@@std@@IEAAPEAU_Node@?$_Tree_nod@V?$_Tmap_traits@_KPEAVThreadInfo@@U?$less@_K@std@@V?$allocator@U?$pair@$$CB_KPEAVThreadInfo@@@std@@@3@$0A@@std@@@2@XZ@4HA
	DD	00H
	DD	imagerel ?catch$0@?0??_Buynode@?$_Tree@V?$_Tmap_traits@_KPEAVThreadInfo@@U?$less@_K@std@@V?$allocator@U?$pair@$$CB_KPEAVThreadInfo@@@std@@@3@$0A@@std@@@std@@IEAAPEAU_Node@?$_Tree_nod@V?$_Tmap_traits@_KPEAVThreadInfo@@U?$less@_K@std@@V?$allocator@U?$pair@$$CB_KPEAVThreadInfo@@@std@@@3@$0A@@std@@@2@XZ@4HA+13
	DD	01H
	DD	imagerel ?catch$0@?0??_Buynode@?$_Tree@V?$_Tmap_traits@_KPEAVThreadInfo@@U?$less@_K@std@@V?$allocator@U?$pair@$$CB_KPEAVThreadInfo@@@std@@@3@$0A@@std@@@std@@IEAAPEAU_Node@?$_Tree_nod@V?$_Tmap_traits@_KPEAVThreadInfo@@U?$less@_K@std@@V?$allocator@U?$pair@$$CB_KPEAVThreadInfo@@@std@@@3@$0A@@std@@@2@XZ@4HA+32
	DD	00H
xdata	ENDS
;	COMDAT xdata
xdata	SEGMENT
$unwind$?catch$0@?0??_Buynode@?$_Tree@V?$_Tmap_traits@_KPEAVThreadInfo@@U?$less@_K@std@@V?$allocator@U?$pair@$$CB_KPEAVThreadInfo@@@std@@@3@$0A@@std@@@std@@IEAAPEAU_Node@?$_Tree_nod@V?$_Tmap_traits@_KPEAVThreadInfo@@U?$less@_K@std@@V?$allocator@U?$pair@$$CB_KPEAVThreadInfo@@@std@@@3@$0A@@std@@@2@XZ@4HA DD 020a19H
	DD	05006320aH
	DD	imagerel __CxxFrameHandler3
	DD	imagerel $cppxdata$?_Buynode@?$_Tree@V?$_Tmap_traits@_KPEAVThreadInfo@@U?$less@_K@std@@V?$allocator@U?$pair@$$CB_KPEAVThreadInfo@@@std@@@3@$0A@@std@@@std@@IEAAPEAU_Node@?$_Tree_nod@V?$_Tmap_traits@_KPEAVThreadInfo@@U?$less@_K@std@@V?$allocator@U?$pair@$$CB_KPEAVThreadInfo@@@std@@@3@$0A@@std@@@2@XZ
xdata	ENDS
;	COMDAT xdata
xdata	SEGMENT
$unwind$?_Buynode@?$_Tree@V?$_Tmap_traits@_KPEAVThreadInfo@@U?$less@_K@std@@V?$allocator@U?$pair@$$CB_KPEAVThreadInfo@@@std@@@3@$0A@@std@@@std@@IEAAPEAU_Node@?$_Tree_nod@V?$_Tmap_traits@_KPEAVThreadInfo@@U?$less@_K@std@@V?$allocator@U?$pair@$$CB_KPEAVThreadInfo@@@std@@@3@$0A@@std@@@2@XZ DD 010d19H
	DD	06204H
	DD	imagerel __CxxFrameHandler3
	DD	imagerel $cppxdata$?_Buynode@?$_Tree@V?$_Tmap_traits@_KPEAVThreadInfo@@U?$less@_K@std@@V?$allocator@U?$pair@$$CB_KPEAVThreadInfo@@@std@@@3@$0A@@std@@@std@@IEAAPEAU_Node@?$_Tree_nod@V?$_Tmap_traits@_KPEAVThreadInfo@@U?$less@_K@std@@V?$allocator@U?$pair@$$CB_KPEAVThreadInfo@@@std@@@3@$0A@@std@@@2@XZ
xdata	ENDS
;	COMDAT CONST
CONST	SEGMENT
$cppxdata$?_Buynode@?$_Tree@V?$_Tmap_traits@_KPEAVThreadInfo@@U?$less@_K@std@@V?$allocator@U?$pair@$$CB_KPEAVThreadInfo@@@std@@@3@$0A@@std@@@std@@IEAAPEAU_Node@?$_Tree_nod@V?$_Tmap_traits@_KPEAVThreadInfo@@U?$less@_K@std@@V?$allocator@U?$pair@$$CB_KPEAVThreadInfo@@@std@@@3@$0A@@std@@@2@XZ DD 019930522H
	DD	02H
	DD	imagerel $stateUnwindMap$?_Buynode@?$_Tree@V?$_Tmap_traits@_KPEAVThreadInfo@@U?$less@_K@std@@V?$allocator@U?$pair@$$CB_KPEAVThreadInfo@@@std@@@3@$0A@@std@@@std@@IEAAPEAU_Node@?$_Tree_nod@V?$_Tmap_traits@_KPEAVThreadInfo@@U?$less@_K@std@@V?$allocator@U?$pair@$$CB_KPEAVThreadInfo@@@std@@@3@$0A@@std@@@2@XZ
	DD	01H
	DD	imagerel $tryMap$?_Buynode@?$_Tree@V?$_Tmap_traits@_KPEAVThreadInfo@@U?$less@_K@std@@V?$allocator@U?$pair@$$CB_KPEAVThreadInfo@@@std@@@3@$0A@@std@@@std@@IEAAPEAU_Node@?$_Tree_nod@V?$_Tmap_traits@_KPEAVThreadInfo@@U?$less@_K@std@@V?$allocator@U?$pair@$$CB_KPEAVThreadInfo@@@std@@@3@$0A@@std@@@2@XZ
	DD	06H
	DD	imagerel $ip2state$?_Buynode@?$_Tree@V?$_Tmap_traits@_KPEAVThreadInfo@@U?$less@_K@std@@V?$allocator@U?$pair@$$CB_KPEAVThreadInfo@@@std@@@3@$0A@@std@@@std@@IEAAPEAU_Node@?$_Tree_nod@V?$_Tmap_traits@_KPEAVThreadInfo@@U?$less@_K@std@@V?$allocator@U?$pair@$$CB_KPEAVThreadInfo@@@std@@@3@$0A@@std@@@2@XZ
	DD	020H
	DD	00H
	DD	01H
CONST	ENDS
;	COMDAT xdata
xdata	SEGMENT
$tryMap$?_Buynode@?$_Tree@V?$_Tmap_traits@_KPEAVThreadInfo@@U?$less@_K@std@@V?$allocator@U?$pair@$$CB_KPEAVThreadInfo@@@std@@@3@$0A@@std@@@std@@IEAAPEAU_Node@?$_Tree_nod@V?$_Tmap_traits@_KPEAVThreadInfo@@U?$less@_K@std@@V?$allocator@U?$pair@$$CB_KPEAVThreadInfo@@@std@@@3@$0A@@std@@@2@XZ DD 00H
	DD	00H
	DD	01H
	DD	01H
	DD	imagerel $handlerMap$0$?_Buynode@?$_Tree@V?$_Tmap_traits@_KPEAVThreadInfo@@U?$less@_K@std@@V?$allocator@U?$pair@$$CB_KPEAVThreadInfo@@@std@@@3@$0A@@std@@@std@@IEAAPEAU_Node@?$_Tree_nod@V?$_Tmap_traits@_KPEAVThreadInfo@@U?$less@_K@std@@V?$allocator@U?$pair@$$CB_KPEAVThreadInfo@@@std@@@3@$0A@@std@@@2@XZ
xdata	ENDS
;	COMDAT xdata
xdata	SEGMENT
$handlerMap$0$?_Buynode@?$_Tree@V?$_Tmap_traits@_KPEAVThreadInfo@@U?$less@_K@std@@V?$allocator@U?$pair@$$CB_KPEAVThreadInfo@@@std@@@3@$0A@@std@@@std@@IEAAPEAU_Node@?$_Tree_nod@V?$_Tmap_traits@_KPEAVThreadInfo@@U?$less@_K@std@@V?$allocator@U?$pair@$$CB_KPEAVThreadInfo@@@std@@@3@$0A@@std@@@2@XZ DD 040H
	DD	00H
	DD	00H
	DD	imagerel ?catch$0@?0??_Buynode@?$_Tree@V?$_Tmap_traits@_KPEAVThreadInfo@@U?$less@_K@std@@V?$allocator@U?$pair@$$CB_KPEAVThreadInfo@@@std@@@3@$0A@@std@@@std@@IEAAPEAU_Node@?$_Tree_nod@V?$_Tmap_traits@_KPEAVThreadInfo@@U?$less@_K@std@@V?$allocator@U?$pair@$$CB_KPEAVThreadInfo@@@std@@@3@$0A@@std@@@2@XZ@4HA
	DD	038H
xdata	ENDS
;	COMDAT xdata
xdata	SEGMENT
$stateUnwindMap$?_Buynode@?$_Tree@V?$_Tmap_traits@_KPEAVThreadInfo@@U?$less@_K@std@@V?$allocator@U?$pair@$$CB_KPEAVThreadInfo@@@std@@@3@$0A@@std@@@std@@IEAAPEAU_Node@?$_Tree_nod@V?$_Tmap_traits@_KPEAVThreadInfo@@U?$less@_K@std@@V?$allocator@U?$pair@$$CB_KPEAVThreadInfo@@@std@@@3@$0A@@std@@@2@XZ DD 0ffffffffH
	DD	00H
	DD	0ffffffffH
	DD	00H
; Function compile flags: /Ogtpy
xdata	ENDS
;	COMDAT ?_Buynode@?$_Tree@V?$_Tmap_traits@_KPEAVThreadInfo@@U?$less@_K@std@@V?$allocator@U?$pair@$$CB_KPEAVThreadInfo@@@std@@@3@$0A@@std@@@std@@IEAAPEAU_Node@?$_Tree_nod@V?$_Tmap_traits@_KPEAVThreadInfo@@U?$less@_K@std@@V?$allocator@U?$pair@$$CB_KPEAVThreadInfo@@@std@@@3@$0A@@std@@@2@XZ
_TEXT	SEGMENT
$T148557 = 32
this$ = 64
_Wherenode$ = 72
?_Buynode@?$_Tree@V?$_Tmap_traits@_KPEAVThreadInfo@@U?$less@_K@std@@V?$allocator@U?$pair@$$CB_KPEAVThreadInfo@@@std@@@3@$0A@@std@@@std@@IEAAPEAU_Node@?$_Tree_nod@V?$_Tmap_traits@_KPEAVThreadInfo@@U?$less@_K@std@@V?$allocator@U?$pair@$$CB_KPEAVThreadInfo@@@std@@@3@$0A@@std@@@2@XZ PROC ; std::_Tree<std::_Tmap_traits<unsigned __int64,ThreadInfo * __ptr64,std::less<unsigned __int64>,std::allocator<std::pair<unsigned __int64 const ,ThreadInfo * __ptr64> >,0> >::_Buynode, COMDAT

; 1383 : 		{	// allocate a head/nil node

$LN63:
	sub	rsp, 56					; 00000038H
	mov	QWORD PTR $T148557[rsp], -2

; 1384 : 		_Nodeptr _Wherenode = this->_Alnod.allocate(1);

	mov	ecx, 48					; 00000030H
	call	??2@YAPEAX_K@Z				; operator new
	mov	QWORD PTR _Wherenode$[rsp], rax

; 1385 : 		int _Linkcnt = 0;
; 1386 : 
; 1387 : 		_TRY_BEGIN
; 1388 : 		this->_Alptr.construct(&_Left(_Wherenode), 0);

	test	rax, rax
	je	SHORT $LN61@Buynode@2
	xor	ecx, ecx
	mov	QWORD PTR [rax], rcx
	jmp	SHORT $LN27@Buynode@2
$LN61@Buynode@2:
	xor	ecx, ecx
$LN27@Buynode@2:

; 1389 : 		++_Linkcnt;
; 1390 : 		this->_Alptr.construct(&_Parent(_Wherenode), 0);

	lea	rdx, QWORD PTR [rax+8]
	test	rdx, rdx
	je	SHORT $LN37@Buynode@2
	mov	QWORD PTR [rdx], rcx
$LN37@Buynode@2:

; 1391 : 		++_Linkcnt;
; 1392 : 		this->_Alptr.construct(&_Right(_Wherenode), 0);

	lea	rdx, QWORD PTR [rax+16]
	test	rdx, rdx
	je	SHORT $LN47@Buynode@2
	mov	QWORD PTR [rdx], rcx
$LN47@Buynode@2:

; 1393 : 		_CATCH_ALL
; 1394 : 		if (1 < _Linkcnt)
; 1395 : 			this->_Alptr.destroy(&_Parent(_Wherenode));
; 1396 : 		if (0 < _Linkcnt)
; 1397 : 			this->_Alptr.destroy(&_Left(_Wherenode));
; 1398 : 		this->_Alnod.deallocate(_Wherenode, 1);
; 1399 : 		_RERAISE;
; 1400 : 		_CATCH_END
; 1401 : 		_Color(_Wherenode) = _Black;

	mov	BYTE PTR [rax+40], 1

; 1402 : 		_Isnil(_Wherenode) = false;

	mov	BYTE PTR [rax+41], 0

; 1403 : 		return (_Wherenode);
; 1404 : 		}

	add	rsp, 56					; 00000038H
	ret	0
$LN62@Buynode@2:
?_Buynode@?$_Tree@V?$_Tmap_traits@_KPEAVThreadInfo@@U?$less@_K@std@@V?$allocator@U?$pair@$$CB_KPEAVThreadInfo@@@std@@@3@$0A@@std@@@std@@IEAAPEAU_Node@?$_Tree_nod@V?$_Tmap_traits@_KPEAVThreadInfo@@U?$less@_K@std@@V?$allocator@U?$pair@$$CB_KPEAVThreadInfo@@@std@@@3@$0A@@std@@@2@XZ ENDP ; std::_Tree<std::_Tmap_traits<unsigned __int64,ThreadInfo * __ptr64,std::less<unsigned __int64>,std::allocator<std::pair<unsigned __int64 const ,ThreadInfo * __ptr64> >,0> >::_Buynode
; Function compile flags: /Ogtpy
_TEXT	ENDS
;	COMDAT text$x
text$x	SEGMENT
$T148557 = 32
this$ = 64
_Wherenode$ = 72
?catch$0@?0??_Buynode@?$_Tree@V?$_Tmap_traits@_KPEAVThreadInfo@@U?$less@_K@std@@V?$allocator@U?$pair@$$CB_KPEAVThreadInfo@@@std@@@3@$0A@@std@@@std@@IEAAPEAU_Node@?$_Tree_nod@V?$_Tmap_traits@_KPEAVThreadInfo@@U?$less@_K@std@@V?$allocator@U?$pair@$$CB_KPEAVThreadInfo@@@std@@@3@$0A@@std@@@2@XZ@4HA PROC ; `std::_Tree<std::_Tmap_traits<unsigned __int64,ThreadInfo * __ptr64,std::less<unsigned __int64>,std::allocator<std::pair<unsigned __int64 const ,ThreadInfo * __ptr64> >,0> >::_Buynode'::`1'::catch$0

; 1393 : 		_CATCH_ALL

	mov	QWORD PTR [rsp+16], rdx
	push	rbp
	sub	rsp, 32					; 00000020H
	mov	rbp, rdx
__catch$?_Buynode@?$_Tree@V?$_Tmap_traits@_KPEAVThreadInfo@@U?$less@_K@std@@V?$allocator@U?$pair@$$CB_KPEAVThreadInfo@@@std@@@3@$0A@@std@@@std@@IEAAPEAU_Node@?$_Tree_nod@V?$_Tmap_traits@_KPEAVThreadInfo@@U?$less@_K@std@@V?$allocator@U?$pair@$$CB_KPEAVThreadInfo@@@std@@@3@$0A@@std@@@2@XZ$0:

; 1394 : 		if (1 < _Linkcnt)
; 1395 : 			this->_Alptr.destroy(&_Parent(_Wherenode));
; 1396 : 		if (0 < _Linkcnt)
; 1397 : 			this->_Alptr.destroy(&_Left(_Wherenode));
; 1398 : 		this->_Alnod.deallocate(_Wherenode, 1);

	mov	rcx, QWORD PTR _Wherenode$[rbp]
	call	??3@YAXPEAX@Z				; operator delete

; 1399 : 		_RERAISE;

	xor	edx, edx
	xor	ecx, ecx
	call	_CxxThrowException
	npad	1
	add	rsp, 32					; 00000020H
	pop	rbp
	ret	0
	int	3
?catch$0@?0??_Buynode@?$_Tree@V?$_Tmap_traits@_KPEAVThreadInfo@@U?$less@_K@std@@V?$allocator@U?$pair@$$CB_KPEAVThreadInfo@@@std@@@3@$0A@@std@@@std@@IEAAPEAU_Node@?$_Tree_nod@V?$_Tmap_traits@_KPEAVThreadInfo@@U?$less@_K@std@@V?$allocator@U?$pair@$$CB_KPEAVThreadInfo@@@std@@@3@$0A@@std@@@2@XZ@4HA ENDP ; `std::_Tree<std::_Tmap_traits<unsigned __int64,ThreadInfo * __ptr64,std::less<unsigned __int64>,std::allocator<std::pair<unsigned __int64 const ,ThreadInfo * __ptr64> >,0> >::_Buynode'::`1'::catch$0
text$x	ENDS
;	COMDAT pdata
; File c:\program files\microsoft visual studio 9.0\vc\include\exception
pdata	SEGMENT
$pdata$?allocate@?$allocator@U_Node@?$_Tree_nod@V?$_Tmap_traits@_KHU?$less@_K@std@@V?$allocator@U?$pair@$$CB_KH@std@@@2@$0A@@std@@@std@@@std@@QEAAPEAU_Node@?$_Tree_nod@V?$_Tmap_traits@_KHU?$less@_K@std@@V?$allocator@U?$pair@$$CB_KH@std@@@2@$0A@@std@@@2@_K@Z DD imagerel $LN11
	DD	imagerel $LN11+19
	DD	imagerel $unwind$?allocate@?$allocator@U_Node@?$_Tree_nod@V?$_Tmap_traits@_KHU?$less@_K@std@@V?$allocator@U?$pair@$$CB_KH@std@@@2@$0A@@std@@@std@@@std@@QEAAPEAU_Node@?$_Tree_nod@V?$_Tmap_traits@_KHU?$less@_K@std@@V?$allocator@U?$pair@$$CB_KH@std@@@2@$0A@@std@@@2@_K@Z
pdata	ENDS
;	COMDAT xdata
xdata	SEGMENT
$unwind$?allocate@?$allocator@U_Node@?$_Tree_nod@V?$_Tmap_traits@_KHU?$less@_K@std@@V?$allocator@U?$pair@$$CB_KH@std@@@2@$0A@@std@@@std@@@std@@QEAAPEAU_Node@?$_Tree_nod@V?$_Tmap_traits@_KHU?$less@_K@std@@V?$allocator@U?$pair@$$CB_KH@std@@@2@$0A@@std@@@2@_K@Z DD 010401H
	DD	04204H
; Function compile flags: /Ogtpy
; File c:\program files\microsoft visual studio 9.0\vc\include\xmemory
xdata	ENDS
;	COMDAT ?allocate@?$allocator@U_Node@?$_Tree_nod@V?$_Tmap_traits@_KHU?$less@_K@std@@V?$allocator@U?$pair@$$CB_KH@std@@@2@$0A@@std@@@std@@@std@@QEAAPEAU_Node@?$_Tree_nod@V?$_Tmap_traits@_KHU?$less@_K@std@@V?$allocator@U?$pair@$$CB_KH@std@@@2@$0A@@std@@@2@_K@Z
_TEXT	SEGMENT
this$ = 48
_Count$ = 56
?allocate@?$allocator@U_Node@?$_Tree_nod@V?$_Tmap_traits@_KHU?$less@_K@std@@V?$allocator@U?$pair@$$CB_KH@std@@@2@$0A@@std@@@std@@@std@@QEAAPEAU_Node@?$_Tree_nod@V?$_Tmap_traits@_KHU?$less@_K@std@@V?$allocator@U?$pair@$$CB_KH@std@@@2@$0A@@std@@@2@_K@Z PROC ; std::allocator<std::_Tree_nod<std::_Tmap_traits<unsigned __int64,int,std::less<unsigned __int64>,std::allocator<std::pair<unsigned __int64 const ,int> >,0> >::_Node>::allocate, COMDAT

; 144  : 		{	// allocate array of _Count elements

$LN11:
	sub	rsp, 40					; 00000028H

; 145  : 		return (_Allocate(_Count, (pointer)0));

	mov	ecx, 48					; 00000030H
	call	??2@YAPEAX_K@Z				; operator new

; 146  : 		}

	add	rsp, 40					; 00000028H
	ret	0
?allocate@?$allocator@U_Node@?$_Tree_nod@V?$_Tmap_traits@_KHU?$less@_K@std@@V?$allocator@U?$pair@$$CB_KH@std@@@2@$0A@@std@@@std@@@std@@QEAAPEAU_Node@?$_Tree_nod@V?$_Tmap_traits@_KHU?$less@_K@std@@V?$allocator@U?$pair@$$CB_KH@std@@@2@$0A@@std@@@2@_K@Z ENDP ; std::allocator<std::_Tree_nod<std::_Tmap_traits<unsigned __int64,int,std::less<unsigned __int64>,std::allocator<std::pair<unsigned __int64 const ,int> >,0> >::_Node>::allocate
_TEXT	ENDS
;	COMDAT pdata
; File c:\program files\microsoft visual studio 9.0\vc\include\xtree
pdata	SEGMENT
$pdata$?_Buynode@?$_Tree@V?$_Tmap_traits@_KHU?$less@_K@std@@V?$allocator@U?$pair@$$CB_KH@std@@@2@$0A@@std@@@std@@IEAAPEAU_Node@?$_Tree_nod@V?$_Tmap_traits@_KHU?$less@_K@std@@V?$allocator@U?$pair@$$CB_KH@std@@@2@$0A@@std@@@2@XZ DD imagerel $LN63
	DD	imagerel $LN63+79
	DD	imagerel $unwind$?_Buynode@?$_Tree@V?$_Tmap_traits@_KHU?$less@_K@std@@V?$allocator@U?$pair@$$CB_KH@std@@@2@$0A@@std@@@std@@IEAAPEAU_Node@?$_Tree_nod@V?$_Tmap_traits@_KHU?$less@_K@std@@V?$allocator@U?$pair@$$CB_KH@std@@@2@$0A@@std@@@2@XZ
pdata	ENDS
;	COMDAT pdata
pdata	SEGMENT
$pdata$?catch$0@?0??_Buynode@?$_Tree@V?$_Tmap_traits@_KHU?$less@_K@std@@V?$allocator@U?$pair@$$CB_KH@std@@@2@$0A@@std@@@std@@IEAAPEAU_Node@?$_Tree_nod@V?$_Tmap_traits@_KHU?$less@_K@std@@V?$allocator@U?$pair@$$CB_KH@std@@@2@$0A@@std@@@2@XZ@4HA DD imagerel ?catch$0@?0??_Buynode@?$_Tree@V?$_Tmap_traits@_KHU?$less@_K@std@@V?$allocator@U?$pair@$$CB_KH@std@@@2@$0A@@std@@@std@@IEAAPEAU_Node@?$_Tree_nod@V?$_Tmap_traits@_KHU?$less@_K@std@@V?$allocator@U?$pair@$$CB_KH@std@@@2@$0A@@std@@@2@XZ@4HA
	DD	imagerel ?catch$0@?0??_Buynode@?$_Tree@V?$_Tmap_traits@_KHU?$less@_K@std@@V?$allocator@U?$pair@$$CB_KH@std@@@2@$0A@@std@@@std@@IEAAPEAU_Node@?$_Tree_nod@V?$_Tmap_traits@_KHU?$less@_K@std@@V?$allocator@U?$pair@$$CB_KH@std@@@2@$0A@@std@@@2@XZ@4HA+39
	DD	imagerel $unwind$?catch$0@?0??_Buynode@?$_Tree@V?$_Tmap_traits@_KHU?$less@_K@std@@V?$allocator@U?$pair@$$CB_KH@std@@@2@$0A@@std@@@std@@IEAAPEAU_Node@?$_Tree_nod@V?$_Tmap_traits@_KHU?$less@_K@std@@V?$allocator@U?$pair@$$CB_KH@std@@@2@$0A@@std@@@2@XZ@4HA
pdata	ENDS
;	COMDAT xdata
xdata	SEGMENT
$ip2state$?_Buynode@?$_Tree@V?$_Tmap_traits@_KHU?$less@_K@std@@V?$allocator@U?$pair@$$CB_KH@std@@@2@$0A@@std@@@std@@IEAAPEAU_Node@?$_Tree_nod@V?$_Tmap_traits@_KHU?$less@_K@std@@V?$allocator@U?$pair@$$CB_KH@std@@@2@$0A@@std@@@2@XZ DD imagerel ?_Buynode@?$_Tree@V?$_Tmap_traits@_KHU?$less@_K@std@@V?$allocator@U?$pair@$$CB_KH@std@@@2@$0A@@std@@@std@@IEAAPEAU_Node@?$_Tree_nod@V?$_Tmap_traits@_KHU?$less@_K@std@@V?$allocator@U?$pair@$$CB_KH@std@@@2@$0A@@std@@@2@XZ
	DD	0ffffffffH
	DD	imagerel ?_Buynode@?$_Tree@V?$_Tmap_traits@_KHU?$less@_K@std@@V?$allocator@U?$pair@$$CB_KH@std@@@2@$0A@@std@@@std@@IEAAPEAU_Node@?$_Tree_nod@V?$_Tmap_traits@_KHU?$less@_K@std@@V?$allocator@U?$pair@$$CB_KH@std@@@2@$0A@@std@@@2@XZ+28
	DD	00H
	DD	imagerel ?_Buynode@?$_Tree@V?$_Tmap_traits@_KHU?$less@_K@std@@V?$allocator@U?$pair@$$CB_KH@std@@@2@$0A@@std@@@std@@IEAAPEAU_Node@?$_Tree_nod@V?$_Tmap_traits@_KHU?$less@_K@std@@V?$allocator@U?$pair@$$CB_KH@std@@@2@$0A@@std@@@2@XZ+66
	DD	0ffffffffH
	DD	imagerel ?catch$0@?0??_Buynode@?$_Tree@V?$_Tmap_traits@_KHU?$less@_K@std@@V?$allocator@U?$pair@$$CB_KH@std@@@2@$0A@@std@@@std@@IEAAPEAU_Node@?$_Tree_nod@V?$_Tmap_traits@_KHU?$less@_K@std@@V?$allocator@U?$pair@$$CB_KH@std@@@2@$0A@@std@@@2@XZ@4HA
	DD	00H
	DD	imagerel ?catch$0@?0??_Buynode@?$_Tree@V?$_Tmap_traits@_KHU?$less@_K@std@@V?$allocator@U?$pair@$$CB_KH@std@@@2@$0A@@std@@@std@@IEAAPEAU_Node@?$_Tree_nod@V?$_Tmap_traits@_KHU?$less@_K@std@@V?$allocator@U?$pair@$$CB_KH@std@@@2@$0A@@std@@@2@XZ@4HA+13
	DD	01H
	DD	imagerel ?catch$0@?0??_Buynode@?$_Tree@V?$_Tmap_traits@_KHU?$less@_K@std@@V?$allocator@U?$pair@$$CB_KH@std@@@2@$0A@@std@@@std@@IEAAPEAU_Node@?$_Tree_nod@V?$_Tmap_traits@_KHU?$less@_K@std@@V?$allocator@U?$pair@$$CB_KH@std@@@2@$0A@@std@@@2@XZ@4HA+32
	DD	00H
xdata	ENDS
;	COMDAT xdata
xdata	SEGMENT
$unwind$?catch$0@?0??_Buynode@?$_Tree@V?$_Tmap_traits@_KHU?$less@_K@std@@V?$allocator@U?$pair@$$CB_KH@std@@@2@$0A@@std@@@std@@IEAAPEAU_Node@?$_Tree_nod@V?$_Tmap_traits@_KHU?$less@_K@std@@V?$allocator@U?$pair@$$CB_KH@std@@@2@$0A@@std@@@2@XZ@4HA DD 020a19H
	DD	05006320aH
	DD	imagerel __CxxFrameHandler3
	DD	imagerel $cppxdata$?_Buynode@?$_Tree@V?$_Tmap_traits@_KHU?$less@_K@std@@V?$allocator@U?$pair@$$CB_KH@std@@@2@$0A@@std@@@std@@IEAAPEAU_Node@?$_Tree_nod@V?$_Tmap_traits@_KHU?$less@_K@std@@V?$allocator@U?$pair@$$CB_KH@std@@@2@$0A@@std@@@2@XZ
xdata	ENDS
;	COMDAT xdata
xdata	SEGMENT
$unwind$?_Buynode@?$_Tree@V?$_Tmap_traits@_KHU?$less@_K@std@@V?$allocator@U?$pair@$$CB_KH@std@@@2@$0A@@std@@@std@@IEAAPEAU_Node@?$_Tree_nod@V?$_Tmap_traits@_KHU?$less@_K@std@@V?$allocator@U?$pair@$$CB_KH@std@@@2@$0A@@std@@@2@XZ DD 010d19H
	DD	06204H
	DD	imagerel __CxxFrameHandler3
	DD	imagerel $cppxdata$?_Buynode@?$_Tree@V?$_Tmap_traits@_KHU?$less@_K@std@@V?$allocator@U?$pair@$$CB_KH@std@@@2@$0A@@std@@@std@@IEAAPEAU_Node@?$_Tree_nod@V?$_Tmap_traits@_KHU?$less@_K@std@@V?$allocator@U?$pair@$$CB_KH@std@@@2@$0A@@std@@@2@XZ
xdata	ENDS
;	COMDAT CONST
CONST	SEGMENT
$cppxdata$?_Buynode@?$_Tree@V?$_Tmap_traits@_KHU?$less@_K@std@@V?$allocator@U?$pair@$$CB_KH@std@@@2@$0A@@std@@@std@@IEAAPEAU_Node@?$_Tree_nod@V?$_Tmap_traits@_KHU?$less@_K@std@@V?$allocator@U?$pair@$$CB_KH@std@@@2@$0A@@std@@@2@XZ DD 019930522H
	DD	02H
	DD	imagerel $stateUnwindMap$?_Buynode@?$_Tree@V?$_Tmap_traits@_KHU?$less@_K@std@@V?$allocator@U?$pair@$$CB_KH@std@@@2@$0A@@std@@@std@@IEAAPEAU_Node@?$_Tree_nod@V?$_Tmap_traits@_KHU?$less@_K@std@@V?$allocator@U?$pair@$$CB_KH@std@@@2@$0A@@std@@@2@XZ
	DD	01H
	DD	imagerel $tryMap$?_Buynode@?$_Tree@V?$_Tmap_traits@_KHU?$less@_K@std@@V?$allocator@U?$pair@$$CB_KH@std@@@2@$0A@@std@@@std@@IEAAPEAU_Node@?$_Tree_nod@V?$_Tmap_traits@_KHU?$less@_K@std@@V?$allocator@U?$pair@$$CB_KH@std@@@2@$0A@@std@@@2@XZ
	DD	06H
	DD	imagerel $ip2state$?_Buynode@?$_Tree@V?$_Tmap_traits@_KHU?$less@_K@std@@V?$allocator@U?$pair@$$CB_KH@std@@@2@$0A@@std@@@std@@IEAAPEAU_Node@?$_Tree_nod@V?$_Tmap_traits@_KHU?$less@_K@std@@V?$allocator@U?$pair@$$CB_KH@std@@@2@$0A@@std@@@2@XZ
	DD	020H
	DD	00H
	DD	01H
CONST	ENDS
;	COMDAT xdata
xdata	SEGMENT
$tryMap$?_Buynode@?$_Tree@V?$_Tmap_traits@_KHU?$less@_K@std@@V?$allocator@U?$pair@$$CB_KH@std@@@2@$0A@@std@@@std@@IEAAPEAU_Node@?$_Tree_nod@V?$_Tmap_traits@_KHU?$less@_K@std@@V?$allocator@U?$pair@$$CB_KH@std@@@2@$0A@@std@@@2@XZ DD 00H
	DD	00H
	DD	01H
	DD	01H
	DD	imagerel $handlerMap$0$?_Buynode@?$_Tree@V?$_Tmap_traits@_KHU?$less@_K@std@@V?$allocator@U?$pair@$$CB_KH@std@@@2@$0A@@std@@@std@@IEAAPEAU_Node@?$_Tree_nod@V?$_Tmap_traits@_KHU?$less@_K@std@@V?$allocator@U?$pair@$$CB_KH@std@@@2@$0A@@std@@@2@XZ
xdata	ENDS
;	COMDAT xdata
xdata	SEGMENT
$handlerMap$0$?_Buynode@?$_Tree@V?$_Tmap_traits@_KHU?$less@_K@std@@V?$allocator@U?$pair@$$CB_KH@std@@@2@$0A@@std@@@std@@IEAAPEAU_Node@?$_Tree_nod@V?$_Tmap_traits@_KHU?$less@_K@std@@V?$allocator@U?$pair@$$CB_KH@std@@@2@$0A@@std@@@2@XZ DD 040H
	DD	00H
	DD	00H
	DD	imagerel ?catch$0@?0??_Buynode@?$_Tree@V?$_Tmap_traits@_KHU?$less@_K@std@@V?$allocator@U?$pair@$$CB_KH@std@@@2@$0A@@std@@@std@@IEAAPEAU_Node@?$_Tree_nod@V?$_Tmap_traits@_KHU?$less@_K@std@@V?$allocator@U?$pair@$$CB_KH@std@@@2@$0A@@std@@@2@XZ@4HA
	DD	038H
xdata	ENDS
;	COMDAT xdata
xdata	SEGMENT
$stateUnwindMap$?_Buynode@?$_Tree@V?$_Tmap_traits@_KHU?$less@_K@std@@V?$allocator@U?$pair@$$CB_KH@std@@@2@$0A@@std@@@std@@IEAAPEAU_Node@?$_Tree_nod@V?$_Tmap_traits@_KHU?$less@_K@std@@V?$allocator@U?$pair@$$CB_KH@std@@@2@$0A@@std@@@2@XZ DD 0ffffffffH
	DD	00H
	DD	0ffffffffH
	DD	00H
; Function compile flags: /Ogtpy
xdata	ENDS
;	COMDAT ?_Buynode@?$_Tree@V?$_Tmap_traits@_KHU?$less@_K@std@@V?$allocator@U?$pair@$$CB_KH@std@@@2@$0A@@std@@@std@@IEAAPEAU_Node@?$_Tree_nod@V?$_Tmap_traits@_KHU?$less@_K@std@@V?$allocator@U?$pair@$$CB_KH@std@@@2@$0A@@std@@@2@XZ
_TEXT	SEGMENT
$T148755 = 32
this$ = 64
_Wherenode$ = 72
?_Buynode@?$_Tree@V?$_Tmap_traits@_KHU?$less@_K@std@@V?$allocator@U?$pair@$$CB_KH@std@@@2@$0A@@std@@@std@@IEAAPEAU_Node@?$_Tree_nod@V?$_Tmap_traits@_KHU?$less@_K@std@@V?$allocator@U?$pair@$$CB_KH@std@@@2@$0A@@std@@@2@XZ PROC ; std::_Tree<std::_Tmap_traits<unsigned __int64,int,std::less<unsigned __int64>,std::allocator<std::pair<unsigned __int64 const ,int> >,0> >::_Buynode, COMDAT

; 1383 : 		{	// allocate a head/nil node

$LN63:
	sub	rsp, 56					; 00000038H
	mov	QWORD PTR $T148755[rsp], -2

; 1384 : 		_Nodeptr _Wherenode = this->_Alnod.allocate(1);

	mov	ecx, 48					; 00000030H
	call	??2@YAPEAX_K@Z				; operator new
	mov	QWORD PTR _Wherenode$[rsp], rax

; 1385 : 		int _Linkcnt = 0;
; 1386 : 
; 1387 : 		_TRY_BEGIN
; 1388 : 		this->_Alptr.construct(&_Left(_Wherenode), 0);

	test	rax, rax
	je	SHORT $LN61@Buynode@3
	xor	ecx, ecx
	mov	QWORD PTR [rax], rcx
	jmp	SHORT $LN27@Buynode@3
$LN61@Buynode@3:
	xor	ecx, ecx
$LN27@Buynode@3:

; 1389 : 		++_Linkcnt;
; 1390 : 		this->_Alptr.construct(&_Parent(_Wherenode), 0);

	lea	rdx, QWORD PTR [rax+8]
	test	rdx, rdx
	je	SHORT $LN37@Buynode@3
	mov	QWORD PTR [rdx], rcx
$LN37@Buynode@3:

; 1391 : 		++_Linkcnt;
; 1392 : 		this->_Alptr.construct(&_Right(_Wherenode), 0);

	lea	rdx, QWORD PTR [rax+16]
	test	rdx, rdx
	je	SHORT $LN47@Buynode@3
	mov	QWORD PTR [rdx], rcx
$LN47@Buynode@3:

; 1393 : 		_CATCH_ALL
; 1394 : 		if (1 < _Linkcnt)
; 1395 : 			this->_Alptr.destroy(&_Parent(_Wherenode));
; 1396 : 		if (0 < _Linkcnt)
; 1397 : 			this->_Alptr.destroy(&_Left(_Wherenode));
; 1398 : 		this->_Alnod.deallocate(_Wherenode, 1);
; 1399 : 		_RERAISE;
; 1400 : 		_CATCH_END
; 1401 : 		_Color(_Wherenode) = _Black;

	mov	BYTE PTR [rax+40], 1

; 1402 : 		_Isnil(_Wherenode) = false;

	mov	BYTE PTR [rax+41], 0

; 1403 : 		return (_Wherenode);
; 1404 : 		}

	add	rsp, 56					; 00000038H
	ret	0
$LN62@Buynode@3:
?_Buynode@?$_Tree@V?$_Tmap_traits@_KHU?$less@_K@std@@V?$allocator@U?$pair@$$CB_KH@std@@@2@$0A@@std@@@std@@IEAAPEAU_Node@?$_Tree_nod@V?$_Tmap_traits@_KHU?$less@_K@std@@V?$allocator@U?$pair@$$CB_KH@std@@@2@$0A@@std@@@2@XZ ENDP ; std::_Tree<std::_Tmap_traits<unsigned __int64,int,std::less<unsigned __int64>,std::allocator<std::pair<unsigned __int64 const ,int> >,0> >::_Buynode
; Function compile flags: /Ogtpy
_TEXT	ENDS
;	COMDAT text$x
text$x	SEGMENT
$T148755 = 32
this$ = 64
_Wherenode$ = 72
?catch$0@?0??_Buynode@?$_Tree@V?$_Tmap_traits@_KHU?$less@_K@std@@V?$allocator@U?$pair@$$CB_KH@std@@@2@$0A@@std@@@std@@IEAAPEAU_Node@?$_Tree_nod@V?$_Tmap_traits@_KHU?$less@_K@std@@V?$allocator@U?$pair@$$CB_KH@std@@@2@$0A@@std@@@2@XZ@4HA PROC ; `std::_Tree<std::_Tmap_traits<unsigned __int64,int,std::less<unsigned __int64>,std::allocator<std::pair<unsigned __int64 const ,int> >,0> >::_Buynode'::`1'::catch$0

; 1393 : 		_CATCH_ALL

	mov	QWORD PTR [rsp+16], rdx
	push	rbp
	sub	rsp, 32					; 00000020H
	mov	rbp, rdx
__catch$?_Buynode@?$_Tree@V?$_Tmap_traits@_KHU?$less@_K@std@@V?$allocator@U?$pair@$$CB_KH@std@@@2@$0A@@std@@@std@@IEAAPEAU_Node@?$_Tree_nod@V?$_Tmap_traits@_KHU?$less@_K@std@@V?$allocator@U?$pair@$$CB_KH@std@@@2@$0A@@std@@@2@XZ$0:

; 1394 : 		if (1 < _Linkcnt)
; 1395 : 			this->_Alptr.destroy(&_Parent(_Wherenode));
; 1396 : 		if (0 < _Linkcnt)
; 1397 : 			this->_Alptr.destroy(&_Left(_Wherenode));
; 1398 : 		this->_Alnod.deallocate(_Wherenode, 1);

	mov	rcx, QWORD PTR _Wherenode$[rbp]
	call	??3@YAXPEAX@Z				; operator delete

; 1399 : 		_RERAISE;

	xor	edx, edx
	xor	ecx, ecx
	call	_CxxThrowException
	npad	1
	add	rsp, 32					; 00000020H
	pop	rbp
	ret	0
	int	3
