; Listing generated by Microsoft (R) Optimizing Compiler Version 15.00.30729.01 

	TITLE	c:\Local\SharpDevelop_3.2.0.5777_Source\src\AddIns\Misc\Profiler\Hook\Profiler.cpp
	.686P
	.XMM
	include listing.inc
	.model	flat

INCLUDELIB OLDNAMES

PUBLIC	?ThreadNameChanged@CProfiler@@UAGJIKQA_W@Z	; CProfiler::ThreadNameChanged
PUBLIC	?ExceptionCLRCatcherExecute@CProfiler@@UAGJXZ	; CProfiler::ExceptionCLRCatcherExecute
PUBLIC	?ExceptionCLRCatcherFound@CProfiler@@UAGJXZ	; CProfiler::ExceptionCLRCatcherFound
PUBLIC	?ExceptionCatcherLeave@CProfiler@@UAGJXZ	; CProfiler::ExceptionCatcherLeave
PUBLIC	?ExceptionCatcherEnter@CProfiler@@UAGJII@Z	; CProfiler::ExceptionCatcherEnter
PUBLIC	?ExceptionUnwindFinallyLeave@CProfiler@@UAGJXZ	; CProfiler::ExceptionUnwindFinallyLeave
PUBLIC	?ExceptionUnwindFinallyEnter@CProfiler@@UAGJI@Z	; CProfiler::ExceptionUnwindFinallyEnter
PUBLIC	?ExceptionUnwindFunctionLeave@CProfiler@@UAGJXZ	; CProfiler::ExceptionUnwindFunctionLeave
PUBLIC	?ExceptionUnwindFunctionEnter@CProfiler@@UAGJI@Z ; CProfiler::ExceptionUnwindFunctionEnter
PUBLIC	?ExceptionOSHandlerLeave@CProfiler@@UAGJI@Z	; CProfiler::ExceptionOSHandlerLeave
PUBLIC	?ExceptionOSHandlerEnter@CProfiler@@UAGJI@Z	; CProfiler::ExceptionOSHandlerEnter
PUBLIC	?ExceptionSearchCatcherFound@CProfiler@@UAGJI@Z	; CProfiler::ExceptionSearchCatcherFound
PUBLIC	?ExceptionSearchFilterLeave@CProfiler@@UAGJXZ	; CProfiler::ExceptionSearchFilterLeave
PUBLIC	?ExceptionSearchFilterEnter@CProfiler@@UAGJI@Z	; CProfiler::ExceptionSearchFilterEnter
PUBLIC	?ExceptionSearchFunctionLeave@CProfiler@@UAGJXZ	; CProfiler::ExceptionSearchFunctionLeave
PUBLIC	?ExceptionSearchFunctionEnter@CProfiler@@UAGJI@Z ; CProfiler::ExceptionSearchFunctionEnter
PUBLIC	?ExceptionThrown@CProfiler@@UAGJI@Z		; CProfiler::ExceptionThrown
PUBLIC	?ThreadAssignedToOSThread@CProfiler@@UAGJIK@Z	; CProfiler::ThreadAssignedToOSThread
PUBLIC	?ThreadDestroyed@CProfiler@@UAGJI@Z		; CProfiler::ThreadDestroyed
PUBLIC	?ThreadCreated@CProfiler@@UAGJI@Z		; CProfiler::ThreadCreated
PUBLIC	?FunctionUnloadStarted@CProfiler@@UAGJI@Z	; CProfiler::FunctionUnloadStarted
PUBLIC	?Shutdown@CProfiler@@UAGJXZ			; CProfiler::Shutdown
PUBLIC	?Initialize@CProfiler@@UAGJPAUIUnknown@@@Z	; CProfiler::Initialize
PUBLIC	?Release@CProfiler@@UAGKXZ			; CProfiler::Release
PUBLIC	?AddRef@CProfiler@@UAGKXZ			; CProfiler::AddRef
PUBLIC	?QueryInterface@CProfiler@@UAGJABU_GUID@@PAPAX@Z ; CProfiler::QueryInterface
PUBLIC	??0StackEntry@@QAE@PAUFunctionInfo@@_K@Z	; StackEntry::StackEntry
PUBLIC	?hasAtLeastTwoElements@?$LightweightStack@UStackEntry@@@@QAE_NXZ ; LightweightStack<StackEntry>::hasAtLeastTwoElements
PUBLIC	?belowTop@?$LightweightStack@UStackEntry@@@@QAEAAUStackEntry@@XZ ; LightweightStack<StackEntry>::belowTop
PUBLIC	?Enlarge@?$LightweightStack@UStackEntry@@@@QAEXXZ ; LightweightStack<StackEntry>::Enlarge
PUBLIC	?push@?$LightweightStack@UStackEntry@@@@QAEXABUStackEntry@@@Z ; LightweightStack<StackEntry>::push
PUBLIC	?empty@?$LightweightStack@UStackEntry@@@@QAE_NXZ ; LightweightStack<StackEntry>::empty
PUBLIC	?top@?$LightweightStack@UStackEntry@@@@QAEAAUStackEntry@@XZ ; LightweightStack<StackEntry>::top
PUBLIC	?pop@?$LightweightStack@UStackEntry@@@@QAEXXZ	; LightweightStack<StackEntry>::pop
PUBLIC	?max_size@?$allocator@U?$pair@$$CBIH@std@@@std@@QBEIXZ ; std::allocator<std::pair<unsigned int const ,int> >::max_size
PUBLIC	?max_size@?$_Tree@V?$_Tmap_traits@IHU?$less@I@std@@V?$allocator@U?$pair@$$CBIH@std@@@2@$0A@@std@@@std@@QBEIXZ ; std::_Tree<std::_Tmap_traits<unsigned int,int,std::less<unsigned int>,std::allocator<std::pair<unsigned int const ,int> >,0> >::max_size
PUBLIC	??0_Node@?$_Tree_nod@V?$_Tmap_traits@IHU?$less@I@std@@V?$allocator@U?$pair@$$CBIH@std@@@2@$0A@@std@@@std@@QAE@PAU012@00ABU?$pair@$$CBIH@2@D@Z ; std::_Tree_nod<std::_Tmap_traits<unsigned int,int,std::less<unsigned int>,std::allocator<std::pair<unsigned int const ,int> >,0> >::_Node::_Node
PUBLIC	?_Buynode@?$_Tree@V?$_Tmap_traits@IHU?$less@I@std@@V?$allocator@U?$pair@$$CBIH@std@@@2@$0A@@std@@@std@@IAEPAU_Node@?$_Tree_nod@V?$_Tmap_traits@IHU?$less@I@std@@V?$allocator@U?$pair@$$CBIH@std@@@2@$0A@@std@@@2@PAU342@00ABU?$pair@$$CBIH@2@D@Z ; std::_Tree<std::_Tmap_traits<unsigned int,int,std::less<unsigned int>,std::allocator<std::pair<unsigned int const ,int> >,0> >::_Buynode
PUBLIC	?_Insert@?$_Tree@V?$_Tmap_traits@IHU?$less@I@std@@V?$allocator@U?$pair@$$CBIH@std@@@2@$0A@@std@@@std@@IAE?AViterator@12@_NPAU_Node@?$_Tree_nod@V?$_Tmap_traits@IHU?$less@I@std@@V?$allocator@U?$pair@$$CBIH@std@@@2@$0A@@std@@@2@ABU?$pair@$$CBIH@2@@Z ; std::_Tree<std::_Tmap_traits<unsigned int,int,std::less<unsigned int>,std::allocator<std::pair<unsigned int const ,int> >,0> >::_Insert
PUBLIC	?_Dec@const_iterator@?$_Tree@V?$_Tmap_traits@IHU?$less@I@std@@V?$allocator@U?$pair@$$CBIH@std@@@2@$0A@@std@@@std@@QAEXXZ ; std::_Tree<std::_Tmap_traits<unsigned int,int,std::less<unsigned int>,std::allocator<std::pair<unsigned int const ,int> >,0> >::const_iterator::_Dec
PUBLIC	??Fconst_iterator@?$_Tree@V?$_Tmap_traits@IHU?$less@I@std@@V?$allocator@U?$pair@$$CBIH@std@@@2@$0A@@std@@@std@@QAEAAV012@XZ ; std::_Tree<std::_Tmap_traits<unsigned int,int,std::less<unsigned int>,std::allocator<std::pair<unsigned int const ,int> >,0> >::const_iterator::operator--
PUBLIC	??Fiterator@?$_Tree@V?$_Tmap_traits@IHU?$less@I@std@@V?$allocator@U?$pair@$$CBIH@std@@@2@$0A@@std@@@std@@QAEAAV012@XZ ; std::_Tree<std::_Tmap_traits<unsigned int,int,std::less<unsigned int>,std::allocator<std::pair<unsigned int const ,int> >,0> >::iterator::operator--
PUBLIC	??0?$pair@Viterator@?$_Tree@V?$_Tmap_traits@IHU?$less@I@std@@V?$allocator@U?$pair@$$CBIH@std@@@2@$0A@@std@@@std@@_N@std@@QAE@ABViterator@?$_Tree@V?$_Tmap_traits@IHU?$less@I@std@@V?$allocator@U?$pair@$$CBIH@std@@@2@$0A@@std@@@1@AB_N@Z ; std::pair<std::_Tree<std::_Tmap_traits<unsigned int,int,std::less<unsigned int>,std::allocator<std::pair<unsigned int const ,int> >,0> >::iterator,bool>::pair<std::_Tree<std::_Tmap_traits<unsigned int,int,std::less<unsigned int>,std::allocator<std::pair<unsigned int const ,int> >,0> >::iterator,bool>
PUBLIC	?insert@?$_Tree@V?$_Tmap_traits@IHU?$less@I@std@@V?$allocator@U?$pair@$$CBIH@std@@@2@$0A@@std@@@std@@QAE?AU?$pair@Viterator@?$_Tree@V?$_Tmap_traits@IHU?$less@I@std@@V?$allocator@U?$pair@$$CBIH@std@@@2@$0A@@std@@@std@@_N@2@ABU?$pair@$$CBIH@2@@Z ; std::_Tree<std::_Tmap_traits<unsigned int,int,std::less<unsigned int>,std::allocator<std::pair<unsigned int const ,int> >,0> >::insert
PUBLIC	?_Lbound@?$_Tree@V?$_Tmap_traits@IHU?$less@I@std@@V?$allocator@U?$pair@$$CBIH@std@@@2@$0A@@std@@@std@@IBEPAU_Node@?$_Tree_nod@V?$_Tmap_traits@IHU?$less@I@std@@V?$allocator@U?$pair@$$CBIH@std@@@2@$0A@@std@@@2@ABI@Z ; std::_Tree<std::_Tmap_traits<unsigned int,int,std::less<unsigned int>,std::allocator<std::pair<unsigned int const ,int> >,0> >::_Lbound
PUBLIC	?lower_bound@?$_Tree@V?$_Tmap_traits@IHU?$less@I@std@@V?$allocator@U?$pair@$$CBIH@std@@@2@$0A@@std@@@std@@QAE?AViterator@12@ABI@Z ; std::_Tree<std::_Tmap_traits<unsigned int,int,std::less<unsigned int>,std::allocator<std::pair<unsigned int const ,int> >,0> >::lower_bound
PUBLIC	?find@?$_Tree@V?$_Tmap_traits@IHU?$less@I@std@@V?$allocator@U?$pair@$$CBIH@std@@@2@$0A@@std@@@std@@QAE?AViterator@12@ABI@Z ; std::_Tree<std::_Tmap_traits<unsigned int,int,std::less<unsigned int>,std::allocator<std::pair<unsigned int const ,int> >,0> >::find
PUBLIC	??Dconst_iterator@?$_Tree@V?$_Tmap_traits@IHU?$less@I@std@@V?$allocator@U?$pair@$$CBIH@std@@@2@$0A@@std@@@std@@QBEABU?$pair@$$CBIH@2@XZ ; std::_Tree<std::_Tmap_traits<unsigned int,int,std::less<unsigned int>,std::allocator<std::pair<unsigned int const ,int> >,0> >::const_iterator::operator*
PUBLIC	??Diterator@?$_Tree@V?$_Tmap_traits@IHU?$less@I@std@@V?$allocator@U?$pair@$$CBIH@std@@@2@$0A@@std@@@std@@QBEAAU?$pair@$$CBIH@2@XZ ; std::_Tree<std::_Tmap_traits<unsigned int,int,std::less<unsigned int>,std::allocator<std::pair<unsigned int const ,int> >,0> >::iterator::operator*
PUBLIC	??Citerator@?$_Tree@V?$_Tmap_traits@IHU?$less@I@std@@V?$allocator@U?$pair@$$CBIH@std@@@2@$0A@@std@@@std@@QBEPAU?$pair@$$CBIH@2@XZ ; std::_Tree<std::_Tmap_traits<unsigned int,int,std::less<unsigned int>,std::allocator<std::pair<unsigned int const ,int> >,0> >::iterator::operator->
PUBLIC	??0?$pair@IH@std@@QAE@ABIABH@Z			; std::pair<unsigned int,int>::pair<unsigned int,int>
PUBLIC	??$?0IH@?$pair@$$CBIH@std@@QAE@ABU?$pair@IH@1@@Z ; std::pair<unsigned int const ,int>::pair<unsigned int const ,int><unsigned int,int>
PUBLIC	?size@?$_Tree@V?$_Tmap_traits@KPAVThreadInfo@@U?$less@K@std@@V?$allocator@U?$pair@$$CBKPAVThreadInfo@@@std@@@3@$0A@@std@@@std@@QBEIXZ ; std::_Tree<std::_Tmap_traits<unsigned long,ThreadInfo *,std::less<unsigned long>,std::allocator<std::pair<unsigned long const ,ThreadInfo *> >,0> >::size
PUBLIC	??0const_iterator@?$_Tree@V?$_Tmap_traits@KPAVThreadInfo@@U?$less@K@std@@V?$allocator@U?$pair@$$CBKPAVThreadInfo@@@std@@@3@$0A@@std@@@std@@QAE@XZ ; std::_Tree<std::_Tmap_traits<unsigned long,ThreadInfo *,std::less<unsigned long>,std::allocator<std::pair<unsigned long const ,ThreadInfo *> >,0> >::const_iterator::const_iterator
PUBLIC	?insert@?$_Tree@V?$_Tmap_traits@KPAVThreadInfo@@U?$less@K@std@@V?$allocator@U?$pair@$$CBKPAVThreadInfo@@@std@@@3@$0A@@std@@@std@@QAE?AViterator@12@Vconst_iterator@12@ABU?$pair@$$CBKPAVThreadInfo@@@2@@Z ; std::_Tree<std::_Tmap_traits<unsigned long,ThreadInfo *,std::less<unsigned long>,std::allocator<std::pair<unsigned long const ,ThreadInfo *> >,0> >::insert
PUBLIC	??Dconst_iterator@?$_Tree@V?$_Tmap_traits@KPAVThreadInfo@@U?$less@K@std@@V?$allocator@U?$pair@$$CBKPAVThreadInfo@@@std@@@3@$0A@@std@@@std@@QBEABU?$pair@$$CBKPAVThreadInfo@@@2@XZ ; std::_Tree<std::_Tmap_traits<unsigned long,ThreadInfo *,std::less<unsigned long>,std::allocator<std::pair<unsigned long const ,ThreadInfo *> >,0> >::const_iterator::operator*
PUBLIC	??Diterator@?$_Tree@V?$_Tmap_traits@KPAVThreadInfo@@U?$less@K@std@@V?$allocator@U?$pair@$$CBKPAVThreadInfo@@@std@@@3@$0A@@std@@@std@@QBEAAU?$pair@$$CBKPAVThreadInfo@@@2@XZ ; std::_Tree<std::_Tmap_traits<unsigned long,ThreadInfo *,std::less<unsigned long>,std::allocator<std::pair<unsigned long const ,ThreadInfo *> >,0> >::iterator::operator*
PUBLIC	??0?$pair@$$CBKPAVThreadInfo@@@std@@QAE@ABKABQAVThreadInfo@@@Z ; std::pair<unsigned long const ,ThreadInfo *>::pair<unsigned long const ,ThreadInfo *>
PUBLIC	??A?$map@KPAVThreadInfo@@U?$less@K@std@@V?$allocator@U?$pair@$$CBKPAVThreadInfo@@@std@@@3@@std@@QAEAAPAVThreadInfo@@ABK@Z ; std::map<unsigned long,ThreadInfo *,std::less<unsigned long>,std::allocator<std::pair<unsigned long const ,ThreadInfo *> > >::operator[]
PUBLIC	??0CriticalSection@@QAE@XZ			; CriticalSection::CriticalSection
PUBLIC	??0?$allocator@U?$pair@$$CBIH@std@@@std@@QAE@XZ	; std::allocator<std::pair<unsigned int const ,int> >::allocator<std::pair<unsigned int const ,int> >
PUBLIC	??$?0U?$pair@$$CBIH@std@@@?$allocator@V_Aux_cont@std@@@std@@QAE@ABV?$allocator@U?$pair@$$CBIH@std@@@1@@Z ; std::allocator<std::_Aux_cont>::allocator<std::_Aux_cont><std::pair<unsigned int const ,int> >
PUBLIC	??0?$_Container_base_aux_alloc_real@V?$allocator@U?$pair@$$CBIH@std@@@std@@@std@@IAE@V?$allocator@U?$pair@$$CBIH@std@@@1@@Z ; std::_Container_base_aux_alloc_real<std::allocator<std::pair<unsigned int const ,int> > >::_Container_base_aux_alloc_real<std::allocator<std::pair<unsigned int const ,int> > >
PUBLIC	??0?$allocator@U?$pair@$$CBIH@std@@@std@@QAE@ABV01@@Z ; std::allocator<std::pair<unsigned int const ,int> >::allocator<std::pair<unsigned int const ,int> >
PUBLIC	??0?$_Tmap_traits@IHU?$less@I@std@@V?$allocator@U?$pair@$$CBIH@std@@@2@$0A@@std@@QAE@U?$less@I@1@V?$allocator@U?$pair@$$CBIH@std@@@1@@Z ; std::_Tmap_traits<unsigned int,int,std::less<unsigned int>,std::allocator<std::pair<unsigned int const ,int> >,0>::_Tmap_traits<unsigned int,int,std::less<unsigned int>,std::allocator<std::pair<unsigned int const ,int> >,0>
PUBLIC	??$?0U?$pair@$$CBIH@std@@@?$allocator@U_Node@?$_Tree_nod@V?$_Tmap_traits@IHU?$less@I@std@@V?$allocator@U?$pair@$$CBIH@std@@@2@$0A@@std@@@std@@@std@@QAE@ABV?$allocator@U?$pair@$$CBIH@std@@@1@@Z ; std::allocator<std::_Tree_nod<std::_Tmap_traits<unsigned int,int,std::less<unsigned int>,std::allocator<std::pair<unsigned int const ,int> >,0> >::_Node>::allocator<std::_Tree_nod<std::_Tmap_traits<unsigned int,int,std::less<unsigned int>,std::allocator<std::pair<unsigned int const ,int> >,0> >::_Node><std::pair<unsigned int const ,int> >
PUBLIC	??0?$_Tree_nod@V?$_Tmap_traits@IHU?$less@I@std@@V?$allocator@U?$pair@$$CBIH@std@@@2@$0A@@std@@@std@@IAE@ABU?$less@I@1@V?$allocator@U?$pair@$$CBIH@std@@@1@@Z ; std::_Tree_nod<std::_Tmap_traits<unsigned int,int,std::less<unsigned int>,std::allocator<std::pair<unsigned int const ,int> >,0> >::_Tree_nod<std::_Tmap_traits<unsigned int,int,std::less<unsigned int>,std::allocator<std::pair<unsigned int const ,int> >,0> >
PUBLIC	??$?0U?$pair@$$CBIH@std@@@?$allocator@PAU_Node@?$_Tree_nod@V?$_Tmap_traits@IHU?$less@I@std@@V?$allocator@U?$pair@$$CBIH@std@@@2@$0A@@std@@@std@@@std@@QAE@ABV?$allocator@U?$pair@$$CBIH@std@@@1@@Z ; std::allocator<std::_Tree_nod<std::_Tmap_traits<unsigned int,int,std::less<unsigned int>,std::allocator<std::pair<unsigned int const ,int> >,0> >::_Node *>::allocator<std::_Tree_nod<std::_Tmap_traits<unsigned int,int,std::less<unsigned int>,std::allocator<std::pair<unsigned int const ,int> >,0> >::_Node *><std::pair<unsigned int const ,int> >
PUBLIC	??0?$_Tree_ptr@V?$_Tmap_traits@IHU?$less@I@std@@V?$allocator@U?$pair@$$CBIH@std@@@2@$0A@@std@@@std@@IAE@ABU?$less@I@1@V?$allocator@U?$pair@$$CBIH@std@@@1@@Z ; std::_Tree_ptr<std::_Tmap_traits<unsigned int,int,std::less<unsigned int>,std::allocator<std::pair<unsigned int const ,int> >,0> >::_Tree_ptr<std::_Tmap_traits<unsigned int,int,std::less<unsigned int>,std::allocator<std::pair<unsigned int const ,int> >,0> >
PUBLIC	??0?$_Tree_val@V?$_Tmap_traits@IHU?$less@I@std@@V?$allocator@U?$pair@$$CBIH@std@@@2@$0A@@std@@@std@@IAE@ABU?$less@I@1@V?$allocator@U?$pair@$$CBIH@std@@@1@@Z ; std::_Tree_val<std::_Tmap_traits<unsigned int,int,std::less<unsigned int>,std::allocator<std::pair<unsigned int const ,int> >,0> >::_Tree_val<std::_Tmap_traits<unsigned int,int,std::less<unsigned int>,std::allocator<std::pair<unsigned int const ,int> >,0> >
PUBLIC	??$_Allocate@U_Node@?$_Tree_nod@V?$_Tmap_traits@IHU?$less@I@std@@V?$allocator@U?$pair@$$CBIH@std@@@2@$0A@@std@@@std@@@std@@YAPAU_Node@?$_Tree_nod@V?$_Tmap_traits@IHU?$less@I@std@@V?$allocator@U?$pair@$$CBIH@std@@@2@$0A@@std@@@0@IPAU120@@Z ; std::_Allocate<std::_Tree_nod<std::_Tmap_traits<unsigned int,int,std::less<unsigned int>,std::allocator<std::pair<unsigned int const ,int> >,0> >::_Node>
PUBLIC	?allocate@?$allocator@U_Node@?$_Tree_nod@V?$_Tmap_traits@IHU?$less@I@std@@V?$allocator@U?$pair@$$CBIH@std@@@2@$0A@@std@@@std@@@std@@QAEPAU_Node@?$_Tree_nod@V?$_Tmap_traits@IHU?$less@I@std@@V?$allocator@U?$pair@$$CBIH@std@@@2@$0A@@std@@@2@I@Z ; std::allocator<std::_Tree_nod<std::_Tmap_traits<unsigned int,int,std::less<unsigned int>,std::allocator<std::pair<unsigned int const ,int> >,0> >::_Node>::allocate
PUBLIC	??$_Construct@PAU_Node@?$_Tree_nod@V?$_Tmap_traits@IHU?$less@I@std@@V?$allocator@U?$pair@$$CBIH@std@@@2@$0A@@std@@@std@@PAU123@@std@@YAXPAPAU_Node@?$_Tree_nod@V?$_Tmap_traits@IHU?$less@I@std@@V?$allocator@U?$pair@$$CBIH@std@@@2@$0A@@std@@@0@ABQAU120@@Z ; std::_Construct<std::_Tree_nod<std::_Tmap_traits<unsigned int,int,std::less<unsigned int>,std::allocator<std::pair<unsigned int const ,int> >,0> >::_Node *,std::_Tree_nod<std::_Tmap_traits<unsigned int,int,std::less<unsigned int>,std::allocator<std::pair<unsigned int const ,int> >,0> >::_Node *>
PUBLIC	?construct@?$allocator@PAU_Node@?$_Tree_nod@V?$_Tmap_traits@IHU?$less@I@std@@V?$allocator@U?$pair@$$CBIH@std@@@2@$0A@@std@@@std@@@std@@QAEXPAPAU_Node@?$_Tree_nod@V?$_Tmap_traits@IHU?$less@I@std@@V?$allocator@U?$pair@$$CBIH@std@@@2@$0A@@std@@@2@ABQAU342@@Z ; std::allocator<std::_Tree_nod<std::_Tmap_traits<unsigned int,int,std::less<unsigned int>,std::allocator<std::pair<unsigned int const ,int> >,0> >::_Node *>::construct
PUBLIC	?_Buynode@?$_Tree@V?$_Tmap_traits@IHU?$less@I@std@@V?$allocator@U?$pair@$$CBIH@std@@@2@$0A@@std@@@std@@IAEPAU_Node@?$_Tree_nod@V?$_Tmap_traits@IHU?$less@I@std@@V?$allocator@U?$pair@$$CBIH@std@@@2@$0A@@std@@@2@XZ ; std::_Tree<std::_Tmap_traits<unsigned int,int,std::less<unsigned int>,std::allocator<std::pair<unsigned int const ,int> >,0> >::_Buynode
PUBLIC	?_Init@?$_Tree@V?$_Tmap_traits@IHU?$less@I@std@@V?$allocator@U?$pair@$$CBIH@std@@@2@$0A@@std@@@std@@IAEXXZ ; std::_Tree<std::_Tmap_traits<unsigned int,int,std::less<unsigned int>,std::allocator<std::pair<unsigned int const ,int> >,0> >::_Init
PUBLIC	??0?$_Tree@V?$_Tmap_traits@IHU?$less@I@std@@V?$allocator@U?$pair@$$CBIH@std@@@2@$0A@@std@@@std@@QAE@ABU?$less@I@1@ABV?$allocator@U?$pair@$$CBIH@std@@@1@@Z ; std::_Tree<std::_Tmap_traits<unsigned int,int,std::less<unsigned int>,std::allocator<std::pair<unsigned int const ,int> >,0> >::_Tree<std::_Tmap_traits<unsigned int,int,std::less<unsigned int>,std::allocator<std::pair<unsigned int const ,int> >,0> >
PUBLIC	??0?$map@IHU?$less@I@std@@V?$allocator@U?$pair@$$CBIH@std@@@2@@std@@QAE@XZ ; std::map<unsigned int,int,std::less<unsigned int>,std::allocator<std::pair<unsigned int const ,int> > >::map<unsigned int,int,std::less<unsigned int>,std::allocator<std::pair<unsigned int const ,int> > >
PUBLIC	??0?$allocator@U?$pair@$$CBIPAVThreadInfo@@@std@@@std@@QAE@XZ ; std::allocator<std::pair<unsigned int const ,ThreadInfo *> >::allocator<std::pair<unsigned int const ,ThreadInfo *> >
PUBLIC	??$?0U?$pair@$$CBIPAVThreadInfo@@@std@@@?$allocator@V_Aux_cont@std@@@std@@QAE@ABV?$allocator@U?$pair@$$CBIPAVThreadInfo@@@std@@@1@@Z ; std::allocator<std::_Aux_cont>::allocator<std::_Aux_cont><std::pair<unsigned int const ,ThreadInfo *> >
PUBLIC	??0?$_Container_base_aux_alloc_real@V?$allocator@U?$pair@$$CBIPAVThreadInfo@@@std@@@std@@@std@@IAE@V?$allocator@U?$pair@$$CBIPAVThreadInfo@@@std@@@1@@Z ; std::_Container_base_aux_alloc_real<std::allocator<std::pair<unsigned int const ,ThreadInfo *> > >::_Container_base_aux_alloc_real<std::allocator<std::pair<unsigned int const ,ThreadInfo *> > >
PUBLIC	??0?$allocator@U?$pair@$$CBIPAVThreadInfo@@@std@@@std@@QAE@ABV01@@Z ; std::allocator<std::pair<unsigned int const ,ThreadInfo *> >::allocator<std::pair<unsigned int const ,ThreadInfo *> >
PUBLIC	??0?$_Tmap_traits@IPAVThreadInfo@@U?$less@I@std@@V?$allocator@U?$pair@$$CBIPAVThreadInfo@@@std@@@3@$0A@@std@@QAE@U?$less@I@1@V?$allocator@U?$pair@$$CBIPAVThreadInfo@@@std@@@1@@Z ; std::_Tmap_traits<unsigned int,ThreadInfo *,std::less<unsigned int>,std::allocator<std::pair<unsigned int const ,ThreadInfo *> >,0>::_Tmap_traits<unsigned int,ThreadInfo *,std::less<unsigned int>,std::allocator<std::pair<unsigned int const ,ThreadInfo *> >,0>
PUBLIC	??$?0U?$pair@$$CBIPAVThreadInfo@@@std@@@?$allocator@U_Node@?$_Tree_nod@V?$_Tmap_traits@IPAVThreadInfo@@U?$less@I@std@@V?$allocator@U?$pair@$$CBIPAVThreadInfo@@@std@@@3@$0A@@std@@@std@@@std@@QAE@ABV?$allocator@U?$pair@$$CBIPAVThreadInfo@@@std@@@1@@Z ; std::allocator<std::_Tree_nod<std::_Tmap_traits<unsigned int,ThreadInfo *,std::less<unsigned int>,std::allocator<std::pair<unsigned int const ,ThreadInfo *> >,0> >::_Node>::allocator<std::_Tree_nod<std::_Tmap_traits<unsigned int,ThreadInfo *,std::less<unsigned int>,std::allocator<std::pair<unsigned int const ,ThreadInfo *> >,0> >::_Node><std::pair<unsigned int const ,ThreadInfo *> >
PUBLIC	??0?$_Tree_nod@V?$_Tmap_traits@IPAVThreadInfo@@U?$less@I@std@@V?$allocator@U?$pair@$$CBIPAVThreadInfo@@@std@@@3@$0A@@std@@@std@@IAE@ABU?$less@I@1@V?$allocator@U?$pair@$$CBIPAVThreadInfo@@@std@@@1@@Z ; std::_Tree_nod<std::_Tmap_traits<unsigned int,ThreadInfo *,std::less<unsigned int>,std::allocator<std::pair<unsigned int const ,ThreadInfo *> >,0> >::_Tree_nod<std::_Tmap_traits<unsigned int,ThreadInfo *,std::less<unsigned int>,std::allocator<std::pair<unsigned int const ,ThreadInfo *> >,0> >
PUBLIC	??$?0U?$pair@$$CBIPAVThreadInfo@@@std@@@?$allocator@PAU_Node@?$_Tree_nod@V?$_Tmap_traits@IPAVThreadInfo@@U?$less@I@std@@V?$allocator@U?$pair@$$CBIPAVThreadInfo@@@std@@@3@$0A@@std@@@std@@@std@@QAE@ABV?$allocator@U?$pair@$$CBIPAVThreadInfo@@@std@@@1@@Z ; std::allocator<std::_Tree_nod<std::_Tmap_traits<unsigned int,ThreadInfo *,std::less<unsigned int>,std::allocator<std::pair<unsigned int const ,ThreadInfo *> >,0> >::_Node *>::allocator<std::_Tree_nod<std::_Tmap_traits<unsigned int,ThreadInfo *,std::less<unsigned int>,std::allocator<std::pair<unsigned int const ,ThreadInfo *> >,0> >::_Node *><std::pair<unsigned int const ,ThreadInfo *> >
PUBLIC	??0?$_Tree_ptr@V?$_Tmap_traits@IPAVThreadInfo@@U?$less@I@std@@V?$allocator@U?$pair@$$CBIPAVThreadInfo@@@std@@@3@$0A@@std@@@std@@IAE@ABU?$less@I@1@V?$allocator@U?$pair@$$CBIPAVThreadInfo@@@std@@@1@@Z ; std::_Tree_ptr<std::_Tmap_traits<unsigned int,ThreadInfo *,std::less<unsigned int>,std::allocator<std::pair<unsigned int const ,ThreadInfo *> >,0> >::_Tree_ptr<std::_Tmap_traits<unsigned int,ThreadInfo *,std::less<unsigned int>,std::allocator<std::pair<unsigned int const ,ThreadInfo *> >,0> >
PUBLIC	??0?$_Tree_val@V?$_Tmap_traits@IPAVThreadInfo@@U?$less@I@std@@V?$allocator@U?$pair@$$CBIPAVThreadInfo@@@std@@@3@$0A@@std@@@std@@IAE@ABU?$less@I@1@V?$allocator@U?$pair@$$CBIPAVThreadInfo@@@std@@@1@@Z ; std::_Tree_val<std::_Tmap_traits<unsigned int,ThreadInfo *,std::less<unsigned int>,std::allocator<std::pair<unsigned int const ,ThreadInfo *> >,0> >::_Tree_val<std::_Tmap_traits<unsigned int,ThreadInfo *,std::less<unsigned int>,std::allocator<std::pair<unsigned int const ,ThreadInfo *> >,0> >
PUBLIC	??$_Construct@PAU_Node@?$_Tree_nod@V?$_Tmap_traits@IPAVThreadInfo@@U?$less@I@std@@V?$allocator@U?$pair@$$CBIPAVThreadInfo@@@std@@@3@$0A@@std@@@std@@PAU123@@std@@YAXPAPAU_Node@?$_Tree_nod@V?$_Tmap_traits@IPAVThreadInfo@@U?$less@I@std@@V?$allocator@U?$pair@$$CBIPAVThreadInfo@@@std@@@3@$0A@@std@@@0@ABQAU120@@Z ; std::_Construct<std::_Tree_nod<std::_Tmap_traits<unsigned int,ThreadInfo *,std::less<unsigned int>,std::allocator<std::pair<unsigned int const ,ThreadInfo *> >,0> >::_Node *,std::_Tree_nod<std::_Tmap_traits<unsigned int,ThreadInfo *,std::less<unsigned int>,std::allocator<std::pair<unsigned int const ,ThreadInfo *> >,0> >::_Node *>
PUBLIC	?construct@?$allocator@PAU_Node@?$_Tree_nod@V?$_Tmap_traits@IPAVThreadInfo@@U?$less@I@std@@V?$allocator@U?$pair@$$CBIPAVThreadInfo@@@std@@@3@$0A@@std@@@std@@@std@@QAEXPAPAU_Node@?$_Tree_nod@V?$_Tmap_traits@IPAVThreadInfo@@U?$less@I@std@@V?$allocator@U?$pair@$$CBIPAVThreadInfo@@@std@@@3@$0A@@std@@@2@ABQAU342@@Z ; std::allocator<std::_Tree_nod<std::_Tmap_traits<unsigned int,ThreadInfo *,std::less<unsigned int>,std::allocator<std::pair<unsigned int const ,ThreadInfo *> >,0> >::_Node *>::construct
PUBLIC	?_Buynode@?$_Tree@V?$_Tmap_traits@IPAVThreadInfo@@U?$less@I@std@@V?$allocator@U?$pair@$$CBIPAVThreadInfo@@@std@@@3@$0A@@std@@@std@@IAEPAU_Node@?$_Tree_nod@V?$_Tmap_traits@IPAVThreadInfo@@U?$less@I@std@@V?$allocator@U?$pair@$$CBIPAVThreadInfo@@@std@@@3@$0A@@std@@@2@XZ ; std::_Tree<std::_Tmap_traits<unsigned int,ThreadInfo *,std::less<unsigned int>,std::allocator<std::pair<unsigned int const ,ThreadInfo *> >,0> >::_Buynode
PUBLIC	?_Init@?$_Tree@V?$_Tmap_traits@IPAVThreadInfo@@U?$less@I@std@@V?$allocator@U?$pair@$$CBIPAVThreadInfo@@@std@@@3@$0A@@std@@@std@@IAEXXZ ; std::_Tree<std::_Tmap_traits<unsigned int,ThreadInfo *,std::less<unsigned int>,std::allocator<std::pair<unsigned int const ,ThreadInfo *> >,0> >::_Init
PUBLIC	??0?$_Tree@V?$_Tmap_traits@IPAVThreadInfo@@U?$less@I@std@@V?$allocator@U?$pair@$$CBIPAVThreadInfo@@@std@@@3@$0A@@std@@@std@@QAE@ABU?$less@I@1@ABV?$allocator@U?$pair@$$CBIPAVThreadInfo@@@std@@@1@@Z ; std::_Tree<std::_Tmap_traits<unsigned int,ThreadInfo *,std::less<unsigned int>,std::allocator<std::pair<unsigned int const ,ThreadInfo *> >,0> >::_Tree<std::_Tmap_traits<unsigned int,ThreadInfo *,std::less<unsigned int>,std::allocator<std::pair<unsigned int const ,ThreadInfo *> >,0> >
PUBLIC	??0?$map@IPAVThreadInfo@@U?$less@I@std@@V?$allocator@U?$pair@$$CBIPAVThreadInfo@@@std@@@3@@std@@QAE@XZ ; std::map<unsigned int,ThreadInfo *,std::less<unsigned int>,std::allocator<std::pair<unsigned int const ,ThreadInfo *> > >::map<unsigned int,ThreadInfo *,std::less<unsigned int>,std::allocator<std::pair<unsigned int const ,ThreadInfo *> > >
PUBLIC	??0?$allocator@U?$pair@$$CBKPAVThreadInfo@@@std@@@std@@QAE@XZ ; std::allocator<std::pair<unsigned long const ,ThreadInfo *> >::allocator<std::pair<unsigned long const ,ThreadInfo *> >
PUBLIC	??0_Aux_cont@std@@QAE@QBV_Container_base_aux@1@@Z ; std::_Aux_cont::_Aux_cont
PUBLIC	??0_Container_base_aux@std@@QAE@XZ		; std::_Container_base_aux::_Container_base_aux
PUBLIC	??$_Allocate@V_Aux_cont@std@@@std@@YAPAV_Aux_cont@0@IPAV10@@Z ; std::_Allocate<std::_Aux_cont>
PUBLIC	?allocate@?$allocator@V_Aux_cont@std@@@std@@QAEPAV_Aux_cont@2@I@Z ; std::allocator<std::_Aux_cont>::allocate
PUBLIC	??$?0U?$pair@$$CBKPAVThreadInfo@@@std@@@?$allocator@V_Aux_cont@std@@@std@@QAE@ABV?$allocator@U?$pair@$$CBKPAVThreadInfo@@@std@@@1@@Z ; std::allocator<std::_Aux_cont>::allocator<std::_Aux_cont><std::pair<unsigned long const ,ThreadInfo *> >
PUBLIC	??0?$_Container_base_aux_alloc_real@V?$allocator@U?$pair@$$CBKPAVThreadInfo@@@std@@@std@@@std@@IAE@V?$allocator@U?$pair@$$CBKPAVThreadInfo@@@std@@@1@@Z ; std::_Container_base_aux_alloc_real<std::allocator<std::pair<unsigned long const ,ThreadInfo *> > >::_Container_base_aux_alloc_real<std::allocator<std::pair<unsigned long const ,ThreadInfo *> > >
PUBLIC	??0?$allocator@U?$pair@$$CBKPAVThreadInfo@@@std@@@std@@QAE@ABV01@@Z ; std::allocator<std::pair<unsigned long const ,ThreadInfo *> >::allocator<std::pair<unsigned long const ,ThreadInfo *> >
PUBLIC	??0?$_Tmap_traits@KPAVThreadInfo@@U?$less@K@std@@V?$allocator@U?$pair@$$CBKPAVThreadInfo@@@std@@@3@$0A@@std@@QAE@U?$less@K@1@V?$allocator@U?$pair@$$CBKPAVThreadInfo@@@std@@@1@@Z ; std::_Tmap_traits<unsigned long,ThreadInfo *,std::less<unsigned long>,std::allocator<std::pair<unsigned long const ,ThreadInfo *> >,0>::_Tmap_traits<unsigned long,ThreadInfo *,std::less<unsigned long>,std::allocator<std::pair<unsigned long const ,ThreadInfo *> >,0>
PUBLIC	??$?0U?$pair@$$CBKPAVThreadInfo@@@std@@@?$allocator@U_Node@?$_Tree_nod@V?$_Tmap_traits@KPAVThreadInfo@@U?$less@K@std@@V?$allocator@U?$pair@$$CBKPAVThreadInfo@@@std@@@3@$0A@@std@@@std@@@std@@QAE@ABV?$allocator@U?$pair@$$CBKPAVThreadInfo@@@std@@@1@@Z ; std::allocator<std::_Tree_nod<std::_Tmap_traits<unsigned long,ThreadInfo *,std::less<unsigned long>,std::allocator<std::pair<unsigned long const ,ThreadInfo *> >,0> >::_Node>::allocator<std::_Tree_nod<std::_Tmap_traits<unsigned long,ThreadInfo *,std::less<unsigned long>,std::allocator<std::pair<unsigned long const ,ThreadInfo *> >,0> >::_Node><std::pair<unsigned long const ,ThreadInfo *> >
PUBLIC	??0?$_Tree_nod@V?$_Tmap_traits@KPAVThreadInfo@@U?$less@K@std@@V?$allocator@U?$pair@$$CBKPAVThreadInfo@@@std@@@3@$0A@@std@@@std@@IAE@ABU?$less@K@1@V?$allocator@U?$pair@$$CBKPAVThreadInfo@@@std@@@1@@Z ; std::_Tree_nod<std::_Tmap_traits<unsigned long,ThreadInfo *,std::less<unsigned long>,std::allocator<std::pair<unsigned long const ,ThreadInfo *> >,0> >::_Tree_nod<std::_Tmap_traits<unsigned long,ThreadInfo *,std::less<unsigned long>,std::allocator<std::pair<unsigned long const ,ThreadInfo *> >,0> >
PUBLIC	??$?0U?$pair@$$CBKPAVThreadInfo@@@std@@@?$allocator@PAU_Node@?$_Tree_nod@V?$_Tmap_traits@KPAVThreadInfo@@U?$less@K@std@@V?$allocator@U?$pair@$$CBKPAVThreadInfo@@@std@@@3@$0A@@std@@@std@@@std@@QAE@ABV?$allocator@U?$pair@$$CBKPAVThreadInfo@@@std@@@1@@Z ; std::allocator<std::_Tree_nod<std::_Tmap_traits<unsigned long,ThreadInfo *,std::less<unsigned long>,std::allocator<std::pair<unsigned long const ,ThreadInfo *> >,0> >::_Node *>::allocator<std::_Tree_nod<std::_Tmap_traits<unsigned long,ThreadInfo *,std::less<unsigned long>,std::allocator<std::pair<unsigned long const ,ThreadInfo *> >,0> >::_Node *><std::pair<unsigned long const ,ThreadInfo *> >
PUBLIC	??0?$_Tree_ptr@V?$_Tmap_traits@KPAVThreadInfo@@U?$less@K@std@@V?$allocator@U?$pair@$$CBKPAVThreadInfo@@@std@@@3@$0A@@std@@@std@@IAE@ABU?$less@K@1@V?$allocator@U?$pair@$$CBKPAVThreadInfo@@@std@@@1@@Z ; std::_Tree_ptr<std::_Tmap_traits<unsigned long,ThreadInfo *,std::less<unsigned long>,std::allocator<std::pair<unsigned long const ,ThreadInfo *> >,0> >::_Tree_ptr<std::_Tmap_traits<unsigned long,ThreadInfo *,std::less<unsigned long>,std::allocator<std::pair<unsigned long const ,ThreadInfo *> >,0> >
PUBLIC	??0?$_Tree_val@V?$_Tmap_traits@KPAVThreadInfo@@U?$less@K@std@@V?$allocator@U?$pair@$$CBKPAVThreadInfo@@@std@@@3@$0A@@std@@@std@@IAE@ABU?$less@K@1@V?$allocator@U?$pair@$$CBKPAVThreadInfo@@@std@@@1@@Z ; std::_Tree_val<std::_Tmap_traits<unsigned long,ThreadInfo *,std::less<unsigned long>,std::allocator<std::pair<unsigned long const ,ThreadInfo *> >,0> >::_Tree_val<std::_Tmap_traits<unsigned long,ThreadInfo *,std::less<unsigned long>,std::allocator<std::pair<unsigned long const ,ThreadInfo *> >,0> >
PUBLIC	??$_Construct@PAU_Node@?$_Tree_nod@V?$_Tmap_traits@KPAVThreadInfo@@U?$less@K@std@@V?$allocator@U?$pair@$$CBKPAVThreadInfo@@@std@@@3@$0A@@std@@@std@@PAU123@@std@@YAXPAPAU_Node@?$_Tree_nod@V?$_Tmap_traits@KPAVThreadInfo@@U?$less@K@std@@V?$allocator@U?$pair@$$CBKPAVThreadInfo@@@std@@@3@$0A@@std@@@0@ABQAU120@@Z ; std::_Construct<std::_Tree_nod<std::_Tmap_traits<unsigned long,ThreadInfo *,std::less<unsigned long>,std::allocator<std::pair<unsigned long const ,ThreadInfo *> >,0> >::_Node *,std::_Tree_nod<std::_Tmap_traits<unsigned long,ThreadInfo *,std::less<unsigned long>,std::allocator<std::pair<unsigned long const ,ThreadInfo *> >,0> >::_Node *>
PUBLIC	?construct@?$allocator@PAU_Node@?$_Tree_nod@V?$_Tmap_traits@KPAVThreadInfo@@U?$less@K@std@@V?$allocator@U?$pair@$$CBKPAVThreadInfo@@@std@@@3@$0A@@std@@@std@@@std@@QAEXPAPAU_Node@?$_Tree_nod@V?$_Tmap_traits@KPAVThreadInfo@@U?$less@K@std@@V?$allocator@U?$pair@$$CBKPAVThreadInfo@@@std@@@3@$0A@@std@@@2@ABQAU342@@Z ; std::allocator<std::_Tree_nod<std::_Tmap_traits<unsigned long,ThreadInfo *,std::less<unsigned long>,std::allocator<std::pair<unsigned long const ,ThreadInfo *> >,0> >::_Node *>::construct
PUBLIC	?_Buynode@?$_Tree@V?$_Tmap_traits@KPAVThreadInfo@@U?$less@K@std@@V?$allocator@U?$pair@$$CBKPAVThreadInfo@@@std@@@3@$0A@@std@@@std@@IAEPAU_Node@?$_Tree_nod@V?$_Tmap_traits@KPAVThreadInfo@@U?$less@K@std@@V?$allocator@U?$pair@$$CBKPAVThreadInfo@@@std@@@3@$0A@@std@@@2@XZ ; std::_Tree<std::_Tmap_traits<unsigned long,ThreadInfo *,std::less<unsigned long>,std::allocator<std::pair<unsigned long const ,ThreadInfo *> >,0> >::_Buynode
PUBLIC	?_Init@?$_Tree@V?$_Tmap_traits@KPAVThreadInfo@@U?$less@K@std@@V?$allocator@U?$pair@$$CBKPAVThreadInfo@@@std@@@3@$0A@@std@@@std@@IAEXXZ ; std::_Tree<std::_Tmap_traits<unsigned long,ThreadInfo *,std::less<unsigned long>,std::allocator<std::pair<unsigned long const ,ThreadInfo *> >,0> >::_Init
PUBLIC	??0?$_Tree@V?$_Tmap_traits@KPAVThreadInfo@@U?$less@K@std@@V?$allocator@U?$pair@$$CBKPAVThreadInfo@@@std@@@3@$0A@@std@@@std@@QAE@ABU?$less@K@1@ABV?$allocator@U?$pair@$$CBKPAVThreadInfo@@@std@@@1@@Z ; std::_Tree<std::_Tmap_traits<unsigned long,ThreadInfo *,std::less<unsigned long>,std::allocator<std::pair<unsigned long const ,ThreadInfo *> >,0> >::_Tree<std::_Tmap_traits<unsigned long,ThreadInfo *,std::less<unsigned long>,std::allocator<std::pair<unsigned long const ,ThreadInfo *> >,0> >
PUBLIC	??0?$map@KPAVThreadInfo@@U?$less@K@std@@V?$allocator@U?$pair@$$CBKPAVThreadInfo@@@std@@@3@@std@@QAE@XZ ; std::map<unsigned long,ThreadInfo *,std::less<unsigned long>,std::allocator<std::pair<unsigned long const ,ThreadInfo *> > >::map<unsigned long,ThreadInfo *,std::less<unsigned long>,std::allocator<std::pair<unsigned long const ,ThreadInfo *> > >
PUBLIC	?max_size@?$allocator@U?$pair@$$CBKPAVThreadInfo@@@std@@@std@@QBEIXZ ; std::allocator<std::pair<unsigned long const ,ThreadInfo *> >::max_size
PUBLIC	?max_size@?$_Tree@V?$_Tmap_traits@KPAVThreadInfo@@U?$less@K@std@@V?$allocator@U?$pair@$$CBKPAVThreadInfo@@@std@@@3@$0A@@std@@@std@@QBEIXZ ; std::_Tree<std::_Tmap_traits<unsigned long,ThreadInfo *,std::less<unsigned long>,std::allocator<std::pair<unsigned long const ,ThreadInfo *> >,0> >::max_size
PUBLIC	??$_Allocate@U_Node@?$_Tree_nod@V?$_Tmap_traits@KPAVThreadInfo@@U?$less@K@std@@V?$allocator@U?$pair@$$CBKPAVThreadInfo@@@std@@@3@$0A@@std@@@std@@@std@@YAPAU_Node@?$_Tree_nod@V?$_Tmap_traits@KPAVThreadInfo@@U?$less@K@std@@V?$allocator@U?$pair@$$CBKPAVThreadInfo@@@std@@@3@$0A@@std@@@0@IPAU120@@Z ; std::_Allocate<std::_Tree_nod<std::_Tmap_traits<unsigned long,ThreadInfo *,std::less<unsigned long>,std::allocator<std::pair<unsigned long const ,ThreadInfo *> >,0> >::_Node>
PUBLIC	?allocate@?$allocator@U_Node@?$_Tree_nod@V?$_Tmap_traits@KPAVThreadInfo@@U?$less@K@std@@V?$allocator@U?$pair@$$CBKPAVThreadInfo@@@std@@@3@$0A@@std@@@std@@@std@@QAEPAU_Node@?$_Tree_nod@V?$_Tmap_traits@KPAVThreadInfo@@U?$less@K@std@@V?$allocator@U?$pair@$$CBKPAVThreadInfo@@@std@@@3@$0A@@std@@@2@I@Z ; std::allocator<std::_Tree_nod<std::_Tmap_traits<unsigned long,ThreadInfo *,std::less<unsigned long>,std::allocator<std::pair<unsigned long const ,ThreadInfo *> >,0> >::_Node>::allocate
PUBLIC	??0_Node@?$_Tree_nod@V?$_Tmap_traits@KPAVThreadInfo@@U?$less@K@std@@V?$allocator@U?$pair@$$CBKPAVThreadInfo@@@std@@@3@$0A@@std@@@std@@QAE@PAU012@00ABU?$pair@$$CBKPAVThreadInfo@@@2@D@Z ; std::_Tree_nod<std::_Tmap_traits<unsigned long,ThreadInfo *,std::less<unsigned long>,std::allocator<std::pair<unsigned long const ,ThreadInfo *> >,0> >::_Node::_Node
PUBLIC	?_Buynode@?$_Tree@V?$_Tmap_traits@KPAVThreadInfo@@U?$less@K@std@@V?$allocator@U?$pair@$$CBKPAVThreadInfo@@@std@@@3@$0A@@std@@@std@@IAEPAU_Node@?$_Tree_nod@V?$_Tmap_traits@KPAVThreadInfo@@U?$less@K@std@@V?$allocator@U?$pair@$$CBKPAVThreadInfo@@@std@@@3@$0A@@std@@@2@PAU342@00ABU?$pair@$$CBKPAVThreadInfo@@@2@D@Z ; std::_Tree<std::_Tmap_traits<unsigned long,ThreadInfo *,std::less<unsigned long>,std::allocator<std::pair<unsigned long const ,ThreadInfo *> >,0> >::_Buynode
PUBLIC	?_Insert@?$_Tree@V?$_Tmap_traits@KPAVThreadInfo@@U?$less@K@std@@V?$allocator@U?$pair@$$CBKPAVThreadInfo@@@std@@@3@$0A@@std@@@std@@IAE?AViterator@12@_NPAU_Node@?$_Tree_nod@V?$_Tmap_traits@KPAVThreadInfo@@U?$less@K@std@@V?$allocator@U?$pair@$$CBKPAVThreadInfo@@@std@@@3@$0A@@std@@@2@ABU?$pair@$$CBKPAVThreadInfo@@@2@@Z ; std::_Tree<std::_Tmap_traits<unsigned long,ThreadInfo *,std::less<unsigned long>,std::allocator<std::pair<unsigned long const ,ThreadInfo *> >,0> >::_Insert
PUBLIC	?_Dec@const_iterator@?$_Tree@V?$_Tmap_traits@KPAVThreadInfo@@U?$less@K@std@@V?$allocator@U?$pair@$$CBKPAVThreadInfo@@@std@@@3@$0A@@std@@@std@@QAEXXZ ; std::_Tree<std::_Tmap_traits<unsigned long,ThreadInfo *,std::less<unsigned long>,std::allocator<std::pair<unsigned long const ,ThreadInfo *> >,0> >::const_iterator::_Dec
PUBLIC	??Fconst_iterator@?$_Tree@V?$_Tmap_traits@KPAVThreadInfo@@U?$less@K@std@@V?$allocator@U?$pair@$$CBKPAVThreadInfo@@@std@@@3@$0A@@std@@@std@@QAEAAV012@XZ ; std::_Tree<std::_Tmap_traits<unsigned long,ThreadInfo *,std::less<unsigned long>,std::allocator<std::pair<unsigned long const ,ThreadInfo *> >,0> >::const_iterator::operator--
PUBLIC	??Fiterator@?$_Tree@V?$_Tmap_traits@KPAVThreadInfo@@U?$less@K@std@@V?$allocator@U?$pair@$$CBKPAVThreadInfo@@@std@@@3@$0A@@std@@@std@@QAEAAV012@XZ ; std::_Tree<std::_Tmap_traits<unsigned long,ThreadInfo *,std::less<unsigned long>,std::allocator<std::pair<unsigned long const ,ThreadInfo *> >,0> >::iterator::operator--
PUBLIC	??0?$pair@Viterator@?$_Tree@V?$_Tmap_traits@KPAVThreadInfo@@U?$less@K@std@@V?$allocator@U?$pair@$$CBKPAVThreadInfo@@@std@@@3@$0A@@std@@@std@@_N@std@@QAE@ABViterator@?$_Tree@V?$_Tmap_traits@KPAVThreadInfo@@U?$less@K@std@@V?$allocator@U?$pair@$$CBKPAVThreadInfo@@@std@@@3@$0A@@std@@@1@AB_N@Z ; std::pair<std::_Tree<std::_Tmap_traits<unsigned long,ThreadInfo *,std::less<unsigned long>,std::allocator<std::pair<unsigned long const ,ThreadInfo *> >,0> >::iterator,bool>::pair<std::_Tree<std::_Tmap_traits<unsigned long,ThreadInfo *,std::less<unsigned long>,std::allocator<std::pair<unsigned long const ,ThreadInfo *> >,0> >::iterator,bool>
PUBLIC	?insert@?$_Tree@V?$_Tmap_traits@KPAVThreadInfo@@U?$less@K@std@@V?$allocator@U?$pair@$$CBKPAVThreadInfo@@@std@@@3@$0A@@std@@@std@@QAE?AU?$pair@Viterator@?$_Tree@V?$_Tmap_traits@KPAVThreadInfo@@U?$less@K@std@@V?$allocator@U?$pair@$$CBKPAVThreadInfo@@@std@@@3@$0A@@std@@@std@@_N@2@ABU?$pair@$$CBKPAVThreadInfo@@@2@@Z ; std::_Tree<std::_Tmap_traits<unsigned long,ThreadInfo *,std::less<unsigned long>,std::allocator<std::pair<unsigned long const ,ThreadInfo *> >,0> >::insert
PUBLIC	?_Lbound@?$_Tree@V?$_Tmap_traits@KPAVThreadInfo@@U?$less@K@std@@V?$allocator@U?$pair@$$CBKPAVThreadInfo@@@std@@@3@$0A@@std@@@std@@IBEPAU_Node@?$_Tree_nod@V?$_Tmap_traits@KPAVThreadInfo@@U?$less@K@std@@V?$allocator@U?$pair@$$CBKPAVThreadInfo@@@std@@@3@$0A@@std@@@2@ABK@Z ; std::_Tree<std::_Tmap_traits<unsigned long,ThreadInfo *,std::less<unsigned long>,std::allocator<std::pair<unsigned long const ,ThreadInfo *> >,0> >::_Lbound
PUBLIC	?lower_bound@?$_Tree@V?$_Tmap_traits@KPAVThreadInfo@@U?$less@K@std@@V?$allocator@U?$pair@$$CBKPAVThreadInfo@@@std@@@3@$0A@@std@@@std@@QAE?AViterator@12@ABK@Z ; std::_Tree<std::_Tmap_traits<unsigned long,ThreadInfo *,std::less<unsigned long>,std::allocator<std::pair<unsigned long const ,ThreadInfo *> >,0> >::lower_bound
PUBLIC	?find@?$_Tree@V?$_Tmap_traits@KPAVThreadInfo@@U?$less@K@std@@V?$allocator@U?$pair@$$CBKPAVThreadInfo@@@std@@@3@$0A@@std@@@std@@QAE?AViterator@12@ABK@Z ; std::_Tree<std::_Tmap_traits<unsigned long,ThreadInfo *,std::less<unsigned long>,std::allocator<std::pair<unsigned long const ,ThreadInfo *> >,0> >::find
PUBLIC	??0?$pair@KPAVThreadInfo@@@std@@QAE@ABKABQAVThreadInfo@@@Z ; std::pair<unsigned long,ThreadInfo *>::pair<unsigned long,ThreadInfo *>
PUBLIC	??$?0KPAVThreadInfo@@@?$pair@$$CBKPAVThreadInfo@@@std@@QAE@ABU?$pair@KPAVThreadInfo@@@1@@Z ; std::pair<unsigned long const ,ThreadInfo *>::pair<unsigned long const ,ThreadInfo *><unsigned long,ThreadInfo *>
PUBLIC	?_Kfn@?$_Tmap_traits@IHU?$less@I@std@@V?$allocator@U?$pair@$$CBIH@std@@@2@$0A@@std@@SAABIABU?$pair@$$CBIH@2@@Z ; std::_Tmap_traits<unsigned int,int,std::less<unsigned int>,std::allocator<std::pair<unsigned int const ,int> >,0>::_Kfn
PUBLIC	?_Myval@?$_Tree@V?$_Tmap_traits@IHU?$less@I@std@@V?$allocator@U?$pair@$$CBIH@std@@@2@$0A@@std@@@std@@KAAAU?$pair@$$CBIH@2@PAU_Node@?$_Tree_nod@V?$_Tmap_traits@IHU?$less@I@std@@V?$allocator@U?$pair@$$CBIH@std@@@2@$0A@@std@@@2@@Z ; std::_Tree<std::_Tmap_traits<unsigned int,int,std::less<unsigned int>,std::allocator<std::pair<unsigned int const ,int> >,0> >::_Myval
PUBLIC	?_Key@?$_Tree@V?$_Tmap_traits@IHU?$less@I@std@@V?$allocator@U?$pair@$$CBIH@std@@@2@$0A@@std@@@std@@KAABIPAU_Node@?$_Tree_nod@V?$_Tmap_traits@IHU?$less@I@std@@V?$allocator@U?$pair@$$CBIH@std@@@2@$0A@@std@@@2@@Z ; std::_Tree<std::_Tmap_traits<unsigned int,int,std::less<unsigned int>,std::allocator<std::pair<unsigned int const ,int> >,0> >::_Key
PUBLIC	??0?$pair@Viterator@?$_Tree@V?$_Tmap_traits@IHU?$less@I@std@@V?$allocator@U?$pair@$$CBIH@std@@@2@$0A@@std@@@std@@V123@@std@@QAE@ABViterator@?$_Tree@V?$_Tmap_traits@IHU?$less@I@std@@V?$allocator@U?$pair@$$CBIH@std@@@2@$0A@@std@@@1@0@Z ; std::pair<std::_Tree<std::_Tmap_traits<unsigned int,int,std::less<unsigned int>,std::allocator<std::pair<unsigned int const ,int> >,0> >::iterator,std::_Tree<std::_Tmap_traits<unsigned int,int,std::less<unsigned int>,std::allocator<std::pair<unsigned int const ,int> >,0> >::iterator>::pair<std::_Tree<std::_Tmap_traits<unsigned int,int,std::less<unsigned int>,std::allocator<std::pair<unsigned int const ,int> >,0> >::iterator,std::_Tree<std::_Tmap_traits<unsigned int,int,std::less<unsigned int>,std::allocator<std::pair<unsigned int const ,int> >,0> >::iterator>
PUBLIC	?_Eqrange@?$_Tree@V?$_Tmap_traits@IHU?$less@I@std@@V?$allocator@U?$pair@$$CBIH@std@@@2@$0A@@std@@@std@@IAE?AU?$pair@Viterator@?$_Tree@V?$_Tmap_traits@IHU?$less@I@std@@V?$allocator@U?$pair@$$CBIH@std@@@2@$0A@@std@@@std@@V123@@2@ABI@Z ; std::_Tree<std::_Tmap_traits<unsigned int,int,std::less<unsigned int>,std::allocator<std::pair<unsigned int const ,int> >,0> >::_Eqrange
PUBLIC	?equal_range@?$_Tree@V?$_Tmap_traits@IHU?$less@I@std@@V?$allocator@U?$pair@$$CBIH@std@@@2@$0A@@std@@@std@@QAE?AU?$pair@Viterator@?$_Tree@V?$_Tmap_traits@IHU?$less@I@std@@V?$allocator@U?$pair@$$CBIH@std@@@2@$0A@@std@@@std@@V123@@2@ABI@Z ; std::_Tree<std::_Tmap_traits<unsigned int,int,std::less<unsigned int>,std::allocator<std::pair<unsigned int const ,int> >,0> >::equal_range
PUBLIC	??$_Iter_cat@Viterator@?$_Tree@V?$_Tmap_traits@IHU?$less@I@std@@V?$allocator@U?$pair@$$CBIH@std@@@2@$0A@@std@@@std@@@std@@YA?AUbidirectional_iterator_tag@0@ABViterator@?$_Tree@V?$_Tmap_traits@IHU?$less@I@std@@V?$allocator@U?$pair@$$CBIH@std@@@2@$0A@@std@@@0@@Z ; std::_Iter_cat<std::_Tree<std::_Tmap_traits<unsigned int,int,std::less<unsigned int>,std::allocator<std::pair<unsigned int const ,int> >,0> >::iterator>
PUBLIC	??Eiterator@?$_Tree@V?$_Tmap_traits@IHU?$less@I@std@@V?$allocator@U?$pair@$$CBIH@std@@@2@$0A@@std@@@std@@QAEAAV012@XZ ; std::_Tree<std::_Tmap_traits<unsigned int,int,std::less<unsigned int>,std::allocator<std::pair<unsigned int const ,int> >,0> >::iterator::operator++
PUBLIC	??$_Distance2@Viterator@?$_Tree@V?$_Tmap_traits@IHU?$less@I@std@@V?$allocator@U?$pair@$$CBIH@std@@@2@$0A@@std@@@std@@I@std@@YAXViterator@?$_Tree@V?$_Tmap_traits@IHU?$less@I@std@@V?$allocator@U?$pair@$$CBIH@std@@@2@$0A@@std@@@0@0AAIUbidirectional_iterator_tag@0@@Z ; std::_Distance2<std::_Tree<std::_Tmap_traits<unsigned int,int,std::less<unsigned int>,std::allocator<std::pair<unsigned int const ,int> >,0> >::iterator,unsigned int>
PUBLIC	??$_Distance@Viterator@?$_Tree@V?$_Tmap_traits@IHU?$less@I@std@@V?$allocator@U?$pair@$$CBIH@std@@@2@$0A@@std@@@std@@I@std@@YAXViterator@?$_Tree@V?$_Tmap_traits@IHU?$less@I@std@@V?$allocator@U?$pair@$$CBIH@std@@@2@$0A@@std@@@0@0AAI@Z ; std::_Distance<std::_Tree<std::_Tmap_traits<unsigned int,int,std::less<unsigned int>,std::allocator<std::pair<unsigned int const ,int> >,0> >::iterator,unsigned int>
PUBLIC	?erase@?$_Tree@V?$_Tmap_traits@IHU?$less@I@std@@V?$allocator@U?$pair@$$CBIH@std@@@2@$0A@@std@@@std@@QAEIABI@Z ; std::_Tree<std::_Tmap_traits<unsigned int,int,std::less<unsigned int>,std::allocator<std::pair<unsigned int const ,int> >,0> >::erase
PUBLIC	??0length_error@std@@QAE@ABV?$basic_string@DU?$char_traits@D@std@@V?$allocator@D@2@@1@@Z ; std::length_error::length_error
PUBLIC	?max_size@?$allocator@U?$pair@$$CBIPAVThreadInfo@@@std@@@std@@QBEIXZ ; std::allocator<std::pair<unsigned int const ,ThreadInfo *> >::max_size
PUBLIC	?max_size@?$_Tree@V?$_Tmap_traits@IPAVThreadInfo@@U?$less@I@std@@V?$allocator@U?$pair@$$CBIPAVThreadInfo@@@std@@@3@$0A@@std@@@std@@QBEIXZ ; std::_Tree<std::_Tmap_traits<unsigned int,ThreadInfo *,std::less<unsigned int>,std::allocator<std::pair<unsigned int const ,ThreadInfo *> >,0> >::max_size
PUBLIC	??0bad_alloc@std@@QAE@PBD@Z			; std::bad_alloc::bad_alloc
PUBLIC	??1bad_alloc@std@@UAE@XZ			; std::bad_alloc::~bad_alloc
PUBLIC	??_Gbad_alloc@std@@UAEPAXI@Z			; std::bad_alloc::`scalar deleting destructor'
PUBLIC	??0bad_alloc@std@@QAE@ABV01@@Z			; std::bad_alloc::bad_alloc
PUBLIC	??$_Allocate@U_Node@?$_Tree_nod@V?$_Tmap_traits@IPAVThreadInfo@@U?$less@I@std@@V?$allocator@U?$pair@$$CBIPAVThreadInfo@@@std@@@3@$0A@@std@@@std@@@std@@YAPAU_Node@?$_Tree_nod@V?$_Tmap_traits@IPAVThreadInfo@@U?$less@I@std@@V?$allocator@U?$pair@$$CBIPAVThreadInfo@@@std@@@3@$0A@@std@@@0@IPAU120@@Z ; std::_Allocate<std::_Tree_nod<std::_Tmap_traits<unsigned int,ThreadInfo *,std::less<unsigned int>,std::allocator<std::pair<unsigned int const ,ThreadInfo *> >,0> >::_Node>
PUBLIC	?allocate@?$allocator@U_Node@?$_Tree_nod@V?$_Tmap_traits@IPAVThreadInfo@@U?$less@I@std@@V?$allocator@U?$pair@$$CBIPAVThreadInfo@@@std@@@3@$0A@@std@@@std@@@std@@QAEPAU_Node@?$_Tree_nod@V?$_Tmap_traits@IPAVThreadInfo@@U?$less@I@std@@V?$allocator@U?$pair@$$CBIPAVThreadInfo@@@std@@@3@$0A@@std@@@2@I@Z ; std::allocator<std::_Tree_nod<std::_Tmap_traits<unsigned int,ThreadInfo *,std::less<unsigned int>,std::allocator<std::pair<unsigned int const ,ThreadInfo *> >,0> >::_Node>::allocate
PUBLIC	??0_Node@?$_Tree_nod@V?$_Tmap_traits@IPAVThreadInfo@@U?$less@I@std@@V?$allocator@U?$pair@$$CBIPAVThreadInfo@@@std@@@3@$0A@@std@@@std@@QAE@PAU012@00ABU?$pair@$$CBIPAVThreadInfo@@@2@D@Z ; std::_Tree_nod<std::_Tmap_traits<unsigned int,ThreadInfo *,std::less<unsigned int>,std::allocator<std::pair<unsigned int const ,ThreadInfo *> >,0> >::_Node::_Node
PUBLIC	?_Buynode@?$_Tree@V?$_Tmap_traits@IPAVThreadInfo@@U?$less@I@std@@V?$allocator@U?$pair@$$CBIPAVThreadInfo@@@std@@@3@$0A@@std@@@std@@IAEPAU_Node@?$_Tree_nod@V?$_Tmap_traits@IPAVThreadInfo@@U?$less@I@std@@V?$allocator@U?$pair@$$CBIPAVThreadInfo@@@std@@@3@$0A@@std@@@2@PAU342@00ABU?$pair@$$CBIPAVThreadInfo@@@2@D@Z ; std::_Tree<std::_Tmap_traits<unsigned int,ThreadInfo *,std::less<unsigned int>,std::allocator<std::pair<unsigned int const ,ThreadInfo *> >,0> >::_Buynode
PUBLIC	??1length_error@std@@UAE@XZ			; std::length_error::~length_error
PUBLIC	??_Glength_error@std@@UAEPAXI@Z			; std::length_error::`scalar deleting destructor'
PUBLIC	??0length_error@std@@QAE@ABV01@@Z		; std::length_error::length_error
PUBLIC	?_Insert@?$_Tree@V?$_Tmap_traits@IPAVThreadInfo@@U?$less@I@std@@V?$allocator@U?$pair@$$CBIPAVThreadInfo@@@std@@@3@$0A@@std@@@std@@IAE?AViterator@12@_NPAU_Node@?$_Tree_nod@V?$_Tmap_traits@IPAVThreadInfo@@U?$less@I@std@@V?$allocator@U?$pair@$$CBIPAVThreadInfo@@@std@@@3@$0A@@std@@@2@ABU?$pair@$$CBIPAVThreadInfo@@@2@@Z ; std::_Tree<std::_Tmap_traits<unsigned int,ThreadInfo *,std::less<unsigned int>,std::allocator<std::pair<unsigned int const ,ThreadInfo *> >,0> >::_Insert
PUBLIC	?_Dec@const_iterator@?$_Tree@V?$_Tmap_traits@IPAVThreadInfo@@U?$less@I@std@@V?$allocator@U?$pair@$$CBIPAVThreadInfo@@@std@@@3@$0A@@std@@@std@@QAEXXZ ; std::_Tree<std::_Tmap_traits<unsigned int,ThreadInfo *,std::less<unsigned int>,std::allocator<std::pair<unsigned int const ,ThreadInfo *> >,0> >::const_iterator::_Dec
PUBLIC	??Fconst_iterator@?$_Tree@V?$_Tmap_traits@IPAVThreadInfo@@U?$less@I@std@@V?$allocator@U?$pair@$$CBIPAVThreadInfo@@@std@@@3@$0A@@std@@@std@@QAEAAV012@XZ ; std::_Tree<std::_Tmap_traits<unsigned int,ThreadInfo *,std::less<unsigned int>,std::allocator<std::pair<unsigned int const ,ThreadInfo *> >,0> >::const_iterator::operator--
PUBLIC	??Fiterator@?$_Tree@V?$_Tmap_traits@IPAVThreadInfo@@U?$less@I@std@@V?$allocator@U?$pair@$$CBIPAVThreadInfo@@@std@@@3@$0A@@std@@@std@@QAEAAV012@XZ ; std::_Tree<std::_Tmap_traits<unsigned int,ThreadInfo *,std::less<unsigned int>,std::allocator<std::pair<unsigned int const ,ThreadInfo *> >,0> >::iterator::operator--
PUBLIC	??0?$pair@Viterator@?$_Tree@V?$_Tmap_traits@IPAVThreadInfo@@U?$less@I@std@@V?$allocator@U?$pair@$$CBIPAVThreadInfo@@@std@@@3@$0A@@std@@@std@@_N@std@@QAE@ABViterator@?$_Tree@V?$_Tmap_traits@IPAVThreadInfo@@U?$less@I@std@@V?$allocator@U?$pair@$$CBIPAVThreadInfo@@@std@@@3@$0A@@std@@@1@AB_N@Z ; std::pair<std::_Tree<std::_Tmap_traits<unsigned int,ThreadInfo *,std::less<unsigned int>,std::allocator<std::pair<unsigned int const ,ThreadInfo *> >,0> >::iterator,bool>::pair<std::_Tree<std::_Tmap_traits<unsigned int,ThreadInfo *,std::less<unsigned int>,std::allocator<std::pair<unsigned int const ,ThreadInfo *> >,0> >::iterator,bool>
PUBLIC	?insert@?$_Tree@V?$_Tmap_traits@IPAVThreadInfo@@U?$less@I@std@@V?$allocator@U?$pair@$$CBIPAVThreadInfo@@@std@@@3@$0A@@std@@@std@@QAE?AU?$pair@Viterator@?$_Tree@V?$_Tmap_traits@IPAVThreadInfo@@U?$less@I@std@@V?$allocator@U?$pair@$$CBIPAVThreadInfo@@@std@@@3@$0A@@std@@@std@@_N@2@ABU?$pair@$$CBIPAVThreadInfo@@@2@@Z ; std::_Tree<std::_Tmap_traits<unsigned int,ThreadInfo *,std::less<unsigned int>,std::allocator<std::pair<unsigned int const ,ThreadInfo *> >,0> >::insert
PUBLIC	??0ThreadInfo@@QAE@XZ				; ThreadInfo::ThreadInfo
PUBLIC	??0?$pair@IPAVThreadInfo@@@std@@QAE@ABIABQAVThreadInfo@@@Z ; std::pair<unsigned int,ThreadInfo *>::pair<unsigned int,ThreadInfo *>
PUBLIC	??$?0IPAVThreadInfo@@@?$pair@$$CBIPAVThreadInfo@@@std@@QAE@ABU?$pair@IPAVThreadInfo@@@1@@Z ; std::pair<unsigned int const ,ThreadInfo *>::pair<unsigned int const ,ThreadInfo *><unsigned int,ThreadInfo *>
PUBLIC	?Enter@CriticalSection@@QAEXXZ			; CriticalSection::Enter
PUBLIC	?Leave@CriticalSection@@QAEXXZ			; CriticalSection::Leave
PUBLIC	??0?$pair@Viterator@?$_Tree@V?$_Tmap_traits@IPAVThreadInfo@@U?$less@I@std@@V?$allocator@U?$pair@$$CBIPAVThreadInfo@@@std@@@3@$0A@@std@@@std@@V123@@std@@QAE@ABViterator@?$_Tree@V?$_Tmap_traits@IPAVThreadInfo@@U?$less@I@std@@V?$allocator@U?$pair@$$CBIPAVThreadInfo@@@std@@@3@$0A@@std@@@1@0@Z ; std::pair<std::_Tree<std::_Tmap_traits<unsigned int,ThreadInfo *,std::less<unsigned int>,std::allocator<std::pair<unsigned int const ,ThreadInfo *> >,0> >::iterator,std::_Tree<std::_Tmap_traits<unsigned int,ThreadInfo *,std::less<unsigned int>,std::allocator<std::pair<unsigned int const ,ThreadInfo *> >,0> >::iterator>::pair<std::_Tree<std::_Tmap_traits<unsigned int,ThreadInfo *,std::less<unsigned int>,std::allocator<std::pair<unsigned int const ,ThreadInfo *> >,0> >::iterator,std::_Tree<std::_Tmap_traits<unsigned int,ThreadInfo *,std::less<unsigned int>,std::allocator<std::pair<unsigned int const ,ThreadInfo *> >,0> >::iterator>
PUBLIC	?_Eqrange@?$_Tree@V?$_Tmap_traits@IPAVThreadInfo@@U?$less@I@std@@V?$allocator@U?$pair@$$CBIPAVThreadInfo@@@std@@@3@$0A@@std@@@std@@IAE?AU?$pair@Viterator@?$_Tree@V?$_Tmap_traits@IPAVThreadInfo@@U?$less@I@std@@V?$allocator@U?$pair@$$CBIPAVThreadInfo@@@std@@@3@$0A@@std@@@std@@V123@@2@ABI@Z ; std::_Tree<std::_Tmap_traits<unsigned int,ThreadInfo *,std::less<unsigned int>,std::allocator<std::pair<unsigned int const ,ThreadInfo *> >,0> >::_Eqrange
PUBLIC	?equal_range@?$_Tree@V?$_Tmap_traits@IPAVThreadInfo@@U?$less@I@std@@V?$allocator@U?$pair@$$CBIPAVThreadInfo@@@std@@@3@$0A@@std@@@std@@QAE?AU?$pair@Viterator@?$_Tree@V?$_Tmap_traits@IPAVThreadInfo@@U?$less@I@std@@V?$allocator@U?$pair@$$CBIPAVThreadInfo@@@std@@@3@$0A@@std@@@std@@V123@@2@ABI@Z ; std::_Tree<std::_Tmap_traits<unsigned int,ThreadInfo *,std::less<unsigned int>,std::allocator<std::pair<unsigned int const ,ThreadInfo *> >,0> >::equal_range
PUBLIC	??$_Iter_cat@Viterator@?$_Tree@V?$_Tmap_traits@IPAVThreadInfo@@U?$less@I@std@@V?$allocator@U?$pair@$$CBIPAVThreadInfo@@@std@@@3@$0A@@std@@@std@@@std@@YA?AUbidirectional_iterator_tag@0@ABViterator@?$_Tree@V?$_Tmap_traits@IPAVThreadInfo@@U?$less@I@std@@V?$allocator@U?$pair@$$CBIPAVThreadInfo@@@std@@@3@$0A@@std@@@0@@Z ; std::_Iter_cat<std::_Tree<std::_Tmap_traits<unsigned int,ThreadInfo *,std::less<unsigned int>,std::allocator<std::pair<unsigned int const ,ThreadInfo *> >,0> >::iterator>
PUBLIC	??Eiterator@?$_Tree@V?$_Tmap_traits@IPAVThreadInfo@@U?$less@I@std@@V?$allocator@U?$pair@$$CBIPAVThreadInfo@@@std@@@3@$0A@@std@@@std@@QAEAAV012@XZ ; std::_Tree<std::_Tmap_traits<unsigned int,ThreadInfo *,std::less<unsigned int>,std::allocator<std::pair<unsigned int const ,ThreadInfo *> >,0> >::iterator::operator++
PUBLIC	??$_Distance2@Viterator@?$_Tree@V?$_Tmap_traits@IPAVThreadInfo@@U?$less@I@std@@V?$allocator@U?$pair@$$CBIPAVThreadInfo@@@std@@@3@$0A@@std@@@std@@I@std@@YAXViterator@?$_Tree@V?$_Tmap_traits@IPAVThreadInfo@@U?$less@I@std@@V?$allocator@U?$pair@$$CBIPAVThreadInfo@@@std@@@3@$0A@@std@@@0@0AAIUbidirectional_iterator_tag@0@@Z ; std::_Distance2<std::_Tree<std::_Tmap_traits<unsigned int,ThreadInfo *,std::less<unsigned int>,std::allocator<std::pair<unsigned int const ,ThreadInfo *> >,0> >::iterator,unsigned int>
PUBLIC	??$_Distance@Viterator@?$_Tree@V?$_Tmap_traits@IPAVThreadInfo@@U?$less@I@std@@V?$allocator@U?$pair@$$CBIPAVThreadInfo@@@std@@@3@$0A@@std@@@std@@I@std@@YAXViterator@?$_Tree@V?$_Tmap_traits@IPAVThreadInfo@@U?$less@I@std@@V?$allocator@U?$pair@$$CBIPAVThreadInfo@@@std@@@3@$0A@@std@@@0@0AAI@Z ; std::_Distance<std::_Tree<std::_Tmap_traits<unsigned int,ThreadInfo *,std::less<unsigned int>,std::allocator<std::pair<unsigned int const ,ThreadInfo *> >,0> >::iterator,unsigned int>
PUBLIC	?erase@?$_Tree@V?$_Tmap_traits@IPAVThreadInfo@@U?$less@I@std@@V?$allocator@U?$pair@$$CBIPAVThreadInfo@@@std@@@3@$0A@@std@@@std@@QAEIABI@Z ; std::_Tree<std::_Tmap_traits<unsigned int,ThreadInfo *,std::less<unsigned int>,std::allocator<std::pair<unsigned int const ,ThreadInfo *> >,0> >::erase
PUBLIC	??R?$less@I@std@@QBE_NABI0@Z			; std::less<unsigned int>::operator()
PUBLIC	?_Kfn@?$_Tmap_traits@IPAVThreadInfo@@U?$less@I@std@@V?$allocator@U?$pair@$$CBIPAVThreadInfo@@@std@@@3@$0A@@std@@SAABIABU?$pair@$$CBIPAVThreadInfo@@@2@@Z ; std::_Tmap_traits<unsigned int,ThreadInfo *,std::less<unsigned int>,std::allocator<std::pair<unsigned int const ,ThreadInfo *> >,0>::_Kfn
PUBLIC	?_Key@?$_Tree@V?$_Tmap_traits@IPAVThreadInfo@@U?$less@I@std@@V?$allocator@U?$pair@$$CBIPAVThreadInfo@@@std@@@3@$0A@@std@@@std@@KAABIPAU_Node@?$_Tree_nod@V?$_Tmap_traits@IPAVThreadInfo@@U?$less@I@std@@V?$allocator@U?$pair@$$CBIPAVThreadInfo@@@std@@@3@$0A@@std@@@2@@Z ; std::_Tree<std::_Tmap_traits<unsigned int,ThreadInfo *,std::less<unsigned int>,std::allocator<std::pair<unsigned int const ,ThreadInfo *> >,0> >::_Key
PUBLIC	?_Lbound@?$_Tree@V?$_Tmap_traits@IPAVThreadInfo@@U?$less@I@std@@V?$allocator@U?$pair@$$CBIPAVThreadInfo@@@std@@@3@$0A@@std@@@std@@IBEPAU_Node@?$_Tree_nod@V?$_Tmap_traits@IPAVThreadInfo@@U?$less@I@std@@V?$allocator@U?$pair@$$CBIPAVThreadInfo@@@std@@@3@$0A@@std@@@2@ABI@Z ; std::_Tree<std::_Tmap_traits<unsigned int,ThreadInfo *,std::less<unsigned int>,std::allocator<std::pair<unsigned int const ,ThreadInfo *> >,0> >::_Lbound
PUBLIC	?lower_bound@?$_Tree@V?$_Tmap_traits@IPAVThreadInfo@@U?$less@I@std@@V?$allocator@U?$pair@$$CBIPAVThreadInfo@@@std@@@3@$0A@@std@@@std@@QAE?AViterator@12@ABI@Z ; std::_Tree<std::_Tmap_traits<unsigned int,ThreadInfo *,std::less<unsigned int>,std::allocator<std::pair<unsigned int const ,ThreadInfo *> >,0> >::lower_bound
PUBLIC	?find@?$_Tree@V?$_Tmap_traits@IPAVThreadInfo@@U?$less@I@std@@V?$allocator@U?$pair@$$CBIPAVThreadInfo@@@std@@@3@$0A@@std@@@std@@QAE?AViterator@12@ABI@Z ; std::_Tree<std::_Tmap_traits<unsigned int,ThreadInfo *,std::less<unsigned int>,std::allocator<std::pair<unsigned int const ,ThreadInfo *> >,0> >::find
PUBLIC	??R?$less@K@std@@QBE_NABK0@Z			; std::less<unsigned long>::operator()
PUBLIC	?_Kfn@?$_Tmap_traits@KPAVThreadInfo@@U?$less@K@std@@V?$allocator@U?$pair@$$CBKPAVThreadInfo@@@std@@@3@$0A@@std@@SAABKABU?$pair@$$CBKPAVThreadInfo@@@2@@Z ; std::_Tmap_traits<unsigned long,ThreadInfo *,std::less<unsigned long>,std::allocator<std::pair<unsigned long const ,ThreadInfo *> >,0>::_Kfn
PUBLIC	?_Myval@?$_Tree@V?$_Tmap_traits@KPAVThreadInfo@@U?$less@K@std@@V?$allocator@U?$pair@$$CBKPAVThreadInfo@@@std@@@3@$0A@@std@@@std@@KAAAU?$pair@$$CBKPAVThreadInfo@@@2@PAU_Node@?$_Tree_nod@V?$_Tmap_traits@KPAVThreadInfo@@U?$less@K@std@@V?$allocator@U?$pair@$$CBKPAVThreadInfo@@@std@@@3@$0A@@std@@@2@@Z ; std::_Tree<std::_Tmap_traits<unsigned long,ThreadInfo *,std::less<unsigned long>,std::allocator<std::pair<unsigned long const ,ThreadInfo *> >,0> >::_Myval
PUBLIC	?_Key@?$_Tree@V?$_Tmap_traits@KPAVThreadInfo@@U?$less@K@std@@V?$allocator@U?$pair@$$CBKPAVThreadInfo@@@std@@@3@$0A@@std@@@std@@KAABKPAU_Node@?$_Tree_nod@V?$_Tmap_traits@KPAVThreadInfo@@U?$less@K@std@@V?$allocator@U?$pair@$$CBKPAVThreadInfo@@@std@@@3@$0A@@std@@@2@@Z ; std::_Tree<std::_Tmap_traits<unsigned long,ThreadInfo *,std::less<unsigned long>,std::allocator<std::pair<unsigned long const ,ThreadInfo *> >,0> >::_Key
PUBLIC	??0?$pair@Viterator@?$_Tree@V?$_Tmap_traits@KPAVThreadInfo@@U?$less@K@std@@V?$allocator@U?$pair@$$CBKPAVThreadInfo@@@std@@@3@$0A@@std@@@std@@V123@@std@@QAE@ABViterator@?$_Tree@V?$_Tmap_traits@KPAVThreadInfo@@U?$less@K@std@@V?$allocator@U?$pair@$$CBKPAVThreadInfo@@@std@@@3@$0A@@std@@@1@0@Z ; std::pair<std::_Tree<std::_Tmap_traits<unsigned long,ThreadInfo *,std::less<unsigned long>,std::allocator<std::pair<unsigned long const ,ThreadInfo *> >,0> >::iterator,std::_Tree<std::_Tmap_traits<unsigned long,ThreadInfo *,std::less<unsigned long>,std::allocator<std::pair<unsigned long const ,ThreadInfo *> >,0> >::iterator>::pair<std::_Tree<std::_Tmap_traits<unsigned long,ThreadInfo *,std::less<unsigned long>,std::allocator<std::pair<unsigned long const ,ThreadInfo *> >,0> >::iterator,std::_Tree<std::_Tmap_traits<unsigned long,ThreadInfo *,std::less<unsigned long>,std::allocator<std::pair<unsigned long const ,ThreadInfo *> >,0> >::iterator>
PUBLIC	?_Eqrange@?$_Tree@V?$_Tmap_traits@KPAVThreadInfo@@U?$less@K@std@@V?$allocator@U?$pair@$$CBKPAVThreadInfo@@@std@@@3@$0A@@std@@@std@@IAE?AU?$pair@Viterator@?$_Tree@V?$_Tmap_traits@KPAVThreadInfo@@U?$less@K@std@@V?$allocator@U?$pair@$$CBKPAVThreadInfo@@@std@@@3@$0A@@std@@@std@@V123@@2@ABK@Z ; std::_Tree<std::_Tmap_traits<unsigned long,ThreadInfo *,std::less<unsigned long>,std::allocator<std::pair<unsigned long const ,ThreadInfo *> >,0> >::_Eqrange
PUBLIC	?equal_range@?$_Tree@V?$_Tmap_traits@KPAVThreadInfo@@U?$less@K@std@@V?$allocator@U?$pair@$$CBKPAVThreadInfo@@@std@@@3@$0A@@std@@@std@@QAE?AU?$pair@Viterator@?$_Tree@V?$_Tmap_traits@KPAVThreadInfo@@U?$less@K@std@@V?$allocator@U?$pair@$$CBKPAVThreadInfo@@@std@@@3@$0A@@std@@@std@@V123@@2@ABK@Z ; std::_Tree<std::_Tmap_traits<unsigned long,ThreadInfo *,std::less<unsigned long>,std::allocator<std::pair<unsigned long const ,ThreadInfo *> >,0> >::equal_range
PUBLIC	??$_Iter_cat@Viterator@?$_Tree@V?$_Tmap_traits@KPAVThreadInfo@@U?$less@K@std@@V?$allocator@U?$pair@$$CBKPAVThreadInfo@@@std@@@3@$0A@@std@@@std@@@std@@YA?AUbidirectional_iterator_tag@0@ABViterator@?$_Tree@V?$_Tmap_traits@KPAVThreadInfo@@U?$less@K@std@@V?$allocator@U?$pair@$$CBKPAVThreadInfo@@@std@@@3@$0A@@std@@@0@@Z ; std::_Iter_cat<std::_Tree<std::_Tmap_traits<unsigned long,ThreadInfo *,std::less<unsigned long>,std::allocator<std::pair<unsigned long const ,ThreadInfo *> >,0> >::iterator>
PUBLIC	??Eiterator@?$_Tree@V?$_Tmap_traits@KPAVThreadInfo@@U?$less@K@std@@V?$allocator@U?$pair@$$CBKPAVThreadInfo@@@std@@@3@$0A@@std@@@std@@QAEAAV012@XZ ; std::_Tree<std::_Tmap_traits<unsigned long,ThreadInfo *,std::less<unsigned long>,std::allocator<std::pair<unsigned long const ,ThreadInfo *> >,0> >::iterator::operator++
PUBLIC	??$_Distance2@Viterator@?$_Tree@V?$_Tmap_traits@KPAVThreadInfo@@U?$less@K@std@@V?$allocator@U?$pair@$$CBKPAVThreadInfo@@@std@@@3@$0A@@std@@@std@@I@std@@YAXViterator@?$_Tree@V?$_Tmap_traits@KPAVThreadInfo@@U?$less@K@std@@V?$allocator@U?$pair@$$CBKPAVThreadInfo@@@std@@@3@$0A@@std@@@0@0AAIUbidirectional_iterator_tag@0@@Z ; std::_Distance2<std::_Tree<std::_Tmap_traits<unsigned long,ThreadInfo *,std::less<unsigned long>,std::allocator<std::pair<unsigned long const ,ThreadInfo *> >,0> >::iterator,unsigned int>
PUBLIC	??$_Distance@Viterator@?$_Tree@V?$_Tmap_traits@KPAVThreadInfo@@U?$less@K@std@@V?$allocator@U?$pair@$$CBKPAVThreadInfo@@@std@@@3@$0A@@std@@@std@@I@std@@YAXViterator@?$_Tree@V?$_Tmap_traits@KPAVThreadInfo@@U?$less@K@std@@V?$allocator@U?$pair@$$CBKPAVThreadInfo@@@std@@@3@$0A@@std@@@0@0AAI@Z ; std::_Distance<std::_Tree<std::_Tmap_traits<unsigned long,ThreadInfo *,std::less<unsigned long>,std::allocator<std::pair<unsigned long const ,ThreadInfo *> >,0> >::iterator,unsigned int>
PUBLIC	?erase@?$_Tree@V?$_Tmap_traits@KPAVThreadInfo@@U?$less@K@std@@V?$allocator@U?$pair@$$CBKPAVThreadInfo@@@std@@@3@$0A@@std@@@std@@QAEIABK@Z ; std::_Tree<std::_Tmap_traits<unsigned long,ThreadInfo *,std::less<unsigned long>,std::allocator<std::pair<unsigned long const ,ThreadInfo *> >,0> >::erase
PUBLIC	??1ThreadInfo@@QAE@XZ				; ThreadInfo::~ThreadInfo
PUBLIC	??_GThreadInfo@@QAEPAXI@Z			; ThreadInfo::`scalar deleting destructor'
PUBLIC	?_Getcont@_Aux_cont@std@@QBEPBV_Container_base_aux@2@XZ ; std::_Aux_cont::_Getcont
PUBLIC	?_Getmycont@_Iterator_base_aux@std@@QBEPBV_Container_base_aux@2@XZ ; std::_Iterator_base_aux::_Getmycont
PUBLIC	?_Myval@?$_Tree@V?$_Tmap_traits@IPAVThreadInfo@@U?$less@I@std@@V?$allocator@U?$pair@$$CBIPAVThreadInfo@@@std@@@3@$0A@@std@@@std@@KAAAU?$pair@$$CBIPAVThreadInfo@@@2@PAU_Node@?$_Tree_nod@V?$_Tmap_traits@IPAVThreadInfo@@U?$less@I@std@@V?$allocator@U?$pair@$$CBIPAVThreadInfo@@@std@@@3@$0A@@std@@@2@@Z ; std::_Tree<std::_Tmap_traits<unsigned int,ThreadInfo *,std::less<unsigned int>,std::allocator<std::pair<unsigned int const ,ThreadInfo *> >,0> >::_Myval
PUBLIC	??Dconst_iterator@?$_Tree@V?$_Tmap_traits@IPAVThreadInfo@@U?$less@I@std@@V?$allocator@U?$pair@$$CBIPAVThreadInfo@@@std@@@3@$0A@@std@@@std@@QBEABU?$pair@$$CBIPAVThreadInfo@@@2@XZ ; std::_Tree<std::_Tmap_traits<unsigned int,ThreadInfo *,std::less<unsigned int>,std::allocator<std::pair<unsigned int const ,ThreadInfo *> >,0> >::const_iterator::operator*
PUBLIC	??Diterator@?$_Tree@V?$_Tmap_traits@IPAVThreadInfo@@U?$less@I@std@@V?$allocator@U?$pair@$$CBIPAVThreadInfo@@@std@@@3@$0A@@std@@@std@@QBEAAU?$pair@$$CBIPAVThreadInfo@@@2@XZ ; std::_Tree<std::_Tmap_traits<unsigned int,ThreadInfo *,std::less<unsigned int>,std::allocator<std::pair<unsigned int const ,ThreadInfo *> >,0> >::iterator::operator*
PUBLIC	??Citerator@?$_Tree@V?$_Tmap_traits@IPAVThreadInfo@@U?$less@I@std@@V?$allocator@U?$pair@$$CBIPAVThreadInfo@@@std@@@3@$0A@@std@@@std@@QBEPAU?$pair@$$CBIPAVThreadInfo@@@2@XZ ; std::_Tree<std::_Tmap_traits<unsigned int,ThreadInfo *,std::less<unsigned int>,std::allocator<std::pair<unsigned int const ,ThreadInfo *> >,0> >::iterator::operator->
PUBLIC	??_C@_0CF@LIBDMEPI@Couldn?8t?5initialize?5critical?5sec@ ; `string'
PUBLIC	??_R0PAD@8					; char * `RTTI Type Descriptor'
PUBLIC	??_R0PAX@8					; void * `RTTI Type Descriptor'
PUBLIC	__CT??_R0PAD@84
PUBLIC	__CT??_R0PAX@84
PUBLIC	__CTA2PAD
PUBLIC	__TI2PAD
PUBLIC	?nextPosFunctionID@@3JC				; nextPosFunctionID
PUBLIC	??_C@_1BM@IMNIDHAD@?$AAm?$AAa?$AAp?$AA?5?$AA?$CF?$AAd?$AA?5?$AA?$CF?$AAI?$AAd?$AA?5?$AA?$CF?$AAs?$AA?$AA@ ; `string'
PUBLIC	??_C@_1EA@LIAAHHAL@?$AAm?$AAa?$AAp?$AAt?$AAh?$AAr?$AAe?$AAa?$AAd?$AA?5?$AA?$CF?$AAd?$AA?5?$AA0?$AA?5?$AA?$CC?$AAT?$AAh?$AAr?$AAe?$AAa?$AAd?$AA?$CD?$AA?$CF?$AAd?$AA?$CC?$AA?5?$AA?$CC?$AA?$CF?$AAs?$AA?$CC?$AA?$AA@ ; `string'
PUBLIC	??_C@_01GBGANLPD@0?$AA@				; `string'
PUBLIC	??_C@_0BF@IEBMFIMJ@COR_ENABLE_PROFILING?$AA@	; `string'
PUBLIC	??_C@_1CA@CPAJBOA@?$AAI?$AAn?$AAi?$AAt?$AAi?$AAa?$AAl?$AAi?$AAz?$AAi?$AAn?$AAg?$AA?4?$AA?4?$AA?4?$AA?$AA@ ; `string'
PUBLIC	??_C@_1IA@ICOEBLFH@?$AAF?$AAA?$AAT?$AAA?$AAL?$AA?5?$AAE?$AAR?$AAR?$AAO?$AAR?$AA?3?$AA?5?$AAU?$AAn?$AAs?$AAu?$AAp?$AAp?$AAo?$AAr?$AAt?$AAe?$AAd?$AA?5?$AA?4?$AAN?$AAE?$AAT?$AA?5?$AAv?$AAe@ ; `string'
PUBLIC	??_C@_1DK@JNGEKABN@?$AAE?$AAr?$AAr?$AAo?$AAr?$AA?5?$AAs?$AAe?$AAt?$AAt?$AAi?$AAn?$AAg?$AA?5?$AAt?$AAh?$AAe?$AA?5?$AAe?$AAv?$AAe?$AAn?$AAt?$AA?5?$AAm?$AAa?$AAs?$AAk?$AA?$AA@ ; `string'
PUBLIC	??_C@_1GE@MBLADCNK@?$AAE?$AAr?$AAr?$AAo?$AAr?$AA?5?$AAs?$AAe?$AAt?$AAt?$AAi?$AAn?$AAg?$AA?5?$AAt?$AAh?$AAe?$AA?5?$AAe?$AAn?$AAt?$AAe?$AAr?$AA?0?$AA?5?$AAl?$AAe?$AAa?$AAv?$AAe?$AA?5?$AAa@ ; `string'
PUBLIC	??_C@_1EG@BIFPEPFJ@?$AAS?$AAu?$AAc?$AAc?$AAe?$AAs?$AAs?$AAf?$AAu?$AAl?$AAl?$AAy?$AA?5?$AAi?$AAn?$AAi?$AAt?$AAi?$AAa?$AAl?$AAi?$AAz?$AAe?$AAd?$AA?5?$AAp?$AAr?$AAo?$AAf?$AAi?$AAl?$AAi@ ; `string'
PUBLIC	??_C@_1BI@LJPPCMFK@?$AAS?$AAh?$AAu?$AAt?$AAd?$AAo?$AAw?$AAn?$AA?4?$AA?4?$AA?4?$AA?$AA@ ; `string'
PUBLIC	??_C@_0BB@EIHAAPLC@SharedMemoryName?$AA@	; `string'
PUBLIC	??_C@_0P@NHBFFJJG@Profiler?5Error?$AA@		; `string'
PUBLIC	??_C@_0FF@CHALMHHG@Could?5not?5find?5environment?5varia@ ; `string'
PUBLIC	??_C@_0P@OEJKFADD@Unknown?5error?$CB?$AA@	; `string'
PUBLIC	??_C@_09OHDMFPFI@MutexName?$AA@			; `string'
PUBLIC	??_C@_0EO@MELDENFF@Could?5not?5find?5environment?5varia@ ; `string'
PUBLIC	??_C@_0BA@DKCEJMG@AccessEventName?$AA@		; `string'
PUBLIC	??_C@_0FE@HNFKMMLK@Could?5not?5find?5environment?5varia@ ; `string'
PUBLIC	??_C@_1FK@PMAJBODM@?$AAe?$AAr?$AAr?$AAo?$AAr?$AA?9?$AAT?$AAh?$AAr?$AAe?$AAa?$AAd?$AA?5?$AA?$CF?$AAd?$AA?5?$AA?$CI?$AA?$CF?$AAd?$AA?$CJ?$AA?5?$AAa?$AAl?$AAr?$AAe?$AAa?$AAd?$AAy?$AA?5?$AAe?$AAx?$AAi@ ; `string'
PUBLIC	??_C@_0BE@JONHPENG@map?1set?$DMT?$DO?5too?5long?$AA@ ; `string'
PUBLIC	??_R0?AVlength_error@std@@@8			; std::length_error `RTTI Type Descriptor'
PUBLIC	__CT??_R0?AVlength_error@std@@@8??0length_error@std@@QAE@ABV01@@Z40
PUBLIC	__CTA3?AVlength_error@std@@
PUBLIC	__TI3?AVlength_error@std@@
PUBLIC	??_R0?AVbad_alloc@std@@@8			; std::bad_alloc `RTTI Type Descriptor'
PUBLIC	__CT??_R0?AVbad_alloc@std@@@8??0bad_alloc@std@@QAE@ABV01@@Z12
PUBLIC	__CTA2?AVbad_alloc@std@@
PUBLIC	__TI2?AVbad_alloc@std@@
PUBLIC	??_7bad_alloc@std@@6B@				; std::bad_alloc::`vftable'
PUBLIC	??_7length_error@std@@6B@			; std::length_error::`vftable'
PUBLIC	??_7CProfiler@@6B@				; CProfiler::`vftable'
EXTRN	?what@exception@std@@UBEPBDXZ:PROC		; std::exception::what
EXTRN	_IID_ICorProfilerCallback:BYTE
EXTRN	_IID_ICorProfilerCallback2:BYTE
EXTRN	__imp_?_Myptr@?$basic_string@_WU?$char_traits@_W@std@@V?$allocator@_W@2@@std@@IBEPB_WXZ:PROC
EXTRN	__imp_?c_str@?$basic_string@_WU?$char_traits@_W@std@@V?$allocator@_W@2@@std@@QBEPB_WXZ:PROC
EXTRN	__imp__InitializeCriticalSectionAndSpinCount@8:PROC
EXTRN	__imp__SetEnvironmentVariableA@8:PROC
EXTRN	_IID_ICorProfilerInfo:BYTE
EXTRN	_IID_ICorProfilerInfo2:BYTE
EXTRN	__imp__GetLastError@0:PROC
EXTRN	__imp__OpenMutexA@12:PROC
EXTRN	__imp__GetEnvironmentVariableA@12:PROC
EXTRN	__imp__vswprintf_s:PROC
EXTRN	__imp_?assign@?$basic_string@_WU?$char_traits@_W@std@@V?$allocator@_W@2@@std@@QAEAAV12@PB_WI@Z:PROC
EXTRN	__imp_??0exception@std@@QAE@ABQBD@Z:PROC
EXTRN	__imp_?what@exception@std@@UBEPBDXZ:PROC
EXTRN	??_Ebad_alloc@std@@UAEPAXI@Z:PROC		; std::bad_alloc::`vector deleting destructor'
EXTRN	??_Elength_error@std@@UAEPAXI@Z:PROC		; std::length_error::`vector deleting destructor'
EXTRN	__imp_??0?$basic_string@_WU?$char_traits@_W@std@@V?$allocator@_W@2@@std@@QAE@XZ:PROC
EXTRN	__imp__EnterCriticalSection@4:PROC
EXTRN	__imp__LeaveCriticalSection@4:PROC
EXTRN	__imp_??1?$basic_string@_WU?$char_traits@_W@std@@V?$allocator@_W@2@@std@@QAE@XZ:PROC
?nextPosFunctionID@@3JC DD 01H DUP (?)			; nextPosFunctionID
;	COMDAT ??_7CProfiler@@6B@
CONST	SEGMENT
??_7CProfiler@@6B@ DD FLAT:?QueryInterface@CProfiler@@UAGJABU_GUID@@PAPAX@Z ; CProfiler::`vftable'
	DD	FLAT:?AddRef@CProfiler@@UAGKXZ
	DD	FLAT:?Release@CProfiler@@UAGKXZ
	DD	FLAT:?Initialize@CProfiler@@UAGJPAUIUnknown@@@Z
	DD	FLAT:?Shutdown@CProfiler@@UAGJXZ
	DD	FLAT:?AppDomainCreationStarted@CCorProfilerCallbackImpl@@UAGJI@Z
	DD	FLAT:?AppDomainCreationFinished@CCorProfilerCallbackImpl@@UAGJIJ@Z
	DD	FLAT:?AppDomainShutdownStarted@CCorProfilerCallbackImpl@@UAGJI@Z
	DD	FLAT:?AppDomainShutdownFinished@CCorProfilerCallbackImpl@@UAGJIJ@Z
	DD	FLAT:?AssemblyLoadStarted@CCorProfilerCallbackImpl@@UAGJI@Z
	DD	FLAT:?AssemblyLoadFinished@CCorProfilerCallbackImpl@@UAGJIJ@Z
	DD	FLAT:?AssemblyUnloadStarted@CCorProfilerCallbackImpl@@UAGJI@Z
	DD	FLAT:?AssemblyUnloadFinished@CCorProfilerCallbackImpl@@UAGJIJ@Z
	DD	FLAT:?ModuleLoadStarted@CCorProfilerCallbackImpl@@UAGJI@Z
	DD	FLAT:?ModuleLoadFinished@CCorProfilerCallbackImpl@@UAGJIJ@Z
	DD	FLAT:?ModuleUnloadStarted@CCorProfilerCallbackImpl@@UAGJI@Z
	DD	FLAT:?ModuleUnloadFinished@CCorProfilerCallbackImpl@@UAGJIJ@Z
	DD	FLAT:?ModuleAttachedToAssembly@CCorProfilerCallbackImpl@@UAGJII@Z
	DD	FLAT:?ClassLoadStarted@CCorProfilerCallbackImpl@@UAGJI@Z
	DD	FLAT:?ClassLoadFinished@CCorProfilerCallbackImpl@@UAGJIJ@Z
	DD	FLAT:?ClassUnloadStarted@CCorProfilerCallbackImpl@@UAGJI@Z
	DD	FLAT:?ClassUnloadFinished@CCorProfilerCallbackImpl@@UAGJIJ@Z
	DD	FLAT:?FunctionUnloadStarted@CProfiler@@UAGJI@Z
	DD	FLAT:?JITCompilationStarted@CCorProfilerCallbackImpl@@UAGJIH@Z
	DD	FLAT:?JITCompilationFinished@CCorProfilerCallbackImpl@@UAGJIJH@Z
	DD	FLAT:?JITCachedFunctionSearchStarted@CCorProfilerCallbackImpl@@UAGJIPAH@Z
	DD	FLAT:?JITCachedFunctionSearchFinished@CCorProfilerCallbackImpl@@UAGJIW4__MIDL___MIDL_itf_corprof_0000_0004@@@Z
	DD	FLAT:?JITFunctionPitched@CCorProfilerCallbackImpl@@UAGJI@Z
	DD	FLAT:?JITInlining@CCorProfilerCallbackImpl@@UAGJIIPAH@Z
	DD	FLAT:?ThreadCreated@CProfiler@@UAGJI@Z
	DD	FLAT:?ThreadDestroyed@CProfiler@@UAGJI@Z
	DD	FLAT:?ThreadAssignedToOSThread@CProfiler@@UAGJIK@Z
	DD	FLAT:?RemotingClientInvocationStarted@CCorProfilerCallbackImpl@@UAGJXZ
	DD	FLAT:?RemotingClientSendingMessage@CCorProfilerCallbackImpl@@UAGJPAU_GUID@@H@Z
	DD	FLAT:?RemotingClientReceivingReply@CCorProfilerCallbackImpl@@UAGJPAU_GUID@@H@Z
	DD	FLAT:?RemotingClientInvocationFinished@CCorProfilerCallbackImpl@@UAGJXZ
	DD	FLAT:?RemotingServerReceivingMessage@CCorProfilerCallbackImpl@@UAGJPAU_GUID@@H@Z
	DD	FLAT:?RemotingServerInvocationStarted@CCorProfilerCallbackImpl@@UAGJXZ
	DD	FLAT:?RemotingServerInvocationReturned@CCorProfilerCallbackImpl@@UAGJXZ
	DD	FLAT:?RemotingServerSendingReply@CCorProfilerCallbackImpl@@UAGJPAU_GUID@@H@Z
	DD	FLAT:?UnmanagedToManagedTransition@CCorProfilerCallbackImpl@@UAGJIW4__MIDL___MIDL_itf_corprof_0000_0005@@@Z
	DD	FLAT:?ManagedToUnmanagedTransition@CCorProfilerCallbackImpl@@UAGJIW4__MIDL___MIDL_itf_corprof_0000_0005@@@Z
	DD	FLAT:?RuntimeSuspendStarted@CCorProfilerCallbackImpl@@UAGJW4__MIDL___MIDL_itf_corprof_0000_0006@@@Z
	DD	FLAT:?RuntimeSuspendFinished@CCorProfilerCallbackImpl@@UAGJXZ
	DD	FLAT:?RuntimeSuspendAborted@CCorProfilerCallbackImpl@@UAGJXZ
	DD	FLAT:?RuntimeResumeStarted@CCorProfilerCallbackImpl@@UAGJXZ
	DD	FLAT:?RuntimeResumeFinished@CCorProfilerCallbackImpl@@UAGJXZ
	DD	FLAT:?RuntimeThreadSuspended@CCorProfilerCallbackImpl@@UAGJI@Z
	DD	FLAT:?RuntimeThreadResumed@CCorProfilerCallbackImpl@@UAGJI@Z
	DD	FLAT:?MovedReferences@CCorProfilerCallbackImpl@@UAGJKQAI0QAK@Z
	DD	FLAT:?ObjectAllocated@CCorProfilerCallbackImpl@@UAGJII@Z
	DD	FLAT:?ObjectsAllocatedByClass@CCorProfilerCallbackImpl@@UAGJKQAIQAK@Z
	DD	FLAT:?ObjectReferences@CCorProfilerCallbackImpl@@UAGJIIKQAI@Z
	DD	FLAT:?RootReferences@CCorProfilerCallbackImpl@@UAGJKQAI@Z
	DD	FLAT:?ExceptionThrown@CProfiler@@UAGJI@Z
	DD	FLAT:?ExceptionSearchFunctionEnter@CProfiler@@UAGJI@Z
	DD	FLAT:?ExceptionSearchFunctionLeave@CProfiler@@UAGJXZ
	DD	FLAT:?ExceptionSearchFilterEnter@CProfiler@@UAGJI@Z
	DD	FLAT:?ExceptionSearchFilterLeave@CProfiler@@UAGJXZ
	DD	FLAT:?ExceptionSearchCatcherFound@CProfiler@@UAGJI@Z
	DD	FLAT:?ExceptionOSHandlerEnter@CProfiler@@UAGJI@Z
	DD	FLAT:?ExceptionOSHandlerLeave@CProfiler@@UAGJI@Z
	DD	FLAT:?ExceptionUnwindFunctionEnter@CProfiler@@UAGJI@Z
	DD	FLAT:?ExceptionUnwindFunctionLeave@CProfiler@@UAGJXZ
	DD	FLAT:?ExceptionUnwindFinallyEnter@CProfiler@@UAGJI@Z
	DD	FLAT:?ExceptionUnwindFinallyLeave@CProfiler@@UAGJXZ
	DD	FLAT:?ExceptionCatcherEnter@CProfiler@@UAGJII@Z
	DD	FLAT:?ExceptionCatcherLeave@CProfiler@@UAGJXZ
	DD	FLAT:?COMClassicVTableCreated@CCorProfilerCallbackImpl@@UAGJIABU_GUID@@PAXK@Z
	DD	FLAT:?COMClassicVTableDestroyed@CCorProfilerCallbackImpl@@UAGJIABU_GUID@@PAX@Z
	DD	FLAT:?ExceptionCLRCatcherFound@CProfiler@@UAGJXZ
	DD	FLAT:?ExceptionCLRCatcherExecute@CProfiler@@UAGJXZ
	DD	FLAT:?ThreadNameChanged@CProfiler@@UAGJIKQA_W@Z
	DD	FLAT:?GarbageCollectionStarted@CCorProfilerCallbackImpl@@UAGJHQAHW4__MIDL___MIDL_itf_corprof_0011_0006@@@Z
	DD	FLAT:?SurvivingReferences@CCorProfilerCallbackImpl@@UAGJKQAIQAK@Z
	DD	FLAT:?GarbageCollectionFinished@CCorProfilerCallbackImpl@@UAGJXZ
	DD	FLAT:?FinalizeableObjectQueued@CCorProfilerCallbackImpl@@UAGJKI@Z
	DD	FLAT:?RootReferences2@CCorProfilerCallbackImpl@@UAGJKQAIQAW4__MIDL___MIDL_itf_corprof_0011_0001@@QAW4__MIDL___MIDL_itf_corprof_0011_0002@@0@Z
	DD	FLAT:?HandleCreated@CCorProfilerCallbackImpl@@UAGJII@Z
	DD	FLAT:?HandleDestroyed@CCorProfilerCallbackImpl@@UAGJI@Z
CONST	ENDS
;	COMDAT ??_7length_error@std@@6B@
CONST	SEGMENT
??_7length_error@std@@6B@ DD FLAT:??_Elength_error@std@@UAEPAXI@Z ; std::length_error::`vftable'
	DD	FLAT:?what@logic_error@std@@UBEPBDXZ
CONST	ENDS
;	COMDAT ??_7bad_alloc@std@@6B@
CONST	SEGMENT
??_7bad_alloc@std@@6B@ DD FLAT:??_Ebad_alloc@std@@UAEPAXI@Z ; std::bad_alloc::`vftable'
	DD	FLAT:?what@exception@std@@UBEPBDXZ
CONST	ENDS
;	COMDAT __TI2?AVbad_alloc@std@@
xdata$x	SEGMENT
__TI2?AVbad_alloc@std@@ DD 00H
	DD	FLAT:??1bad_alloc@std@@UAE@XZ
	DD	00H
	DD	FLAT:__CTA2?AVbad_alloc@std@@
xdata$x	ENDS
;	COMDAT __CTA2?AVbad_alloc@std@@
xdata$x	SEGMENT
__CTA2?AVbad_alloc@std@@ DD 02H
	DD	FLAT:__CT??_R0?AVbad_alloc@std@@@8??0bad_alloc@std@@QAE@ABV01@@Z12
	DD	FLAT:__CT??_R0?AVexception@std@@@8??0exception@std@@QAE@ABV01@@Z12
xdata$x	ENDS
;	COMDAT __CT??_R0?AVbad_alloc@std@@@8??0bad_alloc@std@@QAE@ABV01@@Z12
xdata$x	SEGMENT
__CT??_R0?AVbad_alloc@std@@@8??0bad_alloc@std@@QAE@ABV01@@Z12 DD 00H
	DD	FLAT:??_R0?AVbad_alloc@std@@@8
	DD	00H
	DD	0ffffffffH
	ORG $+4
	DD	0cH
	DD	FLAT:??0bad_alloc@std@@QAE@ABV01@@Z
xdata$x	ENDS
;	COMDAT ??_R0?AVbad_alloc@std@@@8
_DATA	SEGMENT
??_R0?AVbad_alloc@std@@@8 DD FLAT:??_7type_info@@6B@	; std::bad_alloc `RTTI Type Descriptor'
	DD	00H
	DB	'.?AVbad_alloc@std@@', 00H
_DATA	ENDS
;	COMDAT __TI3?AVlength_error@std@@
xdata$x	SEGMENT
__TI3?AVlength_error@std@@ DD 00H
	DD	FLAT:??1length_error@std@@UAE@XZ
	DD	00H
	DD	FLAT:__CTA3?AVlength_error@std@@
xdata$x	ENDS
;	COMDAT __CTA3?AVlength_error@std@@
xdata$x	SEGMENT
__CTA3?AVlength_error@std@@ DD 03H
	DD	FLAT:__CT??_R0?AVlength_error@std@@@8??0length_error@std@@QAE@ABV01@@Z40
	DD	FLAT:__CT??_R0?AVlogic_error@std@@@8??0logic_error@std@@QAE@ABV01@@Z40
	DD	FLAT:__CT??_R0?AVexception@std@@@8??0exception@std@@QAE@ABV01@@Z12
xdata$x	ENDS
;	COMDAT __CT??_R0?AVlength_error@std@@@8??0length_error@std@@QAE@ABV01@@Z40
xdata$x	SEGMENT
__CT??_R0?AVlength_error@std@@@8??0length_error@std@@QAE@ABV01@@Z40 DD 00H
	DD	FLAT:??_R0?AVlength_error@std@@@8
	DD	00H
	DD	0ffffffffH
	ORG $+4
	DD	028H
	DD	FLAT:??0length_error@std@@QAE@ABV01@@Z
xdata$x	ENDS
;	COMDAT ??_R0?AVlength_error@std@@@8
_DATA	SEGMENT
??_R0?AVlength_error@std@@@8 DD FLAT:??_7type_info@@6B@	; std::length_error `RTTI Type Descriptor'
	DD	00H
	DB	'.?AVlength_error@std@@', 00H
_DATA	ENDS
;	COMDAT ??_C@_0BE@JONHPENG@map?1set?$DMT?$DO?5too?5long?$AA@
CONST	SEGMENT
??_C@_0BE@JONHPENG@map?1set?$DMT?$DO?5too?5long?$AA@ DB 'map/set<T> too l'
	DB	'ong', 00H					; `string'
CONST	ENDS
;	COMDAT ??_C@_1FK@PMAJBODM@?$AAe?$AAr?$AAr?$AAo?$AAr?$AA?9?$AAT?$AAh?$AAr?$AAe?$AAa?$AAd?$AA?5?$AA?$CF?$AAd?$AA?5?$AA?$CI?$AA?$CF?$AAd?$AA?$CJ?$AA?5?$AAa?$AAl?$AAr?$AAe?$AAa?$AAd?$AAy?$AA?5?$AAe?$AAx?$AAi@
CONST	SEGMENT
??_C@_1FK@PMAJBODM@?$AAe?$AAr?$AAr?$AAo?$AAr?$AA?9?$AAT?$AAh?$AAr?$AAe?$AAa?$AAd?$AA?5?$AA?$CF?$AAd?$AA?5?$AA?$CI?$AA?$CF?$AAd?$AA?$CJ?$AA?5?$AAa?$AAl?$AAr?$AAe?$AAa?$AAd?$AAy?$AA?5?$AAe?$AAx?$AAi@ DB 'e'
	DB	00H, 'r', 00H, 'r', 00H, 'o', 00H, 'r', 00H, '-', 00H, 'T', 00H
	DB	'h', 00H, 'r', 00H, 'e', 00H, 'a', 00H, 'd', 00H, ' ', 00H, '%'
	DB	00H, 'd', 00H, ' ', 00H, '(', 00H, '%', 00H, 'd', 00H, ')', 00H
	DB	' ', 00H, 'a', 00H, 'l', 00H, 'r', 00H, 'e', 00H, 'a', 00H, 'd'
	DB	00H, 'y', 00H, ' ', 00H, 'e', 00H, 'x', 00H, 'i', 00H, 's', 00H
	DB	't', 00H, 's', 00H, ' ', 00H, 'i', 00H, 'n', 00H, ' ', 00H, 'm'
	DB	00H, 'a', 00H, 'p', 00H, '!', 00H, '-', 00H, 00H, 00H ; `string'
CONST	ENDS
;	COMDAT ??_C@_0FE@HNFKMMLK@Could?5not?5find?5environment?5varia@
CONST	SEGMENT
??_C@_0FE@HNFKMMLK@Could?5not?5find?5environment?5varia@ DB 'Could not fi'
	DB	'nd environment variable ''AccessEventName'', please restart t'
	DB	'he profiler!', 00H				; `string'
CONST	ENDS
;	COMDAT ??_C@_0BA@DKCEJMG@AccessEventName?$AA@
CONST	SEGMENT
??_C@_0BA@DKCEJMG@AccessEventName?$AA@ DB 'AccessEventName', 00H ; `string'
CONST	ENDS
;	COMDAT ??_C@_0EO@MELDENFF@Could?5not?5find?5environment?5varia@
CONST	SEGMENT
??_C@_0EO@MELDENFF@Could?5not?5find?5environment?5varia@ DB 'Could not fi'
	DB	'nd environment variable ''MutexName'', please restart the pro'
	DB	'filer!', 00H				; `string'
CONST	ENDS
;	COMDAT ??_C@_09OHDMFPFI@MutexName?$AA@
CONST	SEGMENT
??_C@_09OHDMFPFI@MutexName?$AA@ DB 'MutexName', 00H	; `string'
CONST	ENDS
;	COMDAT ??_C@_0P@OEJKFADD@Unknown?5error?$CB?$AA@
CONST	SEGMENT
??_C@_0P@OEJKFADD@Unknown?5error?$CB?$AA@ DB 'Unknown error!', 00H ; `string'
CONST	ENDS
;	COMDAT ??_C@_0FF@CHALMHHG@Could?5not?5find?5environment?5varia@
CONST	SEGMENT
??_C@_0FF@CHALMHHG@Could?5not?5find?5environment?5varia@ DB 'Could not fi'
	DB	'nd environment variable ''SharedMemoryName'', please restart '
	DB	'the profiler!', 00H				; `string'
CONST	ENDS
;	COMDAT ??_C@_0P@NHBFFJJG@Profiler?5Error?$AA@
CONST	SEGMENT
??_C@_0P@NHBFFJJG@Profiler?5Error?$AA@ DB 'Profiler Error', 00H ; `string'
CONST	ENDS
;	COMDAT ??_C@_0BB@EIHAAPLC@SharedMemoryName?$AA@
CONST	SEGMENT
??_C@_0BB@EIHAAPLC@SharedMemoryName?$AA@ DB 'SharedMemoryName', 00H ; `string'
CONST	ENDS
;	COMDAT ??_C@_1BI@LJPPCMFK@?$AAS?$AAh?$AAu?$AAt?$AAd?$AAo?$AAw?$AAn?$AA?4?$AA?4?$AA?4?$AA?$AA@
CONST	SEGMENT
??_C@_1BI@LJPPCMFK@?$AAS?$AAh?$AAu?$AAt?$AAd?$AAo?$AAw?$AAn?$AA?4?$AA?4?$AA?4?$AA?$AA@ DB 'S'
	DB	00H, 'h', 00H, 'u', 00H, 't', 00H, 'd', 00H, 'o', 00H, 'w', 00H
	DB	'n', 00H, '.', 00H, '.', 00H, '.', 00H, 00H, 00H ; `string'
CONST	ENDS
;	COMDAT ??_C@_1EG@BIFPEPFJ@?$AAS?$AAu?$AAc?$AAc?$AAe?$AAs?$AAs?$AAf?$AAu?$AAl?$AAl?$AAy?$AA?5?$AAi?$AAn?$AAi?$AAt?$AAi?$AAa?$AAl?$AAi?$AAz?$AAe?$AAd?$AA?5?$AAp?$AAr?$AAo?$AAf?$AAi?$AAl?$AAi@
CONST	SEGMENT
??_C@_1EG@BIFPEPFJ@?$AAS?$AAu?$AAc?$AAc?$AAe?$AAs?$AAs?$AAf?$AAu?$AAl?$AAl?$AAy?$AA?5?$AAi?$AAn?$AAi?$AAt?$AAi?$AAa?$AAl?$AAi?$AAz?$AAe?$AAd?$AA?5?$AAp?$AAr?$AAo?$AAf?$AAi?$AAl?$AAi@ DB 'S'
	DB	00H, 'u', 00H, 'c', 00H, 'c', 00H, 'e', 00H, 's', 00H, 's', 00H
	DB	'f', 00H, 'u', 00H, 'l', 00H, 'l', 00H, 'y', 00H, ' ', 00H, 'i'
	DB	00H, 'n', 00H, 'i', 00H, 't', 00H, 'i', 00H, 'a', 00H, 'l', 00H
	DB	'i', 00H, 'z', 00H, 'e', 00H, 'd', 00H, ' ', 00H, 'p', 00H, 'r'
	DB	00H, 'o', 00H, 'f', 00H, 'i', 00H, 'l', 00H, 'i', 00H, 'n', 00H
	DB	'g', 00H, 00H, 00H				; `string'
CONST	ENDS
;	COMDAT ??_C@_1GE@MBLADCNK@?$AAE?$AAr?$AAr?$AAo?$AAr?$AA?5?$AAs?$AAe?$AAt?$AAt?$AAi?$AAn?$AAg?$AA?5?$AAt?$AAh?$AAe?$AA?5?$AAe?$AAn?$AAt?$AAe?$AAr?$AA?0?$AA?5?$AAl?$AAe?$AAa?$AAv?$AAe?$AA?5?$AAa@
CONST	SEGMENT
??_C@_1GE@MBLADCNK@?$AAE?$AAr?$AAr?$AAo?$AAr?$AA?5?$AAs?$AAe?$AAt?$AAt?$AAi?$AAn?$AAg?$AA?5?$AAt?$AAh?$AAe?$AA?5?$AAe?$AAn?$AAt?$AAe?$AAr?$AA?0?$AA?5?$AAl?$AAe?$AAa?$AAv?$AAe?$AA?5?$AAa@ DB 'E'
	DB	00H, 'r', 00H, 'r', 00H, 'o', 00H, 'r', 00H, ' ', 00H, 's', 00H
	DB	'e', 00H, 't', 00H, 't', 00H, 'i', 00H, 'n', 00H, 'g', 00H, ' '
	DB	00H, 't', 00H, 'h', 00H, 'e', 00H, ' ', 00H, 'e', 00H, 'n', 00H
	DB	't', 00H, 'e', 00H, 'r', 00H, ',', 00H, ' ', 00H, 'l', 00H, 'e'
	DB	00H, 'a', 00H, 'v', 00H, 'e', 00H, ' ', 00H, 'a', 00H, 'n', 00H
	DB	'd', 00H, ' ', 00H, 't', 00H, 'a', 00H, 'i', 00H, 'l', 00H, 'c'
	DB	00H, 'a', 00H, 'l', 00H, 'l', 00H, ' ', 00H, 'h', 00H, 'o', 00H
	DB	'o', 00H, 'k', 00H, 's', 00H, 00H, 00H	; `string'
CONST	ENDS
;	COMDAT ??_C@_1DK@JNGEKABN@?$AAE?$AAr?$AAr?$AAo?$AAr?$AA?5?$AAs?$AAe?$AAt?$AAt?$AAi?$AAn?$AAg?$AA?5?$AAt?$AAh?$AAe?$AA?5?$AAe?$AAv?$AAe?$AAn?$AAt?$AA?5?$AAm?$AAa?$AAs?$AAk?$AA?$AA@
CONST	SEGMENT
??_C@_1DK@JNGEKABN@?$AAE?$AAr?$AAr?$AAo?$AAr?$AA?5?$AAs?$AAe?$AAt?$AAt?$AAi?$AAn?$AAg?$AA?5?$AAt?$AAh?$AAe?$AA?5?$AAe?$AAv?$AAe?$AAn?$AAt?$AA?5?$AAm?$AAa?$AAs?$AAk?$AA?$AA@ DB 'E'
	DB	00H, 'r', 00H, 'r', 00H, 'o', 00H, 'r', 00H, ' ', 00H, 's', 00H
	DB	'e', 00H, 't', 00H, 't', 00H, 'i', 00H, 'n', 00H, 'g', 00H, ' '
	DB	00H, 't', 00H, 'h', 00H, 'e', 00H, ' ', 00H, 'e', 00H, 'v', 00H
	DB	'e', 00H, 'n', 00H, 't', 00H, ' ', 00H, 'm', 00H, 'a', 00H, 's'
	DB	00H, 'k', 00H, 00H, 00H			; `string'
CONST	ENDS
;	COMDAT ??_C@_1IA@ICOEBLFH@?$AAF?$AAA?$AAT?$AAA?$AAL?$AA?5?$AAE?$AAR?$AAR?$AAO?$AAR?$AA?3?$AA?5?$AAU?$AAn?$AAs?$AAu?$AAp?$AAp?$AAo?$AAr?$AAt?$AAe?$AAd?$AA?5?$AA?4?$AAN?$AAE?$AAT?$AA?5?$AAv?$AAe@
CONST	SEGMENT
??_C@_1IA@ICOEBLFH@?$AAF?$AAA?$AAT?$AAA?$AAL?$AA?5?$AAE?$AAR?$AAR?$AAO?$AAR?$AA?3?$AA?5?$AAU?$AAn?$AAs?$AAu?$AAp?$AAp?$AAo?$AAr?$AAt?$AAe?$AAd?$AA?5?$AA?4?$AAN?$AAE?$AAT?$AA?5?$AAv?$AAe@ DB 'F'
	DB	00H, 'A', 00H, 'T', 00H, 'A', 00H, 'L', 00H, ' ', 00H, 'E', 00H
	DB	'R', 00H, 'R', 00H, 'O', 00H, 'R', 00H, ':', 00H, ' ', 00H, 'U'
	DB	00H, 'n', 00H, 's', 00H, 'u', 00H, 'p', 00H, 'p', 00H, 'o', 00H
	DB	'r', 00H, 't', 00H, 'e', 00H, 'd', 00H, ' ', 00H, '.', 00H, 'N'
	DB	00H, 'E', 00H, 'T', 00H, ' ', 00H, 'v', 00H, 'e', 00H, 'r', 00H
	DB	's', 00H, 'i', 00H, 'o', 00H, 'n', 00H, ' ', 00H, 'n', 00H, 'e'
	DB	00H, 'e', 00H, 'd', 00H, 's', 00H, ' ', 00H, 't', 00H, 'o', 00H
	DB	' ', 00H, 'b', 00H, 'e', 00H, ' ', 00H, 'a', 00H, 't', 00H, ' '
	DB	00H, 'l', 00H, 'e', 00H, 'a', 00H, 's', 00H, 't', 00H, ' ', 00H
	DB	'2', 00H, '.', 00H, '0', 00H, '!', 00H, 00H, 00H ; `string'
CONST	ENDS
;	COMDAT ??_C@_1CA@CPAJBOA@?$AAI?$AAn?$AAi?$AAt?$AAi?$AAa?$AAl?$AAi?$AAz?$AAi?$AAn?$AAg?$AA?4?$AA?4?$AA?4?$AA?$AA@
CONST	SEGMENT
??_C@_1CA@CPAJBOA@?$AAI?$AAn?$AAi?$AAt?$AAi?$AAa?$AAl?$AAi?$AAz?$AAi?$AAn?$AAg?$AA?4?$AA?4?$AA?4?$AA?$AA@ DB 'I'
	DB	00H, 'n', 00H, 'i', 00H, 't', 00H, 'i', 00H, 'a', 00H, 'l', 00H
	DB	'i', 00H, 'z', 00H, 'i', 00H, 'n', 00H, 'g', 00H, '.', 00H, '.'
	DB	00H, '.', 00H, 00H, 00H			; `string'
CONST	ENDS
;	COMDAT ??_C@_0BF@IEBMFIMJ@COR_ENABLE_PROFILING?$AA@
CONST	SEGMENT
??_C@_0BF@IEBMFIMJ@COR_ENABLE_PROFILING?$AA@ DB 'COR_ENABLE_PROFILING', 00H ; `string'
CONST	ENDS
;	COMDAT ??_C@_01GBGANLPD@0?$AA@
CONST	SEGMENT
??_C@_01GBGANLPD@0?$AA@ DB '0', 00H			; `string'
CONST	ENDS
;	COMDAT ??_C@_1EA@LIAAHHAL@?$AAm?$AAa?$AAp?$AAt?$AAh?$AAr?$AAe?$AAa?$AAd?$AA?5?$AA?$CF?$AAd?$AA?5?$AA0?$AA?5?$AA?$CC?$AAT?$AAh?$AAr?$AAe?$AAa?$AAd?$AA?$CD?$AA?$CF?$AAd?$AA?$CC?$AA?5?$AA?$CC?$AA?$CF?$AAs?$AA?$CC?$AA?$AA@
CONST	SEGMENT
??_C@_1EA@LIAAHHAL@?$AAm?$AAa?$AAp?$AAt?$AAh?$AAr?$AAe?$AAa?$AAd?$AA?5?$AA?$CF?$AAd?$AA?5?$AA0?$AA?5?$AA?$CC?$AAT?$AAh?$AAr?$AAe?$AAa?$AAd?$AA?$CD?$AA?$CF?$AAd?$AA?$CC?$AA?5?$AA?$CC?$AA?$CF?$AAs?$AA?$CC?$AA?$AA@ DB 'm'
	DB	00H, 'a', 00H, 'p', 00H, 't', 00H, 'h', 00H, 'r', 00H, 'e', 00H
	DB	'a', 00H, 'd', 00H, ' ', 00H, '%', 00H, 'd', 00H, ' ', 00H, '0'
	DB	00H, ' ', 00H, '"', 00H, 'T', 00H, 'h', 00H, 'r', 00H, 'e', 00H
	DB	'a', 00H, 'd', 00H, '#', 00H, '%', 00H, 'd', 00H, '"', 00H, ' '
	DB	00H, '"', 00H, '%', 00H, 's', 00H, '"', 00H, 00H, 00H ; `string'
CONST	ENDS
;	COMDAT ??_C@_1BM@IMNIDHAD@?$AAm?$AAa?$AAp?$AA?5?$AA?$CF?$AAd?$AA?5?$AA?$CF?$AAI?$AAd?$AA?5?$AA?$CF?$AAs?$AA?$AA@
CONST	SEGMENT
??_C@_1BM@IMNIDHAD@?$AAm?$AAa?$AAp?$AA?5?$AA?$CF?$AAd?$AA?5?$AA?$CF?$AAI?$AAd?$AA?5?$AA?$CF?$AAs?$AA?$AA@ DB 'm'
	DB	00H, 'a', 00H, 'p', 00H, ' ', 00H, '%', 00H, 'd', 00H, ' ', 00H
	DB	'%', 00H, 'I', 00H, 'd', 00H, ' ', 00H, '%', 00H, 's', 00H, 00H
	DB	00H						; `string'
CONST	ENDS
;	COMDAT __TI2PAD
xdata$x	SEGMENT
__TI2PAD DD	00H
	DD	00H
	DD	00H
	DD	FLAT:__CTA2PAD
xdata$x	ENDS
;	COMDAT __CTA2PAD
xdata$x	SEGMENT
__CTA2PAD DD	02H
	DD	FLAT:__CT??_R0PAD@84
	DD	FLAT:__CT??_R0PAX@84
xdata$x	ENDS
;	COMDAT __CT??_R0PAX@84
xdata$x	SEGMENT
__CT??_R0PAX@84 DD 01H
	DD	FLAT:??_R0PAX@8
	DD	00H
	DD	0ffffffffH
	ORG $+4
	DD	04H
	DD	00H
xdata$x	ENDS
;	COMDAT __CT??_R0PAD@84
xdata$x	SEGMENT
__CT??_R0PAD@84 DD 01H
	DD	FLAT:??_R0PAD@8
	DD	00H
	DD	0ffffffffH
	ORG $+4
	DD	04H
	DD	00H
xdata$x	ENDS
;	COMDAT ??_R0PAX@8
_DATA	SEGMENT
??_R0PAX@8 DD	FLAT:??_7type_info@@6B@			; void * `RTTI Type Descriptor'
	DD	00H
	DB	'.PAX', 00H
_DATA	ENDS
;	COMDAT ??_R0PAD@8
_DATA	SEGMENT
??_R0PAD@8 DD	FLAT:??_7type_info@@6B@			; char * `RTTI Type Descriptor'
	DD	00H
	DB	'.PAD', 00H
_DATA	ENDS
;	COMDAT ??_C@_0CF@LIBDMEPI@Couldn?8t?5initialize?5critical?5sec@
CONST	SEGMENT
??_C@_0CF@LIBDMEPI@Couldn?8t?5initialize?5critical?5sec@ DB 'Couldn''t in'
	DB	'itialize critical section', 00H		; `string'
__bad_alloc_Message DD FLAT:??_C@_0P@GHFPNOJB@bad?5allocation?$AA@
; Function compile flags: /Ogtpy
; File c:\program files\microsoft visual studio 9.0\vc\include\xutility
;	COMDAT ??$_Iter_cat@Viterator@?$_Tree@V?$_Tmap_traits@KPAVThreadInfo@@U?$less@K@std@@V?$allocator@U?$pair@$$CBKPAVThreadInfo@@@std@@@3@$0A@@std@@@std@@@std@@YA?AUbidirectional_iterator_tag@0@ABViterator@?$_Tree@V?$_Tmap_traits@KPAVThreadInfo@@U?$less@K@std@@V?$allocator@U?$pair@$$CBKPAVThreadInfo@@@std@@@3@$0A@@std@@@0@@Z
_TEXT	SEGMENT
??$_Iter_cat@Viterator@?$_Tree@V?$_Tmap_traits@KPAVThreadInfo@@U?$less@K@std@@V?$allocator@U?$pair@$$CBKPAVThreadInfo@@@std@@@3@$0A@@std@@@std@@@std@@YA?AUbidirectional_iterator_tag@0@ABViterator@?$_Tree@V?$_Tmap_traits@KPAVThreadInfo@@U?$less@K@std@@V?$allocator@U?$pair@$$CBKPAVThreadInfo@@@std@@@3@$0A@@std@@@0@@Z PROC ; std::_Iter_cat<std::_Tree<std::_Tmap_traits<unsigned long,ThreadInfo *,std::less<unsigned long>,std::allocator<std::pair<unsigned long const ,ThreadInfo *> >,0> >::iterator>, COMDAT
; ___$ReturnUdt$ = eax

; 953  : 	typename iterator_traits<_Iter>::iterator_category _Cat;
; 954  : 	return (_Cat);
; 955  : 	}

	ret	0
??$_Iter_cat@Viterator@?$_Tree@V?$_Tmap_traits@KPAVThreadInfo@@U?$less@K@std@@V?$allocator@U?$pair@$$CBKPAVThreadInfo@@@std@@@3@$0A@@std@@@std@@@std@@YA?AUbidirectional_iterator_tag@0@ABViterator@?$_Tree@V?$_Tmap_traits@KPAVThreadInfo@@U?$less@K@std@@V?$allocator@U?$pair@$$CBKPAVThreadInfo@@@std@@@3@$0A@@std@@@0@@Z ENDP ; std::_Iter_cat<std::_Tree<std::_Tmap_traits<unsigned long,ThreadInfo *,std::less<unsigned long>,std::allocator<std::pair<unsigned long const ,ThreadInfo *> >,0> >::iterator>
; Function compile flags: /Ogtpy
_TEXT	ENDS
;	COMDAT ??$_Iter_cat@Viterator@?$_Tree@V?$_Tmap_traits@IPAVThreadInfo@@U?$less@I@std@@V?$allocator@U?$pair@$$CBIPAVThreadInfo@@@std@@@3@$0A@@std@@@std@@@std@@YA?AUbidirectional_iterator_tag@0@ABViterator@?$_Tree@V?$_Tmap_traits@IPAVThreadInfo@@U?$less@I@std@@V?$allocator@U?$pair@$$CBIPAVThreadInfo@@@std@@@3@$0A@@std@@@0@@Z
_TEXT	SEGMENT
??$_Iter_cat@Viterator@?$_Tree@V?$_Tmap_traits@IPAVThreadInfo@@U?$less@I@std@@V?$allocator@U?$pair@$$CBIPAVThreadInfo@@@std@@@3@$0A@@std@@@std@@@std@@YA?AUbidirectional_iterator_tag@0@ABViterator@?$_Tree@V?$_Tmap_traits@IPAVThreadInfo@@U?$less@I@std@@V?$allocator@U?$pair@$$CBIPAVThreadInfo@@@std@@@3@$0A@@std@@@0@@Z PROC ; std::_Iter_cat<std::_Tree<std::_Tmap_traits<unsigned int,ThreadInfo *,std::less<unsigned int>,std::allocator<std::pair<unsigned int const ,ThreadInfo *> >,0> >::iterator>, COMDAT
; ___$ReturnUdt$ = eax

; 953  : 	typename iterator_traits<_Iter>::iterator_category _Cat;
; 954  : 	return (_Cat);
; 955  : 	}

	ret	0
??$_Iter_cat@Viterator@?$_Tree@V?$_Tmap_traits@IPAVThreadInfo@@U?$less@I@std@@V?$allocator@U?$pair@$$CBIPAVThreadInfo@@@std@@@3@$0A@@std@@@std@@@std@@YA?AUbidirectional_iterator_tag@0@ABViterator@?$_Tree@V?$_Tmap_traits@IPAVThreadInfo@@U?$less@I@std@@V?$allocator@U?$pair@$$CBIPAVThreadInfo@@@std@@@3@$0A@@std@@@0@@Z ENDP ; std::_Iter_cat<std::_Tree<std::_Tmap_traits<unsigned int,ThreadInfo *,std::less<unsigned int>,std::allocator<std::pair<unsigned int const ,ThreadInfo *> >,0> >::iterator>
; Function compile flags: /Ogtpy
_TEXT	ENDS
;	COMDAT ??$_Iter_cat@Viterator@?$_Tree@V?$_Tmap_traits@IHU?$less@I@std@@V?$allocator@U?$pair@$$CBIH@std@@@2@$0A@@std@@@std@@@std@@YA?AUbidirectional_iterator_tag@0@ABViterator@?$_Tree@V?$_Tmap_traits@IHU?$less@I@std@@V?$allocator@U?$pair@$$CBIH@std@@@2@$0A@@std@@@0@@Z
_TEXT	SEGMENT
??$_Iter_cat@Viterator@?$_Tree@V?$_Tmap_traits@IHU?$less@I@std@@V?$allocator@U?$pair@$$CBIH@std@@@2@$0A@@std@@@std@@@std@@YA?AUbidirectional_iterator_tag@0@ABViterator@?$_Tree@V?$_Tmap_traits@IHU?$less@I@std@@V?$allocator@U?$pair@$$CBIH@std@@@2@$0A@@std@@@0@@Z PROC ; std::_Iter_cat<std::_Tree<std::_Tmap_traits<unsigned int,int,std::less<unsigned int>,std::allocator<std::pair<unsigned int const ,int> >,0> >::iterator>, COMDAT
; ___$ReturnUdt$ = eax

; 953  : 	typename iterator_traits<_Iter>::iterator_category _Cat;
; 954  : 	return (_Cat);
; 955  : 	}

	ret	0
??$_Iter_cat@Viterator@?$_Tree@V?$_Tmap_traits@IHU?$less@I@std@@V?$allocator@U?$pair@$$CBIH@std@@@2@$0A@@std@@@std@@@std@@YA?AUbidirectional_iterator_tag@0@ABViterator@?$_Tree@V?$_Tmap_traits@IHU?$less@I@std@@V?$allocator@U?$pair@$$CBIH@std@@@2@$0A@@std@@@0@@Z ENDP ; std::_Iter_cat<std::_Tree<std::_Tmap_traits<unsigned int,int,std::less<unsigned int>,std::allocator<std::pair<unsigned int const ,int> >,0> >::iterator>
; Function compile flags: /Ogtpy
_TEXT	ENDS
;	COMDAT ??0bad_alloc@std@@QAE@ABV01@@Z
_TEXT	SEGMENT
___that$ = 8						; size = 4
??0bad_alloc@std@@QAE@ABV01@@Z PROC			; std::bad_alloc::bad_alloc, COMDAT
; _this$ = ecx
	mov	eax, DWORD PTR ___that$[esp-4]
	push	esi
	push	eax
	mov	esi, ecx
	call	DWORD PTR __imp_??0exception@std@@QAE@ABV01@@Z
	mov	DWORD PTR [esi], OFFSET ??_7bad_alloc@std@@6B@
	mov	eax, esi
	pop	esi
	ret	4
??0bad_alloc@std@@QAE@ABV01@@Z ENDP			; std::bad_alloc::bad_alloc
; Function compile flags: /Ogtpy
; File c:\program files\microsoft visual studio 9.0\vc\include\xmemory
_TEXT	ENDS
;	COMDAT ??$?0U?$pair@$$CBKPAVThreadInfo@@@std@@@?$allocator@V_Aux_cont@std@@@std@@QAE@ABV?$allocator@U?$pair@$$CBKPAVThreadInfo@@@std@@@1@@Z
_TEXT	SEGMENT
??$?0U?$pair@$$CBKPAVThreadInfo@@@std@@@?$allocator@V_Aux_cont@std@@@std@@QAE@ABV?$allocator@U?$pair@$$CBKPAVThreadInfo@@@std@@@1@@Z PROC ; std::allocator<std::_Aux_cont>::allocator<std::_Aux_cont><std::pair<unsigned long const ,ThreadInfo *> >, COMDAT
; _this$ = eax

; 129  : 		{	// construct from a related allocator (do nothing)
; 130  : 		}

	ret	0
??$?0U?$pair@$$CBKPAVThreadInfo@@@std@@@?$allocator@V_Aux_cont@std@@@std@@QAE@ABV?$allocator@U?$pair@$$CBKPAVThreadInfo@@@std@@@1@@Z ENDP ; std::allocator<std::_Aux_cont>::allocator<std::_Aux_cont><std::pair<unsigned long const ,ThreadInfo *> >
; Function compile flags: /Ogtpy
_TEXT	ENDS
;	COMDAT ??$?0U?$pair@$$CBIPAVThreadInfo@@@std@@@?$allocator@V_Aux_cont@std@@@std@@QAE@ABV?$allocator@U?$pair@$$CBIPAVThreadInfo@@@std@@@1@@Z
_TEXT	SEGMENT
??$?0U?$pair@$$CBIPAVThreadInfo@@@std@@@?$allocator@V_Aux_cont@std@@@std@@QAE@ABV?$allocator@U?$pair@$$CBIPAVThreadInfo@@@std@@@1@@Z PROC ; std::allocator<std::_Aux_cont>::allocator<std::_Aux_cont><std::pair<unsigned int const ,ThreadInfo *> >, COMDAT
; _this$ = eax

; 129  : 		{	// construct from a related allocator (do nothing)
; 130  : 		}

	ret	0
??$?0U?$pair@$$CBIPAVThreadInfo@@@std@@@?$allocator@V_Aux_cont@std@@@std@@QAE@ABV?$allocator@U?$pair@$$CBIPAVThreadInfo@@@std@@@1@@Z ENDP ; std::allocator<std::_Aux_cont>::allocator<std::_Aux_cont><std::pair<unsigned int const ,ThreadInfo *> >
; Function compile flags: /Ogtpy
_TEXT	ENDS
;	COMDAT ??$?0U?$pair@$$CBIH@std@@@?$allocator@V_Aux_cont@std@@@std@@QAE@ABV?$allocator@U?$pair@$$CBIH@std@@@1@@Z
_TEXT	SEGMENT
??$?0U?$pair@$$CBIH@std@@@?$allocator@V_Aux_cont@std@@@std@@QAE@ABV?$allocator@U?$pair@$$CBIH@std@@@1@@Z PROC ; std::allocator<std::_Aux_cont>::allocator<std::_Aux_cont><std::pair<unsigned int const ,int> >, COMDAT
; _this$ = eax

; 129  : 		{	// construct from a related allocator (do nothing)
; 130  : 		}

	ret	0
??$?0U?$pair@$$CBIH@std@@@?$allocator@V_Aux_cont@std@@@std@@QAE@ABV?$allocator@U?$pair@$$CBIH@std@@@1@@Z ENDP ; std::allocator<std::_Aux_cont>::allocator<std::_Aux_cont><std::pair<unsigned int const ,int> >
; Function compile flags: /Ogtpy
_TEXT	ENDS
;	COMDAT ??$?0U?$pair@$$CBKPAVThreadInfo@@@std@@@?$allocator@U_Node@?$_Tree_nod@V?$_Tmap_traits@KPAVThreadInfo@@U?$less@K@std@@V?$allocator@U?$pair@$$CBKPAVThreadInfo@@@std@@@3@$0A@@std@@@std@@@std@@QAE@ABV?$allocator@U?$pair@$$CBKPAVThreadInfo@@@std@@@1@@Z
_TEXT	SEGMENT
??$?0U?$pair@$$CBKPAVThreadInfo@@@std@@@?$allocator@U_Node@?$_Tree_nod@V?$_Tmap_traits@KPAVThreadInfo@@U?$less@K@std@@V?$allocator@U?$pair@$$CBKPAVThreadInfo@@@std@@@3@$0A@@std@@@std@@@std@@QAE@ABV?$allocator@U?$pair@$$CBKPAVThreadInfo@@@std@@@1@@Z PROC ; std::allocator<std::_Tree_nod<std::_Tmap_traits<unsigned long,ThreadInfo *,std::less<unsigned long>,std::allocator<std::pair<unsigned long const ,ThreadInfo *> >,0> >::_Node>::allocator<std::_Tree_nod<std::_Tmap_traits<unsigned long,ThreadInfo *,std::less<unsigned long>,std::allocator<std::pair<unsigned long const ,ThreadInfo *> >,0> >::_Node><std::pair<unsigned long const ,ThreadInfo *> >, COMDAT
; _this$ = eax

; 129  : 		{	// construct from a related allocator (do nothing)
; 130  : 		}

	ret	0
??$?0U?$pair@$$CBKPAVThreadInfo@@@std@@@?$allocator@U_Node@?$_Tree_nod@V?$_Tmap_traits@KPAVThreadInfo@@U?$less@K@std@@V?$allocator@U?$pair@$$CBKPAVThreadInfo@@@std@@@3@$0A@@std@@@std@@@std@@QAE@ABV?$allocator@U?$pair@$$CBKPAVThreadInfo@@@std@@@1@@Z ENDP ; std::allocator<std::_Tree_nod<std::_Tmap_traits<unsigned long,ThreadInfo *,std::less<unsigned long>,std::allocator<std::pair<unsigned long const ,ThreadInfo *> >,0> >::_Node>::allocator<std::_Tree_nod<std::_Tmap_traits<unsigned long,ThreadInfo *,std::less<unsigned long>,std::allocator<std::pair<unsigned long const ,ThreadInfo *> >,0> >::_Node><std::pair<unsigned long const ,ThreadInfo *> >
; Function compile flags: /Ogtpy
_TEXT	ENDS
;	COMDAT ??$?0U?$pair@$$CBIPAVThreadInfo@@@std@@@?$allocator@U_Node@?$_Tree_nod@V?$_Tmap_traits@IPAVThreadInfo@@U?$less@I@std@@V?$allocator@U?$pair@$$CBIPAVThreadInfo@@@std@@@3@$0A@@std@@@std@@@std@@QAE@ABV?$allocator@U?$pair@$$CBIPAVThreadInfo@@@std@@@1@@Z
_TEXT	SEGMENT
??$?0U?$pair@$$CBIPAVThreadInfo@@@std@@@?$allocator@U_Node@?$_Tree_nod@V?$_Tmap_traits@IPAVThreadInfo@@U?$less@I@std@@V?$allocator@U?$pair@$$CBIPAVThreadInfo@@@std@@@3@$0A@@std@@@std@@@std@@QAE@ABV?$allocator@U?$pair@$$CBIPAVThreadInfo@@@std@@@1@@Z PROC ; std::allocator<std::_Tree_nod<std::_Tmap_traits<unsigned int,ThreadInfo *,std::less<unsigned int>,std::allocator<std::pair<unsigned int const ,ThreadInfo *> >,0> >::_Node>::allocator<std::_Tree_nod<std::_Tmap_traits<unsigned int,ThreadInfo *,std::less<unsigned int>,std::allocator<std::pair<unsigned int const ,ThreadInfo *> >,0> >::_Node><std::pair<unsigned int const ,ThreadInfo *> >, COMDAT
; _this$ = eax

; 129  : 		{	// construct from a related allocator (do nothing)
; 130  : 		}

	ret	0
??$?0U?$pair@$$CBIPAVThreadInfo@@@std@@@?$allocator@U_Node@?$_Tree_nod@V?$_Tmap_traits@IPAVThreadInfo@@U?$less@I@std@@V?$allocator@U?$pair@$$CBIPAVThreadInfo@@@std@@@3@$0A@@std@@@std@@@std@@QAE@ABV?$allocator@U?$pair@$$CBIPAVThreadInfo@@@std@@@1@@Z ENDP ; std::allocator<std::_Tree_nod<std::_Tmap_traits<unsigned int,ThreadInfo *,std::less<unsigned int>,std::allocator<std::pair<unsigned int const ,ThreadInfo *> >,0> >::_Node>::allocator<std::_Tree_nod<std::_Tmap_traits<unsigned int,ThreadInfo *,std::less<unsigned int>,std::allocator<std::pair<unsigned int const ,ThreadInfo *> >,0> >::_Node><std::pair<unsigned int const ,ThreadInfo *> >
; Function compile flags: /Ogtpy
_TEXT	ENDS
;	COMDAT ??$?0U?$pair@$$CBIH@std@@@?$allocator@U_Node@?$_Tree_nod@V?$_Tmap_traits@IHU?$less@I@std@@V?$allocator@U?$pair@$$CBIH@std@@@2@$0A@@std@@@std@@@std@@QAE@ABV?$allocator@U?$pair@$$CBIH@std@@@1@@Z
_TEXT	SEGMENT
??$?0U?$pair@$$CBIH@std@@@?$allocator@U_Node@?$_Tree_nod@V?$_Tmap_traits@IHU?$less@I@std@@V?$allocator@U?$pair@$$CBIH@std@@@2@$0A@@std@@@std@@@std@@QAE@ABV?$allocator@U?$pair@$$CBIH@std@@@1@@Z PROC ; std::allocator<std::_Tree_nod<std::_Tmap_traits<unsigned int,int,std::less<unsigned int>,std::allocator<std::pair<unsigned int const ,int> >,0> >::_Node>::allocator<std::_Tree_nod<std::_Tmap_traits<unsigned int,int,std::less<unsigned int>,std::allocator<std::pair<unsigned int const ,int> >,0> >::_Node><std::pair<unsigned int const ,int> >, COMDAT
; _this$ = eax

; 129  : 		{	// construct from a related allocator (do nothing)
; 130  : 		}

	ret	0
??$?0U?$pair@$$CBIH@std@@@?$allocator@U_Node@?$_Tree_nod@V?$_Tmap_traits@IHU?$less@I@std@@V?$allocator@U?$pair@$$CBIH@std@@@2@$0A@@std@@@std@@@std@@QAE@ABV?$allocator@U?$pair@$$CBIH@std@@@1@@Z ENDP ; std::allocator<std::_Tree_nod<std::_Tmap_traits<unsigned int,int,std::less<unsigned int>,std::allocator<std::pair<unsigned int const ,int> >,0> >::_Node>::allocator<std::_Tree_nod<std::_Tmap_traits<unsigned int,int,std::less<unsigned int>,std::allocator<std::pair<unsigned int const ,int> >,0> >::_Node><std::pair<unsigned int const ,int> >
; Function compile flags: /Ogtpy
_TEXT	ENDS
;	COMDAT ??$?0U?$pair@$$CBKPAVThreadInfo@@@std@@@?$allocator@PAU_Node@?$_Tree_nod@V?$_Tmap_traits@KPAVThreadInfo@@U?$less@K@std@@V?$allocator@U?$pair@$$CBKPAVThreadInfo@@@std@@@3@$0A@@std@@@std@@@std@@QAE@ABV?$allocator@U?$pair@$$CBKPAVThreadInfo@@@std@@@1@@Z
_TEXT	SEGMENT
??$?0U?$pair@$$CBKPAVThreadInfo@@@std@@@?$allocator@PAU_Node@?$_Tree_nod@V?$_Tmap_traits@KPAVThreadInfo@@U?$less@K@std@@V?$allocator@U?$pair@$$CBKPAVThreadInfo@@@std@@@3@$0A@@std@@@std@@@std@@QAE@ABV?$allocator@U?$pair@$$CBKPAVThreadInfo@@@std@@@1@@Z PROC ; std::allocator<std::_Tree_nod<std::_Tmap_traits<unsigned long,ThreadInfo *,std::less<unsigned long>,std::allocator<std::pair<unsigned long const ,ThreadInfo *> >,0> >::_Node *>::allocator<std::_Tree_nod<std::_Tmap_traits<unsigned long,ThreadInfo *,std::less<unsigned long>,std::allocator<std::pair<unsigned long const ,ThreadInfo *> >,0> >::_Node *><std::pair<unsigned long const ,ThreadInfo *> >, COMDAT
; _this$ = eax

; 129  : 		{	// construct from a related allocator (do nothing)
; 130  : 		}

	ret	0
??$?0U?$pair@$$CBKPAVThreadInfo@@@std@@@?$allocator@PAU_Node@?$_Tree_nod@V?$_Tmap_traits@KPAVThreadInfo@@U?$less@K@std@@V?$allocator@U?$pair@$$CBKPAVThreadInfo@@@std@@@3@$0A@@std@@@std@@@std@@QAE@ABV?$allocator@U?$pair@$$CBKPAVThreadInfo@@@std@@@1@@Z ENDP ; std::allocator<std::_Tree_nod<std::_Tmap_traits<unsigned long,ThreadInfo *,std::less<unsigned long>,std::allocator<std::pair<unsigned long const ,ThreadInfo *> >,0> >::_Node *>::allocator<std::_Tree_nod<std::_Tmap_traits<unsigned long,ThreadInfo *,std::less<unsigned long>,std::allocator<std::pair<unsigned long const ,ThreadInfo *> >,0> >::_Node *><std::pair<unsigned long const ,ThreadInfo *> >
; Function compile flags: /Ogtpy
_TEXT	ENDS
;	COMDAT ??$?0U?$pair@$$CBIPAVThreadInfo@@@std@@@?$allocator@PAU_Node@?$_Tree_nod@V?$_Tmap_traits@IPAVThreadInfo@@U?$less@I@std@@V?$allocator@U?$pair@$$CBIPAVThreadInfo@@@std@@@3@$0A@@std@@@std@@@std@@QAE@ABV?$allocator@U?$pair@$$CBIPAVThreadInfo@@@std@@@1@@Z
_TEXT	SEGMENT
??$?0U?$pair@$$CBIPAVThreadInfo@@@std@@@?$allocator@PAU_Node@?$_Tree_nod@V?$_Tmap_traits@IPAVThreadInfo@@U?$less@I@std@@V?$allocator@U?$pair@$$CBIPAVThreadInfo@@@std@@@3@$0A@@std@@@std@@@std@@QAE@ABV?$allocator@U?$pair@$$CBIPAVThreadInfo@@@std@@@1@@Z PROC ; std::allocator<std::_Tree_nod<std::_Tmap_traits<unsigned int,ThreadInfo *,std::less<unsigned int>,std::allocator<std::pair<unsigned int const ,ThreadInfo *> >,0> >::_Node *>::allocator<std::_Tree_nod<std::_Tmap_traits<unsigned int,ThreadInfo *,std::less<unsigned int>,std::allocator<std::pair<unsigned int const ,ThreadInfo *> >,0> >::_Node *><std::pair<unsigned int const ,ThreadInfo *> >, COMDAT
; _this$ = eax

; 129  : 		{	// construct from a related allocator (do nothing)
; 130  : 		}

	ret	0
??$?0U?$pair@$$CBIPAVThreadInfo@@@std@@@?$allocator@PAU_Node@?$_Tree_nod@V?$_Tmap_traits@IPAVThreadInfo@@U?$less@I@std@@V?$allocator@U?$pair@$$CBIPAVThreadInfo@@@std@@@3@$0A@@std@@@std@@@std@@QAE@ABV?$allocator@U?$pair@$$CBIPAVThreadInfo@@@std@@@1@@Z ENDP ; std::allocator<std::_Tree_nod<std::_Tmap_traits<unsigned int,ThreadInfo *,std::less<unsigned int>,std::allocator<std::pair<unsigned int const ,ThreadInfo *> >,0> >::_Node *>::allocator<std::_Tree_nod<std::_Tmap_traits<unsigned int,ThreadInfo *,std::less<unsigned int>,std::allocator<std::pair<unsigned int const ,ThreadInfo *> >,0> >::_Node *><std::pair<unsigned int const ,ThreadInfo *> >
; Function compile flags: /Ogtpy
_TEXT	ENDS
;	COMDAT ??$?0U?$pair@$$CBIH@std@@@?$allocator@PAU_Node@?$_Tree_nod@V?$_Tmap_traits@IHU?$less@I@std@@V?$allocator@U?$pair@$$CBIH@std@@@2@$0A@@std@@@std@@@std@@QAE@ABV?$allocator@U?$pair@$$CBIH@std@@@1@@Z
_TEXT	SEGMENT
??$?0U?$pair@$$CBIH@std@@@?$allocator@PAU_Node@?$_Tree_nod@V?$_Tmap_traits@IHU?$less@I@std@@V?$allocator@U?$pair@$$CBIH@std@@@2@$0A@@std@@@std@@@std@@QAE@ABV?$allocator@U?$pair@$$CBIH@std@@@1@@Z PROC ; std::allocator<std::_Tree_nod<std::_Tmap_traits<unsigned int,int,std::less<unsigned int>,std::allocator<std::pair<unsigned int const ,int> >,0> >::_Node *>::allocator<std::_Tree_nod<std::_Tmap_traits<unsigned int,int,std::less<unsigned int>,std::allocator<std::pair<unsigned int const ,int> >,0> >::_Node *><std::pair<unsigned int const ,int> >, COMDAT
; _this$ = eax

; 129  : 		{	// construct from a related allocator (do nothing)
; 130  : 		}

	ret	0
??$?0U?$pair@$$CBIH@std@@@?$allocator@PAU_Node@?$_Tree_nod@V?$_Tmap_traits@IHU?$less@I@std@@V?$allocator@U?$pair@$$CBIH@std@@@2@$0A@@std@@@std@@@std@@QAE@ABV?$allocator@U?$pair@$$CBIH@std@@@1@@Z ENDP ; std::allocator<std::_Tree_nod<std::_Tmap_traits<unsigned int,int,std::less<unsigned int>,std::allocator<std::pair<unsigned int const ,int> >,0> >::_Node *>::allocator<std::_Tree_nod<std::_Tmap_traits<unsigned int,int,std::less<unsigned int>,std::allocator<std::pair<unsigned int const ,int> >,0> >::_Node *><std::pair<unsigned int const ,int> >
; Function compile flags: /Ogtpy
; File c:\program files\microsoft visual studio 9.0\vc\include\utility
_TEXT	ENDS
;	COMDAT ??$?0IPAVThreadInfo@@@?$pair@$$CBIPAVThreadInfo@@@std@@QAE@ABU?$pair@IPAVThreadInfo@@@1@@Z
_TEXT	SEGMENT
??$?0IPAVThreadInfo@@@?$pair@$$CBIPAVThreadInfo@@@std@@QAE@ABU?$pair@IPAVThreadInfo@@@1@@Z PROC ; std::pair<unsigned int const ,ThreadInfo *>::pair<unsigned int const ,ThreadInfo *><unsigned int,ThreadInfo *>, COMDAT
; _this$ = eax
; __Right$ = ecx

; 57   : 		{	// construct from compatible pair

	mov	edx, DWORD PTR [ecx]
	mov	DWORD PTR [eax], edx
	mov	ecx, DWORD PTR [ecx+4]
	mov	DWORD PTR [eax+4], ecx

; 58   : 		}

	ret	0
??$?0IPAVThreadInfo@@@?$pair@$$CBIPAVThreadInfo@@@std@@QAE@ABU?$pair@IPAVThreadInfo@@@1@@Z ENDP ; std::pair<unsigned int const ,ThreadInfo *>::pair<unsigned int const ,ThreadInfo *><unsigned int,ThreadInfo *>
; Function compile flags: /Ogtpy
_TEXT	ENDS
;	COMDAT ??$?0KPAVThreadInfo@@@?$pair@$$CBKPAVThreadInfo@@@std@@QAE@ABU?$pair@KPAVThreadInfo@@@1@@Z
_TEXT	SEGMENT
??$?0KPAVThreadInfo@@@?$pair@$$CBKPAVThreadInfo@@@std@@QAE@ABU?$pair@KPAVThreadInfo@@@1@@Z PROC ; std::pair<unsigned long const ,ThreadInfo *>::pair<unsigned long const ,ThreadInfo *><unsigned long,ThreadInfo *>, COMDAT
; _this$ = eax
; __Right$ = ecx

; 57   : 		{	// construct from compatible pair

	mov	edx, DWORD PTR [ecx]
	mov	DWORD PTR [eax], edx
	mov	ecx, DWORD PTR [ecx+4]
	mov	DWORD PTR [eax+4], ecx

; 58   : 		}

	ret	0
??$?0KPAVThreadInfo@@@?$pair@$$CBKPAVThreadInfo@@@std@@QAE@ABU?$pair@KPAVThreadInfo@@@1@@Z ENDP ; std::pair<unsigned long const ,ThreadInfo *>::pair<unsigned long const ,ThreadInfo *><unsigned long,ThreadInfo *>
; Function compile flags: /Ogtpy
_TEXT	ENDS
;	COMDAT ??$?0IH@?$pair@$$CBIH@std@@QAE@ABU?$pair@IH@1@@Z
_TEXT	SEGMENT
??$?0IH@?$pair@$$CBIH@std@@QAE@ABU?$pair@IH@1@@Z PROC	; std::pair<unsigned int const ,int>::pair<unsigned int const ,int><unsigned int,int>, COMDAT
; _this$ = eax
; __Right$ = ecx

; 57   : 		{	// construct from compatible pair

	mov	edx, DWORD PTR [ecx]
	mov	DWORD PTR [eax], edx
	mov	ecx, DWORD PTR [ecx+4]
	mov	DWORD PTR [eax+4], ecx

; 58   : 		}

	ret	0
??$?0IH@?$pair@$$CBIH@std@@QAE@ABU?$pair@IH@1@@Z ENDP	; std::pair<unsigned int const ,int>::pair<unsigned int const ,int><unsigned int,int>
; Function compile flags: /Ogtpy
; File c:\program files\microsoft visual studio 9.0\vc\include\xtree
_TEXT	ENDS
;	COMDAT ??0_Node@?$_Tree_nod@V?$_Tmap_traits@KPAVThreadInfo@@U?$less@K@std@@V?$allocator@U?$pair@$$CBKPAVThreadInfo@@@std@@@3@$0A@@std@@@std@@QAE@PAU012@00ABU?$pair@$$CBKPAVThreadInfo@@@2@D@Z
_TEXT	SEGMENT
__Larg$ = 8						; size = 4
__Parg$ = 12						; size = 4
__Rarg$ = 16						; size = 4
??0_Node@?$_Tree_nod@V?$_Tmap_traits@KPAVThreadInfo@@U?$less@K@std@@V?$allocator@U?$pair@$$CBKPAVThreadInfo@@@std@@@3@$0A@@std@@@std@@QAE@PAU012@00ABU?$pair@$$CBKPAVThreadInfo@@@2@D@Z PROC ; std::_Tree_nod<std::_Tmap_traits<unsigned long,ThreadInfo *,std::less<unsigned long>,std::allocator<std::pair<unsigned long const ,ThreadInfo *> >,0> >::_Node::_Node, COMDAT
; _this$ = eax
; __Val$ = ecx

; 38   : 			{	// construct a node with value

	mov	edx, DWORD PTR __Larg$[esp-4]
	mov	DWORD PTR [eax], edx
	mov	edx, DWORD PTR __Parg$[esp-4]
	mov	DWORD PTR [eax+4], edx
	mov	edx, DWORD PTR __Rarg$[esp-4]
	mov	DWORD PTR [eax+8], edx
	mov	edx, DWORD PTR [ecx]
	mov	DWORD PTR [eax+12], edx
	mov	ecx, DWORD PTR [ecx+4]
	mov	DWORD PTR [eax+16], ecx
	xor	cl, cl
	mov	BYTE PTR [eax+20], cl
	mov	BYTE PTR [eax+21], cl

; 39   : 			}

	ret	12					; 0000000cH
??0_Node@?$_Tree_nod@V?$_Tmap_traits@KPAVThreadInfo@@U?$less@K@std@@V?$allocator@U?$pair@$$CBKPAVThreadInfo@@@std@@@3@$0A@@std@@@std@@QAE@PAU012@00ABU?$pair@$$CBKPAVThreadInfo@@@2@D@Z ENDP ; std::_Tree_nod<std::_Tmap_traits<unsigned long,ThreadInfo *,std::less<unsigned long>,std::allocator<std::pair<unsigned long const ,ThreadInfo *> >,0> >::_Node::_Node
; Function compile flags: /Ogtpy
_TEXT	ENDS
;	COMDAT ??0_Node@?$_Tree_nod@V?$_Tmap_traits@IPAVThreadInfo@@U?$less@I@std@@V?$allocator@U?$pair@$$CBIPAVThreadInfo@@@std@@@3@$0A@@std@@@std@@QAE@PAU012@00ABU?$pair@$$CBIPAVThreadInfo@@@2@D@Z
_TEXT	SEGMENT
__Larg$ = 8						; size = 4
__Parg$ = 12						; size = 4
__Rarg$ = 16						; size = 4
??0_Node@?$_Tree_nod@V?$_Tmap_traits@IPAVThreadInfo@@U?$less@I@std@@V?$allocator@U?$pair@$$CBIPAVThreadInfo@@@std@@@3@$0A@@std@@@std@@QAE@PAU012@00ABU?$pair@$$CBIPAVThreadInfo@@@2@D@Z PROC ; std::_Tree_nod<std::_Tmap_traits<unsigned int,ThreadInfo *,std::less<unsigned int>,std::allocator<std::pair<unsigned int const ,ThreadInfo *> >,0> >::_Node::_Node, COMDAT
; _this$ = eax
; __Val$ = ecx

; 38   : 			{	// construct a node with value

	mov	edx, DWORD PTR __Larg$[esp-4]
	mov	DWORD PTR [eax], edx
	mov	edx, DWORD PTR __Parg$[esp-4]
	mov	DWORD PTR [eax+4], edx
	mov	edx, DWORD PTR __Rarg$[esp-4]
	mov	DWORD PTR [eax+8], edx
	mov	edx, DWORD PTR [ecx]
	mov	DWORD PTR [eax+12], edx
	mov	ecx, DWORD PTR [ecx+4]
	mov	DWORD PTR [eax+16], ecx
	xor	cl, cl
	mov	BYTE PTR [eax+20], cl
	mov	BYTE PTR [eax+21], cl

; 39   : 			}

	ret	12					; 0000000cH
??0_Node@?$_Tree_nod@V?$_Tmap_traits@IPAVThreadInfo@@U?$less@I@std@@V?$allocator@U?$pair@$$CBIPAVThreadInfo@@@std@@@3@$0A@@std@@@std@@QAE@PAU012@00ABU?$pair@$$CBIPAVThreadInfo@@@2@D@Z ENDP ; std::_Tree_nod<std::_Tmap_traits<unsigned int,ThreadInfo *,std::less<unsigned int>,std::allocator<std::pair<unsigned int const ,ThreadInfo *> >,0> >::_Node::_Node
; Function compile flags: /Ogtpy
_TEXT	ENDS
;	COMDAT ??0_Node@?$_Tree_nod@V?$_Tmap_traits@IHU?$less@I@std@@V?$allocator@U?$pair@$$CBIH@std@@@2@$0A@@std@@@std@@QAE@PAU012@00ABU?$pair@$$CBIH@2@D@Z
_TEXT	SEGMENT
__Larg$ = 8						; size = 4
__Parg$ = 12						; size = 4
__Rarg$ = 16						; size = 4
??0_Node@?$_Tree_nod@V?$_Tmap_traits@IHU?$less@I@std@@V?$allocator@U?$pair@$$CBIH@std@@@2@$0A@@std@@@std@@QAE@PAU012@00ABU?$pair@$$CBIH@2@D@Z PROC ; std::_Tree_nod<std::_Tmap_traits<unsigned int,int,std::less<unsigned int>,std::allocator<std::pair<unsigned int const ,int> >,0> >::_Node::_Node, COMDAT
; _this$ = eax
; __Val$ = ecx

; 38   : 			{	// construct a node with value

	mov	edx, DWORD PTR __Larg$[esp-4]
	mov	DWORD PTR [eax], edx
	mov	edx, DWORD PTR __Parg$[esp-4]
	mov	DWORD PTR [eax+4], edx
	mov	edx, DWORD PTR __Rarg$[esp-4]
	mov	DWORD PTR [eax+8], edx
	mov	edx, DWORD PTR [ecx]
	mov	DWORD PTR [eax+12], edx
	mov	ecx, DWORD PTR [ecx+4]
	mov	DWORD PTR [eax+16], ecx
	xor	cl, cl
	mov	BYTE PTR [eax+20], cl
	mov	BYTE PTR [eax+21], cl

; 39   : 			}

	ret	12					; 0000000cH
??0_Node@?$_Tree_nod@V?$_Tmap_traits@IHU?$less@I@std@@V?$allocator@U?$pair@$$CBIH@std@@@2@$0A@@std@@@std@@QAE@PAU012@00ABU?$pair@$$CBIH@2@D@Z ENDP ; std::_Tree_nod<std::_Tmap_traits<unsigned int,int,std::less<unsigned int>,std::allocator<std::pair<unsigned int const ,int> >,0> >::_Node::_Node
; Function compile flags: /Ogtpy
; File c:\program files\microsoft visual studio 9.0\vc\include\utility
_TEXT	ENDS
;	COMDAT ??0?$pair@Viterator@?$_Tree@V?$_Tmap_traits@KPAVThreadInfo@@U?$less@K@std@@V?$allocator@U?$pair@$$CBKPAVThreadInfo@@@std@@@3@$0A@@std@@@std@@V123@@std@@QAE@ABViterator@?$_Tree@V?$_Tmap_traits@KPAVThreadInfo@@U?$less@K@std@@V?$allocator@U?$pair@$$CBKPAVThreadInfo@@@std@@@3@$0A@@std@@@1@0@Z
_TEXT	SEGMENT
_this$ = 8						; size = 4
??0?$pair@Viterator@?$_Tree@V?$_Tmap_traits@KPAVThreadInfo@@U?$less@K@std@@V?$allocator@U?$pair@$$CBKPAVThreadInfo@@@std@@@3@$0A@@std@@@std@@V123@@std@@QAE@ABViterator@?$_Tree@V?$_Tmap_traits@KPAVThreadInfo@@U?$less@K@std@@V?$allocator@U?$pair@$$CBKPAVThreadInfo@@@std@@@3@$0A@@std@@@1@0@Z PROC ; std::pair<std::_Tree<std::_Tmap_traits<unsigned long,ThreadInfo *,std::less<unsigned long>,std::allocator<std::pair<unsigned long const ,ThreadInfo *> >,0> >::iterator,std::_Tree<std::_Tmap_traits<unsigned long,ThreadInfo *,std::less<unsigned long>,std::allocator<std::pair<unsigned long const ,ThreadInfo *> >,0> >::iterator>::pair<std::_Tree<std::_Tmap_traits<unsigned long,ThreadInfo *,std::less<unsigned long>,std::allocator<std::pair<unsigned long const ,ThreadInfo *> >,0> >::iterator,std::_Tree<std::_Tmap_traits<unsigned long,ThreadInfo *,std::less<unsigned long>,std::allocator<std::pair<unsigned long const ,ThreadInfo *> >,0> >::iterator>, COMDAT
; __Val1$ = edx
; __Val2$ = ecx

; 50   : 		{	// construct from specified values

	mov	eax, DWORD PTR _this$[esp-4]
	push	esi
	mov	esi, DWORD PTR [edx]
	mov	DWORD PTR [eax], esi
	mov	edx, DWORD PTR [edx+4]
	mov	DWORD PTR [eax+4], edx
	mov	edx, DWORD PTR [ecx]
	mov	DWORD PTR [eax+8], edx
	mov	ecx, DWORD PTR [ecx+4]
	mov	DWORD PTR [eax+12], ecx
	pop	esi

; 51   : 		}

	ret	4
??0?$pair@Viterator@?$_Tree@V?$_Tmap_traits@KPAVThreadInfo@@U?$less@K@std@@V?$allocator@U?$pair@$$CBKPAVThreadInfo@@@std@@@3@$0A@@std@@@std@@V123@@std@@QAE@ABViterator@?$_Tree@V?$_Tmap_traits@KPAVThreadInfo@@U?$less@K@std@@V?$allocator@U?$pair@$$CBKPAVThreadInfo@@@std@@@3@$0A@@std@@@1@0@Z ENDP ; std::pair<std::_Tree<std::_Tmap_traits<unsigned long,ThreadInfo *,std::less<unsigned long>,std::allocator<std::pair<unsigned long const ,ThreadInfo *> >,0> >::iterator,std::_Tree<std::_Tmap_traits<unsigned long,ThreadInfo *,std::less<unsigned long>,std::allocator<std::pair<unsigned long const ,ThreadInfo *> >,0> >::iterator>::pair<std::_Tree<std::_Tmap_traits<unsigned long,ThreadInfo *,std::less<unsigned long>,std::allocator<std::pair<unsigned long const ,ThreadInfo *> >,0> >::iterator,std::_Tree<std::_Tmap_traits<unsigned long,ThreadInfo *,std::less<unsigned long>,std::allocator<std::pair<unsigned long const ,ThreadInfo *> >,0> >::iterator>
; Function compile flags: /Ogtpy
_TEXT	ENDS
;	COMDAT ??0?$pair@Viterator@?$_Tree@V?$_Tmap_traits@IPAVThreadInfo@@U?$less@I@std@@V?$allocator@U?$pair@$$CBIPAVThreadInfo@@@std@@@3@$0A@@std@@@std@@V123@@std@@QAE@ABViterator@?$_Tree@V?$_Tmap_traits@IPAVThreadInfo@@U?$less@I@std@@V?$allocator@U?$pair@$$CBIPAVThreadInfo@@@std@@@3@$0A@@std@@@1@0@Z
_TEXT	SEGMENT
_this$ = 8						; size = 4
??0?$pair@Viterator@?$_Tree@V?$_Tmap_traits@IPAVThreadInfo@@U?$less@I@std@@V?$allocator@U?$pair@$$CBIPAVThreadInfo@@@std@@@3@$0A@@std@@@std@@V123@@std@@QAE@ABViterator@?$_Tree@V?$_Tmap_traits@IPAVThreadInfo@@U?$less@I@std@@V?$allocator@U?$pair@$$CBIPAVThreadInfo@@@std@@@3@$0A@@std@@@1@0@Z PROC ; std::pair<std::_Tree<std::_Tmap_traits<unsigned int,ThreadInfo *,std::less<unsigned int>,std::allocator<std::pair<unsigned int const ,ThreadInfo *> >,0> >::iterator,std::_Tree<std::_Tmap_traits<unsigned int,ThreadInfo *,std::less<unsigned int>,std::allocator<std::pair<unsigned int const ,ThreadInfo *> >,0> >::iterator>::pair<std::_Tree<std::_Tmap_traits<unsigned int,ThreadInfo *,std::less<unsigned int>,std::allocator<std::pair<unsigned int const ,ThreadInfo *> >,0> >::iterator,std::_Tree<std::_Tmap_traits<unsigned int,ThreadInfo *,std::less<unsigned int>,std::allocator<std::pair<unsigned int const ,ThreadInfo *> >,0> >::iterator>, COMDAT
; __Val1$ = edx
; __Val2$ = ecx

; 50   : 		{	// construct from specified values

	mov	eax, DWORD PTR _this$[esp-4]
	push	esi
	mov	esi, DWORD PTR [edx]
	mov	DWORD PTR [eax], esi
	mov	edx, DWORD PTR [edx+4]
	mov	DWORD PTR [eax+4], edx
	mov	edx, DWORD PTR [ecx]
	mov	DWORD PTR [eax+8], edx
	mov	ecx, DWORD PTR [ecx+4]
	mov	DWORD PTR [eax+12], ecx
	pop	esi

; 51   : 		}

	ret	4
??0?$pair@Viterator@?$_Tree@V?$_Tmap_traits@IPAVThreadInfo@@U?$less@I@std@@V?$allocator@U?$pair@$$CBIPAVThreadInfo@@@std@@@3@$0A@@std@@@std@@V123@@std@@QAE@ABViterator@?$_Tree@V?$_Tmap_traits@IPAVThreadInfo@@U?$less@I@std@@V?$allocator@U?$pair@$$CBIPAVThreadInfo@@@std@@@3@$0A@@std@@@1@0@Z ENDP ; std::pair<std::_Tree<std::_Tmap_traits<unsigned int,ThreadInfo *,std::less<unsigned int>,std::allocator<std::pair<unsigned int const ,ThreadInfo *> >,0> >::iterator,std::_Tree<std::_Tmap_traits<unsigned int,ThreadInfo *,std::less<unsigned int>,std::allocator<std::pair<unsigned int const ,ThreadInfo *> >,0> >::iterator>::pair<std::_Tree<std::_Tmap_traits<unsigned int,ThreadInfo *,std::less<unsigned int>,std::allocator<std::pair<unsigned int const ,ThreadInfo *> >,0> >::iterator,std::_Tree<std::_Tmap_traits<unsigned int,ThreadInfo *,std::less<unsigned int>,std::allocator<std::pair<unsigned int const ,ThreadInfo *> >,0> >::iterator>
; Function compile flags: /Ogtpy
_TEXT	ENDS
;	COMDAT ??0?$pair@Viterator@?$_Tree@V?$_Tmap_traits@IHU?$less@I@std@@V?$allocator@U?$pair@$$CBIH@std@@@2@$0A@@std@@@std@@V123@@std@@QAE@ABViterator@?$_Tree@V?$_Tmap_traits@IHU?$less@I@std@@V?$allocator@U?$pair@$$CBIH@std@@@2@$0A@@std@@@1@0@Z
_TEXT	SEGMENT
_this$ = 8						; size = 4
??0?$pair@Viterator@?$_Tree@V?$_Tmap_traits@IHU?$less@I@std@@V?$allocator@U?$pair@$$CBIH@std@@@2@$0A@@std@@@std@@V123@@std@@QAE@ABViterator@?$_Tree@V?$_Tmap_traits@IHU?$less@I@std@@V?$allocator@U?$pair@$$CBIH@std@@@2@$0A@@std@@@1@0@Z PROC ; std::pair<std::_Tree<std::_Tmap_traits<unsigned int,int,std::less<unsigned int>,std::allocator<std::pair<unsigned int const ,int> >,0> >::iterator,std::_Tree<std::_Tmap_traits<unsigned int,int,std::less<unsigned int>,std::allocator<std::pair<unsigned int const ,int> >,0> >::iterator>::pair<std::_Tree<std::_Tmap_traits<unsigned int,int,std::less<unsigned int>,std::allocator<std::pair<unsigned int const ,int> >,0> >::iterator,std::_Tree<std::_Tmap_traits<unsigned int,int,std::less<unsigned int>,std::allocator<std::pair<unsigned int const ,int> >,0> >::iterator>, COMDAT
; __Val1$ = edx
; __Val2$ = ecx

; 50   : 		{	// construct from specified values

	mov	eax, DWORD PTR _this$[esp-4]
	push	esi
	mov	esi, DWORD PTR [edx]
	mov	DWORD PTR [eax], esi
	mov	edx, DWORD PTR [edx+4]
	mov	DWORD PTR [eax+4], edx
	mov	edx, DWORD PTR [ecx]
	mov	DWORD PTR [eax+8], edx
	mov	ecx, DWORD PTR [ecx+4]
	mov	DWORD PTR [eax+12], ecx
	pop	esi

; 51   : 		}

	ret	4
??0?$pair@Viterator@?$_Tree@V?$_Tmap_traits@IHU?$less@I@std@@V?$allocator@U?$pair@$$CBIH@std@@@2@$0A@@std@@@std@@V123@@std@@QAE@ABViterator@?$_Tree@V?$_Tmap_traits@IHU?$less@I@std@@V?$allocator@U?$pair@$$CBIH@std@@@2@$0A@@std@@@1@0@Z ENDP ; std::pair<std::_Tree<std::_Tmap_traits<unsigned int,int,std::less<unsigned int>,std::allocator<std::pair<unsigned int const ,int> >,0> >::iterator,std::_Tree<std::_Tmap_traits<unsigned int,int,std::less<unsigned int>,std::allocator<std::pair<unsigned int const ,int> >,0> >::iterator>::pair<std::_Tree<std::_Tmap_traits<unsigned int,int,std::less<unsigned int>,std::allocator<std::pair<unsigned int const ,int> >,0> >::iterator,std::_Tree<std::_Tmap_traits<unsigned int,int,std::less<unsigned int>,std::allocator<std::pair<unsigned int const ,int> >,0> >::iterator>
; Function compile flags: /Ogtpy
; File c:\program files\microsoft visual studio 9.0\vc\include\xmemory
_TEXT	ENDS
;	COMDAT ?max_size@?$allocator@U?$pair@$$CBKPAVThreadInfo@@@std@@@std@@QBEIXZ
_TEXT	SEGMENT
?max_size@?$allocator@U?$pair@$$CBKPAVThreadInfo@@@std@@@std@@QBEIXZ PROC ; std::allocator<std::pair<unsigned long const ,ThreadInfo *> >::max_size, COMDAT

; 165  : 		_SIZT _Count = (_SIZT)(-1) / sizeof (_Ty);
; 166  : 		return (0 < _Count ? _Count : 1);

	mov	eax, 536870911				; 1fffffffH

; 167  : 		}

	ret	0
?max_size@?$allocator@U?$pair@$$CBKPAVThreadInfo@@@std@@@std@@QBEIXZ ENDP ; std::allocator<std::pair<unsigned long const ,ThreadInfo *> >::max_size
; Function compile flags: /Ogtpy
_TEXT	ENDS
;	COMDAT ?max_size@?$allocator@U?$pair@$$CBIPAVThreadInfo@@@std@@@std@@QBEIXZ
_TEXT	SEGMENT
?max_size@?$allocator@U?$pair@$$CBIPAVThreadInfo@@@std@@@std@@QBEIXZ PROC ; std::allocator<std::pair<unsigned int const ,ThreadInfo *> >::max_size, COMDAT

; 165  : 		_SIZT _Count = (_SIZT)(-1) / sizeof (_Ty);
; 166  : 		return (0 < _Count ? _Count : 1);

	mov	eax, 536870911				; 1fffffffH

; 167  : 		}

	ret	0
?max_size@?$allocator@U?$pair@$$CBIPAVThreadInfo@@@std@@@std@@QBEIXZ ENDP ; std::allocator<std::pair<unsigned int const ,ThreadInfo *> >::max_size
; Function compile flags: /Ogtpy
_TEXT	ENDS
;	COMDAT ?max_size@?$allocator@U?$pair@$$CBIH@std@@@std@@QBEIXZ
_TEXT	SEGMENT
?max_size@?$allocator@U?$pair@$$CBIH@std@@@std@@QBEIXZ PROC ; std::allocator<std::pair<unsigned int const ,int> >::max_size, COMDAT

; 165  : 		_SIZT _Count = (_SIZT)(-1) / sizeof (_Ty);
; 166  : 		return (0 < _Count ? _Count : 1);

	mov	eax, 536870911				; 1fffffffH

; 167  : 		}

	ret	0
?max_size@?$allocator@U?$pair@$$CBIH@std@@@std@@QBEIXZ ENDP ; std::allocator<std::pair<unsigned int const ,int> >::max_size
; Function compile flags: /Ogtpy
_TEXT	ENDS
;	COMDAT ??0?$allocator@U?$pair@$$CBKPAVThreadInfo@@@std@@@std@@QAE@ABV01@@Z
_TEXT	SEGMENT
??0?$allocator@U?$pair@$$CBKPAVThreadInfo@@@std@@@std@@QAE@ABV01@@Z PROC ; std::allocator<std::pair<unsigned long const ,ThreadInfo *> >::allocator<std::pair<unsigned long const ,ThreadInfo *> >, COMDAT
; _this$ = eax

; 124  : 		{	// construct by copying (do nothing)
; 125  : 		}

	ret	0
??0?$allocator@U?$pair@$$CBKPAVThreadInfo@@@std@@@std@@QAE@ABV01@@Z ENDP ; std::allocator<std::pair<unsigned long const ,ThreadInfo *> >::allocator<std::pair<unsigned long const ,ThreadInfo *> >
; Function compile flags: /Ogtpy
; File c:\program files\microsoft visual studio 9.0\vc\include\xtree
_TEXT	ENDS
;	COMDAT ?max_size@?$_Tree@V?$_Tmap_traits@KPAVThreadInfo@@U?$less@K@std@@V?$allocator@U?$pair@$$CBKPAVThreadInfo@@@std@@@3@$0A@@std@@@std@@QBEIXZ
_TEXT	SEGMENT
?max_size@?$_Tree@V?$_Tmap_traits@KPAVThreadInfo@@U?$less@K@std@@V?$allocator@U?$pair@$$CBKPAVThreadInfo@@@std@@@3@$0A@@std@@@std@@QBEIXZ PROC ; std::_Tree<std::_Tmap_traits<unsigned long,ThreadInfo *,std::less<unsigned long>,std::allocator<std::pair<unsigned long const ,ThreadInfo *> >,0> >::max_size, COMDAT

; 606  : 		return (this->_Alval.max_size());

	mov	eax, 536870911				; 1fffffffH

; 607  : 		}

	ret	0
?max_size@?$_Tree@V?$_Tmap_traits@KPAVThreadInfo@@U?$less@K@std@@V?$allocator@U?$pair@$$CBKPAVThreadInfo@@@std@@@3@$0A@@std@@@std@@QBEIXZ ENDP ; std::_Tree<std::_Tmap_traits<unsigned long,ThreadInfo *,std::less<unsigned long>,std::allocator<std::pair<unsigned long const ,ThreadInfo *> >,0> >::max_size
; Function compile flags: /Ogtpy
_TEXT	ENDS
;	COMDAT ?size@?$_Tree@V?$_Tmap_traits@KPAVThreadInfo@@U?$less@K@std@@V?$allocator@U?$pair@$$CBKPAVThreadInfo@@@std@@@3@$0A@@std@@@std@@QBEIXZ
_TEXT	SEGMENT
?size@?$_Tree@V?$_Tmap_traits@KPAVThreadInfo@@U?$less@K@std@@V?$allocator@U?$pair@$$CBKPAVThreadInfo@@@std@@@3@$0A@@std@@@std@@QBEIXZ PROC ; std::_Tree<std::_Tmap_traits<unsigned long,ThreadInfo *,std::less<unsigned long>,std::allocator<std::pair<unsigned long const ,ThreadInfo *> >,0> >::size, COMDAT
; _this$ = eax

; 601  : 		return (_Mysize);

	mov	eax, DWORD PTR [eax+28]

; 602  : 		}

	ret	0
?size@?$_Tree@V?$_Tmap_traits@KPAVThreadInfo@@U?$less@K@std@@V?$allocator@U?$pair@$$CBKPAVThreadInfo@@@std@@@3@$0A@@std@@@std@@QBEIXZ ENDP ; std::_Tree<std::_Tmap_traits<unsigned long,ThreadInfo *,std::less<unsigned long>,std::allocator<std::pair<unsigned long const ,ThreadInfo *> >,0> >::size
; Function compile flags: /Ogtpy
_TEXT	ENDS
;	COMDAT ?_Myval@?$_Tree@V?$_Tmap_traits@KPAVThreadInfo@@U?$less@K@std@@V?$allocator@U?$pair@$$CBKPAVThreadInfo@@@std@@@3@$0A@@std@@@std@@KAAAU?$pair@$$CBKPAVThreadInfo@@@2@PAU_Node@?$_Tree_nod@V?$_Tmap_traits@KPAVThreadInfo@@U?$less@K@std@@V?$allocator@U?$pair@$$CBKPAVThreadInfo@@@std@@@3@$0A@@std@@@2@@Z
_TEXT	SEGMENT
?_Myval@?$_Tree@V?$_Tmap_traits@KPAVThreadInfo@@U?$less@K@std@@V?$allocator@U?$pair@$$CBKPAVThreadInfo@@@std@@@3@$0A@@std@@@std@@KAAAU?$pair@$$CBKPAVThreadInfo@@@2@PAU_Node@?$_Tree_nod@V?$_Tmap_traits@KPAVThreadInfo@@U?$less@K@std@@V?$allocator@U?$pair@$$CBKPAVThreadInfo@@@std@@@3@$0A@@std@@@2@@Z PROC ; std::_Tree<std::_Tmap_traits<unsigned long,ThreadInfo *,std::less<unsigned long>,std::allocator<std::pair<unsigned long const ,ThreadInfo *> >,0> >::_Myval, COMDAT
; __Pnode$ = eax

; 182  : 		return ((_Vref)(*_Pnode)._Myval);

	add	eax, 12					; 0000000cH

; 183  : 		}

	ret	0
?_Myval@?$_Tree@V?$_Tmap_traits@KPAVThreadInfo@@U?$less@K@std@@V?$allocator@U?$pair@$$CBKPAVThreadInfo@@@std@@@3@$0A@@std@@@std@@KAAAU?$pair@$$CBKPAVThreadInfo@@@2@PAU_Node@?$_Tree_nod@V?$_Tmap_traits@KPAVThreadInfo@@U?$less@K@std@@V?$allocator@U?$pair@$$CBKPAVThreadInfo@@@std@@@3@$0A@@std@@@2@@Z ENDP ; std::_Tree<std::_Tmap_traits<unsigned long,ThreadInfo *,std::less<unsigned long>,std::allocator<std::pair<unsigned long const ,ThreadInfo *> >,0> >::_Myval
; Function compile flags: /Ogtpy
; File c:\program files\microsoft visual studio 9.0\vc\include\xmemory
_TEXT	ENDS
;	COMDAT ??0?$allocator@U?$pair@$$CBIPAVThreadInfo@@@std@@@std@@QAE@ABV01@@Z
_TEXT	SEGMENT
??0?$allocator@U?$pair@$$CBIPAVThreadInfo@@@std@@@std@@QAE@ABV01@@Z PROC ; std::allocator<std::pair<unsigned int const ,ThreadInfo *> >::allocator<std::pair<unsigned int const ,ThreadInfo *> >, COMDAT
; _this$ = eax

; 124  : 		{	// construct by copying (do nothing)
; 125  : 		}

	ret	0
??0?$allocator@U?$pair@$$CBIPAVThreadInfo@@@std@@@std@@QAE@ABV01@@Z ENDP ; std::allocator<std::pair<unsigned int const ,ThreadInfo *> >::allocator<std::pair<unsigned int const ,ThreadInfo *> >
; Function compile flags: /Ogtpy
; File c:\program files\microsoft visual studio 9.0\vc\include\xtree
_TEXT	ENDS
;	COMDAT ?max_size@?$_Tree@V?$_Tmap_traits@IPAVThreadInfo@@U?$less@I@std@@V?$allocator@U?$pair@$$CBIPAVThreadInfo@@@std@@@3@$0A@@std@@@std@@QBEIXZ
_TEXT	SEGMENT
?max_size@?$_Tree@V?$_Tmap_traits@IPAVThreadInfo@@U?$less@I@std@@V?$allocator@U?$pair@$$CBIPAVThreadInfo@@@std@@@3@$0A@@std@@@std@@QBEIXZ PROC ; std::_Tree<std::_Tmap_traits<unsigned int,ThreadInfo *,std::less<unsigned int>,std::allocator<std::pair<unsigned int const ,ThreadInfo *> >,0> >::max_size, COMDAT

; 606  : 		return (this->_Alval.max_size());

	mov	eax, 536870911				; 1fffffffH

; 607  : 		}

	ret	0
?max_size@?$_Tree@V?$_Tmap_traits@IPAVThreadInfo@@U?$less@I@std@@V?$allocator@U?$pair@$$CBIPAVThreadInfo@@@std@@@3@$0A@@std@@@std@@QBEIXZ ENDP ; std::_Tree<std::_Tmap_traits<unsigned int,ThreadInfo *,std::less<unsigned int>,std::allocator<std::pair<unsigned int const ,ThreadInfo *> >,0> >::max_size
; Function compile flags: /Ogtpy
_TEXT	ENDS
;	COMDAT ?_Myval@?$_Tree@V?$_Tmap_traits@IPAVThreadInfo@@U?$less@I@std@@V?$allocator@U?$pair@$$CBIPAVThreadInfo@@@std@@@3@$0A@@std@@@std@@KAAAU?$pair@$$CBIPAVThreadInfo@@@2@PAU_Node@?$_Tree_nod@V?$_Tmap_traits@IPAVThreadInfo@@U?$less@I@std@@V?$allocator@U?$pair@$$CBIPAVThreadInfo@@@std@@@3@$0A@@std@@@2@@Z
_TEXT	SEGMENT
?_Myval@?$_Tree@V?$_Tmap_traits@IPAVThreadInfo@@U?$less@I@std@@V?$allocator@U?$pair@$$CBIPAVThreadInfo@@@std@@@3@$0A@@std@@@std@@KAAAU?$pair@$$CBIPAVThreadInfo@@@2@PAU_Node@?$_Tree_nod@V?$_Tmap_traits@IPAVThreadInfo@@U?$less@I@std@@V?$allocator@U?$pair@$$CBIPAVThreadInfo@@@std@@@3@$0A@@std@@@2@@Z PROC ; std::_Tree<std::_Tmap_traits<unsigned int,ThreadInfo *,std::less<unsigned int>,std::allocator<std::pair<unsigned int const ,ThreadInfo *> >,0> >::_Myval, COMDAT
; __Pnode$ = eax

; 182  : 		return ((_Vref)(*_Pnode)._Myval);

	add	eax, 12					; 0000000cH

; 183  : 		}

	ret	0
?_Myval@?$_Tree@V?$_Tmap_traits@IPAVThreadInfo@@U?$less@I@std@@V?$allocator@U?$pair@$$CBIPAVThreadInfo@@@std@@@3@$0A@@std@@@std@@KAAAU?$pair@$$CBIPAVThreadInfo@@@2@PAU_Node@?$_Tree_nod@V?$_Tmap_traits@IPAVThreadInfo@@U?$less@I@std@@V?$allocator@U?$pair@$$CBIPAVThreadInfo@@@std@@@3@$0A@@std@@@2@@Z ENDP ; std::_Tree<std::_Tmap_traits<unsigned int,ThreadInfo *,std::less<unsigned int>,std::allocator<std::pair<unsigned int const ,ThreadInfo *> >,0> >::_Myval
; Function compile flags: /Ogtpy
; File c:\program files\microsoft visual studio 9.0\vc\include\xmemory
_TEXT	ENDS
;	COMDAT ??0?$allocator@U?$pair@$$CBIH@std@@@std@@QAE@ABV01@@Z
_TEXT	SEGMENT
??0?$allocator@U?$pair@$$CBIH@std@@@std@@QAE@ABV01@@Z PROC ; std::allocator<std::pair<unsigned int const ,int> >::allocator<std::pair<unsigned int const ,int> >, COMDAT
; _this$ = eax

; 124  : 		{	// construct by copying (do nothing)
; 125  : 		}

	ret	0
??0?$allocator@U?$pair@$$CBIH@std@@@std@@QAE@ABV01@@Z ENDP ; std::allocator<std::pair<unsigned int const ,int> >::allocator<std::pair<unsigned int const ,int> >
; Function compile flags: /Ogtpy
; File c:\program files\microsoft visual studio 9.0\vc\include\xtree
_TEXT	ENDS
;	COMDAT ?max_size@?$_Tree@V?$_Tmap_traits@IHU?$less@I@std@@V?$allocator@U?$pair@$$CBIH@std@@@2@$0A@@std@@@std@@QBEIXZ
_TEXT	SEGMENT
?max_size@?$_Tree@V?$_Tmap_traits@IHU?$less@I@std@@V?$allocator@U?$pair@$$CBIH@std@@@2@$0A@@std@@@std@@QBEIXZ PROC ; std::_Tree<std::_Tmap_traits<unsigned int,int,std::less<unsigned int>,std::allocator<std::pair<unsigned int const ,int> >,0> >::max_size, COMDAT

; 606  : 		return (this->_Alval.max_size());

	mov	eax, 536870911				; 1fffffffH

; 607  : 		}

	ret	0
?max_size@?$_Tree@V?$_Tmap_traits@IHU?$less@I@std@@V?$allocator@U?$pair@$$CBIH@std@@@2@$0A@@std@@@std@@QBEIXZ ENDP ; std::_Tree<std::_Tmap_traits<unsigned int,int,std::less<unsigned int>,std::allocator<std::pair<unsigned int const ,int> >,0> >::max_size
; Function compile flags: /Ogtpy
_TEXT	ENDS
;	COMDAT ?_Myval@?$_Tree@V?$_Tmap_traits@IHU?$less@I@std@@V?$allocator@U?$pair@$$CBIH@std@@@2@$0A@@std@@@std@@KAAAU?$pair@$$CBIH@2@PAU_Node@?$_Tree_nod@V?$_Tmap_traits@IHU?$less@I@std@@V?$allocator@U?$pair@$$CBIH@std@@@2@$0A@@std@@@2@@Z
_TEXT	SEGMENT
?_Myval@?$_Tree@V?$_Tmap_traits@IHU?$less@I@std@@V?$allocator@U?$pair@$$CBIH@std@@@2@$0A@@std@@@std@@KAAAU?$pair@$$CBIH@2@PAU_Node@?$_Tree_nod@V?$_Tmap_traits@IHU?$less@I@std@@V?$allocator@U?$pair@$$CBIH@std@@@2@$0A@@std@@@2@@Z PROC ; std::_Tree<std::_Tmap_traits<unsigned int,int,std::less<unsigned int>,std::allocator<std::pair<unsigned int const ,int> >,0> >::_Myval, COMDAT
; __Pnode$ = eax

; 182  : 		return ((_Vref)(*_Pnode)._Myval);

	add	eax, 12					; 0000000cH

; 183  : 		}

	ret	0
?_Myval@?$_Tree@V?$_Tmap_traits@IHU?$less@I@std@@V?$allocator@U?$pair@$$CBIH@std@@@2@$0A@@std@@@std@@KAAAU?$pair@$$CBIH@2@PAU_Node@?$_Tree_nod@V?$_Tmap_traits@IHU?$less@I@std@@V?$allocator@U?$pair@$$CBIH@std@@@2@$0A@@std@@@2@@Z ENDP ; std::_Tree<std::_Tmap_traits<unsigned int,int,std::less<unsigned int>,std::allocator<std::pair<unsigned int const ,int> >,0> >::_Myval
; Function compile flags: /Ogtpy
; File c:\program files\microsoft visual studio 9.0\vc\include\utility
_TEXT	ENDS
;	COMDAT ??0?$pair@Viterator@?$_Tree@V?$_Tmap_traits@IPAVThreadInfo@@U?$less@I@std@@V?$allocator@U?$pair@$$CBIPAVThreadInfo@@@std@@@3@$0A@@std@@@std@@_N@std@@QAE@ABViterator@?$_Tree@V?$_Tmap_traits@IPAVThreadInfo@@U?$less@I@std@@V?$allocator@U?$pair@$$CBIPAVThreadInfo@@@std@@@3@$0A@@std@@@1@AB_N@Z
_TEXT	SEGMENT
__Val2$ = 8						; size = 4
??0?$pair@Viterator@?$_Tree@V?$_Tmap_traits@IPAVThreadInfo@@U?$less@I@std@@V?$allocator@U?$pair@$$CBIPAVThreadInfo@@@std@@@3@$0A@@std@@@std@@_N@std@@QAE@ABViterator@?$_Tree@V?$_Tmap_traits@IPAVThreadInfo@@U?$less@I@std@@V?$allocator@U?$pair@$$CBIPAVThreadInfo@@@std@@@3@$0A@@std@@@1@AB_N@Z PROC ; std::pair<std::_Tree<std::_Tmap_traits<unsigned int,ThreadInfo *,std::less<unsigned int>,std::allocator<std::pair<unsigned int const ,ThreadInfo *> >,0> >::iterator,bool>::pair<std::_Tree<std::_Tmap_traits<unsigned int,ThreadInfo *,std::less<unsigned int>,std::allocator<std::pair<unsigned int const ,ThreadInfo *> >,0> >::iterator,bool>, COMDAT
; _this$ = eax
; __Val1$ = ecx

; 50   : 		{	// construct from specified values

	mov	edx, DWORD PTR [ecx]
	mov	DWORD PTR [eax], edx
	mov	ecx, DWORD PTR [ecx+4]
	mov	edx, DWORD PTR __Val2$[esp-4]
	mov	DWORD PTR [eax+4], ecx
	mov	cl, BYTE PTR [edx]
	mov	BYTE PTR [eax+8], cl

; 51   : 		}

	ret	4
??0?$pair@Viterator@?$_Tree@V?$_Tmap_traits@IPAVThreadInfo@@U?$less@I@std@@V?$allocator@U?$pair@$$CBIPAVThreadInfo@@@std@@@3@$0A@@std@@@std@@_N@std@@QAE@ABViterator@?$_Tree@V?$_Tmap_traits@IPAVThreadInfo@@U?$less@I@std@@V?$allocator@U?$pair@$$CBIPAVThreadInfo@@@std@@@3@$0A@@std@@@1@AB_N@Z ENDP ; std::pair<std::_Tree<std::_Tmap_traits<unsigned int,ThreadInfo *,std::less<unsigned int>,std::allocator<std::pair<unsigned int const ,ThreadInfo *> >,0> >::iterator,bool>::pair<std::_Tree<std::_Tmap_traits<unsigned int,ThreadInfo *,std::less<unsigned int>,std::allocator<std::pair<unsigned int const ,ThreadInfo *> >,0> >::iterator,bool>
; Function compile flags: /Ogtpy
_TEXT	ENDS
;	COMDAT ??0?$pair@Viterator@?$_Tree@V?$_Tmap_traits@KPAVThreadInfo@@U?$less@K@std@@V?$allocator@U?$pair@$$CBKPAVThreadInfo@@@std@@@3@$0A@@std@@@std@@_N@std@@QAE@ABViterator@?$_Tree@V?$_Tmap_traits@KPAVThreadInfo@@U?$less@K@std@@V?$allocator@U?$pair@$$CBKPAVThreadInfo@@@std@@@3@$0A@@std@@@1@AB_N@Z
_TEXT	SEGMENT
__Val2$ = 8						; size = 4
??0?$pair@Viterator@?$_Tree@V?$_Tmap_traits@KPAVThreadInfo@@U?$less@K@std@@V?$allocator@U?$pair@$$CBKPAVThreadInfo@@@std@@@3@$0A@@std@@@std@@_N@std@@QAE@ABViterator@?$_Tree@V?$_Tmap_traits@KPAVThreadInfo@@U?$less@K@std@@V?$allocator@U?$pair@$$CBKPAVThreadInfo@@@std@@@3@$0A@@std@@@1@AB_N@Z PROC ; std::pair<std::_Tree<std::_Tmap_traits<unsigned long,ThreadInfo *,std::less<unsigned long>,std::allocator<std::pair<unsigned long const ,ThreadInfo *> >,0> >::iterator,bool>::pair<std::_Tree<std::_Tmap_traits<unsigned long,ThreadInfo *,std::less<unsigned long>,std::allocator<std::pair<unsigned long const ,ThreadInfo *> >,0> >::iterator,bool>, COMDAT
; _this$ = eax
; __Val1$ = ecx

; 50   : 		{	// construct from specified values

	mov	edx, DWORD PTR [ecx]
	mov	DWORD PTR [eax], edx
	mov	ecx, DWORD PTR [ecx+4]
	mov	edx, DWORD PTR __Val2$[esp-4]
	mov	DWORD PTR [eax+4], ecx
	mov	cl, BYTE PTR [edx]
	mov	BYTE PTR [eax+8], cl

; 51   : 		}

	ret	4
??0?$pair@Viterator@?$_Tree@V?$_Tmap_traits@KPAVThreadInfo@@U?$less@K@std@@V?$allocator@U?$pair@$$CBKPAVThreadInfo@@@std@@@3@$0A@@std@@@std@@_N@std@@QAE@ABViterator@?$_Tree@V?$_Tmap_traits@KPAVThreadInfo@@U?$less@K@std@@V?$allocator@U?$pair@$$CBKPAVThreadInfo@@@std@@@3@$0A@@std@@@1@AB_N@Z ENDP ; std::pair<std::_Tree<std::_Tmap_traits<unsigned long,ThreadInfo *,std::less<unsigned long>,std::allocator<std::pair<unsigned long const ,ThreadInfo *> >,0> >::iterator,bool>::pair<std::_Tree<std::_Tmap_traits<unsigned long,ThreadInfo *,std::less<unsigned long>,std::allocator<std::pair<unsigned long const ,ThreadInfo *> >,0> >::iterator,bool>
; Function compile flags: /Ogtpy
_TEXT	ENDS
;	COMDAT ??0?$pair@$$CBKPAVThreadInfo@@@std@@QAE@ABKABQAVThreadInfo@@@Z
_TEXT	SEGMENT
__Val2$ = 8						; size = 4
??0?$pair@$$CBKPAVThreadInfo@@@std@@QAE@ABKABQAVThreadInfo@@@Z PROC ; std::pair<unsigned long const ,ThreadInfo *>::pair<unsigned long const ,ThreadInfo *>, COMDAT
; _this$ = eax
; __Val1$ = ecx

; 50   : 		{	// construct from specified values

	mov	edx, DWORD PTR [ecx]
	mov	ecx, DWORD PTR __Val2$[esp-4]
	mov	DWORD PTR [eax], edx
	mov	edx, DWORD PTR [ecx]
	mov	DWORD PTR [eax+4], edx

; 51   : 		}

	ret	4
??0?$pair@$$CBKPAVThreadInfo@@@std@@QAE@ABKABQAVThreadInfo@@@Z ENDP ; std::pair<unsigned long const ,ThreadInfo *>::pair<unsigned long const ,ThreadInfo *>
; Function compile flags: /Ogtpy
_TEXT	ENDS
;	COMDAT ??0?$pair@Viterator@?$_Tree@V?$_Tmap_traits@IHU?$less@I@std@@V?$allocator@U?$pair@$$CBIH@std@@@2@$0A@@std@@@std@@_N@std@@QAE@ABViterator@?$_Tree@V?$_Tmap_traits@IHU?$less@I@std@@V?$allocator@U?$pair@$$CBIH@std@@@2@$0A@@std@@@1@AB_N@Z
_TEXT	SEGMENT
__Val2$ = 8						; size = 4
??0?$pair@Viterator@?$_Tree@V?$_Tmap_traits@IHU?$less@I@std@@V?$allocator@U?$pair@$$CBIH@std@@@2@$0A@@std@@@std@@_N@std@@QAE@ABViterator@?$_Tree@V?$_Tmap_traits@IHU?$less@I@std@@V?$allocator@U?$pair@$$CBIH@std@@@2@$0A@@std@@@1@AB_N@Z PROC ; std::pair<std::_Tree<std::_Tmap_traits<unsigned int,int,std::less<unsigned int>,std::allocator<std::pair<unsigned int const ,int> >,0> >::iterator,bool>::pair<std::_Tree<std::_Tmap_traits<unsigned int,int,std::less<unsigned int>,std::allocator<std::pair<unsigned int const ,int> >,0> >::iterator,bool>, COMDAT
; _this$ = eax
; __Val1$ = ecx

; 50   : 		{	// construct from specified values

	mov	edx, DWORD PTR [ecx]
	mov	DWORD PTR [eax], edx
	mov	ecx, DWORD PTR [ecx+4]
	mov	edx, DWORD PTR __Val2$[esp-4]
	mov	DWORD PTR [eax+4], ecx
	mov	cl, BYTE PTR [edx]
	mov	BYTE PTR [eax+8], cl

; 51   : 		}

	ret	4
??0?$pair@Viterator@?$_Tree@V?$_Tmap_traits@IHU?$less@I@std@@V?$allocator@U?$pair@$$CBIH@std@@@2@$0A@@std@@@std@@_N@std@@QAE@ABViterator@?$_Tree@V?$_Tmap_traits@IHU?$less@I@std@@V?$allocator@U?$pair@$$CBIH@std@@@2@$0A@@std@@@1@AB_N@Z ENDP ; std::pair<std::_Tree<std::_Tmap_traits<unsigned int,int,std::less<unsigned int>,std::allocator<std::pair<unsigned int const ,int> >,0> >::iterator,bool>::pair<std::_Tree<std::_Tmap_traits<unsigned int,int,std::less<unsigned int>,std::allocator<std::pair<unsigned int const ,int> >,0> >::iterator,bool>
; Function compile flags: /Ogtpy
; File c:\program files\microsoft visual studio 9.0\vc\include\functional
_TEXT	ENDS
;	COMDAT ??R?$less@K@std@@QBE_NABK0@Z
_TEXT	SEGMENT
??R?$less@K@std@@QBE_NABK0@Z PROC			; std::less<unsigned long>::operator(), COMDAT
; __Left$ = eax
; __Right$ = edx

; 143  : 		return (_Left < _Right);

	mov	ecx, DWORD PTR [eax]
	cmp	ecx, DWORD PTR [edx]
	sbb	eax, eax
	neg	eax

; 144  : 		}

	ret	0
??R?$less@K@std@@QBE_NABK0@Z ENDP			; std::less<unsigned long>::operator()
; Function compile flags: /Ogtpy
; File c:\program files\microsoft visual studio 9.0\vc\include\xmemory
_TEXT	ENDS
;	COMDAT ??0?$allocator@U?$pair@$$CBKPAVThreadInfo@@@std@@@std@@QAE@XZ
_TEXT	SEGMENT
??0?$allocator@U?$pair@$$CBKPAVThreadInfo@@@std@@@std@@QAE@XZ PROC ; std::allocator<std::pair<unsigned long const ,ThreadInfo *> >::allocator<std::pair<unsigned long const ,ThreadInfo *> >, COMDAT
; _this$ = eax

; 120  : 		{	// construct default allocator (do nothing)
; 121  : 		}

	ret	0
??0?$allocator@U?$pair@$$CBKPAVThreadInfo@@@std@@@std@@QAE@XZ ENDP ; std::allocator<std::pair<unsigned long const ,ThreadInfo *> >::allocator<std::pair<unsigned long const ,ThreadInfo *> >
; Function compile flags: /Ogtpy
; File c:\program files\microsoft visual studio 9.0\vc\include\map
_TEXT	ENDS
;	COMDAT ?_Kfn@?$_Tmap_traits@KPAVThreadInfo@@U?$less@K@std@@V?$allocator@U?$pair@$$CBKPAVThreadInfo@@@std@@@3@$0A@@std@@SAABKABU?$pair@$$CBKPAVThreadInfo@@@2@@Z
_TEXT	SEGMENT
?_Kfn@?$_Tmap_traits@KPAVThreadInfo@@U?$less@K@std@@V?$allocator@U?$pair@$$CBKPAVThreadInfo@@@std@@@3@$0A@@std@@SAABKABU?$pair@$$CBKPAVThreadInfo@@@2@@Z PROC ; std::_Tmap_traits<unsigned long,ThreadInfo *,std::less<unsigned long>,std::allocator<std::pair<unsigned long const ,ThreadInfo *> >,0>::_Kfn, COMDAT
; __Val$ = eax

; 65   : 		return (_Val.first);
; 66   : 		}

	ret	0
?_Kfn@?$_Tmap_traits@KPAVThreadInfo@@U?$less@K@std@@V?$allocator@U?$pair@$$CBKPAVThreadInfo@@@std@@@3@$0A@@std@@SAABKABU?$pair@$$CBKPAVThreadInfo@@@2@@Z ENDP ; std::_Tmap_traits<unsigned long,ThreadInfo *,std::less<unsigned long>,std::allocator<std::pair<unsigned long const ,ThreadInfo *> >,0>::_Kfn
; Function compile flags: /Ogtpy
; File c:\program files\microsoft visual studio 9.0\vc\include\xtree
_TEXT	ENDS
;	COMDAT ?_Key@?$_Tree@V?$_Tmap_traits@KPAVThreadInfo@@U?$less@K@std@@V?$allocator@U?$pair@$$CBKPAVThreadInfo@@@std@@@3@$0A@@std@@@std@@KAABKPAU_Node@?$_Tree_nod@V?$_Tmap_traits@KPAVThreadInfo@@U?$less@K@std@@V?$allocator@U?$pair@$$CBKPAVThreadInfo@@@std@@@3@$0A@@std@@@2@@Z
_TEXT	SEGMENT
?_Key@?$_Tree@V?$_Tmap_traits@KPAVThreadInfo@@U?$less@K@std@@V?$allocator@U?$pair@$$CBKPAVThreadInfo@@@std@@@3@$0A@@std@@@std@@KAABKPAU_Node@?$_Tree_nod@V?$_Tmap_traits@KPAVThreadInfo@@U?$less@K@std@@V?$allocator@U?$pair@$$CBKPAVThreadInfo@@@std@@@3@$0A@@std@@@2@@Z PROC ; std::_Tree<std::_Tmap_traits<unsigned long,ThreadInfo *,std::less<unsigned long>,std::allocator<std::pair<unsigned long const ,ThreadInfo *> >,0> >::_Key, COMDAT
; __Pnode$ = eax

; 162  : 		return (_Mybase::_Kfn(_Myval(_Pnode)));

	add	eax, 12					; 0000000cH

; 163  : 		}

	ret	0
?_Key@?$_Tree@V?$_Tmap_traits@KPAVThreadInfo@@U?$less@K@std@@V?$allocator@U?$pair@$$CBKPAVThreadInfo@@@std@@@3@$0A@@std@@@std@@KAABKPAU_Node@?$_Tree_nod@V?$_Tmap_traits@KPAVThreadInfo@@U?$less@K@std@@V?$allocator@U?$pair@$$CBKPAVThreadInfo@@@std@@@3@$0A@@std@@@2@@Z ENDP ; std::_Tree<std::_Tmap_traits<unsigned long,ThreadInfo *,std::less<unsigned long>,std::allocator<std::pair<unsigned long const ,ThreadInfo *> >,0> >::_Key
; Function compile flags: /Ogtpy
; File c:\program files\microsoft visual studio 9.0\vc\include\xmemory
_TEXT	ENDS
;	COMDAT ??0?$allocator@U?$pair@$$CBIPAVThreadInfo@@@std@@@std@@QAE@XZ
_TEXT	SEGMENT
??0?$allocator@U?$pair@$$CBIPAVThreadInfo@@@std@@@std@@QAE@XZ PROC ; std::allocator<std::pair<unsigned int const ,ThreadInfo *> >::allocator<std::pair<unsigned int const ,ThreadInfo *> >, COMDAT
; _this$ = eax

; 120  : 		{	// construct default allocator (do nothing)
; 121  : 		}

	ret	0
??0?$allocator@U?$pair@$$CBIPAVThreadInfo@@@std@@@std@@QAE@XZ ENDP ; std::allocator<std::pair<unsigned int const ,ThreadInfo *> >::allocator<std::pair<unsigned int const ,ThreadInfo *> >
; Function compile flags: /Ogtpy
; File c:\program files\microsoft visual studio 9.0\vc\include\map
_TEXT	ENDS
;	COMDAT ?_Kfn@?$_Tmap_traits@IPAVThreadInfo@@U?$less@I@std@@V?$allocator@U?$pair@$$CBIPAVThreadInfo@@@std@@@3@$0A@@std@@SAABIABU?$pair@$$CBIPAVThreadInfo@@@2@@Z
_TEXT	SEGMENT
?_Kfn@?$_Tmap_traits@IPAVThreadInfo@@U?$less@I@std@@V?$allocator@U?$pair@$$CBIPAVThreadInfo@@@std@@@3@$0A@@std@@SAABIABU?$pair@$$CBIPAVThreadInfo@@@2@@Z PROC ; std::_Tmap_traits<unsigned int,ThreadInfo *,std::less<unsigned int>,std::allocator<std::pair<unsigned int const ,ThreadInfo *> >,0>::_Kfn, COMDAT
; __Val$ = eax

; 65   : 		return (_Val.first);
; 66   : 		}

	ret	0
?_Kfn@?$_Tmap_traits@IPAVThreadInfo@@U?$less@I@std@@V?$allocator@U?$pair@$$CBIPAVThreadInfo@@@std@@@3@$0A@@std@@SAABIABU?$pair@$$CBIPAVThreadInfo@@@2@@Z ENDP ; std::_Tmap_traits<unsigned int,ThreadInfo *,std::less<unsigned int>,std::allocator<std::pair<unsigned int const ,ThreadInfo *> >,0>::_Kfn
; Function compile flags: /Ogtpy
; File c:\program files\microsoft visual studio 9.0\vc\include\xtree
_TEXT	ENDS
;	COMDAT ?_Key@?$_Tree@V?$_Tmap_traits@IPAVThreadInfo@@U?$less@I@std@@V?$allocator@U?$pair@$$CBIPAVThreadInfo@@@std@@@3@$0A@@std@@@std@@KAABIPAU_Node@?$_Tree_nod@V?$_Tmap_traits@IPAVThreadInfo@@U?$less@I@std@@V?$allocator@U?$pair@$$CBIPAVThreadInfo@@@std@@@3@$0A@@std@@@2@@Z
_TEXT	SEGMENT
?_Key@?$_Tree@V?$_Tmap_traits@IPAVThreadInfo@@U?$less@I@std@@V?$allocator@U?$pair@$$CBIPAVThreadInfo@@@std@@@3@$0A@@std@@@std@@KAABIPAU_Node@?$_Tree_nod@V?$_Tmap_traits@IPAVThreadInfo@@U?$less@I@std@@V?$allocator@U?$pair@$$CBIPAVThreadInfo@@@std@@@3@$0A@@std@@@2@@Z PROC ; std::_Tree<std::_Tmap_traits<unsigned int,ThreadInfo *,std::less<unsigned int>,std::allocator<std::pair<unsigned int const ,ThreadInfo *> >,0> >::_Key, COMDAT
; __Pnode$ = eax

; 162  : 		return (_Mybase::_Kfn(_Myval(_Pnode)));

	add	eax, 12					; 0000000cH

; 163  : 		}

	ret	0
?_Key@?$_Tree@V?$_Tmap_traits@IPAVThreadInfo@@U?$less@I@std@@V?$allocator@U?$pair@$$CBIPAVThreadInfo@@@std@@@3@$0A@@std@@@std@@KAABIPAU_Node@?$_Tree_nod@V?$_Tmap_traits@IPAVThreadInfo@@U?$less@I@std@@V?$allocator@U?$pair@$$CBIPAVThreadInfo@@@std@@@3@$0A@@std@@@2@@Z ENDP ; std::_Tree<std::_Tmap_traits<unsigned int,ThreadInfo *,std::less<unsigned int>,std::allocator<std::pair<unsigned int const ,ThreadInfo *> >,0> >::_Key
; Function compile flags: /Ogtpy
; File c:\program files\microsoft visual studio 9.0\vc\include\functional
_TEXT	ENDS
;	COMDAT ??R?$less@I@std@@QBE_NABI0@Z
_TEXT	SEGMENT
??R?$less@I@std@@QBE_NABI0@Z PROC			; std::less<unsigned int>::operator(), COMDAT
; __Left$ = eax
; __Right$ = edx

; 143  : 		return (_Left < _Right);

	mov	ecx, DWORD PTR [eax]
	cmp	ecx, DWORD PTR [edx]
	sbb	eax, eax
	neg	eax

; 144  : 		}

	ret	0
??R?$less@I@std@@QBE_NABI0@Z ENDP			; std::less<unsigned int>::operator()
; Function compile flags: /Ogtpy
; File c:\program files\microsoft visual studio 9.0\vc\include\xmemory
_TEXT	ENDS
;	COMDAT ??0?$allocator@U?$pair@$$CBIH@std@@@std@@QAE@XZ
_TEXT	SEGMENT
??0?$allocator@U?$pair@$$CBIH@std@@@std@@QAE@XZ PROC	; std::allocator<std::pair<unsigned int const ,int> >::allocator<std::pair<unsigned int const ,int> >, COMDAT
; _this$ = eax

; 120  : 		{	// construct default allocator (do nothing)
; 121  : 		}

	ret	0
??0?$allocator@U?$pair@$$CBIH@std@@@std@@QAE@XZ ENDP	; std::allocator<std::pair<unsigned int const ,int> >::allocator<std::pair<unsigned int const ,int> >
; Function compile flags: /Ogtpy
; File c:\program files\microsoft visual studio 9.0\vc\include\map
_TEXT	ENDS
;	COMDAT ?_Kfn@?$_Tmap_traits@IHU?$less@I@std@@V?$allocator@U?$pair@$$CBIH@std@@@2@$0A@@std@@SAABIABU?$pair@$$CBIH@2@@Z
_TEXT	SEGMENT
?_Kfn@?$_Tmap_traits@IHU?$less@I@std@@V?$allocator@U?$pair@$$CBIH@std@@@2@$0A@@std@@SAABIABU?$pair@$$CBIH@2@@Z PROC ; std::_Tmap_traits<unsigned int,int,std::less<unsigned int>,std::allocator<std::pair<unsigned int const ,int> >,0>::_Kfn, COMDAT
; __Val$ = eax

; 65   : 		return (_Val.first);
; 66   : 		}

	ret	0
?_Kfn@?$_Tmap_traits@IHU?$less@I@std@@V?$allocator@U?$pair@$$CBIH@std@@@2@$0A@@std@@SAABIABU?$pair@$$CBIH@2@@Z ENDP ; std::_Tmap_traits<unsigned int,int,std::less<unsigned int>,std::allocator<std::pair<unsigned int const ,int> >,0>::_Kfn
; Function compile flags: /Ogtpy
; File c:\program files\microsoft visual studio 9.0\vc\include\xtree
_TEXT	ENDS
;	COMDAT ?_Key@?$_Tree@V?$_Tmap_traits@IHU?$less@I@std@@V?$allocator@U?$pair@$$CBIH@std@@@2@$0A@@std@@@std@@KAABIPAU_Node@?$_Tree_nod@V?$_Tmap_traits@IHU?$less@I@std@@V?$allocator@U?$pair@$$CBIH@std@@@2@$0A@@std@@@2@@Z
_TEXT	SEGMENT
?_Key@?$_Tree@V?$_Tmap_traits@IHU?$less@I@std@@V?$allocator@U?$pair@$$CBIH@std@@@2@$0A@@std@@@std@@KAABIPAU_Node@?$_Tree_nod@V?$_Tmap_traits@IHU?$less@I@std@@V?$allocator@U?$pair@$$CBIH@std@@@2@$0A@@std@@@2@@Z PROC ; std::_Tree<std::_Tmap_traits<unsigned int,int,std::less<unsigned int>,std::allocator<std::pair<unsigned int const ,int> >,0> >::_Key, COMDAT
; __Pnode$ = eax

; 162  : 		return (_Mybase::_Kfn(_Myval(_Pnode)));

	add	eax, 12					; 0000000cH

; 163  : 		}

	ret	0
?_Key@?$_Tree@V?$_Tmap_traits@IHU?$less@I@std@@V?$allocator@U?$pair@$$CBIH@std@@@2@$0A@@std@@@std@@KAABIPAU_Node@?$_Tree_nod@V?$_Tmap_traits@IHU?$less@I@std@@V?$allocator@U?$pair@$$CBIH@std@@@2@$0A@@std@@@2@@Z ENDP ; std::_Tree<std::_Tmap_traits<unsigned int,int,std::less<unsigned int>,std::allocator<std::pair<unsigned int const ,int> >,0> >::_Key
; Function compile flags: /Ogtpy
; File c:\program files\microsoft visual studio 9.0\vc\include\utility
_TEXT	ENDS
;	COMDAT ??0?$pair@IPAVThreadInfo@@@std@@QAE@ABIABQAVThreadInfo@@@Z
_TEXT	SEGMENT
__Val2$ = 8						; size = 4
??0?$pair@IPAVThreadInfo@@@std@@QAE@ABIABQAVThreadInfo@@@Z PROC ; std::pair<unsigned int,ThreadInfo *>::pair<unsigned int,ThreadInfo *>, COMDAT
; _this$ = eax
; __Val1$ = ecx

; 50   : 		{	// construct from specified values

	mov	edx, DWORD PTR [ecx]
	mov	ecx, DWORD PTR __Val2$[esp-4]
	mov	DWORD PTR [eax], edx
	mov	edx, DWORD PTR [ecx]
	mov	DWORD PTR [eax+4], edx

; 51   : 		}

	ret	4
??0?$pair@IPAVThreadInfo@@@std@@QAE@ABIABQAVThreadInfo@@@Z ENDP ; std::pair<unsigned int,ThreadInfo *>::pair<unsigned int,ThreadInfo *>
; Function compile flags: /Ogtpy
_TEXT	ENDS
;	COMDAT ??0?$pair@KPAVThreadInfo@@@std@@QAE@ABKABQAVThreadInfo@@@Z
_TEXT	SEGMENT
__Val2$ = 8						; size = 4
??0?$pair@KPAVThreadInfo@@@std@@QAE@ABKABQAVThreadInfo@@@Z PROC ; std::pair<unsigned long,ThreadInfo *>::pair<unsigned long,ThreadInfo *>, COMDAT
; _this$ = eax
; __Val1$ = ecx

; 50   : 		{	// construct from specified values

	mov	edx, DWORD PTR [ecx]
	mov	ecx, DWORD PTR __Val2$[esp-4]
	mov	DWORD PTR [eax], edx
	mov	edx, DWORD PTR [ecx]
	mov	DWORD PTR [eax+4], edx

; 51   : 		}

	ret	4
??0?$pair@KPAVThreadInfo@@@std@@QAE@ABKABQAVThreadInfo@@@Z ENDP ; std::pair<unsigned long,ThreadInfo *>::pair<unsigned long,ThreadInfo *>
; Function compile flags: /Ogtpy
_TEXT	ENDS
;	COMDAT ??0?$pair@IH@std@@QAE@ABIABH@Z
_TEXT	SEGMENT
__Val2$ = 8						; size = 4
??0?$pair@IH@std@@QAE@ABIABH@Z PROC			; std::pair<unsigned int,int>::pair<unsigned int,int>, COMDAT
; _this$ = eax
; __Val1$ = ecx

; 50   : 		{	// construct from specified values

	mov	edx, DWORD PTR [ecx]
	mov	ecx, DWORD PTR __Val2$[esp-4]
	mov	DWORD PTR [eax], edx
	mov	edx, DWORD PTR [ecx]
	mov	DWORD PTR [eax+4], edx

; 51   : 		}

	ret	4
??0?$pair@IH@std@@QAE@ABIABH@Z ENDP			; std::pair<unsigned int,int>::pair<unsigned int,int>
; Function compile flags: /Ogtpy
; File c:\local\sharpdevelop_3.2.0.5777_source\src\addins\misc\profiler\hook\lightweightstack.h
_TEXT	ENDS
;	COMDAT ?pop@?$LightweightStack@UStackEntry@@@@QAEXXZ
_TEXT	SEGMENT
?pop@?$LightweightStack@UStackEntry@@@@QAEXXZ PROC	; LightweightStack<StackEntry>::pop, COMDAT
; _this$ = eax

; 77   : 		assert(!empty());
; 78   : 		topPointer--;

	add	DWORD PTR [eax+4], -24			; ffffffe8H

; 79   : 	}

	ret	0
?pop@?$LightweightStack@UStackEntry@@@@QAEXXZ ENDP	; LightweightStack<StackEntry>::pop
; Function compile flags: /Ogtpy
_TEXT	ENDS
;	COMDAT ?belowTop@?$LightweightStack@UStackEntry@@@@QAEAAUStackEntry@@XZ
_TEXT	SEGMENT
?belowTop@?$LightweightStack@UStackEntry@@@@QAEAAUStackEntry@@XZ PROC ; LightweightStack<StackEntry>::belowTop, COMDAT
; _this$ = eax

; 64   : 		assert(size() >= 2);
; 65   : 		return *(topPointer - 1);

	mov	eax, DWORD PTR [eax+4]
	sub	eax, 24					; 00000018H

; 66   : 	}

	ret	0
?belowTop@?$LightweightStack@UStackEntry@@@@QAEAAUStackEntry@@XZ ENDP ; LightweightStack<StackEntry>::belowTop
; Function compile flags: /Ogtpy
_TEXT	ENDS
;	COMDAT ?top@?$LightweightStack@UStackEntry@@@@QAEAAUStackEntry@@XZ
_TEXT	SEGMENT
?top@?$LightweightStack@UStackEntry@@@@QAEAAUStackEntry@@XZ PROC ; LightweightStack<StackEntry>::top, COMDAT
; _this$ = eax

; 59   : 		assert(!empty());
; 60   : 		return *topPointer;

	mov	eax, DWORD PTR [eax+4]

; 61   : 	}

	ret	0
?top@?$LightweightStack@UStackEntry@@@@QAEAAUStackEntry@@XZ ENDP ; LightweightStack<StackEntry>::top
; Function compile flags: /Ogtpy
_TEXT	ENDS
;	COMDAT ?hasAtLeastTwoElements@?$LightweightStack@UStackEntry@@@@QAE_NXZ
_TEXT	SEGMENT
?hasAtLeastTwoElements@?$LightweightStack@UStackEntry@@@@QAE_NXZ PROC ; LightweightStack<StackEntry>::hasAtLeastTwoElements, COMDAT
; _this$ = eax

; 51   : 		return topPointer > array;

	mov	ecx, DWORD PTR [eax+4]
	cmp	DWORD PTR [eax], ecx
	sbb	eax, eax
	neg	eax

; 52   : 	}

	ret	0
?hasAtLeastTwoElements@?$LightweightStack@UStackEntry@@@@QAE_NXZ ENDP ; LightweightStack<StackEntry>::hasAtLeastTwoElements
; Function compile flags: /Ogtpy
_TEXT	ENDS
;	COMDAT ?empty@?$LightweightStack@UStackEntry@@@@QAE_NXZ
_TEXT	SEGMENT
?empty@?$LightweightStack@UStackEntry@@@@QAE_NXZ PROC	; LightweightStack<StackEntry>::empty, COMDAT
; _this$ = eax

; 47   : 		return topPointer < array;

	mov	ecx, DWORD PTR [eax+4]
	cmp	ecx, DWORD PTR [eax]
	sbb	eax, eax
	neg	eax

; 48   : 	}

	ret	0
?empty@?$LightweightStack@UStackEntry@@@@QAE_NXZ ENDP	; LightweightStack<StackEntry>::empty
; Function compile flags: /Ogtpy
; File c:\local\sharpdevelop_3.2.0.5777_source\src\addins\misc\profiler\hook\profiler.cpp
_TEXT	ENDS
;	COMDAT ?ExceptionCatcherLeave@CProfiler@@UAGJXZ
_TEXT	SEGMENT
_this$ = 8						; size = 4
?ExceptionCatcherLeave@CProfiler@@UAGJXZ PROC		; CProfiler::ExceptionCatcherLeave, COMDAT

; 594  : 	DebugWriteLine(L"ExceptionCatcherLeave");
; 595  :     return S_OK;

	xor	eax, eax

; 596  : }

	ret	4
?ExceptionCatcherLeave@CProfiler@@UAGJXZ ENDP		; CProfiler::ExceptionCatcherLeave
; Function compile flags: /Ogtpy
_TEXT	ENDS
;	COMDAT ?ExceptionCatcherEnter@CProfiler@@UAGJII@Z
_TEXT	SEGMENT
_this$ = 8						; size = 4
___formal$ = 12						; size = 4
___formal$ = 16						; size = 4
?ExceptionCatcherEnter@CProfiler@@UAGJII@Z PROC		; CProfiler::ExceptionCatcherEnter, COMDAT

; 588  : 	DebugWriteLine(L"ExceptionCatcherEnter");
; 589  :     return S_OK;

	xor	eax, eax

; 590  : }

	ret	12					; 0000000cH
?ExceptionCatcherEnter@CProfiler@@UAGJII@Z ENDP		; CProfiler::ExceptionCatcherEnter
; Function compile flags: /Ogtpy
_TEXT	ENDS
;	COMDAT ?ExceptionUnwindFinallyLeave@CProfiler@@UAGJXZ
_TEXT	SEGMENT
_this$ = 8						; size = 4
?ExceptionUnwindFinallyLeave@CProfiler@@UAGJXZ PROC	; CProfiler::ExceptionUnwindFinallyLeave, COMDAT

; 582  : 	DebugWriteLine(L"ExceptionUnwindFinallyLeave");
; 583  :     return S_OK;

	xor	eax, eax

; 584  : }

	ret	4
?ExceptionUnwindFinallyLeave@CProfiler@@UAGJXZ ENDP	; CProfiler::ExceptionUnwindFinallyLeave
; Function compile flags: /Ogtpy
_TEXT	ENDS
;	COMDAT ?ExceptionUnwindFinallyEnter@CProfiler@@UAGJI@Z
_TEXT	SEGMENT
_this$ = 8						; size = 4
___formal$ = 12						; size = 4
?ExceptionUnwindFinallyEnter@CProfiler@@UAGJI@Z PROC	; CProfiler::ExceptionUnwindFinallyEnter, COMDAT

; 576  : 	DebugWriteLine(L"ExceptionUnwindFinallyEnter");
; 577  :     return S_OK;

	xor	eax, eax

; 578  : }

	ret	8
?ExceptionUnwindFinallyEnter@CProfiler@@UAGJI@Z ENDP	; CProfiler::ExceptionUnwindFinallyEnter
; Function compile flags: /Ogtpy
_TEXT	ENDS
;	COMDAT ?ExceptionOSHandlerLeave@CProfiler@@UAGJI@Z
_TEXT	SEGMENT
_this$ = 8						; size = 4
___formal$ = 12						; size = 4
?ExceptionOSHandlerLeave@CProfiler@@UAGJI@Z PROC	; CProfiler::ExceptionOSHandlerLeave, COMDAT

; 570  : 	DebugWriteLine(L"ExceptionOSHandlerLeave");
; 571  :     return S_OK;

	xor	eax, eax

; 572  : }

	ret	8
?ExceptionOSHandlerLeave@CProfiler@@UAGJI@Z ENDP	; CProfiler::ExceptionOSHandlerLeave
; Function compile flags: /Ogtpy
_TEXT	ENDS
;	COMDAT ?ExceptionOSHandlerEnter@CProfiler@@UAGJI@Z
_TEXT	SEGMENT
_this$ = 8						; size = 4
___formal$ = 12						; size = 4
?ExceptionOSHandlerEnter@CProfiler@@UAGJI@Z PROC	; CProfiler::ExceptionOSHandlerEnter, COMDAT

; 564  : 	DebugWriteLine(L"ExceptionOSHandlerEnter");
; 565  :     return S_OK;

	xor	eax, eax

; 566  : }

	ret	8
?ExceptionOSHandlerEnter@CProfiler@@UAGJI@Z ENDP	; CProfiler::ExceptionOSHandlerEnter
; Function compile flags: /Ogtpy
_TEXT	ENDS
;	COMDAT ?ExceptionCLRCatcherExecute@CProfiler@@UAGJXZ
_TEXT	SEGMENT
_this$ = 8						; size = 4
?ExceptionCLRCatcherExecute@CProfiler@@UAGJXZ PROC	; CProfiler::ExceptionCLRCatcherExecute, COMDAT

; 558  : 	DebugWriteLine(L"ExceptionCLRCatcherExecute");
; 559  :     return S_OK;

	xor	eax, eax

; 560  : }

	ret	4
?ExceptionCLRCatcherExecute@CProfiler@@UAGJXZ ENDP	; CProfiler::ExceptionCLRCatcherExecute
; Function compile flags: /Ogtpy
_TEXT	ENDS
;	COMDAT ?ExceptionCLRCatcherFound@CProfiler@@UAGJXZ
_TEXT	SEGMENT
_this$ = 8						; size = 4
?ExceptionCLRCatcherFound@CProfiler@@UAGJXZ PROC	; CProfiler::ExceptionCLRCatcherFound, COMDAT

; 552  : 	DebugWriteLine(L"ExceptionCLRCatcherFound");
; 553  :     return S_OK;

	xor	eax, eax

; 554  : }

	ret	4
?ExceptionCLRCatcherFound@CProfiler@@UAGJXZ ENDP	; CProfiler::ExceptionCLRCatcherFound
; Function compile flags: /Ogtpy
_TEXT	ENDS
;	COMDAT ?ExceptionSearchCatcherFound@CProfiler@@UAGJI@Z
_TEXT	SEGMENT
_this$ = 8						; size = 4
___formal$ = 12						; size = 4
?ExceptionSearchCatcherFound@CProfiler@@UAGJI@Z PROC	; CProfiler::ExceptionSearchCatcherFound, COMDAT

; 546  : 	DebugWriteLine(L"ExceptionSearchCatcherFound");
; 547  :     return S_OK;

	xor	eax, eax

; 548  : }

	ret	8
?ExceptionSearchCatcherFound@CProfiler@@UAGJI@Z ENDP	; CProfiler::ExceptionSearchCatcherFound
; Function compile flags: /Ogtpy
_TEXT	ENDS
;	COMDAT ?ExceptionSearchFilterLeave@CProfiler@@UAGJXZ
_TEXT	SEGMENT
_this$ = 8						; size = 4
?ExceptionSearchFilterLeave@CProfiler@@UAGJXZ PROC	; CProfiler::ExceptionSearchFilterLeave, COMDAT

; 540  : 	DebugWriteLine(L"ExceptionSearchFilterLeave");
; 541  :     return S_OK;

	xor	eax, eax

; 542  : }

	ret	4
?ExceptionSearchFilterLeave@CProfiler@@UAGJXZ ENDP	; CProfiler::ExceptionSearchFilterLeave
; Function compile flags: /Ogtpy
_TEXT	ENDS
;	COMDAT ?ExceptionSearchFilterEnter@CProfiler@@UAGJI@Z
_TEXT	SEGMENT
_this$ = 8						; size = 4
___formal$ = 12						; size = 4
?ExceptionSearchFilterEnter@CProfiler@@UAGJI@Z PROC	; CProfiler::ExceptionSearchFilterEnter, COMDAT

; 534  : 	DebugWriteLine(L"ExceptionSearchFilterEnter");
; 535  :     return S_OK;

	xor	eax, eax

; 536  : }

	ret	8
?ExceptionSearchFilterEnter@CProfiler@@UAGJI@Z ENDP	; CProfiler::ExceptionSearchFilterEnter
; Function compile flags: /Ogtpy
_TEXT	ENDS
;	COMDAT ?ExceptionSearchFunctionLeave@CProfiler@@UAGJXZ
_TEXT	SEGMENT
_this$ = 8						; size = 4
?ExceptionSearchFunctionLeave@CProfiler@@UAGJXZ PROC	; CProfiler::ExceptionSearchFunctionLeave, COMDAT

; 528  : 	DebugWriteLine(L"ExceptionSearchFunctionLeave");
; 529  :     return S_OK;

	xor	eax, eax

; 530  : }

	ret	4
?ExceptionSearchFunctionLeave@CProfiler@@UAGJXZ ENDP	; CProfiler::ExceptionSearchFunctionLeave
; Function compile flags: /Ogtpy
_TEXT	ENDS
;	COMDAT ?ExceptionSearchFunctionEnter@CProfiler@@UAGJI@Z
_TEXT	SEGMENT
_this$ = 8						; size = 4
___formal$ = 12						; size = 4
?ExceptionSearchFunctionEnter@CProfiler@@UAGJI@Z PROC	; CProfiler::ExceptionSearchFunctionEnter, COMDAT

; 522  : 	DebugWriteLine(L"ExceptionSearchFunctionEnter");
; 523  :     return S_OK;

	xor	eax, eax

; 524  : }

	ret	8
?ExceptionSearchFunctionEnter@CProfiler@@UAGJI@Z ENDP	; CProfiler::ExceptionSearchFunctionEnter
; Function compile flags: /Ogtpy
_TEXT	ENDS
;	COMDAT ?ExceptionUnwindFunctionEnter@CProfiler@@UAGJI@Z
_TEXT	SEGMENT
_this$ = 8						; size = 4
___formal$ = 12						; size = 4
?ExceptionUnwindFunctionEnter@CProfiler@@UAGJI@Z PROC	; CProfiler::ExceptionUnwindFunctionEnter, COMDAT

; 509  : 	DebugWriteLine(L"ExceptionUnwindFunctionEnter");
; 510  :     return S_OK;

	xor	eax, eax

; 511  : }

	ret	8
?ExceptionUnwindFunctionEnter@CProfiler@@UAGJI@Z ENDP	; CProfiler::ExceptionUnwindFunctionEnter
; Function compile flags: /Ogtpy
_TEXT	ENDS
;	COMDAT ?ExceptionThrown@CProfiler@@UAGJI@Z
_TEXT	SEGMENT
_this$ = 8						; size = 4
___formal$ = 12						; size = 4
?ExceptionThrown@CProfiler@@UAGJI@Z PROC		; CProfiler::ExceptionThrown, COMDAT

; 503  : 	DebugWriteLine(L"ExceptionThrown");
; 504  :     return S_OK;

	xor	eax, eax

; 505  : }

	ret	8
?ExceptionThrown@CProfiler@@UAGJI@Z ENDP		; CProfiler::ExceptionThrown
; Function compile flags: /Ogtpy
_TEXT	ENDS
;	COMDAT ??1ThreadInfo@@QAE@XZ
_TEXT	SEGMENT
??1ThreadInfo@@QAE@XZ PROC				; ThreadInfo::~ThreadInfo, COMDAT
; _this$ = ecx
	add	ecx, 8
	jmp	DWORD PTR __imp_??1?$basic_string@_WU?$char_traits@_W@std@@V?$allocator@_W@2@@std@@QAE@XZ
??1ThreadInfo@@QAE@XZ ENDP				; ThreadInfo::~ThreadInfo
; Function compile flags: /Ogtpy
_TEXT	ENDS
;	COMDAT ??_GThreadInfo@@QAEPAXI@Z
_TEXT	SEGMENT
??_GThreadInfo@@QAEPAXI@Z PROC				; ThreadInfo::`scalar deleting destructor', COMDAT
; _this$ = esi
	lea	ecx, DWORD PTR [esi+8]
	call	DWORD PTR __imp_??1?$basic_string@_WU?$char_traits@_W@std@@V?$allocator@_W@2@@std@@QAE@XZ
	push	esi
	call	??3@YAXPAX@Z				; operator delete
	add	esp, 4
	mov	eax, esi
	ret	0
??_GThreadInfo@@QAEPAXI@Z ENDP				; ThreadInfo::`scalar deleting destructor'
_TEXT	ENDS
PUBLIC	?SetEventMask@CProfiler@@AAEJXZ			; CProfiler::SetEventMask
; Function compile flags: /Ogtpy
;	COMDAT ?SetEventMask@CProfiler@@AAEJXZ
_TEXT	SEGMENT
?SetEventMask@CProfiler@@AAEJXZ PROC			; CProfiler::SetEventMask, COMDAT
; _this$ = eax

; 390  : 	DWORD eventMask = COR_PRF_MONITOR_ENTERLEAVE | COR_PRF_MONITOR_THREADS | COR_PRF_MONITOR_FUNCTION_UNLOADS | COR_PRF_MONITOR_CLR_EXCEPTIONS | COR_PRF_MONITOR_EXCEPTIONS;
; 391  : 	return pICorProfilerInfo->SetEventMask(eventMask);

	mov	eax, DWORD PTR [eax+4]
	mov	ecx, DWORD PTR [eax]
	mov	edx, DWORD PTR [ecx+64]
	push	16781889				; 01001241H
	push	eax
	call	edx

; 392  : }

	ret	0
?SetEventMask@CProfiler@@AAEJXZ ENDP			; CProfiler::SetEventMask
_TEXT	ENDS
PUBLIC	?getNewPosFunctionID@@YAHXZ			; getNewPosFunctionID
; Function compile flags: /Ogtpy
;	COMDAT ?getNewPosFunctionID@@YAHXZ
_TEXT	SEGMENT
?getNewPosFunctionID@@YAHXZ PROC			; getNewPosFunctionID, COMDAT

; 161  : int getNewPosFunctionID() {

	push	esi
	push	edi
	npad	14
$LL3@getNewPosF:

; 162  : 	const int step = 5;
; 163  : 	// Simple continuous assignment of IDs leads to problems with the
; 164  : 	// linear probing in FunctionInfo, so we use multiples of 'step' as IDs.
; 165  : 	// The step should not be a multiple of 2 (otherwise parts of the hash table could not be used)!
; 166  : 	LONG oldID;
; 167  : 	LONG newID;
; 168  : 	do {
; 169  : 		oldID = nextPosFunctionID;

	mov	edx, DWORD PTR ?nextPosFunctionID@@3JC	; nextPosFunctionID

; 170  : 		newID = ((oldID + step) & 0x7FFFFFFF); // x % 2^31

	lea	ecx, DWORD PTR [edx+5]
	and	ecx, 2147483647				; 7fffffffH

; 171  : 	} while (InterlockedCompareExchange(&nextPosFunctionID, newID, oldID) != oldID);

	mov	esi, ecx
	mov	edi, OFFSET ?nextPosFunctionID@@3JC	; nextPosFunctionID
	mov	eax, edx
	lock	 cmpxchg DWORD PTR [edi], esi
	cmp	eax, edx
	jne	SHORT $LL3@getNewPosF
	pop	edi

; 172  : 	return newID;

	mov	eax, ecx
	pop	esi

; 173  : }

	ret	0
?getNewPosFunctionID@@YAHXZ ENDP			; getNewPosFunctionID
_TEXT	ENDS
PUBLIC	?DetachFromThread@@YAXPAUThreadLocalData@@@Z	; DetachFromThread
; Function compile flags: /Ogtpy
;	COMDAT ?DetachFromThread@@YAXPAUThreadLocalData@@@Z
_TEXT	SEGMENT
_tsc$132334 = -8					; size = 8
?DetachFromThread@@YAXPAUThreadLocalData@@@Z PROC	; DetachFromThread, COMDAT
; _data$ = ecx

; 117  : {

	push	ebp
	mov	ebp, esp
	and	esp, -8					; fffffff8H
	sub	esp, 12					; 0000000cH
	push	ebx
	push	esi
	push	edi

; 118  : 	if (data != nullptr) {

	test	ecx, ecx
	je	SHORT $LN1@DetachFrom

; 119  : 		DebugWriteLine(L"DetachFromThread %d", data->threadID);
; 120  : 		ULONGLONG tsc = __rdtsc();

	rdtsc
	mov	DWORD PTR _tsc$132334[esp+28], edx

; 121  : 		while (!data->stack.empty()) {

	mov	edx, DWORD PTR [ecx+20]
	cmp	edx, DWORD PTR [ecx+16]
	jb	SHORT $LN1@DetachFrom
$LN2@DetachFrom:

; 122  : 			StackEntry &stackTop = data->stack.top();

	mov	edi, DWORD PTR [ecx+20]

; 123  : 			stackTop.function->TimeSpent += (tsc - stackTop.startTime);

	mov	esi, DWORD PTR [edi]
	mov	ebx, DWORD PTR _tsc$132334[esp+28]
	mov	edx, eax
	sub	edx, DWORD PTR [edi+8]
	sbb	ebx, DWORD PTR [edi+12]
	add	DWORD PTR [esi+8], edx
	adc	DWORD PTR [esi+12], ebx

; 124  : 			data->stack.pop();

	add	DWORD PTR [ecx+20], -24			; ffffffe8H
	mov	edx, DWORD PTR [ecx+20]
	cmp	edx, DWORD PTR [ecx+16]
	jae	SHORT $LN2@DetachFrom
$LN1@DetachFrom:

; 125  : 		}
; 126  : 	}
; 127  : }

	pop	edi
	pop	esi
	pop	ebx
	mov	esp, ebp
	pop	ebp
	ret	0
?DetachFromThread@@YAXPAUThreadLocalData@@@Z ENDP	; DetachFromThread
; Function compile flags: /Ogtpy
_TEXT	ENDS
;	COMDAT ?Release@CProfiler@@UAGKXZ
_TEXT	SEGMENT
_this$ = 8						; size = 4
?Release@CProfiler@@UAGKXZ PROC				; CProfiler::Release, COMDAT

; 28   : 	return 1;

	mov	eax, 1

; 29   : }

	ret	4
?Release@CProfiler@@UAGKXZ ENDP				; CProfiler::Release
; Function compile flags: /Ogtpy
_TEXT	ENDS
;	COMDAT ?AddRef@CProfiler@@UAGKXZ
_TEXT	SEGMENT
_this$ = 8						; size = 4
?AddRef@CProfiler@@UAGKXZ PROC				; CProfiler::AddRef, COMDAT

; 23   : 	return 1;

	mov	eax, 1

; 24   : }

	ret	4
?AddRef@CProfiler@@UAGKXZ ENDP				; CProfiler::AddRef
; Function compile flags: /Ogtpy
; File c:\local\sharpdevelop_3.2.0.5777_source\src\addins\misc\profiler\hook\global.h
_TEXT	ENDS
;	COMDAT ??0ThreadInfo@@QAE@XZ
_TEXT	SEGMENT
??0ThreadInfo@@QAE@XZ PROC				; ThreadInfo::ThreadInfo, COMDAT
; _this$ = esi

; 56   : 		ThreadInfo()

	lea	ecx, DWORD PTR [esi+8]
	call	DWORD PTR __imp_??0?$basic_string@_WU?$char_traits@_W@std@@V?$allocator@_W@2@@std@@QAE@XZ

; 57   : 		{
; 58   : 			this->unmanagedThreadId = 0;

	mov	DWORD PTR [esi], 0

; 59   : 			this->managedThreadId = nullptr;

	mov	DWORD PTR [esi+4], 0

; 60   : 		}

	mov	eax, esi
	ret	0
??0ThreadInfo@@QAE@XZ ENDP				; ThreadInfo::ThreadInfo
; Function compile flags: /Ogtpy
_TEXT	ENDS
;	COMDAT ??0StackEntry@@QAE@PAUFunctionInfo@@_K@Z
_TEXT	SEGMENT
_startTime$ = 8						; size = 8
??0StackEntry@@QAE@PAUFunctionInfo@@_K@Z PROC		; StackEntry::StackEntry, COMDAT
; _this$ = eax
; _function$ = ecx

; 29   : 	StackEntry(FunctionInfo * function, ULONGLONG startTime) : function(function), startTime(startTime), frameCount(1) {}

	mov	edx, DWORD PTR _startTime$[esp-4]
	mov	DWORD PTR [eax], ecx
	mov	ecx, DWORD PTR _startTime$[esp]
	mov	DWORD PTR [eax+8], edx
	mov	DWORD PTR [eax+12], ecx
	mov	DWORD PTR [eax+16], 1
	ret	8
??0StackEntry@@QAE@PAUFunctionInfo@@_K@Z ENDP		; StackEntry::StackEntry
; Function compile flags: /Ogtpy
; File c:\local\sharpdevelop_3.2.0.5777_source\src\addins\misc\profiler\hook\criticalsection.h
_TEXT	ENDS
;	COMDAT ?Leave@CriticalSection@@QAEXXZ
_TEXT	SEGMENT
?Leave@CriticalSection@@QAEXXZ PROC			; CriticalSection::Leave, COMDAT
; _this$ = eax

; 30   : 		LeaveCriticalSection(&criticalSection);

	push	eax
	call	DWORD PTR __imp__LeaveCriticalSection@4

; 31   : 	}

	ret	0
?Leave@CriticalSection@@QAEXXZ ENDP			; CriticalSection::Leave
; Function compile flags: /Ogtpy
_TEXT	ENDS
;	COMDAT ?Enter@CriticalSection@@QAEXXZ
_TEXT	SEGMENT
?Enter@CriticalSection@@QAEXXZ PROC			; CriticalSection::Enter, COMDAT
; _this$ = eax

; 27   : 		EnterCriticalSection(&criticalSection);

	push	eax
	call	DWORD PTR __imp__EnterCriticalSection@4

; 28   : 	}

	ret	0
?Enter@CriticalSection@@QAEXXZ ENDP			; CriticalSection::Enter
_TEXT	ENDS
EXTRN	__CxxThrowException@8:PROC
; Function compile flags: /Ogtpy
;	COMDAT ??0CriticalSection@@QAE@XZ
_TEXT	SEGMENT
$T149580 = -4						; size = 4
??0CriticalSection@@QAE@XZ PROC				; CriticalSection::CriticalSection, COMDAT

; 19   : 	CriticalSection() {

	push	ecx

; 20   : 		if (!InitializeCriticalSectionAndSpinCount(&criticalSection, 0x80000400))
; 21   : 			throw "Couldn't initialize critical section";

	push	OFFSET __TI2PAD
	lea	eax, DWORD PTR $T149580[esp+8]
	push	eax
	mov	DWORD PTR $T149580[esp+12], OFFSET ??_C@_0CF@LIBDMEPI@Couldn?8t?5initialize?5critical?5sec@
	call	__CxxThrowException@8
$LN8@CriticalSe:
$LN7@CriticalSe:
	int	3
??0CriticalSection@@QAE@XZ ENDP				; CriticalSection::CriticalSection
; Function compile flags: /Ogtpy
; File c:\program files\microsoft visual studio 9.0\vc\include\xutility
_TEXT	ENDS
;	COMDAT ??0_Container_base_aux@std@@QAE@XZ
_TEXT	SEGMENT
??0_Container_base_aux@std@@QAE@XZ PROC			; std::_Container_base_aux::_Container_base_aux, COMDAT
; _this$ = eax

; 380  : 		{
; 381  : 		// Do nothing: _Container_base_aux_alloc_real() will construct the aux object.
; 382  : 		}

	ret	0
??0_Container_base_aux@std@@QAE@XZ ENDP			; std::_Container_base_aux::_Container_base_aux
; Function compile flags: /Ogtpy
_TEXT	ENDS
;	COMDAT ?_Getcont@_Aux_cont@std@@QBEPBV_Container_base_aux@2@XZ
_TEXT	SEGMENT
?_Getcont@_Aux_cont@std@@QBEPBV_Container_base_aux@2@XZ PROC ; std::_Aux_cont::_Getcont, COMDAT
; _this$ = eax

; 369  : 		return _Mycontainer;

	mov	eax, DWORD PTR [eax]

; 370  : 		}

	ret	0
?_Getcont@_Aux_cont@std@@QBEPBV_Container_base_aux@2@XZ ENDP ; std::_Aux_cont::_Getcont
; Function compile flags: /Ogtpy
_TEXT	ENDS
;	COMDAT ??0_Aux_cont@std@@QAE@QBV_Container_base_aux@1@@Z
_TEXT	SEGMENT
??0_Aux_cont@std@@QAE@QBV_Container_base_aux@1@@Z PROC	; std::_Aux_cont::_Aux_cont, COMDAT
; _this$ = eax
; __Pcont$ = ecx

; 364  : 	explicit _Aux_cont(const _Container_base_aux * const _Pcont)

	mov	DWORD PTR [eax], ecx
	ret	0
??0_Aux_cont@std@@QAE@QBV_Container_base_aux@1@@Z ENDP	; std::_Aux_cont::_Aux_cont
; Function compile flags: /Ogtpy
; File c:\program files\microsoft visual studio 9.0\vc\include\exception
_TEXT	ENDS
;	COMDAT ??1bad_alloc@std@@UAE@XZ
_TEXT	SEGMENT
??1bad_alloc@std@@UAE@XZ PROC				; std::bad_alloc::~bad_alloc, COMDAT
; _this$ = ecx

; 380  : 		{	// destroy the object

	mov	DWORD PTR [ecx], OFFSET ??_7bad_alloc@std@@6B@

; 381  : 		}

	jmp	DWORD PTR __imp_??1exception@std@@UAE@XZ
??1bad_alloc@std@@UAE@XZ ENDP				; std::bad_alloc::~bad_alloc
; Function compile flags: /Ogtpy
_TEXT	ENDS
;	COMDAT ??0bad_alloc@std@@QAE@PBD@Z
_TEXT	SEGMENT
__Message$ = -4						; size = 4
??0bad_alloc@std@@QAE@PBD@Z PROC			; std::bad_alloc::bad_alloc, COMDAT
; _this$ = esi

; 371  : 		{	// construct from message string

	push	ecx
	lea	eax, DWORD PTR __Message$[esp+4]
	push	eax
	mov	ecx, esi
	mov	DWORD PTR __Message$[esp+8], 0
	call	DWORD PTR __imp_??0exception@std@@QAE@ABQBD@Z
	mov	DWORD PTR [esi], OFFSET ??_7bad_alloc@std@@6B@

; 372  : 		}

	mov	eax, esi
	pop	ecx
	ret	0
??0bad_alloc@std@@QAE@PBD@Z ENDP			; std::bad_alloc::bad_alloc
; Function compile flags: /Ogtpy
; File c:\program files\microsoft visual studio 9.0\vc\include\xmemory
;	COMDAT ??$_Allocate@V_Aux_cont@std@@@std@@YAPAV_Aux_cont@0@IPAV10@@Z
_TEXT	SEGMENT
$T151529 = -16						; size = 4
$T151521 = -12						; size = 12
??$_Allocate@V_Aux_cont@std@@@std@@YAPAV_Aux_cont@0@IPAV10@@Z PROC ; std::_Allocate<std::_Aux_cont>, COMDAT
; __Count$ = ecx

; 37   : 	if (_Count <= 0)
; 38   : 		_Count = 0;
; 39   : 	else if (((_SIZT)(-1) / _Count) < sizeof (_Ty))

	or	eax, -1
	xor	edx, edx
	div	ecx
	sub	esp, 16					; 00000010H
	cmp	eax, 4
	jae	SHORT $LN1@Allocate@4

; 40   : 		_THROW_NCEE(std::bad_alloc, NULL);

	lea	eax, DWORD PTR $T151529[esp+16]
	push	eax
	lea	ecx, DWORD PTR $T151521[esp+20]
	mov	DWORD PTR $T151529[esp+20], 0
	call	DWORD PTR __imp_??0exception@std@@QAE@ABQBD@Z
	push	OFFSET __TI2?AVbad_alloc@std@@
	lea	ecx, DWORD PTR $T151521[esp+20]
	push	ecx
	mov	DWORD PTR $T151521[esp+24], OFFSET ??_7bad_alloc@std@@6B@
	call	__CxxThrowException@8
$LN13@Allocate@4:
$LN1@Allocate@4:

; 41   : 
; 42   : 		// allocate storage for _Count elements of type _Ty
; 43   : 	return ((_Ty _FARQ *)::operator new(_Count * sizeof (_Ty)));

	lea	edx, DWORD PTR [ecx*4]
	push	edx
	call	??2@YAPAXI@Z				; operator new
	add	esp, 4

; 44   : 	}

	add	esp, 16					; 00000010H
	ret	0
$LN12@Allocate@4:
??$_Allocate@V_Aux_cont@std@@@std@@YAPAV_Aux_cont@0@IPAV10@@Z ENDP ; std::_Allocate<std::_Aux_cont>
; Function compile flags: /Ogtpy
_TEXT	ENDS
;	COMDAT ??$_Construct@PAU_Node@?$_Tree_nod@V?$_Tmap_traits@KPAVThreadInfo@@U?$less@K@std@@V?$allocator@U?$pair@$$CBKPAVThreadInfo@@@std@@@3@$0A@@std@@@std@@PAU123@@std@@YAXPAPAU_Node@?$_Tree_nod@V?$_Tmap_traits@KPAVThreadInfo@@U?$less@K@std@@V?$allocator@U?$pair@$$CBKPAVThreadInfo@@@std@@@3@$0A@@std@@@0@ABQAU120@@Z
_TEXT	SEGMENT
??$_Construct@PAU_Node@?$_Tree_nod@V?$_Tmap_traits@KPAVThreadInfo@@U?$less@K@std@@V?$allocator@U?$pair@$$CBKPAVThreadInfo@@@std@@@3@$0A@@std@@@std@@PAU123@@std@@YAXPAPAU_Node@?$_Tree_nod@V?$_Tmap_traits@KPAVThreadInfo@@U?$less@K@std@@V?$allocator@U?$pair@$$CBKPAVThreadInfo@@@std@@@3@$0A@@std@@@0@ABQAU120@@Z PROC ; std::_Construct<std::_Tree_nod<std::_Tmap_traits<unsigned long,ThreadInfo *,std::less<unsigned long>,std::allocator<std::pair<unsigned long const ,ThreadInfo *> >,0> >::_Node *,std::_Tree_nod<std::_Tmap_traits<unsigned long,ThreadInfo *,std::less<unsigned long>,std::allocator<std::pair<unsigned long const ,ThreadInfo *> >,0> >::_Node *>, COMDAT
; __Ptr$ = eax
; __Val$ = ecx

; 51   : 	void _FARQ *_Vptr = _Ptr;
; 52   : 	::new (_Vptr) _T1(_Val);

	test	eax, eax
	je	SHORT $LN3@Construct@2
	mov	edx, DWORD PTR [ecx]
	mov	DWORD PTR [eax], edx
$LN3@Construct@2:

; 53   : 	}

	ret	0
??$_Construct@PAU_Node@?$_Tree_nod@V?$_Tmap_traits@KPAVThreadInfo@@U?$less@K@std@@V?$allocator@U?$pair@$$CBKPAVThreadInfo@@@std@@@3@$0A@@std@@@std@@PAU123@@std@@YAXPAPAU_Node@?$_Tree_nod@V?$_Tmap_traits@KPAVThreadInfo@@U?$less@K@std@@V?$allocator@U?$pair@$$CBKPAVThreadInfo@@@std@@@3@$0A@@std@@@0@ABQAU120@@Z ENDP ; std::_Construct<std::_Tree_nod<std::_Tmap_traits<unsigned long,ThreadInfo *,std::less<unsigned long>,std::allocator<std::pair<unsigned long const ,ThreadInfo *> >,0> >::_Node *,std::_Tree_nod<std::_Tmap_traits<unsigned long,ThreadInfo *,std::less<unsigned long>,std::allocator<std::pair<unsigned long const ,ThreadInfo *> >,0> >::_Node *>
; Function compile flags: /Ogtpy
_TEXT	ENDS
;	COMDAT ??$_Construct@PAU_Node@?$_Tree_nod@V?$_Tmap_traits@IPAVThreadInfo@@U?$less@I@std@@V?$allocator@U?$pair@$$CBIPAVThreadInfo@@@std@@@3@$0A@@std@@@std@@PAU123@@std@@YAXPAPAU_Node@?$_Tree_nod@V?$_Tmap_traits@IPAVThreadInfo@@U?$less@I@std@@V?$allocator@U?$pair@$$CBIPAVThreadInfo@@@std@@@3@$0A@@std@@@0@ABQAU120@@Z
_TEXT	SEGMENT
??$_Construct@PAU_Node@?$_Tree_nod@V?$_Tmap_traits@IPAVThreadInfo@@U?$less@I@std@@V?$allocator@U?$pair@$$CBIPAVThreadInfo@@@std@@@3@$0A@@std@@@std@@PAU123@@std@@YAXPAPAU_Node@?$_Tree_nod@V?$_Tmap_traits@IPAVThreadInfo@@U?$less@I@std@@V?$allocator@U?$pair@$$CBIPAVThreadInfo@@@std@@@3@$0A@@std@@@0@ABQAU120@@Z PROC ; std::_Construct<std::_Tree_nod<std::_Tmap_traits<unsigned int,ThreadInfo *,std::less<unsigned int>,std::allocator<std::pair<unsigned int const ,ThreadInfo *> >,0> >::_Node *,std::_Tree_nod<std::_Tmap_traits<unsigned int,ThreadInfo *,std::less<unsigned int>,std::allocator<std::pair<unsigned int const ,ThreadInfo *> >,0> >::_Node *>, COMDAT
; __Ptr$ = eax
; __Val$ = ecx

; 51   : 	void _FARQ *_Vptr = _Ptr;
; 52   : 	::new (_Vptr) _T1(_Val);

	test	eax, eax
	je	SHORT $LN3@Construct@3
	mov	edx, DWORD PTR [ecx]
	mov	DWORD PTR [eax], edx
$LN3@Construct@3:

; 53   : 	}

	ret	0
??$_Construct@PAU_Node@?$_Tree_nod@V?$_Tmap_traits@IPAVThreadInfo@@U?$less@I@std@@V?$allocator@U?$pair@$$CBIPAVThreadInfo@@@std@@@3@$0A@@std@@@std@@PAU123@@std@@YAXPAPAU_Node@?$_Tree_nod@V?$_Tmap_traits@IPAVThreadInfo@@U?$less@I@std@@V?$allocator@U?$pair@$$CBIPAVThreadInfo@@@std@@@3@$0A@@std@@@0@ABQAU120@@Z ENDP ; std::_Construct<std::_Tree_nod<std::_Tmap_traits<unsigned int,ThreadInfo *,std::less<unsigned int>,std::allocator<std::pair<unsigned int const ,ThreadInfo *> >,0> >::_Node *,std::_Tree_nod<std::_Tmap_traits<unsigned int,ThreadInfo *,std::less<unsigned int>,std::allocator<std::pair<unsigned int const ,ThreadInfo *> >,0> >::_Node *>
; Function compile flags: /Ogtpy
_TEXT	ENDS
;	COMDAT ??$_Construct@PAU_Node@?$_Tree_nod@V?$_Tmap_traits@IHU?$less@I@std@@V?$allocator@U?$pair@$$CBIH@std@@@2@$0A@@std@@@std@@PAU123@@std@@YAXPAPAU_Node@?$_Tree_nod@V?$_Tmap_traits@IHU?$less@I@std@@V?$allocator@U?$pair@$$CBIH@std@@@2@$0A@@std@@@0@ABQAU120@@Z
_TEXT	SEGMENT
??$_Construct@PAU_Node@?$_Tree_nod@V?$_Tmap_traits@IHU?$less@I@std@@V?$allocator@U?$pair@$$CBIH@std@@@2@$0A@@std@@@std@@PAU123@@std@@YAXPAPAU_Node@?$_Tree_nod@V?$_Tmap_traits@IHU?$less@I@std@@V?$allocator@U?$pair@$$CBIH@std@@@2@$0A@@std@@@0@ABQAU120@@Z PROC ; std::_Construct<std::_Tree_nod<std::_Tmap_traits<unsigned int,int,std::less<unsigned int>,std::allocator<std::pair<unsigned int const ,int> >,0> >::_Node *,std::_Tree_nod<std::_Tmap_traits<unsigned int,int,std::less<unsigned int>,std::allocator<std::pair<unsigned int const ,int> >,0> >::_Node *>, COMDAT
; __Ptr$ = eax
; __Val$ = ecx

; 51   : 	void _FARQ *_Vptr = _Ptr;
; 52   : 	::new (_Vptr) _T1(_Val);

	test	eax, eax
	je	SHORT $LN3@Construct@4
	mov	edx, DWORD PTR [ecx]
	mov	DWORD PTR [eax], edx
$LN3@Construct@4:

; 53   : 	}

	ret	0
??$_Construct@PAU_Node@?$_Tree_nod@V?$_Tmap_traits@IHU?$less@I@std@@V?$allocator@U?$pair@$$CBIH@std@@@2@$0A@@std@@@std@@PAU123@@std@@YAXPAPAU_Node@?$_Tree_nod@V?$_Tmap_traits@IHU?$less@I@std@@V?$allocator@U?$pair@$$CBIH@std@@@2@$0A@@std@@@0@ABQAU120@@Z ENDP ; std::_Construct<std::_Tree_nod<std::_Tmap_traits<unsigned int,int,std::less<unsigned int>,std::allocator<std::pair<unsigned int const ,int> >,0> >::_Node *,std::_Tree_nod<std::_Tmap_traits<unsigned int,int,std::less<unsigned int>,std::allocator<std::pair<unsigned int const ,int> >,0> >::_Node *>
; Function compile flags: /Ogtpy
_TEXT	ENDS
;	COMDAT ??$_Allocate@U_Node@?$_Tree_nod@V?$_Tmap_traits@KPAVThreadInfo@@U?$less@K@std@@V?$allocator@U?$pair@$$CBKPAVThreadInfo@@@std@@@3@$0A@@std@@@std@@@std@@YAPAU_Node@?$_Tree_nod@V?$_Tmap_traits@KPAVThreadInfo@@U?$less@K@std@@V?$allocator@U?$pair@$$CBKPAVThreadInfo@@@std@@@3@$0A@@std@@@0@IPAU120@@Z
_TEXT	SEGMENT
$T151570 = -16						; size = 4
$T151562 = -12						; size = 12
??$_Allocate@U_Node@?$_Tree_nod@V?$_Tmap_traits@KPAVThreadInfo@@U?$less@K@std@@V?$allocator@U?$pair@$$CBKPAVThreadInfo@@@std@@@3@$0A@@std@@@std@@@std@@YAPAU_Node@?$_Tree_nod@V?$_Tmap_traits@KPAVThreadInfo@@U?$less@K@std@@V?$allocator@U?$pair@$$CBKPAVThreadInfo@@@std@@@3@$0A@@std@@@0@IPAU120@@Z PROC ; std::_Allocate<std::_Tree_nod<std::_Tmap_traits<unsigned long,ThreadInfo *,std::less<unsigned long>,std::allocator<std::pair<unsigned long const ,ThreadInfo *> >,0> >::_Node>, COMDAT
; __Count$ = ecx

; 37   : 	if (_Count <= 0)
; 38   : 		_Count = 0;
; 39   : 	else if (((_SIZT)(-1) / _Count) < sizeof (_Ty))

	or	eax, -1
	xor	edx, edx
	div	ecx
	sub	esp, 16					; 00000010H
	cmp	eax, 24					; 00000018H
	jae	SHORT $LN1@Allocate@5

; 40   : 		_THROW_NCEE(std::bad_alloc, NULL);

	lea	eax, DWORD PTR $T151570[esp+16]
	push	eax
	lea	ecx, DWORD PTR $T151562[esp+20]
	mov	DWORD PTR $T151570[esp+20], 0
	call	DWORD PTR __imp_??0exception@std@@QAE@ABQBD@Z
	push	OFFSET __TI2?AVbad_alloc@std@@
	lea	ecx, DWORD PTR $T151562[esp+20]
	push	ecx
	mov	DWORD PTR $T151562[esp+24], OFFSET ??_7bad_alloc@std@@6B@
	call	__CxxThrowException@8
$LN13@Allocate@5:
$LN1@Allocate@5:

; 41   : 
; 42   : 		// allocate storage for _Count elements of type _Ty
; 43   : 	return ((_Ty _FARQ *)::operator new(_Count * sizeof (_Ty)));

	lea	edx, DWORD PTR [ecx+ecx*2]
	add	edx, edx
	add	edx, edx
	add	edx, edx
	push	edx
	call	??2@YAPAXI@Z				; operator new
	add	esp, 4

; 44   : 	}

	add	esp, 16					; 00000010H
	ret	0
$LN12@Allocate@5:
??$_Allocate@U_Node@?$_Tree_nod@V?$_Tmap_traits@KPAVThreadInfo@@U?$less@K@std@@V?$allocator@U?$pair@$$CBKPAVThreadInfo@@@std@@@3@$0A@@std@@@std@@@std@@YAPAU_Node@?$_Tree_nod@V?$_Tmap_traits@KPAVThreadInfo@@U?$less@K@std@@V?$allocator@U?$pair@$$CBKPAVThreadInfo@@@std@@@3@$0A@@std@@@0@IPAU120@@Z ENDP ; std::_Allocate<std::_Tree_nod<std::_Tmap_traits<unsigned long,ThreadInfo *,std::less<unsigned long>,std::allocator<std::pair<unsigned long const ,ThreadInfo *> >,0> >::_Node>
; Function compile flags: /Ogtpy
_TEXT	ENDS
;	COMDAT ??$_Allocate@U_Node@?$_Tree_nod@V?$_Tmap_traits@IPAVThreadInfo@@U?$less@I@std@@V?$allocator@U?$pair@$$CBIPAVThreadInfo@@@std@@@3@$0A@@std@@@std@@@std@@YAPAU_Node@?$_Tree_nod@V?$_Tmap_traits@IPAVThreadInfo@@U?$less@I@std@@V?$allocator@U?$pair@$$CBIPAVThreadInfo@@@std@@@3@$0A@@std@@@0@IPAU120@@Z
_TEXT	SEGMENT
$T151584 = -16						; size = 4
$T151576 = -12						; size = 12
??$_Allocate@U_Node@?$_Tree_nod@V?$_Tmap_traits@IPAVThreadInfo@@U?$less@I@std@@V?$allocator@U?$pair@$$CBIPAVThreadInfo@@@std@@@3@$0A@@std@@@std@@@std@@YAPAU_Node@?$_Tree_nod@V?$_Tmap_traits@IPAVThreadInfo@@U?$less@I@std@@V?$allocator@U?$pair@$$CBIPAVThreadInfo@@@std@@@3@$0A@@std@@@0@IPAU120@@Z PROC ; std::_Allocate<std::_Tree_nod<std::_Tmap_traits<unsigned int,ThreadInfo *,std::less<unsigned int>,std::allocator<std::pair<unsigned int const ,ThreadInfo *> >,0> >::_Node>, COMDAT
; __Count$ = ecx

; 37   : 	if (_Count <= 0)
; 38   : 		_Count = 0;
; 39   : 	else if (((_SIZT)(-1) / _Count) < sizeof (_Ty))

	or	eax, -1
	xor	edx, edx
	div	ecx
	sub	esp, 16					; 00000010H
	cmp	eax, 24					; 00000018H
	jae	SHORT $LN1@Allocate@6

; 40   : 		_THROW_NCEE(std::bad_alloc, NULL);

	lea	eax, DWORD PTR $T151584[esp+16]
	push	eax
	lea	ecx, DWORD PTR $T151576[esp+20]
	mov	DWORD PTR $T151584[esp+20], 0
	call	DWORD PTR __imp_??0exception@std@@QAE@ABQBD@Z
	push	OFFSET __TI2?AVbad_alloc@std@@
	lea	ecx, DWORD PTR $T151576[esp+20]
	push	ecx
	mov	DWORD PTR $T151576[esp+24], OFFSET ??_7bad_alloc@std@@6B@
	call	__CxxThrowException@8
$LN13@Allocate@6:
$LN1@Allocate@6:

; 41   : 
; 42   : 		// allocate storage for _Count elements of type _Ty
; 43   : 	return ((_Ty _FARQ *)::operator new(_Count * sizeof (_Ty)));

	lea	edx, DWORD PTR [ecx+ecx*2]
	add	edx, edx
	add	edx, edx
	add	edx, edx
	push	edx
	call	??2@YAPAXI@Z				; operator new
	add	esp, 4

; 44   : 	}

	add	esp, 16					; 00000010H
	ret	0
$LN12@Allocate@6:
??$_Allocate@U_Node@?$_Tree_nod@V?$_Tmap_traits@IPAVThreadInfo@@U?$less@I@std@@V?$allocator@U?$pair@$$CBIPAVThreadInfo@@@std@@@3@$0A@@std@@@std@@@std@@YAPAU_Node@?$_Tree_nod@V?$_Tmap_traits@IPAVThreadInfo@@U?$less@I@std@@V?$allocator@U?$pair@$$CBIPAVThreadInfo@@@std@@@3@$0A@@std@@@0@IPAU120@@Z ENDP ; std::_Allocate<std::_Tree_nod<std::_Tmap_traits<unsigned int,ThreadInfo *,std::less<unsigned int>,std::allocator<std::pair<unsigned int const ,ThreadInfo *> >,0> >::_Node>
; Function compile flags: /Ogtpy
_TEXT	ENDS
;	COMDAT ??$_Allocate@U_Node@?$_Tree_nod@V?$_Tmap_traits@IHU?$less@I@std@@V?$allocator@U?$pair@$$CBIH@std@@@2@$0A@@std@@@std@@@std@@YAPAU_Node@?$_Tree_nod@V?$_Tmap_traits@IHU?$less@I@std@@V?$allocator@U?$pair@$$CBIH@std@@@2@$0A@@std@@@0@IPAU120@@Z
_TEXT	SEGMENT
$T151598 = -16						; size = 4
$T151590 = -12						; size = 12
??$_Allocate@U_Node@?$_Tree_nod@V?$_Tmap_traits@IHU?$less@I@std@@V?$allocator@U?$pair@$$CBIH@std@@@2@$0A@@std@@@std@@@std@@YAPAU_Node@?$_Tree_nod@V?$_Tmap_traits@IHU?$less@I@std@@V?$allocator@U?$pair@$$CBIH@std@@@2@$0A@@std@@@0@IPAU120@@Z PROC ; std::_Allocate<std::_Tree_nod<std::_Tmap_traits<unsigned int,int,std::less<unsigned int>,std::allocator<std::pair<unsigned int const ,int> >,0> >::_Node>, COMDAT
; __Count$ = ecx

; 37   : 	if (_Count <= 0)
; 38   : 		_Count = 0;
; 39   : 	else if (((_SIZT)(-1) / _Count) < sizeof (_Ty))

	or	eax, -1
	xor	edx, edx
	div	ecx
	sub	esp, 16					; 00000010H
	cmp	eax, 24					; 00000018H
	jae	SHORT $LN1@Allocate@7

; 40   : 		_THROW_NCEE(std::bad_alloc, NULL);

	lea	eax, DWORD PTR $T151598[esp+16]
	push	eax
	lea	ecx, DWORD PTR $T151590[esp+20]
	mov	DWORD PTR $T151598[esp+20], 0
	call	DWORD PTR __imp_??0exception@std@@QAE@ABQBD@Z
	push	OFFSET __TI2?AVbad_alloc@std@@
	lea	ecx, DWORD PTR $T151590[esp+20]
	push	ecx
	mov	DWORD PTR $T151590[esp+24], OFFSET ??_7bad_alloc@std@@6B@
	call	__CxxThrowException@8
$LN13@Allocate@7:
$LN1@Allocate@7:

; 41   : 
; 42   : 		// allocate storage for _Count elements of type _Ty
; 43   : 	return ((_Ty _FARQ *)::operator new(_Count * sizeof (_Ty)));

	lea	edx, DWORD PTR [ecx+ecx*2]
	add	edx, edx
	add	edx, edx
	add	edx, edx
	push	edx
	call	??2@YAPAXI@Z				; operator new
	add	esp, 4

; 44   : 	}

	add	esp, 16					; 00000010H
	ret	0
$LN12@Allocate@7:
??$_Allocate@U_Node@?$_Tree_nod@V?$_Tmap_traits@IHU?$less@I@std@@V?$allocator@U?$pair@$$CBIH@std@@@2@$0A@@std@@@std@@@std@@YAPAU_Node@?$_Tree_nod@V?$_Tmap_traits@IHU?$less@I@std@@V?$allocator@U?$pair@$$CBIH@std@@@2@$0A@@std@@@0@IPAU120@@Z ENDP ; std::_Allocate<std::_Tree_nod<std::_Tmap_traits<unsigned int,int,std::less<unsigned int>,std::allocator<std::pair<unsigned int const ,int> >,0> >::_Node>
; Function compile flags: /Ogtpy
_TEXT	ENDS
;	COMDAT ?allocate@?$allocator@V_Aux_cont@std@@@std@@QAEPAV_Aux_cont@2@I@Z
_TEXT	SEGMENT
?allocate@?$allocator@V_Aux_cont@std@@@std@@QAEPAV_Aux_cont@2@I@Z PROC ; std::allocator<std::_Aux_cont>::allocate, COMDAT

; 145  : 		return (_Allocate(_Count, (pointer)0));

	push	4
	call	??2@YAPAXI@Z				; operator new
	add	esp, 4

; 146  : 		}

	ret	0
?allocate@?$allocator@V_Aux_cont@std@@@std@@QAEPAV_Aux_cont@2@I@Z ENDP ; std::allocator<std::_Aux_cont>::allocate
; Function compile flags: /Ogtpy
; File c:\program files\microsoft visual studio 9.0\vc\include\xutility
_TEXT	ENDS
;	COMDAT ??0?$_Container_base_aux_alloc_real@V?$allocator@U?$pair@$$CBKPAVThreadInfo@@@std@@@std@@@std@@IAE@V?$allocator@U?$pair@$$CBKPAVThreadInfo@@@std@@@1@@Z
_TEXT	SEGMENT
__Al$ = 8						; size = 1
??0?$_Container_base_aux_alloc_real@V?$allocator@U?$pair@$$CBKPAVThreadInfo@@@std@@@std@@@std@@IAE@V?$allocator@U?$pair@$$CBKPAVThreadInfo@@@std@@@1@@Z PROC ; std::_Container_base_aux_alloc_real<std::allocator<std::pair<unsigned long const ,ThreadInfo *> > >::_Container_base_aux_alloc_real<std::allocator<std::pair<unsigned long const ,ThreadInfo *> > >, COMDAT
; _this$ = esi

; 420  : 		_Myownedaux = new (_Alaux.allocate(1)) _Aux_cont(this);

	push	4
	call	??2@YAPAXI@Z				; operator new
	add	esp, 4
	test	eax, eax
	je	SHORT $LN3@Container_
	mov	DWORD PTR [eax], esi
	mov	DWORD PTR [esi], eax

; 421  : 		}

	mov	eax, esi
	ret	4
$LN3@Container_:

; 420  : 		_Myownedaux = new (_Alaux.allocate(1)) _Aux_cont(this);

	xor	eax, eax
	mov	DWORD PTR [esi], eax

; 421  : 		}

	mov	eax, esi
	ret	4
??0?$_Container_base_aux_alloc_real@V?$allocator@U?$pair@$$CBKPAVThreadInfo@@@std@@@std@@@std@@IAE@V?$allocator@U?$pair@$$CBKPAVThreadInfo@@@std@@@1@@Z ENDP ; std::_Container_base_aux_alloc_real<std::allocator<std::pair<unsigned long const ,ThreadInfo *> > >::_Container_base_aux_alloc_real<std::allocator<std::pair<unsigned long const ,ThreadInfo *> > >
; Function compile flags: /Ogtpy
_TEXT	ENDS
;	COMDAT ??0?$_Container_base_aux_alloc_real@V?$allocator@U?$pair@$$CBIPAVThreadInfo@@@std@@@std@@@std@@IAE@V?$allocator@U?$pair@$$CBIPAVThreadInfo@@@std@@@1@@Z
_TEXT	SEGMENT
__Al$ = 8						; size = 1
??0?$_Container_base_aux_alloc_real@V?$allocator@U?$pair@$$CBIPAVThreadInfo@@@std@@@std@@@std@@IAE@V?$allocator@U?$pair@$$CBIPAVThreadInfo@@@std@@@1@@Z PROC ; std::_Container_base_aux_alloc_real<std::allocator<std::pair<unsigned int const ,ThreadInfo *> > >::_Container_base_aux_alloc_real<std::allocator<std::pair<unsigned int const ,ThreadInfo *> > >, COMDAT
; _this$ = esi

; 420  : 		_Myownedaux = new (_Alaux.allocate(1)) _Aux_cont(this);

	push	4
	call	??2@YAPAXI@Z				; operator new
	add	esp, 4
	test	eax, eax
	je	SHORT $LN3@Container_@2
	mov	DWORD PTR [eax], esi
	mov	DWORD PTR [esi], eax

; 421  : 		}

	mov	eax, esi
	ret	4
$LN3@Container_@2:

; 420  : 		_Myownedaux = new (_Alaux.allocate(1)) _Aux_cont(this);

	xor	eax, eax
	mov	DWORD PTR [esi], eax

; 421  : 		}

	mov	eax, esi
	ret	4
??0?$_Container_base_aux_alloc_real@V?$allocator@U?$pair@$$CBIPAVThreadInfo@@@std@@@std@@@std@@IAE@V?$allocator@U?$pair@$$CBIPAVThreadInfo@@@std@@@1@@Z ENDP ; std::_Container_base_aux_alloc_real<std::allocator<std::pair<unsigned int const ,ThreadInfo *> > >::_Container_base_aux_alloc_real<std::allocator<std::pair<unsigned int const ,ThreadInfo *> > >
; Function compile flags: /Ogtpy
_TEXT	ENDS
;	COMDAT ??0?$_Container_base_aux_alloc_real@V?$allocator@U?$pair@$$CBIH@std@@@std@@@std@@IAE@V?$allocator@U?$pair@$$CBIH@std@@@1@@Z
_TEXT	SEGMENT
__Al$ = 8						; size = 1
??0?$_Container_base_aux_alloc_real@V?$allocator@U?$pair@$$CBIH@std@@@std@@@std@@IAE@V?$allocator@U?$pair@$$CBIH@std@@@1@@Z PROC ; std::_Container_base_aux_alloc_real<std::allocator<std::pair<unsigned int const ,int> > >::_Container_base_aux_alloc_real<std::allocator<std::pair<unsigned int const ,int> > >, COMDAT
; _this$ = esi

; 420  : 		_Myownedaux = new (_Alaux.allocate(1)) _Aux_cont(this);

	push	4
	call	??2@YAPAXI@Z				; operator new
	add	esp, 4
	test	eax, eax
	je	SHORT $LN3@Container_@3
	mov	DWORD PTR [eax], esi
	mov	DWORD PTR [esi], eax

; 421  : 		}

	mov	eax, esi
	ret	4
$LN3@Container_@3:

; 420  : 		_Myownedaux = new (_Alaux.allocate(1)) _Aux_cont(this);

	xor	eax, eax
	mov	DWORD PTR [esi], eax

; 421  : 		}

	mov	eax, esi
	ret	4
??0?$_Container_base_aux_alloc_real@V?$allocator@U?$pair@$$CBIH@std@@@std@@@std@@IAE@V?$allocator@U?$pair@$$CBIH@std@@@1@@Z ENDP ; std::_Container_base_aux_alloc_real<std::allocator<std::pair<unsigned int const ,int> > >::_Container_base_aux_alloc_real<std::allocator<std::pair<unsigned int const ,int> > >
; Function compile flags: /Ogtpy
; File c:\program files\microsoft visual studio 9.0\vc\include\xmemory
_TEXT	ENDS
;	COMDAT ?construct@?$allocator@PAU_Node@?$_Tree_nod@V?$_Tmap_traits@KPAVThreadInfo@@U?$less@K@std@@V?$allocator@U?$pair@$$CBKPAVThreadInfo@@@std@@@3@$0A@@std@@@std@@@std@@QAEXPAPAU_Node@?$_Tree_nod@V?$_Tmap_traits@KPAVThreadInfo@@U?$less@K@std@@V?$allocator@U?$pair@$$CBKPAVThreadInfo@@@std@@@3@$0A@@std@@@2@ABQAU342@@Z
_TEXT	SEGMENT
?construct@?$allocator@PAU_Node@?$_Tree_nod@V?$_Tmap_traits@KPAVThreadInfo@@U?$less@K@std@@V?$allocator@U?$pair@$$CBKPAVThreadInfo@@@std@@@3@$0A@@std@@@std@@@std@@QAEXPAPAU_Node@?$_Tree_nod@V?$_Tmap_traits@KPAVThreadInfo@@U?$less@K@std@@V?$allocator@U?$pair@$$CBKPAVThreadInfo@@@std@@@3@$0A@@std@@@2@ABQAU342@@Z PROC ; std::allocator<std::_Tree_nod<std::_Tmap_traits<unsigned long,ThreadInfo *,std::less<unsigned long>,std::allocator<std::pair<unsigned long const ,ThreadInfo *> >,0> >::_Node *>::construct, COMDAT
; __Ptr$ = eax
; __Val$ = ecx

; 155  : 		_Construct(_Ptr, _Val);

	test	eax, eax
	je	SHORT $LN5@construct@2
	mov	edx, DWORD PTR [ecx]
	mov	DWORD PTR [eax], edx
$LN5@construct@2:

; 156  : 		}

	ret	0
?construct@?$allocator@PAU_Node@?$_Tree_nod@V?$_Tmap_traits@KPAVThreadInfo@@U?$less@K@std@@V?$allocator@U?$pair@$$CBKPAVThreadInfo@@@std@@@3@$0A@@std@@@std@@@std@@QAEXPAPAU_Node@?$_Tree_nod@V?$_Tmap_traits@KPAVThreadInfo@@U?$less@K@std@@V?$allocator@U?$pair@$$CBKPAVThreadInfo@@@std@@@3@$0A@@std@@@2@ABQAU342@@Z ENDP ; std::allocator<std::_Tree_nod<std::_Tmap_traits<unsigned long,ThreadInfo *,std::less<unsigned long>,std::allocator<std::pair<unsigned long const ,ThreadInfo *> >,0> >::_Node *>::construct
; Function compile flags: /Ogtpy
_TEXT	ENDS
;	COMDAT ?construct@?$allocator@PAU_Node@?$_Tree_nod@V?$_Tmap_traits@IPAVThreadInfo@@U?$less@I@std@@V?$allocator@U?$pair@$$CBIPAVThreadInfo@@@std@@@3@$0A@@std@@@std@@@std@@QAEXPAPAU_Node@?$_Tree_nod@V?$_Tmap_traits@IPAVThreadInfo@@U?$less@I@std@@V?$allocator@U?$pair@$$CBIPAVThreadInfo@@@std@@@3@$0A@@std@@@2@ABQAU342@@Z
_TEXT	SEGMENT
?construct@?$allocator@PAU_Node@?$_Tree_nod@V?$_Tmap_traits@IPAVThreadInfo@@U?$less@I@std@@V?$allocator@U?$pair@$$CBIPAVThreadInfo@@@std@@@3@$0A@@std@@@std@@@std@@QAEXPAPAU_Node@?$_Tree_nod@V?$_Tmap_traits@IPAVThreadInfo@@U?$less@I@std@@V?$allocator@U?$pair@$$CBIPAVThreadInfo@@@std@@@3@$0A@@std@@@2@ABQAU342@@Z PROC ; std::allocator<std::_Tree_nod<std::_Tmap_traits<unsigned int,ThreadInfo *,std::less<unsigned int>,std::allocator<std::pair<unsigned int const ,ThreadInfo *> >,0> >::_Node *>::construct, COMDAT
; __Ptr$ = eax
; __Val$ = ecx

; 155  : 		_Construct(_Ptr, _Val);

	test	eax, eax
	je	SHORT $LN5@construct@3
	mov	edx, DWORD PTR [ecx]
	mov	DWORD PTR [eax], edx
$LN5@construct@3:

; 156  : 		}

	ret	0
?construct@?$allocator@PAU_Node@?$_Tree_nod@V?$_Tmap_traits@IPAVThreadInfo@@U?$less@I@std@@V?$allocator@U?$pair@$$CBIPAVThreadInfo@@@std@@@3@$0A@@std@@@std@@@std@@QAEXPAPAU_Node@?$_Tree_nod@V?$_Tmap_traits@IPAVThreadInfo@@U?$less@I@std@@V?$allocator@U?$pair@$$CBIPAVThreadInfo@@@std@@@3@$0A@@std@@@2@ABQAU342@@Z ENDP ; std::allocator<std::_Tree_nod<std::_Tmap_traits<unsigned int,ThreadInfo *,std::less<unsigned int>,std::allocator<std::pair<unsigned int const ,ThreadInfo *> >,0> >::_Node *>::construct
; Function compile flags: /Ogtpy
_TEXT	ENDS
;	COMDAT ?construct@?$allocator@PAU_Node@?$_Tree_nod@V?$_Tmap_traits@IHU?$less@I@std@@V?$allocator@U?$pair@$$CBIH@std@@@2@$0A@@std@@@std@@@std@@QAEXPAPAU_Node@?$_Tree_nod@V?$_Tmap_traits@IHU?$less@I@std@@V?$allocator@U?$pair@$$CBIH@std@@@2@$0A@@std@@@2@ABQAU342@@Z
_TEXT	SEGMENT
?construct@?$allocator@PAU_Node@?$_Tree_nod@V?$_Tmap_traits@IHU?$less@I@std@@V?$allocator@U?$pair@$$CBIH@std@@@2@$0A@@std@@@std@@@std@@QAEXPAPAU_Node@?$_Tree_nod@V?$_Tmap_traits@IHU?$less@I@std@@V?$allocator@U?$pair@$$CBIH@std@@@2@$0A@@std@@@2@ABQAU342@@Z PROC ; std::allocator<std::_Tree_nod<std::_Tmap_traits<unsigned int,int,std::less<unsigned int>,std::allocator<std::pair<unsigned int const ,int> >,0> >::_Node *>::construct, COMDAT
; __Ptr$ = eax
; __Val$ = ecx

; 155  : 		_Construct(_Ptr, _Val);

	test	eax, eax
	je	SHORT $LN5@construct@4
	mov	edx, DWORD PTR [ecx]
	mov	DWORD PTR [eax], edx
$LN5@construct@4:

; 156  : 		}

	ret	0
?construct@?$allocator@PAU_Node@?$_Tree_nod@V?$_Tmap_traits@IHU?$less@I@std@@V?$allocator@U?$pair@$$CBIH@std@@@2@$0A@@std@@@std@@@std@@QAEXPAPAU_Node@?$_Tree_nod@V?$_Tmap_traits@IHU?$less@I@std@@V?$allocator@U?$pair@$$CBIH@std@@@2@$0A@@std@@@2@ABQAU342@@Z ENDP ; std::allocator<std::_Tree_nod<std::_Tmap_traits<unsigned int,int,std::less<unsigned int>,std::allocator<std::pair<unsigned int const ,int> >,0> >::_Node *>::construct
; Function compile flags: /Ogtpy
_TEXT	ENDS
;	COMDAT ?allocate@?$allocator@U_Node@?$_Tree_nod@V?$_Tmap_traits@KPAVThreadInfo@@U?$less@K@std@@V?$allocator@U?$pair@$$CBKPAVThreadInfo@@@std@@@3@$0A@@std@@@std@@@std@@QAEPAU_Node@?$_Tree_nod@V?$_Tmap_traits@KPAVThreadInfo@@U?$less@K@std@@V?$allocator@U?$pair@$$CBKPAVThreadInfo@@@std@@@3@$0A@@std@@@2@I@Z
_TEXT	SEGMENT
?allocate@?$allocator@U_Node@?$_Tree_nod@V?$_Tmap_traits@KPAVThreadInfo@@U?$less@K@std@@V?$allocator@U?$pair@$$CBKPAVThreadInfo@@@std@@@3@$0A@@std@@@std@@@std@@QAEPAU_Node@?$_Tree_nod@V?$_Tmap_traits@KPAVThreadInfo@@U?$less@K@std@@V?$allocator@U?$pair@$$CBKPAVThreadInfo@@@std@@@3@$0A@@std@@@2@I@Z PROC ; std::allocator<std::_Tree_nod<std::_Tmap_traits<unsigned long,ThreadInfo *,std::less<unsigned long>,std::allocator<std::pair<unsigned long const ,ThreadInfo *> >,0> >::_Node>::allocate, COMDAT

; 145  : 		return (_Allocate(_Count, (pointer)0));

	push	24					; 00000018H
	call	??2@YAPAXI@Z				; operator new
	add	esp, 4

; 146  : 		}

	ret	0
?allocate@?$allocator@U_Node@?$_Tree_nod@V?$_Tmap_traits@KPAVThreadInfo@@U?$less@K@std@@V?$allocator@U?$pair@$$CBKPAVThreadInfo@@@std@@@3@$0A@@std@@@std@@@std@@QAEPAU_Node@?$_Tree_nod@V?$_Tmap_traits@KPAVThreadInfo@@U?$less@K@std@@V?$allocator@U?$pair@$$CBKPAVThreadInfo@@@std@@@3@$0A@@std@@@2@I@Z ENDP ; std::allocator<std::_Tree_nod<std::_Tmap_traits<unsigned long,ThreadInfo *,std::less<unsigned long>,std::allocator<std::pair<unsigned long const ,ThreadInfo *> >,0> >::_Node>::allocate
; Function compile flags: /Ogtpy
; File c:\program files\microsoft visual studio 9.0\vc\include\xtree
_TEXT	ENDS
;	COMDAT ?_Buynode@?$_Tree@V?$_Tmap_traits@KPAVThreadInfo@@U?$less@K@std@@V?$allocator@U?$pair@$$CBKPAVThreadInfo@@@std@@@3@$0A@@std@@@std@@IAEPAU_Node@?$_Tree_nod@V?$_Tmap_traits@KPAVThreadInfo@@U?$less@K@std@@V?$allocator@U?$pair@$$CBKPAVThreadInfo@@@std@@@3@$0A@@std@@@2@XZ
_TEXT	SEGMENT
?_Buynode@?$_Tree@V?$_Tmap_traits@KPAVThreadInfo@@U?$less@K@std@@V?$allocator@U?$pair@$$CBKPAVThreadInfo@@@std@@@3@$0A@@std@@@std@@IAEPAU_Node@?$_Tree_nod@V?$_Tmap_traits@KPAVThreadInfo@@U?$less@K@std@@V?$allocator@U?$pair@$$CBKPAVThreadInfo@@@std@@@3@$0A@@std@@@2@XZ PROC ; std::_Tree<std::_Tmap_traits<unsigned long,ThreadInfo *,std::less<unsigned long>,std::allocator<std::pair<unsigned long const ,ThreadInfo *> >,0> >::_Buynode, COMDAT

; 1384 : 		_Nodeptr _Wherenode = this->_Alnod.allocate(1);

	push	24					; 00000018H
	call	??2@YAPAXI@Z				; operator new
	add	esp, 4

; 1385 : 		int _Linkcnt = 0;
; 1386 : 
; 1387 : 		_TRY_BEGIN
; 1388 : 		this->_Alptr.construct(&_Left(_Wherenode), 0);

	test	eax, eax
	je	SHORT $LN27@Buynode
	mov	DWORD PTR [eax], 0
$LN27@Buynode:

; 1389 : 		++_Linkcnt;
; 1390 : 		this->_Alptr.construct(&_Parent(_Wherenode), 0);

	lea	ecx, DWORD PTR [eax+4]
	test	ecx, ecx
	je	SHORT $LN37@Buynode
	mov	DWORD PTR [ecx], 0
$LN37@Buynode:

; 1391 : 		++_Linkcnt;
; 1392 : 		this->_Alptr.construct(&_Right(_Wherenode), 0);

	lea	ecx, DWORD PTR [eax+8]
	test	ecx, ecx
	je	SHORT $LN47@Buynode
	mov	DWORD PTR [ecx], 0
$LN47@Buynode:

; 1393 : 		_CATCH_ALL
; 1394 : 		if (1 < _Linkcnt)
; 1395 : 			this->_Alptr.destroy(&_Parent(_Wherenode));
; 1396 : 		if (0 < _Linkcnt)
; 1397 : 			this->_Alptr.destroy(&_Left(_Wherenode));
; 1398 : 		this->_Alnod.deallocate(_Wherenode, 1);
; 1399 : 		_RERAISE;
; 1400 : 		_CATCH_END
; 1401 : 		_Color(_Wherenode) = _Black;

	mov	BYTE PTR [eax+20], 1

; 1402 : 		_Isnil(_Wherenode) = false;

	mov	BYTE PTR [eax+21], 0

; 1403 : 		return (_Wherenode);
; 1404 : 		}

	ret	0
?_Buynode@?$_Tree@V?$_Tmap_traits@KPAVThreadInfo@@U?$less@K@std@@V?$allocator@U?$pair@$$CBKPAVThreadInfo@@@std@@@3@$0A@@std@@@std@@IAEPAU_Node@?$_Tree_nod@V?$_Tmap_traits@KPAVThreadInfo@@U?$less@K@std@@V?$allocator@U?$pair@$$CBKPAVThreadInfo@@@std@@@3@$0A@@std@@@2@XZ ENDP ; std::_Tree<std::_Tmap_traits<unsigned long,ThreadInfo *,std::less<unsigned long>,std::allocator<std::pair<unsigned long const ,ThreadInfo *> >,0> >::_Buynode
; Function compile flags: /Ogtpy
; File c:\program files\microsoft visual studio 9.0\vc\include\xmemory
_TEXT	ENDS
;	COMDAT ?allocate@?$allocator@U_Node@?$_Tree_nod@V?$_Tmap_traits@IPAVThreadInfo@@U?$less@I@std@@V?$allocator@U?$pair@$$CBIPAVThreadInfo@@@std@@@3@$0A@@std@@@std@@@std@@QAEPAU_Node@?$_Tree_nod@V?$_Tmap_traits@IPAVThreadInfo@@U?$less@I@std@@V?$allocator@U?$pair@$$CBIPAVThreadInfo@@@std@@@3@$0A@@std@@@2@I@Z
_TEXT	SEGMENT
?allocate@?$allocator@U_Node@?$_Tree_nod@V?$_Tmap_traits@IPAVThreadInfo@@U?$less@I@std@@V?$allocator@U?$pair@$$CBIPAVThreadInfo@@@std@@@3@$0A@@std@@@std@@@std@@QAEPAU_Node@?$_Tree_nod@V?$_Tmap_traits@IPAVThreadInfo@@U?$less@I@std@@V?$allocator@U?$pair@$$CBIPAVThreadInfo@@@std@@@3@$0A@@std@@@2@I@Z PROC ; std::allocator<std::_Tree_nod<std::_Tmap_traits<unsigned int,ThreadInfo *,std::less<unsigned int>,std::allocator<std::pair<unsigned int const ,ThreadInfo *> >,0> >::_Node>::allocate, COMDAT

; 145  : 		return (_Allocate(_Count, (pointer)0));

	push	24					; 00000018H
	call	??2@YAPAXI@Z				; operator new
	add	esp, 4

; 146  : 		}

	ret	0
?allocate@?$allocator@U_Node@?$_Tree_nod@V?$_Tmap_traits@IPAVThreadInfo@@U?$less@I@std@@V?$allocator@U?$pair@$$CBIPAVThreadInfo@@@std@@@3@$0A@@std@@@std@@@std@@QAEPAU_Node@?$_Tree_nod@V?$_Tmap_traits@IPAVThreadInfo@@U?$less@I@std@@V?$allocator@U?$pair@$$CBIPAVThreadInfo@@@std@@@3@$0A@@std@@@2@I@Z ENDP ; std::allocator<std::_Tree_nod<std::_Tmap_traits<unsigned int,ThreadInfo *,std::less<unsigned int>,std::allocator<std::pair<unsigned int const ,ThreadInfo *> >,0> >::_Node>::allocate
; Function compile flags: /Ogtpy
; File c:\program files\microsoft visual studio 9.0\vc\include\xtree
_TEXT	ENDS
;	COMDAT ?_Buynode@?$_Tree@V?$_Tmap_traits@IPAVThreadInfo@@U?$less@I@std@@V?$allocator@U?$pair@$$CBIPAVThreadInfo@@@std@@@3@$0A@@std@@@std@@IAEPAU_Node@?$_Tree_nod@V?$_Tmap_traits@IPAVThreadInfo@@U?$less@I@std@@V?$allocator@U?$pair@$$CBIPAVThreadInfo@@@std@@@3@$0A@@std@@@2@XZ
_TEXT	SEGMENT
?_Buynode@?$_Tree@V?$_Tmap_traits@IPAVThreadInfo@@U?$less@I@std@@V?$allocator@U?$pair@$$CBIPAVThreadInfo@@@std@@@3@$0A@@std@@@std@@IAEPAU_Node@?$_Tree_nod@V?$_Tmap_traits@IPAVThreadInfo@@U?$less@I@std@@V?$allocator@U?$pair@$$CBIPAVThreadInfo@@@std@@@3@$0A@@std@@@2@XZ PROC ; std::_Tree<std::_Tmap_traits<unsigned int,ThreadInfo *,std::less<unsigned int>,std::allocator<std::pair<unsigned int const ,ThreadInfo *> >,0> >::_Buynode, COMDAT

; 1384 : 		_Nodeptr _Wherenode = this->_Alnod.allocate(1);

	push	24					; 00000018H
	call	??2@YAPAXI@Z				; operator new
	add	esp, 4

; 1385 : 		int _Linkcnt = 0;
; 1386 : 
; 1387 : 		_TRY_BEGIN
; 1388 : 		this->_Alptr.construct(&_Left(_Wherenode), 0);

	test	eax, eax
	je	SHORT $LN27@Buynode@2
	mov	DWORD PTR [eax], 0
$LN27@Buynode@2:

; 1389 : 		++_Linkcnt;
; 1390 : 		this->_Alptr.construct(&_Parent(_Wherenode), 0);

	lea	ecx, DWORD PTR [eax+4]
	test	ecx, ecx
	je	SHORT $LN37@Buynode@2
	mov	DWORD PTR [ecx], 0
$LN37@Buynode@2:

; 1391 : 		++_Linkcnt;
; 1392 : 		this->_Alptr.construct(&_Right(_Wherenode), 0);

	lea	ecx, DWORD PTR [eax+8]
	test	ecx, ecx
	je	SHORT $LN47@Buynode@2
	mov	DWORD PTR [ecx], 0
$LN47@Buynode@2:

; 1393 : 		_CATCH_ALL
; 1394 : 		if (1 < _Linkcnt)
; 1395 : 			this->_Alptr.destroy(&_Parent(_Wherenode));
; 1396 : 		if (0 < _Linkcnt)
; 1397 : 			this->_Alptr.destroy(&_Left(_Wherenode));
; 1398 : 		this->_Alnod.deallocate(_Wherenode, 1);
; 1399 : 		_RERAISE;
; 1400 : 		_CATCH_END
; 1401 : 		_Color(_Wherenode) = _Black;

	mov	BYTE PTR [eax+20], 1

; 1402 : 		_Isnil(_Wherenode) = false;

	mov	BYTE PTR [eax+21], 0

; 1403 : 		return (_Wherenode);
; 1404 : 		}

	ret	0
?_Buynode@?$_Tree@V?$_Tmap_traits@IPAVThreadInfo@@U?$less@I@std@@V?$allocator@U?$pair@$$CBIPAVThreadInfo@@@std@@@3@$0A@@std@@@std@@IAEPAU_Node@?$_Tree_nod@V?$_Tmap_traits@IPAVThreadInfo@@U?$less@I@std@@V?$allocator@U?$pair@$$CBIPAVThreadInfo@@@std@@@3@$0A@@std@@@2@XZ ENDP ; std::_Tree<std::_Tmap_traits<unsigned int,ThreadInfo *,std::less<unsigned int>,std::allocator<std::pair<unsigned int const ,ThreadInfo *> >,0> >::_Buynode
; Function compile flags: /Ogtpy
; File c:\program files\microsoft visual studio 9.0\vc\include\xmemory
_TEXT	ENDS
;	COMDAT ?allocate@?$allocator@U_Node@?$_Tree_nod@V?$_Tmap_traits@IHU?$less@I@std@@V?$allocator@U?$pair@$$CBIH@std@@@2@$0A@@std@@@std@@@std@@QAEPAU_Node@?$_Tree_nod@V?$_Tmap_traits@IHU?$less@I@std@@V?$allocator@U?$pair@$$CBIH@std@@@2@$0A@@std@@@2@I@Z
_TEXT	SEGMENT
?allocate@?$allocator@U_Node@?$_Tree_nod@V?$_Tmap_traits@IHU?$less@I@std@@V?$allocator@U?$pair@$$CBIH@std@@@2@$0A@@std@@@std@@@std@@QAEPAU_Node@?$_Tree_nod@V?$_Tmap_traits@IHU?$less@I@std@@V?$allocator@U?$pair@$$CBIH@std@@@2@$0A@@std@@@2@I@Z PROC ; std::allocator<std::_Tree_nod<std::_Tmap_traits<unsigned int,int,std::less<unsigned int>,std::allocator<std::pair<unsigned int const ,int> >,0> >::_Node>::allocate, COMDAT

; 145  : 		return (_Allocate(_Count, (pointer)0));

	push	24					; 00000018H
	call	??2@YAPAXI@Z				; operator new
	add	esp, 4

; 146  : 		}

	ret	0
?allocate@?$allocator@U_Node@?$_Tree_nod@V?$_Tmap_traits@IHU?$less@I@std@@V?$allocator@U?$pair@$$CBIH@std@@@2@$0A@@std@@@std@@@std@@QAEPAU_Node@?$_Tree_nod@V?$_Tmap_traits@IHU?$less@I@std@@V?$allocator@U?$pair@$$CBIH@std@@@2@$0A@@std@@@2@I@Z ENDP ; std::allocator<std::_Tree_nod<std::_Tmap_traits<unsigned int,int,std::less<unsigned int>,std::allocator<std::pair<unsigned int const ,int> >,0> >::_Node>::allocate
; Function compile flags: /Ogtpy
; File c:\program files\microsoft visual studio 9.0\vc\include\xtree
_TEXT	ENDS
;	COMDAT ?_Buynode@?$_Tree@V?$_Tmap_traits@IHU?$less@I@std@@V?$allocator@U?$pair@$$CBIH@std@@@2@$0A@@std@@@std@@IAEPAU_Node@?$_Tree_nod@V?$_Tmap_traits@IHU?$less@I@std@@V?$allocator@U?$pair@$$CBIH@std@@@2@$0A@@std@@@2@XZ
_TEXT	SEGMENT
?_Buynode@?$_Tree@V?$_Tmap_traits@IHU?$less@I@std@@V?$allocator@U?$pair@$$CBIH@std@@@2@$0A@@std@@@std@@IAEPAU_Node@?$_Tree_nod@V?$_Tmap_traits@IHU?$less@I@std@@V?$allocator@U?$pair@$$CBIH@std@@@2@$0A@@std@@@2@XZ PROC ; std::_Tree<std::_Tmap_traits<unsigned int,int,std::less<unsigned int>,std::allocator<std::pair<unsigned int const ,int> >,0> >::_Buynode, COMDAT

; 1384 : 		_Nodeptr _Wherenode = this->_Alnod.allocate(1);

	push	24					; 00000018H
	call	??2@YAPAXI@Z				; operator new
	add	esp, 4

; 1385 : 		int _Linkcnt = 0;
; 1386 : 
; 1387 : 		_TRY_BEGIN
; 1388 : 		this->_Alptr.construct(&_Left(_Wherenode), 0);

	test	eax, eax
	je	SHORT $LN27@Buynode@3
	mov	DWORD PTR [eax], 0
$LN27@Buynode@3:

; 1389 : 		++_Linkcnt;
; 1390 : 		this->_Alptr.construct(&_Parent(_Wherenode), 0);

	lea	ecx, DWORD PTR [eax+4]
	test	ecx, ecx
	je	SHORT $LN37@Buynode@3
	mov	DWORD PTR [ecx], 0
$LN37@Buynode@3:

; 1391 : 		++_Linkcnt;
; 1392 : 		this->_Alptr.construct(&_Right(_Wherenode), 0);

	lea	ecx, DWORD PTR [eax+8]
	test	ecx, ecx
	je	SHORT $LN47@Buynode@3
	mov	DWORD PTR [ecx], 0
$LN47@Buynode@3:

; 1393 : 		_CATCH_ALL
; 1394 : 		if (1 < _Linkcnt)
; 1395 : 			this->_Alptr.destroy(&_Parent(_Wherenode));
; 1396 : 		if (0 < _Linkcnt)
; 1397 : 			this->_Alptr.destroy(&_Left(_Wherenode));
; 1398 : 		this->_Alnod.deallocate(_Wherenode, 1);
; 1399 : 		_RERAISE;
; 1400 : 		_CATCH_END
; 1401 : 		_Color(_Wherenode) = _Black;

	mov	BYTE PTR [eax+20], 1

; 1402 : 		_Isnil(_Wherenode) = false;

	mov	BYTE PTR [eax+21], 0

; 1403 : 		return (_Wherenode);
; 1404 : 		}

	ret	0
?_Buynode@?$_Tree@V?$_Tmap_traits@IHU?$less@I@std@@V?$allocator@U?$pair@$$CBIH@std@@@2@$0A@@std@@@std@@IAEPAU_Node@?$_Tree_nod@V?$_Tmap_traits@IHU?$less@I@std@@V?$allocator@U?$pair@$$CBIH@std@@@2@$0A@@std@@@2@XZ ENDP ; std::_Tree<std::_Tmap_traits<unsigned int,int,std::less<unsigned int>,std::allocator<std::pair<unsigned int const ,int> >,0> >::_Buynode
; Function compile flags: /Ogtpy
_TEXT	ENDS
;	COMDAT ?_Buynode@?$_Tree@V?$_Tmap_traits@KPAVThreadInfo@@U?$less@K@std@@V?$allocator@U?$pair@$$CBKPAVThreadInfo@@@std@@@3@$0A@@std@@@std@@IAEPAU_Node@?$_Tree_nod@V?$_Tmap_traits@KPAVThreadInfo@@U?$less@K@std@@V?$allocator@U?$pair@$$CBKPAVThreadInfo@@@std@@@3@$0A@@std@@@2@PAU342@00ABU?$pair@$$CBKPAVThreadInfo@@@2@D@Z
_TEXT	SEGMENT
__Larg$ = 8						; size = 4
__Parg$ = 12						; size = 4
__Rarg$ = 16						; size = 4
?_Buynode@?$_Tree@V?$_Tmap_traits@KPAVThreadInfo@@U?$less@K@std@@V?$allocator@U?$pair@$$CBKPAVThreadInfo@@@std@@@3@$0A@@std@@@std@@IAEPAU_Node@?$_Tree_nod@V?$_Tmap_traits@KPAVThreadInfo@@U?$less@K@std@@V?$allocator@U?$pair@$$CBKPAVThreadInfo@@@std@@@3@$0A@@std@@@2@PAU342@00ABU?$pair@$$CBKPAVThreadInfo@@@2@D@Z PROC ; std::_Tree<std::_Tmap_traits<unsigned long,ThreadInfo *,std::less<unsigned long>,std::allocator<std::pair<unsigned long const ,ThreadInfo *> >,0> >::_Buynode, COMDAT
; __Val$ = esi

; 1409 : 		_Nodeptr _Wherenode = this->_Alnod.allocate(1);

	push	24					; 00000018H
	call	??2@YAPAXI@Z				; operator new

; 1410 : 		_TRY_BEGIN
; 1411 : 		new (_Wherenode) _Node(_Larg, _Parg, _Rarg, _Val, _Carg);

	xor	ecx, ecx
	add	esp, 4
	cmp	eax, ecx
	je	SHORT $LN4@Buynode@4
	mov	edx, DWORD PTR __Larg$[esp-4]
	mov	DWORD PTR [eax], edx
	mov	edx, DWORD PTR __Parg$[esp-4]
	mov	DWORD PTR [eax+4], edx
	mov	edx, DWORD PTR __Rarg$[esp-4]
	mov	DWORD PTR [eax+8], edx
	mov	edx, DWORD PTR [esi]
	mov	DWORD PTR [eax+12], edx
	mov	edx, DWORD PTR [esi+4]
	mov	DWORD PTR [eax+16], edx
	mov	BYTE PTR [eax+20], cl
	mov	BYTE PTR [eax+21], cl
$LN4@Buynode@4:

; 1412 : 		_CATCH_ALL
; 1413 : 		this->_Alnod.deallocate(_Wherenode, 1);
; 1414 : 		_RERAISE;
; 1415 : 		_CATCH_END
; 1416 : 		return (_Wherenode);
; 1417 : 		}

	ret	12					; 0000000cH
?_Buynode@?$_Tree@V?$_Tmap_traits@KPAVThreadInfo@@U?$less@K@std@@V?$allocator@U?$pair@$$CBKPAVThreadInfo@@@std@@@3@$0A@@std@@@std@@IAEPAU_Node@?$_Tree_nod@V?$_Tmap_traits@KPAVThreadInfo@@U?$less@K@std@@V?$allocator@U?$pair@$$CBKPAVThreadInfo@@@std@@@3@$0A@@std@@@2@PAU342@00ABU?$pair@$$CBKPAVThreadInfo@@@2@D@Z ENDP ; std::_Tree<std::_Tmap_traits<unsigned long,ThreadInfo *,std::less<unsigned long>,std::allocator<std::pair<unsigned long const ,ThreadInfo *> >,0> >::_Buynode
; Function compile flags: /Ogtpy
_TEXT	ENDS
;	COMDAT ?_Buynode@?$_Tree@V?$_Tmap_traits@IPAVThreadInfo@@U?$less@I@std@@V?$allocator@U?$pair@$$CBIPAVThreadInfo@@@std@@@3@$0A@@std@@@std@@IAEPAU_Node@?$_Tree_nod@V?$_Tmap_traits@IPAVThreadInfo@@U?$less@I@std@@V?$allocator@U?$pair@$$CBIPAVThreadInfo@@@std@@@3@$0A@@std@@@2@PAU342@00ABU?$pair@$$CBIPAVThreadInfo@@@2@D@Z
_TEXT	SEGMENT
__Larg$ = 8						; size = 4
__Parg$ = 12						; size = 4
__Rarg$ = 16						; size = 4
?_Buynode@?$_Tree@V?$_Tmap_traits@IPAVThreadInfo@@U?$less@I@std@@V?$allocator@U?$pair@$$CBIPAVThreadInfo@@@std@@@3@$0A@@std@@@std@@IAEPAU_Node@?$_Tree_nod@V?$_Tmap_traits@IPAVThreadInfo@@U?$less@I@std@@V?$allocator@U?$pair@$$CBIPAVThreadInfo@@@std@@@3@$0A@@std@@@2@PAU342@00ABU?$pair@$$CBIPAVThreadInfo@@@2@D@Z PROC ; std::_Tree<std::_Tmap_traits<unsigned int,ThreadInfo *,std::less<unsigned int>,std::allocator<std::pair<unsigned int const ,ThreadInfo *> >,0> >::_Buynode, COMDAT
; __Val$ = esi

; 1409 : 		_Nodeptr _Wherenode = this->_Alnod.allocate(1);

	push	24					; 00000018H
	call	??2@YAPAXI@Z				; operator new

; 1410 : 		_TRY_BEGIN
; 1411 : 		new (_Wherenode) _Node(_Larg, _Parg, _Rarg, _Val, _Carg);

	xor	ecx, ecx
	add	esp, 4
	cmp	eax, ecx
	je	SHORT $LN4@Buynode@5
	mov	edx, DWORD PTR __Larg$[esp-4]
	mov	DWORD PTR [eax], edx
	mov	edx, DWORD PTR __Parg$[esp-4]
	mov	DWORD PTR [eax+4], edx
	mov	edx, DWORD PTR __Rarg$[esp-4]
	mov	DWORD PTR [eax+8], edx
	mov	edx, DWORD PTR [esi]
	mov	DWORD PTR [eax+12], edx
	mov	edx, DWORD PTR [esi+4]
	mov	DWORD PTR [eax+16], edx
	mov	BYTE PTR [eax+20], cl
	mov	BYTE PTR [eax+21], cl
$LN4@Buynode@5:

; 1412 : 		_CATCH_ALL
; 1413 : 		this->_Alnod.deallocate(_Wherenode, 1);
; 1414 : 		_RERAISE;
; 1415 : 		_CATCH_END
; 1416 : 		return (_Wherenode);
; 1417 : 		}

	ret	12					; 0000000cH
?_Buynode@?$_Tree@V?$_Tmap_traits@IPAVThreadInfo@@U?$less@I@std@@V?$allocator@U?$pair@$$CBIPAVThreadInfo@@@std@@@3@$0A@@std@@@std@@IAEPAU_Node@?$_Tree_nod@V?$_Tmap_traits@IPAVThreadInfo@@U?$less@I@std@@V?$allocator@U?$pair@$$CBIPAVThreadInfo@@@std@@@3@$0A@@std@@@2@PAU342@00ABU?$pair@$$CBIPAVThreadInfo@@@2@D@Z ENDP ; std::_Tree<std::_Tmap_traits<unsigned int,ThreadInfo *,std::less<unsigned int>,std::allocator<std::pair<unsigned int const ,ThreadInfo *> >,0> >::_Buynode
; Function compile flags: /Ogtpy
_TEXT	ENDS
;	COMDAT ?_Buynode@?$_Tree@V?$_Tmap_traits@IHU?$less@I@std@@V?$allocator@U?$pair@$$CBIH@std@@@2@$0A@@std@@@std@@IAEPAU_Node@?$_Tree_nod@V?$_Tmap_traits@IHU?$less@I@std@@V?$allocator@U?$pair@$$CBIH@std@@@2@$0A@@std@@@2@PAU342@00ABU?$pair@$$CBIH@2@D@Z
_TEXT	SEGMENT
__Larg$ = 8						; size = 4
__Parg$ = 12						; size = 4
__Rarg$ = 16						; size = 4
?_Buynode@?$_Tree@V?$_Tmap_traits@IHU?$less@I@std@@V?$allocator@U?$pair@$$CBIH@std@@@2@$0A@@std@@@std@@IAEPAU_Node@?$_Tree_nod@V?$_Tmap_traits@IHU?$less@I@std@@V?$allocator@U?$pair@$$CBIH@std@@@2@$0A@@std@@@2@PAU342@00ABU?$pair@$$CBIH@2@D@Z PROC ; std::_Tree<std::_Tmap_traits<unsigned int,int,std::less<unsigned int>,std::allocator<std::pair<unsigned int const ,int> >,0> >::_Buynode, COMDAT
; __Val$ = esi

; 1409 : 		_Nodeptr _Wherenode = this->_Alnod.allocate(1);

	push	24					; 00000018H
	call	??2@YAPAXI@Z				; operator new

; 1410 : 		_TRY_BEGIN
; 1411 : 		new (_Wherenode) _Node(_Larg, _Parg, _Rarg, _Val, _Carg);

	xor	ecx, ecx
	add	esp, 4
	cmp	eax, ecx
	je	SHORT $LN4@Buynode@6
	mov	edx, DWORD PTR __Larg$[esp-4]
	mov	DWORD PTR [eax], edx
	mov	edx, DWORD PTR __Parg$[esp-4]
	mov	DWORD PTR [eax+4], edx
	mov	edx, DWORD PTR __Rarg$[esp-4]
	mov	DWORD PTR [eax+8], edx
	mov	edx, DWORD PTR [esi]
	mov	DWORD PTR [eax+12], edx
	mov	edx, DWORD PTR [esi+4]
	mov	DWORD PTR [eax+16], edx
	mov	BYTE PTR [eax+20], cl
	mov	BYTE PTR [eax+21], cl
$LN4@Buynode@6:

; 1412 : 		_CATCH_ALL
; 1413 : 		this->_Alnod.deallocate(_Wherenode, 1);
; 1414 : 		_RERAISE;
; 1415 : 		_CATCH_END
; 1416 : 		return (_Wherenode);
; 1417 : 		}

	ret	12					; 0000000cH
?_Buynode@?$_Tree@V?$_Tmap_traits@IHU?$less@I@std@@V?$allocator@U?$pair@$$CBIH@std@@@2@$0A@@std@@@std@@IAEPAU_Node@?$_Tree_nod@V?$_Tmap_traits@IHU?$less@I@std@@V?$allocator@U?$pair@$$CBIH@std@@@2@$0A@@std@@@2@PAU342@00ABU?$pair@$$CBIH@2@D@Z ENDP ; std::_Tree<std::_Tmap_traits<unsigned int,int,std::less<unsigned int>,std::allocator<std::pair<unsigned int const ,int> >,0> >::_Buynode
_TEXT	ENDS
;	COMDAT xdata$x
xdata$x	SEGMENT
__unwindtable$??0length_error@std@@QAE@ABV01@@Z DD 0ffffffffH
	DD	FLAT:__unwindfunclet$??0length_error@std@@QAE@ABV01@@Z$1
__ehfuncinfo$??0length_error@std@@QAE@ABV01@@Z DD 019930522H
	DD	01H
	DD	FLAT:__unwindtable$??0length_error@std@@QAE@ABV01@@Z
	DD	2 DUP(00H)
	DD	2 DUP(00H)
	DD	00H
	DD	01H
; Function compile flags: /Ogtpy
xdata$x	ENDS
;	COMDAT ??0length_error@std@@QAE@ABV01@@Z
_TEXT	SEGMENT
_this$ = -16						; size = 4
__$EHRec$ = -12						; size = 12
___that$ = 8						; size = 4
??0length_error@std@@QAE@ABV01@@Z PROC			; std::length_error::length_error, COMDAT
; _this$ = ecx
	push	-1
	push	__ehhandler$??0length_error@std@@QAE@ABV01@@Z
	mov	eax, DWORD PTR fs:0
	push	eax
	mov	DWORD PTR fs:0, esp
	push	ecx
	push	esi
	push	edi
	mov	edi, DWORD PTR ___that$[esp+20]
	mov	esi, ecx
	push	edi
	mov	DWORD PTR _this$[esp+28], esi
	call	DWORD PTR __imp_??0exception@std@@QAE@ABV01@@Z
	add	edi, 12					; 0000000cH
	mov	DWORD PTR __$EHRec$[esp+32], 0
	push	edi
	lea	ecx, DWORD PTR [esi+12]
	mov	DWORD PTR [esi], OFFSET ??_7logic_error@std@@6B@
	call	DWORD PTR __imp_??0?$basic_string@DU?$char_traits@D@std@@V?$allocator@D@2@@std@@QAE@ABV01@@Z
	mov	ecx, DWORD PTR __$EHRec$[esp+24]
	mov	DWORD PTR [esi], OFFSET ??_7length_error@std@@6B@
	pop	edi
	mov	eax, esi
	pop	esi
	mov	DWORD PTR fs:0, ecx
	add	esp, 16					; 00000010H
	ret	4
_TEXT	ENDS
;	COMDAT text$x
text$x	SEGMENT
__unwindfunclet$??0length_error@std@@QAE@ABV01@@Z$1:
	mov	ecx, DWORD PTR _this$[ebp]
	jmp	DWORD PTR __imp_??1exception@std@@UAE@XZ
__ehhandler$??0length_error@std@@QAE@ABV01@@Z:
	mov	eax, OFFSET __ehfuncinfo$??0length_error@std@@QAE@ABV01@@Z
	jmp	___CxxFrameHandler3
text$x	ENDS
??0length_error@std@@QAE@ABV01@@Z ENDP			; std::length_error::length_error
EXTRN	_memcpy:PROC
; Function compile flags: /Ogtpy
; File c:\local\sharpdevelop_3.2.0.5777_source\src\addins\misc\profiler\hook\lightweightstack.h
;	COMDAT ?Enlarge@?$LightweightStack@UStackEntry@@@@QAEXXZ
_TEXT	SEGMENT
?Enlarge@?$LightweightStack@UStackEntry@@@@QAEXXZ PROC	; LightweightStack<StackEntry>::Enlarge, COMDAT
; _this$ = esi

; 25   : 		ptrdiff_t capacity = (arrayEnd - array);

	mov	ecx, DWORD PTR [esi+8]
	push	ebx
	push	ebp
	push	edi
	mov	edi, DWORD PTR [esi]
	sub	ecx, edi
	mov	eax, 715827883				; 2aaaaaabH
	imul	ecx
	sar	edx, 2
	mov	ecx, edx
	shr	ecx, 31					; 0000001fH
	add	ecx, edx

; 26   : 		ptrdiff_t newCapacity = 2 * capacity;
; 27   : 		ptrdiff_t topIndex = topPointer - array;

	mov	edx, DWORD PTR [esi+4]
	sub	edx, edi
	mov	eax, 715827883				; 2aaaaaabH
	imul	edx
	lea	ebx, DWORD PTR [ecx+ecx]

; 28   : 		T *newArray = (T *)stackAllocator.malloc(newCapacity * sizeof(T));

	lea	ebx, DWORD PTR [ebx+ebx*2]
	sar	edx, 2
	add	ebx, ebx
	mov	edi, edx
	add	ebx, ebx
	shr	edi, 31					; 0000001fH
	add	ebx, ebx
	add	edi, edx
	mov	ebp, ebx
	mov	eax, OFFSET ?stackAllocator@@3UfastAllocator@@A+4
	lock	 xadd	 DWORD PTR [eax], ebp
	mov	edx, DWORD PTR ?stackAllocator@@3UfastAllocator@@A+8
	sub	edx, ebp
	xor	eax, eax
	cmp	edx, ebx

; 29   : 		memcpy(newArray, array, capacity * sizeof(T));

	mov	edx, DWORD PTR [esi]
	setle	al
	lea	ecx, DWORD PTR [ecx+ecx*2]
	add	ecx, ecx
	add	ecx, ecx
	add	ecx, ecx
	push	ecx
	push	edx
	dec	eax
	and	ebp, eax
	push	ebp
	call	_memcpy
	add	esp, 12					; 0000000cH

; 30   : 		stackAllocator.free(array, capacity * sizeof(T));
; 31   : 		array = newArray;
; 32   : 		arrayEnd = newArray + newCapacity;
; 33   : 		topPointer = newArray + topIndex;

	lea	eax, DWORD PTR [edi+edi*2]
	add	ebx, ebp
	pop	edi
	lea	ecx, DWORD PTR [ebp+eax*8]
	mov	DWORD PTR [esi], ebp
	pop	ebp
	mov	DWORD PTR [esi+8], ebx
	mov	DWORD PTR [esi+4], ecx
	pop	ebx

; 34   : 	}

	ret	0
?Enlarge@?$LightweightStack@UStackEntry@@@@QAEXXZ ENDP	; LightweightStack<StackEntry>::Enlarge
; Function compile flags: /Ogtpy
_TEXT	ENDS
;	COMDAT ?push@?$LightweightStack@UStackEntry@@@@QAEXABUStackEntry@@@Z
_TEXT	SEGMENT
?push@?$LightweightStack@UStackEntry@@@@QAEXABUStackEntry@@@Z PROC ; LightweightStack<StackEntry>::push, COMDAT
; _this$ = eax
; _value$ = edi

; 68   : 	void push(const T& value) {

	push	esi
	mov	esi, eax

; 69   : 		++topPointer;

	add	DWORD PTR [esi+4], 24			; 00000018H
	mov	eax, DWORD PTR [esi+4]

; 70   : 		if (topPointer == arrayEnd)

	cmp	eax, DWORD PTR [esi+8]
	jne	SHORT $LN1@push

; 71   : 			Enlarge();

	call	?Enlarge@?$LightweightStack@UStackEntry@@@@QAEXXZ ; LightweightStack<StackEntry>::Enlarge
$LN1@push:

; 72   : 		assert(topPointer < arrayEnd);
; 73   : 		*topPointer = value;

	mov	eax, DWORD PTR [esi+4]
	mov	ecx, DWORD PTR [edi]
	mov	DWORD PTR [eax], ecx
	mov	edx, DWORD PTR [edi+4]
	mov	DWORD PTR [eax+4], edx
	mov	ecx, DWORD PTR [edi+8]
	mov	DWORD PTR [eax+8], ecx
	mov	edx, DWORD PTR [edi+12]
	mov	DWORD PTR [eax+12], edx
	mov	ecx, DWORD PTR [edi+16]
	mov	DWORD PTR [eax+16], ecx
	mov	edx, DWORD PTR [edi+20]
	mov	DWORD PTR [eax+20], edx
	pop	esi

; 74   : 	}

	ret	0
?push@?$LightweightStack@UStackEntry@@@@QAEXABUStackEntry@@@Z ENDP ; LightweightStack<StackEntry>::push
_TEXT	ENDS
PUBLIC	?MovedRootChild@CProfiler@@QAEXPAUFunctionInfo@@@Z ; CProfiler::MovedRootChild
; Function compile flags: /Ogtpy
; File c:\local\sharpdevelop_3.2.0.5777_source\src\addins\misc\profiler\hook\profiler.cpp
;	COMDAT ?MovedRootChild@CProfiler@@QAEXPAUFunctionInfo@@@Z
_TEXT	SEGMENT
_newRootChild$ = 8					; size = 4
?MovedRootChild@CProfiler@@QAEXPAUFunctionInfo@@@Z PROC	; CProfiler::MovedRootChild, COMDAT

; 228  : {

	push	ebx
	mov	ebx, DWORD PTR _newRootChild$[esp]
	push	esi
	push	edi

; 229  : 	rootElementCriticalSection.Enter();

	push	OFFSET ?profiler@@3VCProfiler@@A+44
	call	DWORD PTR __imp__EnterCriticalSection@4

; 230  : 	sharedMemoryHeader->RootFuncInfo->AddOrUpdateChild(newRootChild);

	mov	eax, DWORD PTR ?sharedMemoryHeader@@3PAUSharedMemoryHeader@@A ; sharedMemoryHeader
	mov	edx, DWORD PTR [eax+36]
	mov	edi, DWORD PTR [ebx]
	mov	esi, DWORD PTR [edx+20]
	mov	eax, edi
	and	eax, esi
	mov	ecx, DWORD PTR [edx+eax*4+24]
	test	ecx, ecx
	je	SHORT $LN14@MovedRootC
	npad	5
$LL8@MovedRootC:
	cmp	DWORD PTR [ecx], edi
	je	SHORT $LN14@MovedRootC
	inc	eax
	and	eax, esi
	mov	ecx, DWORD PTR [edx+eax*4+24]
	test	ecx, ecx
	jne	SHORT $LL8@MovedRootC
$LN14@MovedRootC:
	pop	edi
	pop	esi
	mov	DWORD PTR [edx+eax*4+24], ebx
	pop	ebx

; 231  : 	rootElementCriticalSection.Leave();

	mov	DWORD PTR _newRootChild$[esp-4], OFFSET ?profiler@@3VCProfiler@@A+44
	jmp	DWORD PTR __imp__LeaveCriticalSection@4
?MovedRootChild@CProfiler@@QAEXPAUFunctionInfo@@@Z ENDP	; CProfiler::MovedRootChild
; Function compile flags: /Ogtpy
_TEXT	ENDS
;	COMDAT ?QueryInterface@CProfiler@@UAGJABU_GUID@@PAPAX@Z
_TEXT	SEGMENT
_this$ = 8						; size = 4
_riid$ = 12						; size = 4
_ppv$ = 16						; size = 4
?QueryInterface@CProfiler@@UAGJABU_GUID@@PAPAX@Z PROC	; CProfiler::QueryInterface, COMDAT

; 32   : {

	push	esi

; 33   :   *ppv = nullptr;
; 34   :   if(IsEqualIID(riid, IID_IUnknown) ||
; 35   : 	 IsEqualIID(riid, IID_ICorProfilerCallback) ||
; 36   : 	 IsEqualIID(riid, IID_ICorProfilerCallback2)) {

	mov	esi, DWORD PTR _riid$[esp]
	push	edi
	mov	edi, DWORD PTR _ppv$[esp+4]
	mov	ecx, OFFSET _IID_IUnknown
	mov	edx, esi
	mov	DWORD PTR [edi], 0
	call	_IsEqualGUID
	test	eax, eax
	jne	SHORT $LN1@QueryInter
	mov	ecx, OFFSET _IID_ICorProfilerCallback
	mov	edx, esi
	call	_IsEqualGUID
	test	eax, eax
	jne	SHORT $LN1@QueryInter
	mov	ecx, OFFSET _IID_ICorProfilerCallback2
	mov	edx, esi
	call	_IsEqualGUID
	test	eax, eax
	jne	SHORT $LN1@QueryInter
	pop	edi

; 41   :   }
; 42   :   return E_NOINTERFACE;

	mov	eax, -2147467262			; 80004002H
	pop	esi

; 43   : }

	ret	12					; 0000000cH
$LN1@QueryInter:

; 37   : 
; 38   :     *ppv = this;  

	mov	eax, DWORD PTR _this$[esp+4]
	mov	DWORD PTR [edi], eax
	pop	edi

; 39   : 
; 40   :     return S_OK;

	xor	eax, eax
	pop	esi

; 43   : }

	ret	12					; 0000000cH
?QueryInterface@CProfiler@@UAGJABU_GUID@@PAPAX@Z ENDP	; CProfiler::QueryInterface
; Function compile flags: /Ogtpy
; File c:\program files\microsoft visual studio 9.0\vc\include\stdexcept
_TEXT	ENDS
;	COMDAT ??1length_error@std@@UAE@XZ
_TEXT	SEGMENT
??1length_error@std@@UAE@XZ PROC			; std::length_error::~length_error, COMDAT
; _this$ = ecx

; 109  : 		{	// destroy the object

	push	esi
	mov	esi, ecx

; 110  : 		}

	lea	ecx, DWORD PTR [esi+12]
	mov	DWORD PTR [esi], OFFSET ??_7logic_error@std@@6B@
	call	DWORD PTR __imp_??1?$basic_string@DU?$char_traits@D@std@@V?$allocator@D@2@@std@@QAE@XZ
	mov	ecx, esi
	pop	esi
	jmp	DWORD PTR __imp_??1exception@std@@UAE@XZ
??1length_error@std@@UAE@XZ ENDP			; std::length_error::~length_error
_TEXT	ENDS
;	COMDAT xdata$x
xdata$x	SEGMENT
__unwindtable$??0length_error@std@@QAE@ABV?$basic_string@DU?$char_traits@D@std@@V?$allocator@D@2@@1@@Z DD 0ffffffffH
	DD	FLAT:__unwindfunclet$??0length_error@std@@QAE@ABV?$basic_string@DU?$char_traits@D@std@@V?$allocator@D@2@@1@@Z$1
__ehfuncinfo$??0length_error@std@@QAE@ABV?$basic_string@DU?$char_traits@D@std@@V?$allocator@D@2@@1@@Z DD 019930522H
	DD	01H
	DD	FLAT:__unwindtable$??0length_error@std@@QAE@ABV?$basic_string@DU?$char_traits@D@std@@V?$allocator@D@2@@1@@Z
	DD	2 DUP(00H)
	DD	2 DUP(00H)
	DD	00H
	DD	01H
; Function compile flags: /Ogtpy
xdata$x	ENDS
;	COMDAT ??0length_error@std@@QAE@ABV?$basic_string@DU?$char_traits@D@std@@V?$allocator@D@2@@1@@Z
_TEXT	SEGMENT
__$EHRec$ = -12						; size = 12
_this$ = 8						; size = 4
__Message$ = 12						; size = 4
??0length_error@std@@QAE@ABV?$basic_string@DU?$char_traits@D@std@@V?$allocator@D@2@@1@@Z PROC ; std::length_error::length_error, COMDAT

; 105  : 		{	// construct from message string

	mov	eax, DWORD PTR fs:0
	push	-1
	push	__ehhandler$??0length_error@std@@QAE@ABV?$basic_string@DU?$char_traits@D@std@@V?$allocator@D@2@@1@@Z
	push	eax
	mov	DWORD PTR fs:0, esp
	push	esi
	mov	esi, DWORD PTR _this$[esp+12]
	mov	ecx, esi
	call	DWORD PTR __imp_??0exception@std@@QAE@XZ
	mov	eax, DWORD PTR __Message$[esp+12]
	mov	DWORD PTR __$EHRec$[esp+24], 0
	push	eax
	lea	ecx, DWORD PTR [esi+12]
	mov	DWORD PTR [esi], OFFSET ??_7logic_error@std@@6B@
	call	DWORD PTR __imp_??0?$basic_string@DU?$char_traits@D@std@@V?$allocator@D@2@@std@@QAE@ABV01@@Z

; 106  : 		}

	mov	ecx, DWORD PTR __$EHRec$[esp+16]
	mov	DWORD PTR [esi], OFFSET ??_7length_error@std@@6B@
	mov	eax, esi
	mov	DWORD PTR fs:0, ecx
	pop	esi
	add	esp, 12					; 0000000cH
	ret	8
_TEXT	ENDS
;	COMDAT text$x
text$x	SEGMENT
__unwindfunclet$??0length_error@std@@QAE@ABV?$basic_string@DU?$char_traits@D@std@@V?$allocator@D@2@@1@@Z$1:
	mov	ecx, DWORD PTR _this$[ebp-4]
	jmp	DWORD PTR __imp_??1exception@std@@UAE@XZ
__ehhandler$??0length_error@std@@QAE@ABV?$basic_string@DU?$char_traits@D@std@@V?$allocator@D@2@@1@@Z:
	mov	eax, OFFSET __ehfuncinfo$??0length_error@std@@QAE@ABV?$basic_string@DU?$char_traits@D@std@@V?$allocator@D@2@@1@@Z
	jmp	___CxxFrameHandler3
text$x	ENDS
??0length_error@std@@QAE@ABV?$basic_string@DU?$char_traits@D@std@@V?$allocator@D@2@@1@@Z ENDP ; std::length_error::length_error
; Function compile flags: /Ogtpy
; File c:\program files\microsoft visual studio 9.0\vc\include\xutility
;	COMDAT ?_Getmycont@_Iterator_base_aux@std@@QBEPBV_Container_base_aux@2@XZ
_TEXT	SEGMENT
?_Getmycont@_Iterator_base_aux@std@@QBEPBV_Container_base_aux@2@XZ PROC ; std::_Iterator_base_aux::_Getmycont, COMDAT
; _this$ = eax

; 458  : 		return _Myaux ? _Myaux->_Getcont() : 0;

	mov	eax, DWORD PTR [eax]
	test	eax, eax
	je	SHORT $LN3@Getmycont
	mov	eax, DWORD PTR [eax]

; 459  : 		}

	ret	0
$LN3@Getmycont:

; 458  : 		return _Myaux ? _Myaux->_Getcont() : 0;

	xor	eax, eax

; 459  : 		}

	ret	0
?_Getmycont@_Iterator_base_aux@std@@QBEPBV_Container_base_aux@2@XZ ENDP ; std::_Iterator_base_aux::_Getmycont
; Function compile flags: /Ogtpy
_TEXT	ENDS
;	COMDAT ??_Gbad_alloc@std@@UAEPAXI@Z
_TEXT	SEGMENT
___flags$ = 8						; size = 4
??_Gbad_alloc@std@@UAEPAXI@Z PROC			; std::bad_alloc::`scalar deleting destructor', COMDAT
; _this$ = ecx
	push	esi
	mov	esi, ecx
	mov	DWORD PTR [esi], OFFSET ??_7bad_alloc@std@@6B@
	call	DWORD PTR __imp_??1exception@std@@UAE@XZ
	test	BYTE PTR ___flags$[esp], 1
	je	SHORT $LN6@scalar
	push	esi
	call	??3@YAXPAX@Z				; operator delete
	add	esp, 4
$LN6@scalar:
	mov	eax, esi
	pop	esi
	ret	4
??_Gbad_alloc@std@@UAEPAXI@Z ENDP			; std::bad_alloc::`scalar deleting destructor'
; Function compile flags: /Ogtpy
; File c:\program files\microsoft visual studio 9.0\vc\include\map
;	COMDAT ??0?$_Tmap_traits@KPAVThreadInfo@@U?$less@K@std@@V?$allocator@U?$pair@$$CBKPAVThreadInfo@@@std@@@3@$0A@@std@@QAE@U?$less@K@1@V?$allocator@U?$pair@$$CBKPAVThreadInfo@@@std@@@1@@Z
_TEXT	SEGMENT
__Parg$ = 8						; size = 1
__Al$ = 12						; size = 1
??0?$_Tmap_traits@KPAVThreadInfo@@U?$less@K@std@@V?$allocator@U?$pair@$$CBKPAVThreadInfo@@@std@@@3@$0A@@std@@QAE@U?$less@K@1@V?$allocator@U?$pair@$$CBKPAVThreadInfo@@@std@@@1@@Z PROC ; std::_Tmap_traits<unsigned long,ThreadInfo *,std::less<unsigned long>,std::allocator<std::pair<unsigned long const ,ThreadInfo *> >,0>::_Tmap_traits<unsigned long,ThreadInfo *,std::less<unsigned long>,std::allocator<std::pair<unsigned long const ,ThreadInfo *> >,0>, COMDAT
; _this$ = esi

; 39   : 		{	// construct with specified comparator

	push	4
	call	??2@YAPAXI@Z				; operator new
	add	esp, 4
	test	eax, eax
	je	SHORT $LN8@Tmap_trait
	mov	DWORD PTR [eax], esi
	mov	DWORD PTR [esi], eax

; 40   : 		}

	mov	eax, esi
	ret	8

; 39   : 		{	// construct with specified comparator

$LN8@Tmap_trait:
	xor	eax, eax
	mov	DWORD PTR [esi], eax

; 40   : 		}

	mov	eax, esi
	ret	8
??0?$_Tmap_traits@KPAVThreadInfo@@U?$less@K@std@@V?$allocator@U?$pair@$$CBKPAVThreadInfo@@@std@@@3@$0A@@std@@QAE@U?$less@K@1@V?$allocator@U?$pair@$$CBKPAVThreadInfo@@@std@@@1@@Z ENDP ; std::_Tmap_traits<unsigned long,ThreadInfo *,std::less<unsigned long>,std::allocator<std::pair<unsigned long const ,ThreadInfo *> >,0>::_Tmap_traits<unsigned long,ThreadInfo *,std::less<unsigned long>,std::allocator<std::pair<unsigned long const ,ThreadInfo *> >,0>
; Function compile flags: /Ogtpy
_TEXT	ENDS
;	COMDAT ??0?$_Tmap_traits@IPAVThreadInfo@@U?$less@I@std@@V?$allocator@U?$pair@$$CBIPAVThreadInfo@@@std@@@3@$0A@@std@@QAE@U?$less@I@1@V?$allocator@U?$pair@$$CBIPAVThreadInfo@@@std@@@1@@Z
_TEXT	SEGMENT
__Parg$ = 8						; size = 1
__Al$ = 12						; size = 1
??0?$_Tmap_traits@IPAVThreadInfo@@U?$less@I@std@@V?$allocator@U?$pair@$$CBIPAVThreadInfo@@@std@@@3@$0A@@std@@QAE@U?$less@I@1@V?$allocator@U?$pair@$$CBIPAVThreadInfo@@@std@@@1@@Z PROC ; std::_Tmap_traits<unsigned int,ThreadInfo *,std::less<unsigned int>,std::allocator<std::pair<unsigned int const ,ThreadInfo *> >,0>::_Tmap_traits<unsigned int,ThreadInfo *,std::less<unsigned int>,std::allocator<std::pair<unsigned int const ,ThreadInfo *> >,0>, COMDAT
; _this$ = esi

; 39   : 		{	// construct with specified comparator

	push	4
	call	??2@YAPAXI@Z				; operator new
	add	esp, 4
	test	eax, eax
	je	SHORT $LN8@Tmap_trait@2
	mov	DWORD PTR [eax], esi
	mov	DWORD PTR [esi], eax

; 40   : 		}

	mov	eax, esi
	ret	8

; 39   : 		{	// construct with specified comparator

$LN8@Tmap_trait@2:
	xor	eax, eax
	mov	DWORD PTR [esi], eax

; 40   : 		}

	mov	eax, esi
	ret	8
??0?$_Tmap_traits@IPAVThreadInfo@@U?$less@I@std@@V?$allocator@U?$pair@$$CBIPAVThreadInfo@@@std@@@3@$0A@@std@@QAE@U?$less@I@1@V?$allocator@U?$pair@$$CBIPAVThreadInfo@@@std@@@1@@Z ENDP ; std::_Tmap_traits<unsigned int,ThreadInfo *,std::less<unsigned int>,std::allocator<std::pair<unsigned int const ,ThreadInfo *> >,0>::_Tmap_traits<unsigned int,ThreadInfo *,std::less<unsigned int>,std::allocator<std::pair<unsigned int const ,ThreadInfo *> >,0>
; Function compile flags: /Ogtpy
_TEXT	ENDS
;	COMDAT ??0?$_Tmap_traits@IHU?$less@I@std@@V?$allocator@U?$pair@$$CBIH@std@@@2@$0A@@std@@QAE@U?$less@I@1@V?$allocator@U?$pair@$$CBIH@std@@@1@@Z
_TEXT	SEGMENT
__Parg$ = 8						; size = 1
__Al$ = 12						; size = 1
??0?$_Tmap_traits@IHU?$less@I@std@@V?$allocator@U?$pair@$$CBIH@std@@@2@$0A@@std@@QAE@U?$less@I@1@V?$allocator@U?$pair@$$CBIH@std@@@1@@Z PROC ; std::_Tmap_traits<unsigned int,int,std::less<unsigned int>,std::allocator<std::pair<unsigned int const ,int> >,0>::_Tmap_traits<unsigned int,int,std::less<unsigned int>,std::allocator<std::pair<unsigned int const ,int> >,0>, COMDAT
; _this$ = esi

; 39   : 		{	// construct with specified comparator

	push	4
	call	??2@YAPAXI@Z				; operator new
	add	esp, 4
	test	eax, eax
	je	SHORT $LN8@Tmap_trait@3
	mov	DWORD PTR [eax], esi
	mov	DWORD PTR [esi], eax

; 40   : 		}

	mov	eax, esi
	ret	8

; 39   : 		{	// construct with specified comparator

$LN8@Tmap_trait@3:
	xor	eax, eax
	mov	DWORD PTR [esi], eax

; 40   : 		}

	mov	eax, esi
	ret	8
??0?$_Tmap_traits@IHU?$less@I@std@@V?$allocator@U?$pair@$$CBIH@std@@@2@$0A@@std@@QAE@U?$less@I@1@V?$allocator@U?$pair@$$CBIH@std@@@1@@Z ENDP ; std::_Tmap_traits<unsigned int,int,std::less<unsigned int>,std::allocator<std::pair<unsigned int const ,int> >,0>::_Tmap_traits<unsigned int,int,std::less<unsigned int>,std::allocator<std::pair<unsigned int const ,int> >,0>
; Function compile flags: /Ogtpy
; File c:\program files\microsoft visual studio 9.0\vc\include\xtree
_TEXT	ENDS
;	COMDAT ??0?$_Tree_nod@V?$_Tmap_traits@KPAVThreadInfo@@U?$less@K@std@@V?$allocator@U?$pair@$$CBKPAVThreadInfo@@@std@@@3@$0A@@std@@@std@@IAE@ABU?$less@K@1@V?$allocator@U?$pair@$$CBKPAVThreadInfo@@@std@@@1@@Z
_TEXT	SEGMENT
__Al$ = 8						; size = 1
??0?$_Tree_nod@V?$_Tmap_traits@KPAVThreadInfo@@U?$less@K@std@@V?$allocator@U?$pair@$$CBKPAVThreadInfo@@@std@@@3@$0A@@std@@@std@@IAE@ABU?$less@K@1@V?$allocator@U?$pair@$$CBKPAVThreadInfo@@@std@@@1@@Z PROC ; std::_Tree_nod<std::_Tmap_traits<unsigned long,ThreadInfo *,std::less<unsigned long>,std::allocator<std::pair<unsigned long const ,ThreadInfo *> >,0> >::_Tree_nod<std::_Tmap_traits<unsigned long,ThreadInfo *,std::less<unsigned long>,std::allocator<std::pair<unsigned long const ,ThreadInfo *> >,0> >, COMDAT
; _this$ = esi

; 52   : 		{	// construct traits from _Parg and allocator from _Al

	push	4
	call	??2@YAPAXI@Z				; operator new
	add	esp, 4
	test	eax, eax
	je	SHORT $LN13@Tree_nod
	mov	DWORD PTR [eax], esi
	mov	DWORD PTR [esi], eax

; 53   : 		}

	mov	eax, esi
	ret	4

; 52   : 		{	// construct traits from _Parg and allocator from _Al

$LN13@Tree_nod:
	xor	eax, eax
	mov	DWORD PTR [esi], eax

; 53   : 		}

	mov	eax, esi
	ret	4
??0?$_Tree_nod@V?$_Tmap_traits@KPAVThreadInfo@@U?$less@K@std@@V?$allocator@U?$pair@$$CBKPAVThreadInfo@@@std@@@3@$0A@@std@@@std@@IAE@ABU?$less@K@1@V?$allocator@U?$pair@$$CBKPAVThreadInfo@@@std@@@1@@Z ENDP ; std::_Tree_nod<std::_Tmap_traits<unsigned long,ThreadInfo *,std::less<unsigned long>,std::allocator<std::pair<unsigned long const ,ThreadInfo *> >,0> >::_Tree_nod<std::_Tmap_traits<unsigned long,ThreadInfo *,std::less<unsigned long>,std::allocator<std::pair<unsigned long const ,ThreadInfo *> >,0> >
; Function compile flags: /Ogtpy
_TEXT	ENDS
;	COMDAT ??0?$_Tree_nod@V?$_Tmap_traits@IPAVThreadInfo@@U?$less@I@std@@V?$allocator@U?$pair@$$CBIPAVThreadInfo@@@std@@@3@$0A@@std@@@std@@IAE@ABU?$less@I@1@V?$allocator@U?$pair@$$CBIPAVThreadInfo@@@std@@@1@@Z
_TEXT	SEGMENT
__Al$ = 8						; size = 1
??0?$_Tree_nod@V?$_Tmap_traits@IPAVThreadInfo@@U?$less@I@std@@V?$allocator@U?$pair@$$CBIPAVThreadInfo@@@std@@@3@$0A@@std@@@std@@IAE@ABU?$less@I@1@V?$allocator@U?$pair@$$CBIPAVThreadInfo@@@std@@@1@@Z PROC ; std::_Tree_nod<std::_Tmap_traits<unsigned int,ThreadInfo *,std::less<unsigned int>,std::allocator<std::pair<unsigned int const ,ThreadInfo *> >,0> >::_Tree_nod<std::_Tmap_traits<unsigned int,ThreadInfo *,std::less<unsigned int>,std::allocator<std::pair<unsigned int const ,ThreadInfo *> >,0> >, COMDAT
; _this$ = esi

; 52   : 		{	// construct traits from _Parg and allocator from _Al

	push	4
	call	??2@YAPAXI@Z				; operator new
	add	esp, 4
	test	eax, eax
	je	SHORT $LN13@Tree_nod@2
	mov	DWORD PTR [eax], esi
	mov	DWORD PTR [esi], eax

; 53   : 		}

	mov	eax, esi
	ret	4

; 52   : 		{	// construct traits from _Parg and allocator from _Al

$LN13@Tree_nod@2:
	xor	eax, eax
	mov	DWORD PTR [esi], eax

; 53   : 		}

	mov	eax, esi
	ret	4
??0?$_Tree_nod@V?$_Tmap_traits@IPAVThreadInfo@@U?$less@I@std@@V?$allocator@U?$pair@$$CBIPAVThreadInfo@@@std@@@3@$0A@@std@@@std@@IAE@ABU?$less@I@1@V?$allocator@U?$pair@$$CBIPAVThreadInfo@@@std@@@1@@Z ENDP ; std::_Tree_nod<std::_Tmap_traits<unsigned int,ThreadInfo *,std::less<unsigned int>,std::allocator<std::pair<unsigned int const ,ThreadInfo *> >,0> >::_Tree_nod<std::_Tmap_traits<unsigned int,ThreadInfo *,std::less<unsigned int>,std::allocator<std::pair<unsigned int const ,ThreadInfo *> >,0> >
; Function compile flags: /Ogtpy
_TEXT	ENDS
;	COMDAT ??0?$_Tree_nod@V?$_Tmap_traits@IHU?$less@I@std@@V?$allocator@U?$pair@$$CBIH@std@@@2@$0A@@std@@@std@@IAE@ABU?$less@I@1@V?$allocator@U?$pair@$$CBIH@std@@@1@@Z
_TEXT	SEGMENT
__Al$ = 8						; size = 1
??0?$_Tree_nod@V?$_Tmap_traits@IHU?$less@I@std@@V?$allocator@U?$pair@$$CBIH@std@@@2@$0A@@std@@@std@@IAE@ABU?$less@I@1@V?$allocator@U?$pair@$$CBIH@std@@@1@@Z PROC ; std::_Tree_nod<std::_Tmap_traits<unsigned int,int,std::less<unsigned int>,std::allocator<std::pair<unsigned int const ,int> >,0> >::_Tree_nod<std::_Tmap_traits<unsigned int,int,std::less<unsigned int>,std::allocator<std::pair<unsigned int const ,int> >,0> >, COMDAT
; _this$ = esi

; 52   : 		{	// construct traits from _Parg and allocator from _Al

	push	4
	call	??2@YAPAXI@Z				; operator new
	add	esp, 4
	test	eax, eax
	je	SHORT $LN13@Tree_nod@3
	mov	DWORD PTR [eax], esi
	mov	DWORD PTR [esi], eax

; 53   : 		}

	mov	eax, esi
	ret	4

; 52   : 		{	// construct traits from _Parg and allocator from _Al

$LN13@Tree_nod@3:
	xor	eax, eax
	mov	DWORD PTR [esi], eax

; 53   : 		}

	mov	eax, esi
	ret	4
??0?$_Tree_nod@V?$_Tmap_traits@IHU?$less@I@std@@V?$allocator@U?$pair@$$CBIH@std@@@2@$0A@@std@@@std@@IAE@ABU?$less@I@1@V?$allocator@U?$pair@$$CBIH@std@@@1@@Z ENDP ; std::_Tree_nod<std::_Tmap_traits<unsigned int,int,std::less<unsigned int>,std::allocator<std::pair<unsigned int const ,int> >,0> >::_Tree_nod<std::_Tmap_traits<unsigned int,int,std::less<unsigned int>,std::allocator<std::pair<unsigned int const ,int> >,0> >
; Function compile flags: /Ogtpy
_TEXT	ENDS
;	COMDAT ?_Dec@const_iterator@?$_Tree@V?$_Tmap_traits@KPAVThreadInfo@@U?$less@K@std@@V?$allocator@U?$pair@$$CBKPAVThreadInfo@@@std@@@3@$0A@@std@@@std@@QAEXXZ
_TEXT	SEGMENT
?_Dec@const_iterator@?$_Tree@V?$_Tmap_traits@KPAVThreadInfo@@U?$less@K@std@@V?$allocator@U?$pair@$$CBKPAVThreadInfo@@@std@@@3@$0A@@std@@@std@@QAEXXZ PROC ; std::_Tree<std::_Tmap_traits<unsigned long,ThreadInfo *,std::less<unsigned long>,std::allocator<std::pair<unsigned long const ,ThreadInfo *> >,0> >::const_iterator::_Dec, COMDAT
; _this$ = esi

; 321  : 
; 322  :  #if _HAS_ITERATOR_DEBUGGING
; 323  : 			if (this->_Mycont == 0
; 324  : 				|| _Ptr == 0)
; 325  : 				{
; 326  : 				_DEBUG_ERROR("map/set iterator not decrementable");
; 327  : 				_SCL_SECURE_INVALID_ARGUMENT;
; 328  : 				}
; 329  :  #else
; 330  : 			_SCL_SECURE_VALIDATE(this->_Has_container());

	cmp	DWORD PTR [esi], 0
	push	edi
	mov	edi, DWORD PTR __imp___invalid_parameter_noinfo
	jne	SHORT $LN12@Dec
	call	edi
$LN12@Dec:

; 331  :  #endif /* _HAS_ITERATOR_DEBUGGING */
; 332  : 
; 333  : 			if (_Isnil(_Ptr))

	mov	eax, DWORD PTR [esi+4]
	cmp	BYTE PTR [eax+21], 0
	je	SHORT $LN9@Dec

; 334  : 			{
; 335  : 				_Ptr = _Right(_Ptr);	// end() ==> rightmost

	mov	eax, DWORD PTR [eax+8]
	mov	DWORD PTR [esi+4], eax

; 336  :    				if (_Isnil(_Ptr))

	cmp	BYTE PTR [eax+21], 0
	je	SHORT $LN1@Dec
$LN52@Dec:

; 337  : #if _HAS_ITERATOR_DEBUGGING
; 338  : 				{
; 339  : 					_DEBUG_ERROR("map/set iterator not decrementable");
; 340  : 					_SCL_SECURE_OUT_OF_RANGE;
; 341  : 				}
; 342  : #elif _SECURE_SCL
; 343  : 				{
; 344  :     				_SCL_SECURE_OUT_OF_RANGE;

	call	edi
	pop	edi

; 373  : 				}
; 374  : 			}

	ret	0
$LN9@Dec:

; 345  : 				}
; 346  : #else
; 347  : 				return;	// begin() shouldn't be incremented, don't move
; 348  : #endif
; 349  : 			}
; 350  : 			else if (!_Isnil(_Left(_Ptr)))

	mov	ecx, DWORD PTR [eax]
	cmp	BYTE PTR [ecx+21], 0
	jne	SHORT $LN49@Dec

; 351  : 				_Ptr = _Max(_Left(_Ptr));	// ==> largest of left subtree

	mov	eax, DWORD PTR [ecx+8]
	cmp	BYTE PTR [eax+21], 0
	jne	SHORT $LN30@Dec
	npad	8
$LL31@Dec:
	mov	ecx, eax
	mov	eax, DWORD PTR [ecx+8]
	cmp	BYTE PTR [eax+21], 0
	je	SHORT $LL31@Dec
$LN30@Dec:
	mov	DWORD PTR [esi+4], ecx
	pop	edi

; 373  : 				}
; 374  : 			}

	ret	0
$LN49@Dec:

; 352  : 			else
; 353  : 				{	// climb looking for left subtree
; 354  : 				_Nodeptr _Pnode;
; 355  : 				while (!_Isnil(_Pnode = _Parent(_Ptr))
; 356  : 					&& _Ptr == _Left(_Pnode))

	mov	eax, DWORD PTR [eax+4]
	cmp	BYTE PTR [eax+21], 0
	jne	SHORT $LN3@Dec
	npad	7
$LL4@Dec:
	mov	ecx, DWORD PTR [esi+4]
	cmp	ecx, DWORD PTR [eax]
	jne	SHORT $LN3@Dec

; 357  : 					_Ptr = _Pnode;	// ==> parent while left subtree

	mov	DWORD PTR [esi+4], eax
	mov	edx, eax
	mov	eax, DWORD PTR [edx+4]
	cmp	BYTE PTR [eax+21], 0
	je	SHORT $LL4@Dec
$LN3@Dec:

; 358  : 				if (_Isnil(_Ptr))

	mov	ecx, DWORD PTR [esi+4]
	cmp	BYTE PTR [ecx+21], 0

; 359  :  #if _HAS_ITERATOR_DEBUGGING
; 360  :  					{
; 361  : 					_DEBUG_ERROR("map/set iterator not decrementable");
; 362  : 					_SCL_SECURE_OUT_OF_RANGE;
; 363  : 					}
; 364  :  #elif _SECURE_SCL
; 365  : 					{
; 366  : 					_SCL_SECURE_OUT_OF_RANGE;
; 367  : 					}
; 368  :  #else
; 369  : 					return;	// begin() shouldn't be incremented, don't move
; 370  :  #endif
; 371  : 				else

	jne	SHORT $LN52@Dec

; 372  : 					_Ptr = _Pnode;	// ==> parent if not head

	mov	DWORD PTR [esi+4], eax
$LN1@Dec:
	pop	edi

; 373  : 				}
; 374  : 			}

	ret	0
?_Dec@const_iterator@?$_Tree@V?$_Tmap_traits@KPAVThreadInfo@@U?$less@K@std@@V?$allocator@U?$pair@$$CBKPAVThreadInfo@@@std@@@3@$0A@@std@@@std@@QAEXXZ ENDP ; std::_Tree<std::_Tmap_traits<unsigned long,ThreadInfo *,std::less<unsigned long>,std::allocator<std::pair<unsigned long const ,ThreadInfo *> >,0> >::const_iterator::_Dec
; Function compile flags: /Ogtpy
_TEXT	ENDS
;	COMDAT ?_Dec@const_iterator@?$_Tree@V?$_Tmap_traits@IPAVThreadInfo@@U?$less@I@std@@V?$allocator@U?$pair@$$CBIPAVThreadInfo@@@std@@@3@$0A@@std@@@std@@QAEXXZ
_TEXT	SEGMENT
?_Dec@const_iterator@?$_Tree@V?$_Tmap_traits@IPAVThreadInfo@@U?$less@I@std@@V?$allocator@U?$pair@$$CBIPAVThreadInfo@@@std@@@3@$0A@@std@@@std@@QAEXXZ PROC ; std::_Tree<std::_Tmap_traits<unsigned int,ThreadInfo *,std::less<unsigned int>,std::allocator<std::pair<unsigned int const ,ThreadInfo *> >,0> >::const_iterator::_Dec, COMDAT
; _this$ = esi

; 321  : 
; 322  :  #if _HAS_ITERATOR_DEBUGGING
; 323  : 			if (this->_Mycont == 0
; 324  : 				|| _Ptr == 0)
; 325  : 				{
; 326  : 				_DEBUG_ERROR("map/set iterator not decrementable");
; 327  : 				_SCL_SECURE_INVALID_ARGUMENT;
; 328  : 				}
; 329  :  #else
; 330  : 			_SCL_SECURE_VALIDATE(this->_Has_container());

	cmp	DWORD PTR [esi], 0
	push	edi
	mov	edi, DWORD PTR __imp___invalid_parameter_noinfo
	jne	SHORT $LN12@Dec@2
	call	edi
$LN12@Dec@2:

; 331  :  #endif /* _HAS_ITERATOR_DEBUGGING */
; 332  : 
; 333  : 			if (_Isnil(_Ptr))

	mov	eax, DWORD PTR [esi+4]
	cmp	BYTE PTR [eax+21], 0
	je	SHORT $LN9@Dec@2

; 334  : 			{
; 335  : 				_Ptr = _Right(_Ptr);	// end() ==> rightmost

	mov	eax, DWORD PTR [eax+8]
	mov	DWORD PTR [esi+4], eax

; 336  :    				if (_Isnil(_Ptr))

	cmp	BYTE PTR [eax+21], 0
	je	SHORT $LN1@Dec@2
$LN52@Dec@2:

; 337  : #if _HAS_ITERATOR_DEBUGGING
; 338  : 				{
; 339  : 					_DEBUG_ERROR("map/set iterator not decrementable");
; 340  : 					_SCL_SECURE_OUT_OF_RANGE;
; 341  : 				}
; 342  : #elif _SECURE_SCL
; 343  : 				{
; 344  :     				_SCL_SECURE_OUT_OF_RANGE;

	call	edi
	pop	edi

; 373  : 				}
; 374  : 			}

	ret	0
$LN9@Dec@2:

; 345  : 				}
; 346  : #else
; 347  : 				return;	// begin() shouldn't be incremented, don't move
; 348  : #endif
; 349  : 			}
; 350  : 			else if (!_Isnil(_Left(_Ptr)))

	mov	ecx, DWORD PTR [eax]
	cmp	BYTE PTR [ecx+21], 0
	jne	SHORT $LN49@Dec@2

; 351  : 				_Ptr = _Max(_Left(_Ptr));	// ==> largest of left subtree

	mov	eax, DWORD PTR [ecx+8]
	cmp	BYTE PTR [eax+21], 0
	jne	SHORT $LN30@Dec@2
	npad	8
$LL31@Dec@2:
	mov	ecx, eax
	mov	eax, DWORD PTR [ecx+8]
	cmp	BYTE PTR [eax+21], 0
	je	SHORT $LL31@Dec@2
$LN30@Dec@2:
	mov	DWORD PTR [esi+4], ecx
	pop	edi

; 373  : 				}
; 374  : 			}

	ret	0
$LN49@Dec@2:

; 352  : 			else
; 353  : 				{	// climb looking for left subtree
; 354  : 				_Nodeptr _Pnode;
; 355  : 				while (!_Isnil(_Pnode = _Parent(_Ptr))
; 356  : 					&& _Ptr == _Left(_Pnode))

	mov	eax, DWORD PTR [eax+4]
	cmp	BYTE PTR [eax+21], 0
	jne	SHORT $LN3@Dec@2
	npad	7
$LL4@Dec@2:
	mov	ecx, DWORD PTR [esi+4]
	cmp	ecx, DWORD PTR [eax]
	jne	SHORT $LN3@Dec@2

; 357  : 					_Ptr = _Pnode;	// ==> parent while left subtree

	mov	DWORD PTR [esi+4], eax
	mov	edx, eax
	mov	eax, DWORD PTR [edx+4]
	cmp	BYTE PTR [eax+21], 0
	je	SHORT $LL4@Dec@2
$LN3@Dec@2:

; 358  : 				if (_Isnil(_Ptr))

	mov	ecx, DWORD PTR [esi+4]
	cmp	BYTE PTR [ecx+21], 0

; 359  :  #if _HAS_ITERATOR_DEBUGGING
; 360  :  					{
; 361  : 					_DEBUG_ERROR("map/set iterator not decrementable");
; 362  : 					_SCL_SECURE_OUT_OF_RANGE;
; 363  : 					}
; 364  :  #elif _SECURE_SCL
; 365  : 					{
; 366  : 					_SCL_SECURE_OUT_OF_RANGE;
; 367  : 					}
; 368  :  #else
; 369  : 					return;	// begin() shouldn't be incremented, don't move
; 370  :  #endif
; 371  : 				else

	jne	SHORT $LN52@Dec@2

; 372  : 					_Ptr = _Pnode;	// ==> parent if not head

	mov	DWORD PTR [esi+4], eax
$LN1@Dec@2:
	pop	edi

; 373  : 				}
; 374  : 			}

	ret	0
?_Dec@const_iterator@?$_Tree@V?$_Tmap_traits@IPAVThreadInfo@@U?$less@I@std@@V?$allocator@U?$pair@$$CBIPAVThreadInfo@@@std@@@3@$0A@@std@@@std@@QAEXXZ ENDP ; std::_Tree<std::_Tmap_traits<unsigned int,ThreadInfo *,std::less<unsigned int>,std::allocator<std::pair<unsigned int const ,ThreadInfo *> >,0> >::const_iterator::_Dec
; Function compile flags: /Ogtpy
_TEXT	ENDS
;	COMDAT ?_Dec@const_iterator@?$_Tree@V?$_Tmap_traits@IHU?$less@I@std@@V?$allocator@U?$pair@$$CBIH@std@@@2@$0A@@std@@@std@@QAEXXZ
_TEXT	SEGMENT
?_Dec@const_iterator@?$_Tree@V?$_Tmap_traits@IHU?$less@I@std@@V?$allocator@U?$pair@$$CBIH@std@@@2@$0A@@std@@@std@@QAEXXZ PROC ; std::_Tree<std::_Tmap_traits<unsigned int,int,std::less<unsigned int>,std::allocator<std::pair<unsigned int const ,int> >,0> >::const_iterator::_Dec, COMDAT
; _this$ = esi

; 321  : 
; 322  :  #if _HAS_ITERATOR_DEBUGGING
; 323  : 			if (this->_Mycont == 0
; 324  : 				|| _Ptr == 0)
; 325  : 				{
; 326  : 				_DEBUG_ERROR("map/set iterator not decrementable");
; 327  : 				_SCL_SECURE_INVALID_ARGUMENT;
; 328  : 				}
; 329  :  #else
; 330  : 			_SCL_SECURE_VALIDATE(this->_Has_container());

	cmp	DWORD PTR [esi], 0
	push	edi
	mov	edi, DWORD PTR __imp___invalid_parameter_noinfo
	jne	SHORT $LN12@Dec@3
	call	edi
$LN12@Dec@3:

; 331  :  #endif /* _HAS_ITERATOR_DEBUGGING */
; 332  : 
; 333  : 			if (_Isnil(_Ptr))

	mov	eax, DWORD PTR [esi+4]
	cmp	BYTE PTR [eax+21], 0
	je	SHORT $LN9@Dec@3

; 334  : 			{
; 335  : 				_Ptr = _Right(_Ptr);	// end() ==> rightmost

	mov	eax, DWORD PTR [eax+8]
	mov	DWORD PTR [esi+4], eax

; 336  :    				if (_Isnil(_Ptr))

	cmp	BYTE PTR [eax+21], 0
	je	SHORT $LN1@Dec@3
$LN52@Dec@3:

; 337  : #if _HAS_ITERATOR_DEBUGGING
; 338  : 				{
; 339  : 					_DEBUG_ERROR("map/set iterator not decrementable");
; 340  : 					_SCL_SECURE_OUT_OF_RANGE;
; 341  : 				}
; 342  : #elif _SECURE_SCL
; 343  : 				{
; 344  :     				_SCL_SECURE_OUT_OF_RANGE;

	call	edi
	pop	edi

; 373  : 				}
; 374  : 			}

	ret	0
$LN9@Dec@3:

; 345  : 				}
; 346  : #else
; 347  : 				return;	// begin() shouldn't be incremented, don't move
; 348  : #endif
; 349  : 			}
; 350  : 			else if (!_Isnil(_Left(_Ptr)))

	mov	ecx, DWORD PTR [eax]
	cmp	BYTE PTR [ecx+21], 0
	jne	SHORT $LN49@Dec@3

; 351  : 				_Ptr = _Max(_Left(_Ptr));	// ==> largest of left subtree

	mov	eax, DWORD PTR [ecx+8]
	cmp	BYTE PTR [eax+21], 0
	jne	SHORT $LN30@Dec@3
	npad	8
$LL31@Dec@3:
	mov	ecx, eax
	mov	eax, DWORD PTR [ecx+8]
	cmp	BYTE PTR [eax+21], 0
	je	SHORT $LL31@Dec@3
$LN30@Dec@3:
	mov	DWORD PTR [esi+4], ecx
	pop	edi

; 373  : 				}
; 374  : 			}

	ret	0
$LN49@Dec@3:

; 352  : 			else
; 353  : 				{	// climb looking for left subtree
; 354  : 				_Nodeptr _Pnode;
; 355  : 				while (!_Isnil(_Pnode = _Parent(_Ptr))
; 356  : 					&& _Ptr == _Left(_Pnode))

	mov	eax, DWORD PTR [eax+4]
	cmp	BYTE PTR [eax+21], 0
	jne	SHORT $LN3@Dec@3
	npad	7
$LL4@Dec@3:
	mov	ecx, DWORD PTR [esi+4]
	cmp	ecx, DWORD PTR [eax]
	jne	SHORT $LN3@Dec@3

; 357  : 					_Ptr = _Pnode;	// ==> parent while left subtree

	mov	DWORD PTR [esi+4], eax
	mov	edx, eax
	mov	eax, DWORD PTR [edx+4]
	cmp	BYTE PTR [eax+21], 0
	je	SHORT $LL4@Dec@3
$LN3@Dec@3:

; 358  : 				if (_Isnil(_Ptr))

	mov	ecx, DWORD PTR [esi+4]
	cmp	BYTE PTR [ecx+21], 0

; 359  :  #if _HAS_ITERATOR_DEBUGGING
; 360  :  					{
; 361  : 					_DEBUG_ERROR("map/set iterator not decrementable");
; 362  : 					_SCL_SECURE_OUT_OF_RANGE;
; 363  : 					}
; 364  :  #elif _SECURE_SCL
; 365  : 					{
; 366  : 					_SCL_SECURE_OUT_OF_RANGE;
; 367  : 					}
; 368  :  #else
; 369  : 					return;	// begin() shouldn't be incremented, don't move
; 370  :  #endif
; 371  : 				else

	jne	SHORT $LN52@Dec@3

; 372  : 					_Ptr = _Pnode;	// ==> parent if not head

	mov	DWORD PTR [esi+4], eax
$LN1@Dec@3:
	pop	edi

; 373  : 				}
; 374  : 			}

	ret	0
?_Dec@const_iterator@?$_Tree@V?$_Tmap_traits@IHU?$less@I@std@@V?$allocator@U?$pair@$$CBIH@std@@@2@$0A@@std@@@std@@QAEXXZ ENDP ; std::_Tree<std::_Tmap_traits<unsigned int,int,std::less<unsigned int>,std::allocator<std::pair<unsigned int const ,int> >,0> >::const_iterator::_Dec
; Function compile flags: /Ogtpy
_TEXT	ENDS
;	COMDAT ??0?$_Tree_ptr@V?$_Tmap_traits@KPAVThreadInfo@@U?$less@K@std@@V?$allocator@U?$pair@$$CBKPAVThreadInfo@@@std@@@3@$0A@@std@@@std@@IAE@ABU?$less@K@1@V?$allocator@U?$pair@$$CBKPAVThreadInfo@@@std@@@1@@Z
_TEXT	SEGMENT
__Al$ = 8						; size = 1
??0?$_Tree_ptr@V?$_Tmap_traits@KPAVThreadInfo@@U?$less@K@std@@V?$allocator@U?$pair@$$CBKPAVThreadInfo@@@std@@@3@$0A@@std@@@std@@IAE@ABU?$less@K@1@V?$allocator@U?$pair@$$CBKPAVThreadInfo@@@std@@@1@@Z PROC ; std::_Tree_ptr<std::_Tmap_traits<unsigned long,ThreadInfo *,std::less<unsigned long>,std::allocator<std::pair<unsigned long const ,ThreadInfo *> >,0> >::_Tree_ptr<std::_Tmap_traits<unsigned long,ThreadInfo *,std::less<unsigned long>,std::allocator<std::pair<unsigned long const ,ThreadInfo *> >,0> >, COMDAT
; _this$ = esi

; 78   : 		{	// construct base, and allocator from _Al

	push	4
	call	??2@YAPAXI@Z				; operator new
	add	esp, 4
	test	eax, eax
	je	SHORT $LN18@Tree_ptr
	mov	DWORD PTR [eax], esi
	mov	DWORD PTR [esi], eax

; 79   : 		}

	mov	eax, esi
	ret	4

; 78   : 		{	// construct base, and allocator from _Al

$LN18@Tree_ptr:
	xor	eax, eax
	mov	DWORD PTR [esi], eax

; 79   : 		}

	mov	eax, esi
	ret	4
??0?$_Tree_ptr@V?$_Tmap_traits@KPAVThreadInfo@@U?$less@K@std@@V?$allocator@U?$pair@$$CBKPAVThreadInfo@@@std@@@3@$0A@@std@@@std@@IAE@ABU?$less@K@1@V?$allocator@U?$pair@$$CBKPAVThreadInfo@@@std@@@1@@Z ENDP ; std::_Tree_ptr<std::_Tmap_traits<unsigned long,ThreadInfo *,std::less<unsigned long>,std::allocator<std::pair<unsigned long const ,ThreadInfo *> >,0> >::_Tree_ptr<std::_Tmap_traits<unsigned long,ThreadInfo *,std::less<unsigned long>,std::allocator<std::pair<unsigned long const ,ThreadInfo *> >,0> >
; Function compile flags: /Ogtpy
_TEXT	ENDS
;	COMDAT ??0?$_Tree_ptr@V?$_Tmap_traits@IPAVThreadInfo@@U?$less@I@std@@V?$allocator@U?$pair@$$CBIPAVThreadInfo@@@std@@@3@$0A@@std@@@std@@IAE@ABU?$less@I@1@V?$allocator@U?$pair@$$CBIPAVThreadInfo@@@std@@@1@@Z
_TEXT	SEGMENT
__Al$ = 8						; size = 1
??0?$_Tree_ptr@V?$_Tmap_traits@IPAVThreadInfo@@U?$less@I@std@@V?$allocator@U?$pair@$$CBIPAVThreadInfo@@@std@@@3@$0A@@std@@@std@@IAE@ABU?$less@I@1@V?$allocator@U?$pair@$$CBIPAVThreadInfo@@@std@@@1@@Z PROC ; std::_Tree_ptr<std::_Tmap_traits<unsigned int,ThreadInfo *,std::less<unsigned int>,std::allocator<std::pair<unsigned int const ,ThreadInfo *> >,0> >::_Tree_ptr<std::_Tmap_traits<unsigned int,ThreadInfo *,std::less<unsigned int>,std::allocator<std::pair<unsigned int const ,ThreadInfo *> >,0> >, COMDAT
; _this$ = esi

; 78   : 		{	// construct base, and allocator from _Al

	push	4
	call	??2@YAPAXI@Z				; operator new
	add	esp, 4
	test	eax, eax
	je	SHORT $LN18@Tree_ptr@2
	mov	DWORD PTR [eax], esi
	mov	DWORD PTR [esi], eax

; 79   : 		}

	mov	eax, esi
	ret	4

; 78   : 		{	// construct base, and allocator from _Al

$LN18@Tree_ptr@2:
	xor	eax, eax
	mov	DWORD PTR [esi], eax

; 79   : 		}

	mov	eax, esi
	ret	4
??0?$_Tree_ptr@V?$_Tmap_traits@IPAVThreadInfo@@U?$less@I@std@@V?$allocator@U?$pair@$$CBIPAVThreadInfo@@@std@@@3@$0A@@std@@@std@@IAE@ABU?$less@I@1@V?$allocator@U?$pair@$$CBIPAVThreadInfo@@@std@@@1@@Z ENDP ; std::_Tree_ptr<std::_Tmap_traits<unsigned int,ThreadInfo *,std::less<unsigned int>,std::allocator<std::pair<unsigned int const ,ThreadInfo *> >,0> >::_Tree_ptr<std::_Tmap_traits<unsigned int,ThreadInfo *,std::less<unsigned int>,std::allocator<std::pair<unsigned int const ,ThreadInfo *> >,0> >
; Function compile flags: /Ogtpy
_TEXT	ENDS
;	COMDAT ??0?$_Tree_ptr@V?$_Tmap_traits@IHU?$less@I@std@@V?$allocator@U?$pair@$$CBIH@std@@@2@$0A@@std@@@std@@IAE@ABU?$less@I@1@V?$allocator@U?$pair@$$CBIH@std@@@1@@Z
_TEXT	SEGMENT
__Al$ = 8						; size = 1
??0?$_Tree_ptr@V?$_Tmap_traits@IHU?$less@I@std@@V?$allocator@U?$pair@$$CBIH@std@@@2@$0A@@std@@@std@@IAE@ABU?$less@I@1@V?$allocator@U?$pair@$$CBIH@std@@@1@@Z PROC ; std::_Tree_ptr<std::_Tmap_traits<unsigned int,int,std::less<unsigned int>,std::allocator<std::pair<unsigned int const ,int> >,0> >::_Tree_ptr<std::_Tmap_traits<unsigned int,int,std::less<unsigned int>,std::allocator<std::pair<unsigned int const ,int> >,0> >, COMDAT
; _this$ = esi

; 78   : 		{	// construct base, and allocator from _Al

	push	4
	call	??2@YAPAXI@Z				; operator new
	add	esp, 4
	test	eax, eax
	je	SHORT $LN18@Tree_ptr@3
	mov	DWORD PTR [eax], esi
	mov	DWORD PTR [esi], eax

; 79   : 		}

	mov	eax, esi
	ret	4

; 78   : 		{	// construct base, and allocator from _Al

$LN18@Tree_ptr@3:
	xor	eax, eax
	mov	DWORD PTR [esi], eax

; 79   : 		}

	mov	eax, esi
	ret	4
??0?$_Tree_ptr@V?$_Tmap_traits@IHU?$less@I@std@@V?$allocator@U?$pair@$$CBIH@std@@@2@$0A@@std@@@std@@IAE@ABU?$less@I@1@V?$allocator@U?$pair@$$CBIH@std@@@1@@Z ENDP ; std::_Tree_ptr<std::_Tmap_traits<unsigned int,int,std::less<unsigned int>,std::allocator<std::pair<unsigned int const ,int> >,0> >::_Tree_ptr<std::_Tmap_traits<unsigned int,int,std::less<unsigned int>,std::allocator<std::pair<unsigned int const ,int> >,0> >
; Function compile flags: /Ogtpy
_TEXT	ENDS
;	COMDAT ??Fconst_iterator@?$_Tree@V?$_Tmap_traits@KPAVThreadInfo@@U?$less@K@std@@V?$allocator@U?$pair@$$CBKPAVThreadInfo@@@std@@@3@$0A@@std@@@std@@QAEAAV012@XZ
_TEXT	SEGMENT
??Fconst_iterator@?$_Tree@V?$_Tmap_traits@KPAVThreadInfo@@U?$less@K@std@@V?$allocator@U?$pair@$$CBKPAVThreadInfo@@@std@@@3@$0A@@std@@@std@@QAEAAV012@XZ PROC ; std::_Tree<std::_Tmap_traits<unsigned long,ThreadInfo *,std::less<unsigned long>,std::allocator<std::pair<unsigned long const ,ThreadInfo *> >,0> >::const_iterator::operator--, COMDAT
; _this$ = eax

; 286  : 			{	// predecrement

	push	esi
	mov	esi, eax

; 287  : 			_Dec();

	call	?_Dec@const_iterator@?$_Tree@V?$_Tmap_traits@KPAVThreadInfo@@U?$less@K@std@@V?$allocator@U?$pair@$$CBKPAVThreadInfo@@@std@@@3@$0A@@std@@@std@@QAEXXZ ; std::_Tree<std::_Tmap_traits<unsigned long,ThreadInfo *,std::less<unsigned long>,std::allocator<std::pair<unsigned long const ,ThreadInfo *> >,0> >::const_iterator::_Dec

; 288  : 			return (*this);

	mov	eax, esi
	pop	esi

; 289  : 			}

	ret	0
??Fconst_iterator@?$_Tree@V?$_Tmap_traits@KPAVThreadInfo@@U?$less@K@std@@V?$allocator@U?$pair@$$CBKPAVThreadInfo@@@std@@@3@$0A@@std@@@std@@QAEAAV012@XZ ENDP ; std::_Tree<std::_Tmap_traits<unsigned long,ThreadInfo *,std::less<unsigned long>,std::allocator<std::pair<unsigned long const ,ThreadInfo *> >,0> >::const_iterator::operator--
; Function compile flags: /Ogtpy
_TEXT	ENDS
;	COMDAT ??Dconst_iterator@?$_Tree@V?$_Tmap_traits@KPAVThreadInfo@@U?$less@K@std@@V?$allocator@U?$pair@$$CBKPAVThreadInfo@@@std@@@3@$0A@@std@@@std@@QBEABU?$pair@$$CBKPAVThreadInfo@@@2@XZ
_TEXT	SEGMENT
??Dconst_iterator@?$_Tree@V?$_Tmap_traits@KPAVThreadInfo@@U?$less@K@std@@V?$allocator@U?$pair@$$CBKPAVThreadInfo@@@std@@@3@$0A@@std@@@std@@QBEABU?$pair@$$CBKPAVThreadInfo@@@2@XZ PROC ; std::_Tree<std::_Tmap_traits<unsigned long,ThreadInfo *,std::less<unsigned long>,std::allocator<std::pair<unsigned long const ,ThreadInfo *> >,0> >::const_iterator::operator*, COMDAT
; _this$ = esi

; 250  : 
; 251  :  #if _HAS_ITERATOR_DEBUGGING
; 252  : 			if (this->_Mycont == 0
; 253  : 				|| _Ptr == 0
; 254  : 				|| _Ptr == ((_Myt *)this->_Mycont)->_Myhead)
; 255  : 				{
; 256  : 				_DEBUG_ERROR("map/set iterator not dereferencable");
; 257  : 				_SCL_SECURE_OUT_OF_RANGE;
; 258  : 				}
; 259  :  #else
; 260  : 			_SCL_SECURE_VALIDATE(this->_Has_container());

	mov	eax, DWORD PTR [esi]
	push	edi
	mov	edi, DWORD PTR __imp___invalid_parameter_noinfo
	test	eax, eax
	jne	SHORT $LN21@operator@18
	call	edi

; 261  : 			_SCL_SECURE_VALIDATE_RANGE(_Ptr != ((_Myt *)(this->_Getmycont()))->_Myhead);

	mov	eax, DWORD PTR [esi]
	test	eax, eax
	je	SHORT $LN15@operator@18
$LN21@operator@18:
	mov	eax, DWORD PTR [eax]
	jmp	SHORT $LN16@operator@18
$LN15@operator@18:
	xor	eax, eax
$LN16@operator@18:
	mov	ecx, DWORD PTR [esi+4]
	cmp	ecx, DWORD PTR [eax+24]
	jne	SHORT $LN3@operator@18
	call	edi
$LN3@operator@18:

; 262  :  #endif /* _HAS_ITERATOR_DEBUGGING */
; 263  : 
; 264  : 			return (_Myval(_Ptr));

	mov	eax, DWORD PTR [esi+4]
	add	eax, 12					; 0000000cH
	pop	edi

; 265  : 			}

	ret	0
??Dconst_iterator@?$_Tree@V?$_Tmap_traits@KPAVThreadInfo@@U?$less@K@std@@V?$allocator@U?$pair@$$CBKPAVThreadInfo@@@std@@@3@$0A@@std@@@std@@QBEABU?$pair@$$CBKPAVThreadInfo@@@2@XZ ENDP ; std::_Tree<std::_Tmap_traits<unsigned long,ThreadInfo *,std::less<unsigned long>,std::allocator<std::pair<unsigned long const ,ThreadInfo *> >,0> >::const_iterator::operator*
; Function compile flags: /Ogtpy
_TEXT	ENDS
;	COMDAT ??0const_iterator@?$_Tree@V?$_Tmap_traits@KPAVThreadInfo@@U?$less@K@std@@V?$allocator@U?$pair@$$CBKPAVThreadInfo@@@std@@@3@$0A@@std@@@std@@QAE@XZ
_TEXT	SEGMENT
??0const_iterator@?$_Tree@V?$_Tmap_traits@KPAVThreadInfo@@U?$less@K@std@@V?$allocator@U?$pair@$$CBKPAVThreadInfo@@@std@@@3@$0A@@std@@@std@@QAE@XZ PROC ; std::_Tree<std::_Tmap_traits<unsigned long,ThreadInfo *,std::less<unsigned long>,std::allocator<std::pair<unsigned long const ,ThreadInfo *> >,0> >::const_iterator::const_iterator, COMDAT
; _this$ = eax

; 217  : 			{	// construct with null node pointer

	mov	DWORD PTR [eax], 0
	mov	DWORD PTR [eax+4], 0

; 218  : 			}

	ret	0
??0const_iterator@?$_Tree@V?$_Tmap_traits@KPAVThreadInfo@@U?$less@K@std@@V?$allocator@U?$pair@$$CBKPAVThreadInfo@@@std@@@3@$0A@@std@@@std@@QAE@XZ ENDP ; std::_Tree<std::_Tmap_traits<unsigned long,ThreadInfo *,std::less<unsigned long>,std::allocator<std::pair<unsigned long const ,ThreadInfo *> >,0> >::const_iterator::const_iterator
; Function compile flags: /Ogtpy
_TEXT	ENDS
;	COMDAT ??Fconst_iterator@?$_Tree@V?$_Tmap_traits@IPAVThreadInfo@@U?$less@I@std@@V?$allocator@U?$pair@$$CBIPAVThreadInfo@@@std@@@3@$0A@@std@@@std@@QAEAAV012@XZ
_TEXT	SEGMENT
??Fconst_iterator@?$_Tree@V?$_Tmap_traits@IPAVThreadInfo@@U?$less@I@std@@V?$allocator@U?$pair@$$CBIPAVThreadInfo@@@std@@@3@$0A@@std@@@std@@QAEAAV012@XZ PROC ; std::_Tree<std::_Tmap_traits<unsigned int,ThreadInfo *,std::less<unsigned int>,std::allocator<std::pair<unsigned int const ,ThreadInfo *> >,0> >::const_iterator::operator--, COMDAT
; _this$ = eax

; 286  : 			{	// predecrement

	push	esi
	mov	esi, eax

; 287  : 			_Dec();

	call	?_Dec@const_iterator@?$_Tree@V?$_Tmap_traits@IPAVThreadInfo@@U?$less@I@std@@V?$allocator@U?$pair@$$CBIPAVThreadInfo@@@std@@@3@$0A@@std@@@std@@QAEXXZ ; std::_Tree<std::_Tmap_traits<unsigned int,ThreadInfo *,std::less<unsigned int>,std::allocator<std::pair<unsigned int const ,ThreadInfo *> >,0> >::const_iterator::_Dec

; 288  : 			return (*this);

	mov	eax, esi
	pop	esi

; 289  : 			}

	ret	0
??Fconst_iterator@?$_Tree@V?$_Tmap_traits@IPAVThreadInfo@@U?$less@I@std@@V?$allocator@U?$pair@$$CBIPAVThreadInfo@@@std@@@3@$0A@@std@@@std@@QAEAAV012@XZ ENDP ; std::_Tree<std::_Tmap_traits<unsigned int,ThreadInfo *,std::less<unsigned int>,std::allocator<std::pair<unsigned int const ,ThreadInfo *> >,0> >::const_iterator::operator--
; Function compile flags: /Ogtpy
_TEXT	ENDS
;	COMDAT ??Dconst_iterator@?$_Tree@V?$_Tmap_traits@IPAVThreadInfo@@U?$less@I@std@@V?$allocator@U?$pair@$$CBIPAVThreadInfo@@@std@@@3@$0A@@std@@@std@@QBEABU?$pair@$$CBIPAVThreadInfo@@@2@XZ
_TEXT	SEGMENT
